BL51 BANKED LINKER/LOCATER V6.22                                                        03/11/2019  10:41:19  PAGE 1


BL51 BANKED LINKER/LOCATER V6.22, INVOKED BY:
C:\KEIL\C51\BIN\BL51.EXE .\STARTUP.obj, .\main.obj, .\Proc_Data.obj, .\Proc_EXmem.obj, .\Proc_System_Check.obj, .\Proc_S
>> ystem_Initialize.obj, .\Proc_System_Interrupt.obj, .\Proc_System_Tou.obj, .\Drv_E2P_24CXXX.obj, .\Drv_E2P_i2cSoft.obj
>> , .\Drv_EMU_hard.obj, .\Lnk_EMU_Adj.obj, .\Lnk_EMU_handl.obj, .\Drv_ADC.obj, .\Drv_core.obj, .\Drv_GPIO.obj, .\Drv_KE
>> Y_IO.obj, .\Drv_LCD.obj, .\Drv_RTC.obj, .\Drv_TMR.obj, .\Drv_UART.obj, .\Lib_myMath.obj, .\Lib_mySpring.obj, .\Lib_my
>> Timer.obj, .\Api_AdjErr.obj, .\Api_Bill_Record.obj, .\Api_Demand.obj, .\Api_Energy.obj, .\Api_Event.obj, .\Api_LoadPr
>> ofile.obj, .\Api_Measure.obj, .\Api_Triff.obj, .\API_Relay.obj, .\Api_Lcd_Display.obj, .\Api_User_Comm.obj, .\IEC6205
>> 6_21.obj TO DI03B_9811A_V10 RAMSIZE (256) DISABLEWARNING (16) CODE (0X0000-0XFFFE) XDATA (0X0000-0X0F7E)


MEMORY MODEL: LARGE WITH FLOATING POINT ARITHMETIC


INPUT MODULES INCLUDED:
  .\STARTUP.obj (?C_STARTUP)
  .\main.obj (MAIN)
  .\Proc_Data.obj (PROC_DATA)
  .\Proc_EXmem.obj (PROC_EXMEM)
  .\Proc_System_Check.obj (PROC_SYSTEM_CHECK)
  .\Proc_System_Initialize.obj (PROC_SYSTEM_INITIALIZE)
  .\Proc_System_Interrupt.obj (PROC_SYSTEM_INTERRUPT)
  .\Proc_System_Tou.obj (PROC_SYSTEM_TOU)
  .\Drv_E2P_24CXXX.obj (DRV_E2P_24CXXX)
  .\Drv_E2P_i2cSoft.obj (DRV_E2P_I2CSOFT)
  .\Drv_EMU_hard.obj (DRV_EMU_HARD)
  .\Lnk_EMU_Adj.obj (LNK_EMU_ADJ)
  .\Lnk_EMU_handl.obj (LNK_EMU_HANDL)
  .\Drv_ADC.obj (DRV_ADC)
  .\Drv_core.obj (DRV_CORE)
  .\Drv_GPIO.obj (DRV_GPIO)
  .\Drv_KEY_IO.obj (DRV_KEY_IO)
  .\Drv_LCD.obj (DRV_LCD)
  .\Drv_RTC.obj (DRV_RTC)
  .\Drv_TMR.obj (DRV_TMR)
  .\Drv_UART.obj (DRV_UART)
  .\Lib_myMath.obj (LIB_MYMATH)
  .\Lib_mySpring.obj (LIB_MYSPRING)
  .\Lib_myTimer.obj (LIB_MYTIMER)
  .\Api_AdjErr.obj (API_ADJERR)
  .\Api_Bill_Record.obj (API_BILL_RECORD)
  .\Api_Demand.obj (API_DEMAND)
  .\Api_Energy.obj (API_ENERGY)
  .\Api_Event.obj (API_EVENT)
  .\Api_LoadProfile.obj (API_LOADPROFILE)
  .\Api_Measure.obj (API_MEASURE)
  .\Api_Triff.obj (API_TRIFF)
  .\API_Relay.obj (API_RELAY)
  .\Api_Lcd_Display.obj (API_LCD_DISPLAY)
  .\Api_User_Comm.obj (API_USER_COMM)
  .\IEC62056_21.obj (IEC62056_21)
  C:\KEIL\C51\LIB\C51FPL.LIB (?C?FPADD)
  C:\KEIL\C51\LIB\C51FPL.LIB (?C?FPMUL)
  C:\KEIL\C51\LIB\C51FPL.LIB (?C?FPDIV)
  C:\KEIL\C51\LIB\C51FPL.LIB (?C?FPCMP)
  C:\KEIL\C51\LIB\C51FPL.LIB (?C?FCAST)
  C:\KEIL\C51\LIB\C51FPL.LIB (?C?CASTF)
  C:\KEIL\C51\LIB\C51FPL.LIB (ATOF)
  C:\KEIL\C51\LIB\C51FPL.LIB (SQRT)
BL51 BANKED LINKER/LOCATER V6.22                                                      03/11/2019  10:41:19  PAGE 2


  C:\KEIL\C51\LIB\C51FPL.LIB (FLOOR)
  C:\KEIL\C51\LIB\C51FPL.LIB (?C?FPGETOPN)
  C:\KEIL\C51\LIB\C51FPL.LIB (?C?ATOF)
  C:\KEIL\C51\LIB\C51FPL.LIB (?C?FPNEG)
  C:\KEIL\C51\LIB\C51FPL.LIB (?C?FTNPWR)
  C:\KEIL\C51\LIB\C51L.LIB (?C_INIT)
  C:\KEIL\C51\LIB\C51L.LIB (?C?COPY)
  C:\KEIL\C51\LIB\C51L.LIB (?C?CLDPTR)
  C:\KEIL\C51\LIB\C51L.LIB (?C?CLDOPTR)
  C:\KEIL\C51\LIB\C51L.LIB (?C?CILDPTR)
  C:\KEIL\C51\LIB\C51L.LIB (?C?CSTPTR)
  C:\KEIL\C51\LIB\C51L.LIB (?C?CSTOPTR)
  C:\KEIL\C51\LIB\C51L.LIB (?C?IMUL)
  C:\KEIL\C51\LIB\C51L.LIB (?C?UIDIV)
  C:\KEIL\C51\LIB\C51L.LIB (?C?SIDIV)
  C:\KEIL\C51\LIB\C51L.LIB (?C?IILDX)
  C:\KEIL\C51\LIB\C51L.LIB (?C?ILDIX)
  C:\KEIL\C51\LIB\C51L.LIB (?C?ISTPTR)
  C:\KEIL\C51\LIB\C51L.LIB (?C?LMUL)
  C:\KEIL\C51\LIB\C51L.LIB (?C?ULDIV)
  C:\KEIL\C51\LIB\C51L.LIB (?C?SLDIV)
  C:\KEIL\C51\LIB\C51L.LIB (?C?LNOT)
  C:\KEIL\C51\LIB\C51L.LIB (?C?LNEG)
  C:\KEIL\C51\LIB\C51L.LIB (?C?SLCMP)
  C:\KEIL\C51\LIB\C51L.LIB (?C?ULCMP)
  C:\KEIL\C51\LIB\C51L.LIB (?C?ULSHR)
  C:\KEIL\C51\LIB\C51L.LIB (?C?LSHL)
  C:\KEIL\C51\LIB\C51L.LIB (?C?LLDPTR)
  C:\KEIL\C51\LIB\C51L.LIB (?C?LLDXDATA)
  C:\KEIL\C51\LIB\C51L.LIB (?C?LLDCODE)
  C:\KEIL\C51\LIB\C51L.LIB (?C?LLDCODE0)
  C:\KEIL\C51\LIB\C51L.LIB (?C?LSTXDATA)
  C:\KEIL\C51\LIB\C51L.LIB (?C?LSTKXDATA)
  C:\KEIL\C51\LIB\C51L.LIB (?C?OFFXADD)
  C:\KEIL\C51\LIB\C51L.LIB (?C?PLDIXDATA)
  C:\KEIL\C51\LIB\C51L.LIB (?C?PSTXDATA)
  C:\KEIL\C51\LIB\C51L.LIB (?C?PSTPTR)
  C:\KEIL\C51\LIB\C51L.LIB (?C?ICASE)
  C:\KEIL\C51\LIB\C51L.LIB (?C?LCASE)
  C:\KEIL\C51\LIB\C51L.LIB (?C?LIMUL)
  C:\KEIL\C51\LIB\C51L.LIB (ISSPACE)
  C:\KEIL\C51\LIB\C51L.LIB (?C?LLDIDATA)
  C:\KEIL\C51\LIB\C51L.LIB (?C?LLDPDATA)
  C:\KEIL\C51\LIB\C51L.LIB (?C?PSTIDATA)
  C:\KEIL\C51\LIB\C51L.LIB (?C?PSTPDATA)


LINK MAP OF MODULE:  DI03B_9811A_V10 (?C_STARTUP)


            TYPE    BASE      LENGTH    RELOCATION   SEGMENT NAME
            -----------------------------------------------------

            * * * * * * *   D A T A   M E M O R Y   * * * * * * *
            REG     0000H     0008H     ABSOLUTE     "REG BANK 0"
            DATA    0008H     0002H     UNIT         _DATA_GROUP_
                    000AH     0006H                  *** GAP ***
BL51 BANKED LINKER/LOCATER V6.22                                                      03/11/2019  10:41:19  PAGE 3


            REG     0010H     0008H     ABSOLUTE     "REG BANK 2"
                    0018H     0008H                  *** GAP ***
            BIT     0020H.0   0000H.5   UNIT         _BIT_GROUP_
            BIT     0020H.5   0000H.1   UNIT         ?BI?_SOFTADJUST_IB5_PROCESS?LNK_EMU_ADJ
                    0020H.6   0000H.2                *** GAP ***
            IDATA   0021H     0001H     UNIT         ?STACK

            * * * * * * *  X D A T A   M E M O R Y  * * * * * * *
            XDATA   0000H     0238H     UNIT         _XDATA_GROUP_
            XDATA   0238H     0102H     UNIT         ?XD?DRV_UART
            XDATA   033AH     009CH     UNIT         ?XD?_API_PWL_COVER_EVEN_CLASS_RECODE?API_EVENT
            XDATA   03D6H     008FH     UNIT         ?XD?API_DEMAND
            XDATA   0465H     0080H     UNIT         ?XD?API_BILL_RECORD
            XDATA   04E5H     007EH     UNIT         ?XD?API_ENERGY
            XDATA   0563H     004DH     UNIT         ?XD?API_USER_COMM
            XDATA   05B0H     0044H     UNIT         ?XD?LNK_EMU_ADJ
            XDATA   05F4H     003EH     UNIT         ?XD?API_LCD_DISPLAY
            XDATA   0632H     002FH     UNIT         ?XD?HARDWARE_ADJUSTDIV_SUB?LNK_EMU_ADJ
            XDATA   0661H     002EH     UNIT         ?XD?LIB_MYMATH
            XDATA   068FH     0026H     UNIT         ?XD?API_MEASURE
            XDATA   06B5H     001CH     UNIT         ?XD?LNK_GET_EMU_RACTIVE_CONST?LNK_EMU_HANDL
            XDATA   06D1H     0019H     UNIT         ?XD?PROC_SYSTEM_TOU
            XDATA   06EAH     0019H     UNIT         ?XD?API_LOADPROFILE
            XDATA   0703H     0018H     UNIT         ?XD?PROC_DATA
            XDATA   071BH     0015H     UNIT         ?XD?_LNK_GET_EMU_ACTIVEPOWER?LNK_EMU_HANDL
            XDATA   0730H     0014H     UNIT         ?XD?API_HANDL_SETTLE_WHEN_POWERUP?API_BILL_RECORD
            XDATA   0744H     0013H     UNIT         ?XD?_GET_ORIGINAL_POWER?LNK_EMU_ADJ
            XDATA   0757H     0013H     UNIT         ?XD?_GET_ORIGINAL_IRMS?LNK_EMU_ADJ
            XDATA   076AH     0011H     UNIT         ?XD?_LNK_GET_EMU_RACTIVEPOWER?LNK_EMU_HANDL
            XDATA   077BH     000CH     UNIT         ?XD?API_EVENT
            XDATA   0787H     000BH     UNIT         ?XD?LINK_GET_DIS_OBIS_NUM_BUFF?API_LCD_DISPLAY
            XDATA   0792H     000AH     UNIT         ?XD?_SETRTCNORMAL?DRV_RTC
            XDATA   079CH     000AH     UNIT         ?XD?_LIB_ASC_BCD?LIB_MYMATH
            XDATA   07A6H     000AH     UNIT         ?XD?_LIB_BCD_ASC?LIB_MYMATH
            XDATA   07B0H     0009H     UNIT         ?XD?_SOFTADJUST_IB_PROCESS?LNK_EMU_ADJ
            XDATA   07B9H     0009H     UNIT         ?XD?_SOFTADJUST_IB5_PROCESS?LNK_EMU_ADJ
            XDATA   07C2H     0009H     UNIT         ?XD?_SOFTADJUST_PHASE_PROCESS?LNK_EMU_ADJ
            XDATA   07CBH     0007H     UNIT         ?XD?_SETMETERCFGI?DRV_EMU_HARD
            XDATA   07D2H     0007H     UNIT         ?XD?_LIB_GET_DATA_0XFF_ASCLEN?LIB_MYSPRING
            XDATA   07D9H     0006H     UNIT         ?XD?_SETMETERCFGACKPM800K?DRV_EMU_HARD
            XDATA   07DFH     0005H     UNIT         ?XD?PROC_SYSTEM_CHECK
            XDATA   07E4H     0005H     UNIT         ?XD?_LIB_ENOB_GET?LIB_MYMATH
            XDATA   07E9H     0005H     UNIT         ?XD?_LIB_MATH_GET_BCC_CHK?LIB_MYMATH
            XDATA   07EEH     0004H     UNIT         ?XD?API_TRIFF
            XDATA   07F2H     0003H     UNIT         ?XD?LNK_EMU_HANDL
            XDATA   07F5H     0003H     UNIT         ?XD?_LIB_BCD_INC?LIB_MYMATH
            XDATA   07F8H     0003H     UNIT         ?XD?_LIB_BCD_ARRY_ADD1?LIB_MYMATH
            XDATA   07FBH     0003H     UNIT         ?XD?_LIB_MVHALFBYTE_R?LIB_MYSPRING
            XDATA   07FEH     0003H     UNIT         ?XD?_LIB_MVHALFBYTE_L?LIB_MYSPRING
            XDATA   0801H     0003H     UNIT         ?XD?API_RELAY
            XDATA   0804H     0001H     UNIT         ?XD?MAIN
            XDATA   0805H     0001H     UNIT         ?XD?API_ADJERR

            * * * * * * *   C O D E   M E M O R Y   * * * * * * *
            CODE    0000H     0003H     ABSOLUTE     
            CODE    0003H     0003H     ABSOLUTE     
            CODE    0006H     0005H     UNIT         ?PR?START_TIMER?DRV_TMR
BL51 BANKED LINKER/LOCATER V6.22                                                      03/11/2019  10:41:19  PAGE 4


            CODE    000BH     0003H     ABSOLUTE     
            CODE    000EH     0005H     UNIT         ?PR?STOP_TIMER?DRV_TMR
            CODE    0013H     0003H     ABSOLUTE     
            CODE    0016H     0005H     UNIT         ?PR?_GET_ERROR_ANSWER?IEC62056_21
            CODE    001BH     0003H     ABSOLUTE     
            CODE    001EH     000DH     UNIT         ?PR?API_EVEN_DETECT_L2REVERSE?API_EVENT
            CODE    002BH     0003H     ABSOLUTE     
            CODE    002EH     000DH     UNIT         ?PR?API_EVEN_DETECT_L1REVERSE?API_EVENT
            CODE    003BH     0003H     ABSOLUTE     
            CODE    003EH     0005H     UNIT         ?PR?_GET_ACK_ANSWER?IEC62056_21
            CODE    0043H     0003H     ABSOLUTE     
            CODE    0046H     0004H     UNIT         ?PR?INTERRUPT_INT0?PROC_SYSTEM_INTERRUPT
            CODE    004AH     0001H     UNIT         ?PR?PROC_CHECK_SYSTEM_PRE_CYCLE?PROC_SYSTEM_CHECK
            CODE    004BH     0003H     ABSOLUTE     
            CODE    004EH     0004H     UNIT         ?PR?INTERRUPT_INT1?PROC_SYSTEM_INTERRUPT
            CODE    0052H     0001H     UNIT         ?PR?PROC_AUTO_CLRMETER_PRE_SEC?PROC_SYSTEM_TOU
            CODE    0053H     0003H     ABSOLUTE     
            CODE    0056H     0358H     UNIT         ?PR?CAL_TEMPERATURE_DATA?DRV_ADC
            CODE    03AEH     0052H     UNIT         ?PR?_API_CHG_LCDDISPLAY_ADJ_ITEM?API_LCD_DISPLAY
            CODE    0400H     0001H     ABSOLUTE     
            CODE    0401H     01FFH     ABSOLUTE     
            CODE    0600H     0D11H     UNIT         ?PR?_IEC_CMD_READ_DEAL?API_USER_COMM
            CODE    1311H     0A0CH     UNIT         ?C?LIB_CODE
            CODE    1D1DH     08E2H     UNIT         ?PR?_IEC_CMD_WRITE_DEAL?API_USER_COMM
            CODE    25FFH     07F3H     UNIT         ?CO?API_USER_COMM
            CODE    2DF2H     07DDH     UNIT         ?PR?HARDWARE_ADJUSTDIV_SUB?LNK_EMU_ADJ
            CODE    35CFH     0609H     UNIT         ?PR?_LNK_SAVE_EVEN_CLASS1_RECODE?API_EVENT
            CODE    3BD8H     05BEH     UNIT         ?PR?LNK_GET_EMU_RACTIVE_CONST?LNK_EMU_HANDL
            CODE    4196H     0458H     UNIT         ?PR?_PROCESS_IEC62056_21?API_USER_COMM
            CODE    45EEH     0454H     UNIT         ?PR?LINK_GET_DIS_DATA_NUM_BUFF?API_LCD_DISPLAY
            CODE    4A42H     0418H     UNIT         ?PR?_API_PWL_COVER_EVEN_CLASS_RECODE?API_EVENT
            CODE    4E5AH     03E7H     UNIT         ?PR?_API_GET_ENERGY_LCD?API_LCD_DISPLAY
            CODE    5241H     0321H     UNIT         ?PR?LINK_GET_DIS_OBIS_NUM_BUFF?API_LCD_DISPLAY
            CODE    5562H     02DCH     UNIT         ?PR?_MEASURE_ELECTRIC_ERR_GAIN?LNK_EMU_ADJ
            CODE    583EH     0283H     UNIT         ?PR?_LOAD_REC?API_LOADPROFILE
            CODE    5AC1H     0279H     UNIT         ?PR?_INIT_EMU?LNK_EMU_HANDL
            CODE    5D3AH     026EH     UNIT         ?PR?_CALIBRATION_CURRENT?LNK_EMU_ADJ
            CODE    5FA8H     0269H     UNIT         ?PR?API_ACCUM_CURRENT_ENERGY_DATA_PRE_SECOND?API_ENERGY
            CODE    6211H     025EH     UNIT         ?PR?_LPREC_READ_BLOCK?API_LOADPROFILE
            CODE    646FH     0256H     UNIT         ?PR?API_UPDATA_MD_VAR_SLID_PER_MINUTE?API_DEMAND
            CODE    66C5H     0237H     UNIT         ?PR?CHECK_EMU_ADJPARAM?LNK_EMU_ADJ
            CODE    68FCH     0212H     UNIT         ?PR?API_INIT_CURRENT_ENERGY_DATA_RAM?API_ENERGY
            CODE    6B0EH     01FCH     UNIT         ?PR?LINK_GET_DIS_DRV_BUFF?API_LCD_DISPLAY
            CODE    6D0AH     01F5H     UNIT         ?PR?_LNK_GET_EMU_ACTIVEPOWER?LNK_EMU_HANDL
            CODE    6EFFH     01E1H     UNIT         ?PR?API_FREEZE_ENERGY_RAM_PRE_DAY?API_BILL_RECORD
            CODE    70E0H     01D8H     UNIT         ?PR?MEM_DB_CHECK?PROC_EXMEM
            CODE    72B8H     01D8H     UNIT         ?PR?_API_GET_BILL_RECORD_ADDR?API_BILL_RECORD
            CODE    7490H     01D5H     UNIT         ?PR?_SOFTADJUST_PHASE_PROCESS?LNK_EMU_ADJ
            CODE    7665H     01C2H     UNIT         ?PR?PROC_INITIALIZE_INRAM?PROC_SYSTEM_INITIALIZE
            CODE    7827H     01B5H     UNIT         ?PR?_API_CMP_SAVE_MD_DATA?API_DEMAND
            CODE    79DCH     01B3H     UNIT         ?PR?_TX_UART_FRIST?DRV_UART
            CODE    7B8FH     01AFH     UNIT         ?PR?_LNK_GET_EMU_RACTIVEPOWER?LNK_EMU_HANDL
            CODE    7D3EH     01A7H     UNIT         ?PR?_CALIBRATION_SMALL_SIGNAL?LNK_EMU_ADJ
            CODE    7EE5H     01A7H     UNIT         ?PR?LNK_CAL_EMU_CONSTSUM_PER_SECOND?LNK_EMU_HANDL
            CODE    808CH     01A2H     UNIT         ?PR?_API_GET_TRIFF_NO?API_TRIFF
            CODE    822EH     019DH     UNIT         ?PR?_CALCULATESCHZ?LNK_EMU_ADJ
            CODE    83CBH     0193H     UNIT         ?PR?_API_WRITE_BILL_DATA?API_BILL_RECORD
BL51 BANKED LINKER/LOCATER V6.22                                                      03/11/2019  10:41:19  PAGE 5


            CODE    855EH     018EH     UNIT         ?PR?API_HANDL_SETTLE_WHEN_POWERUP?API_BILL_RECORD
            CODE    86ECH     017DH     UNIT         ?PR?_SETRTCNORMAL?DRV_RTC
            CODE    8869H     017BH     UNIT         ?PR?_GET_IEC_COMM_VAR?API_USER_COMM
            CODE    89E4H     016CH     UNIT         ?PR?PROC_JUDGE_POWER_DOWN_PROCESS?PROC_SYSTEM_INITIALIZE
            CODE    8B50H     0169H     UNIT         ?PR?_GET_ORIGINAL_POWER?LNK_EMU_ADJ
            CODE    8CB9H     0169H     UNIT         ?PR?_GET_ORIGINAL_IRMS?LNK_EMU_ADJ
            CODE    8E22H     0168H     UNIT         ?PR?API_MEASURE_DEAL_PRE_SECOND?API_MEASURE
            CODE    8F8AH     0167H     UNIT         ?PR?_LNK_GET_EMU_VOLTAGE?LNK_EMU_HANDL
            CODE    90F1H     0163H     UNIT         ?PR?_API_LCDDISPLAY_ADJ_ITEM?API_LCD_DISPLAY
            CODE    9254H     014BH     UNIT         ?PR?_READMETERPARAACK?DRV_EMU_HARD
            CODE    939FH     0142H     UNIT         ?PR?INTERRUPT_EXINT2?PROC_SYSTEM_INTERRUPT
            CODE    94E1H     0138H     UNIT         ?C_INITSEG
            CODE    9619H     012FH     UNIT         ?PR?API_GET_SEASONTAB_NO?API_TRIFF
            CODE    9748H     012FH     UNIT         ?PR?_IEC_COMM_COMMAND_CMD_JUDGE?IEC62056_21
            CODE    9877H     012DH     UNIT         ?PR?_IEC_COMM_REQUEST_CMD_JUDGE?IEC62056_21
            CODE    99A4H     012CH     UNIT         ?PR?_MEM_DB_WRITE?PROC_EXMEM
            CODE    9AD0H     012BH     UNIT         ?PR?_LNK_GET_EMU_CURRENT?LNK_EMU_HANDL
            CODE    9BFBH     0129H     UNIT         ?PR?API_CLR_EVEN_BY_COMM?API_EVENT
            CODE    9D24H     0124H     UNIT         ?PR?_CALIBRATION_ANGULAR?LNK_EMU_ADJ
            CODE    9E48H     0115H     UNIT         ?PR?PROC_HANDL_TOU_1S?PROC_SYSTEM_TOU
            CODE    9F5DH     0111H     UNIT         ?PR?_SOFTADJUST_IB_PROCESS?LNK_EMU_ADJ
            CODE    A06EH     0110H     UNIT         ?PR?API_CLR_BILL_DATA?API_BILL_RECORD
            CODE    A17EH     0107H     UNIT         ?PR?_API_HANDL_COMM_PRE_10MS?API_USER_COMM
            CODE    A285H     0103H     UNIT         ?PR?_CALCULATEAC?LNK_EMU_ADJ
            CODE    A388H     0101H     UNIT         ?PR?_GET_DEFAULT_MEM_DATA?PROC_EXMEM
            CODE    A489H     00FEH     UNIT         ?PR?_GETTOTALTIME?API_EVENT
            CODE    A587H     00FDH     UNIT         ?PR?TIMEEVENTPROC?LNK_EMU_ADJ
            CODE    A684H     00F7H     UNIT         ?PR?_LINK_GET_DISTAB_VAR?API_LCD_DISPLAY
            CODE    A77BH     00F2H     UNIT         ?PR?_CALCULATESC?LNK_EMU_ADJ
            CODE    A86DH     00F2H     UNIT         ?PR?_GET_UART_RX_BUFF?DRV_UART
            CODE    A95FH     00F0H     UNIT         ?PR?_LIB_CHECK_RTC_DATA_FORM?LIB_MYMATH
            CODE    AA4FH     00F0H     UNIT         ?PR?_IEC_CMD_PASSWORD_DEAL?API_USER_COMM
            CODE    AB3FH     00F0H     UNIT         ?PR?_FLOOR?FLOOR
            CODE    AC2FH     00EFH     UNIT         ?PR?_MEM_TO_MEM?PROC_EXMEM
            CODE    AD1EH     00E6H     UNIT         ?PR??C?ATOF??C?ATOF
            CODE    AE04H     00E5H     UNIT         ?PR?_SET_MCUCLOCK?DRV_CORE
            CODE    AEE9H     00E0H     UNIT         ?PR?_WRITE_LCD?DRV_LCD
            CODE    AFC9H     00DEH     UNIT         ?PR?_HDL_UART_10MS_RUN?DRV_UART
            CODE    B0A7H     00DCH     UNIT         ?PR?_LNK_GET_EMU_FREQ?LNK_EMU_HANDL
            CODE    B183H     00D9H     UNIT         ?PR?_LNK_TX_COMM_READY?API_USER_COMM
            CODE    B25CH     00D7H     UNIT         ?PR?API_CLR_CURRENT_MD_DATA?API_DEMAND
            CODE    B333H     00D6H     UNIT         ?PR?API_UPDATED_LCDDISPLAYITEM_PER_SECOND?API_LCD_DISPLAY
            CODE    B409H     00D4H     UNIT         ?PR?_SOFTADJUST_IB5_PROCESS?LNK_EMU_ADJ
            CODE    B4DDH     00D3H     UNIT         ?PR?API_UPDATED_LCDDISPLAYPIXEL_PER_SECOND?API_LCD_DISPLAY
            CODE    B5B0H     00CBH     UNIT         ?PR?_GET_IEC_COMM_OPERAND_ANSWER?IEC62056_21
            CODE    B67BH     00C9H     UNIT         ?PR?_LIB_BCD4_LONG?LIB_MYMATH
            CODE    B744H     00C7H     UNIT         ?PR?_GET_MEM_CK_DATA?PROC_EXMEM
            CODE    B80BH     00C6H     UNIT         ?PR?LINK_GET_DIS_CHAR_BUFF?API_LCD_DISPLAY
            CODE    B8D1H     00C4H     UNIT         ?PR?_CALIBRATION_POWER?LNK_EMU_ADJ
            CODE    B995H     00C3H     UNIT         ?PR?_API_DEAL_EVEN_CLASS_RECODE?API_EVENT
            CODE    BA58H     00C0H     UNIT         ?PR?_MEM_DB_CLR?PROC_EXMEM
            CODE    BB18H     00B9H     UNIT         ?CO?LNK_EMU_ADJ
            CODE    BBD1H     00B7H     UNIT         ?PR?_LIB_LONG_BCD4?LIB_MYMATH
            CODE    BC88H     00B4H     UNIT         ?PR?_READ_EEPROM_PAGE_SUB?DRV_E2P_24CXXX
            CODE    BD3CH     00B0H     UNIT         ?PR?_SET_EMUCLOCK?DRV_CORE
            CODE    BDECH     00AFH     UNIT         ?PR?MAIN?MAIN
            CODE    BE9BH     00AFH     UNIT         ?PR?PROC_CHECK_PROKEY_PRE_SEC?PROC_SYSTEM_CHECK
BL51 BANKED LINKER/LOCATER V6.22                                                      03/11/2019  10:41:19  PAGE 6


            CODE    BF4AH     00AFH     UNIT         ?PR?_SETMETERCFGI?DRV_EMU_HARD
            CODE    BFF9H     00AFH     UNIT         ?PR?API_CHECK_CURRENT_ENERGY_DATA?API_ENERGY
            CODE    C0A8H     00ADH     UNIT         ?PR?_LIB_REV_COPY_ARRY?LIB_MYSPRING
            CODE    C155H     00ACH     UNIT         ?PR?SQRT?SQRT
            CODE    C201H     00ABH     UNIT         ?PR?_WRITE_EEPROM_PAGE_SUB?DRV_E2P_24CXXX
            CODE    C2ACH     00ABH     UNIT         ?PR?_LPREC_READ_1?API_LOADPROFILE
            CODE    C357H     00A8H     UNIT         ?PR?_INIT_UART_SOFT?DRV_UART
            CODE    C3FFH     00A0H     UNIT         ?PR?_READ_EEPROM?DRV_E2P_24CXXX
            CODE    C49FH     00A0H     UNIT         ?PR?_API_GET_DAYTAB_NO?API_TRIFF
            CODE    C53FH     009EH     UNIT         ?PR?_MEM_FILL?PROC_EXMEM
            CODE    C5DDH     009EH     UNIT         ?PR?_SETMETERCFGACKPM800K?DRV_EMU_HARD
            CODE    C67BH     009EH     UNIT         ?PR?_SETMETERCFGACK?DRV_EMU_HARD
            CODE    C719H     009DH     UNIT         ?PR?_WRITE_EEPROM?DRV_E2P_24CXXX
            CODE    C7B6H     009DH     UNIT         ?PR?_E2P_TXBYTE_I2C?DRV_E2P_I2CSOFT
            CODE    C853H     009BH     UNIT         ?PR?_MEM_WRITE?PROC_EXMEM
            CODE    C8EEH     009AH     UNIT         ?PR?API_HANDL_SETTLE_PER_MINUTE?API_BILL_RECORD
            CODE    C988H     009AH     UNIT         ?CO?API_TRIFF
            CODE    CA22H     0097H     UNIT         ?PR?PROC_GET_CLOCK?PROC_SYSTEM_TOU
            CODE    CAB9H     0097H     UNIT         ?PR?_LIB_GETGMDAY?LIB_MYMATH
            CODE    CB50H     0096H     UNIT         ?PR?DRV_RELAY_POWERUP_CHECK?API_RELAY
            CODE    CBE6H     0094H     UNIT         ?PR?_MEM_READ?PROC_EXMEM
            CODE    CC7AH     0094H     UNIT         ?PR?LOADPRO_REC?API_LOADPROFILE
            CODE    CD0EH     0091H     UNIT         ?PR?_GET_MEM_TABLE_INDEX?PROC_EXMEM
            CODE    CD9FH     008EH     UNIT         ?PR?_E2P_RXBYTE_I2C?DRV_E2P_I2CSOFT
            CODE    CE2DH     008DH     UNIT         ?PR?_WRITE_EEPROM_PAGE?DRV_E2P_24CXXX
            CODE    CEBAH     008CH     UNIT         ?PR?INIT_GPIO_RUN?DRV_GPIO
            CODE    CF46H     0088H     UNIT         ?PR?_GET_IEC_COMM_REQUEST_CMD_ANSWER?IEC62056_21
            CODE    CFCEH     0086H     UNIT         ?C_C51STARTUP
            CODE    D054H     0085H     UNIT         ?PR?API_FREEZE_ENERGY_PRE_DAY?API_BILL_RECORD
            CODE    D0D9H     007BH     UNIT         ?PR?_READ_EEPROM_PAGE?DRV_E2P_24CXXX
            CODE    D154H     007AH     UNIT         ?PR?PROC_INITIALIZE_SYSTERM_NORMAL_MODE?PROC_SYSTEM_INITIALIZE
            CODE    D1CEH     0079H     UNIT         ?PR?_LIB_CMP_TWOARRY?LIB_MYSPRING
            CODE    D247H     0079H     UNIT         ?PR?_LIB_MVHALFBYTE_L?LIB_MYSPRING
            CODE    D2C0H     0078H     UNIT         ?PR?_LIB_BCD_ASC?LIB_MYMATH
            CODE    D338H     0077H     UNIT         ?PR?_LIB_WORD_BCD2?LIB_MYMATH
            CODE    D3AFH     0076H     UNIT         ?PR?SET_SLEEP_OUT?DRV_CORE
            CODE    D425H     0076H     UNIT         ?PR?_SET_UART2_BADU?DRV_UART
            CODE    D49BH     0076H     UNIT         ?PR?_SET_UART4_BADU?DRV_UART
            CODE    D511H     0076H     UNIT         ?PR?_LIB_GET_DATA_0XFF_ASCLEN?LIB_MYSPRING
            CODE    D587H     0074H     UNIT         ?PR?API_UPDATA_MD_VAR_MIN_PER_SECOND?API_DEMAND
            CODE    D5FBH     0074H     UNIT         ?PR?API_CLR_FREEZE_ENERGY?API_DEMAND
            CODE    D66FH     0073H     UNIT         ?PR?PROC_SYS_DATA_INIT?PROC_DATA
            CODE    D6E2H     0071H     UNIT         ?PR?_LIB_ASC_BCDA?LIB_MYMATH
            CODE    D753H     0071H     UNIT         ?PR?_LIB_BCD_ASCA?LIB_MYMATH
            CODE    D7C4H     006EH     UNIT         ?PR?_LIB_ASC_BCD?LIB_MYMATH
            CODE    D832H     006DH     UNIT         ?PR?INIT_LCD?DRV_LCD
            CODE    D89FH     006CH     UNIT         ?CO?PROC_EXMEM
            CODE    D90BH     006CH     UNIT         ?PR?INIT_LOADPRO_PARAM?API_LOADPROFILE
            CODE    D977H     006CH     UNIT         ?PR?_API_HANDL_COMM_FRAME_ERROR?API_USER_COMM
            CODE    D9E3H     006AH     UNIT         ?PR?API_CLR_CURRENT_ENERGY_DATA?API_ENERGY
            CODE    DA4DH     0069H     UNIT         ?PR?_SET_RTCTIME?DRV_RTC
            CODE    DAB6H     0069H     UNIT         ?PR?API_EVEN_EE_ERR?API_EVENT
            CODE    DB1FH     0068H     UNIT         ?PR?API_HANDL_BUTTON_PRE_10MS?PROC_SYSTEM_TOU
            CODE    DB87H     0068H     UNIT         ?PR?LNK_ADD_FAC_ENERGY_PLUSE?API_ENERGY
            CODE    DBEFH     0066H     UNIT         ?PR?INTERRUPT_EXINT3?PROC_SYSTEM_INTERRUPT
            CODE    DC55H     0066H     UNIT         ?CO?API_LCD_DISPLAY
            CODE    DCBBH     0064H     UNIT         ?PR?_IEC_COMM_ACKNOWLEDGEMENT_CMD_JUDGE?IEC62056_21
BL51 BANKED LINKER/LOCATER V6.22                                                      03/11/2019  10:41:19  PAGE 7


            CODE    DD1FH     0061H     UNIT         ?CO?PROC_DATA
            CODE    DD80H     005FH     UNIT         ?PR?_GET_RTCTIME?DRV_RTC
            CODE    DDDFH     005DH     UNIT         ?PR?_LIB_COPY_STR_TWOARRY?LIB_MYSPRING
            CODE    DE3CH     005DH     UNIT         ?PR?_LIB_MVHALFBYTE_R?LIB_MYSPRING
            CODE    DE99H     005CH     UNIT         ?PR?API_UPDATE_TRIFFNO_PRE_MINUTE?API_TRIFF
            CODE    DEF5H     005AH     UNIT         ?PR?INTERRUPT_TIMER0?PROC_SYSTEM_INTERRUPT
            CODE    DF4FH     0057H     UNIT         ?PR?INIT_GPIO_SLEEP?DRV_GPIO
            CODE    DFA6H     0055H     UNIT         ?PR?PROC_CHECK_COVER_PRE_SEC?PROC_SYSTEM_CHECK
            CODE    DFFBH     0055H     UNIT         ?PR?SET_MCUSLEEP?DRV_CORE
            CODE    E050H     0050H     UNIT         ?PR?PROC_HANDLE_WHEN_SYSTERM_RESET?PROC_SYSTEM_INITIALIZE
            CODE    E0A0H     004FH     UNIT         ?PR?UART4_TRANSMIT?DRV_UART
            CODE    E0EFH     004DH     UNIT         ?PR?PROC_DISPLAY_POWER_DOWN_PROCESS?PROC_SYSTEM_INITIALIZE
            CODE    E13CH     004CH     UNIT         ?PR?_LIB_BCD_INC?LIB_MYMATH
            CODE    E188H     004CH     UNIT         ?PR?_LIB_GETGMMIN?LIB_MYMATH
            CODE    E1D4H     004CH     UNIT         ?PR?_LIB_GETGMSEC?LIB_MYMATH
            CODE    E220H     004BH     UNIT         ?PR?LNK_UPDATA_MD_VAR_POWER_PER_SECOND?API_DEMAND
            CODE    E26BH     004AH     UNIT         ?PR?_LIB_GETGMHOUR?LIB_MYMATH
            CODE    E2B5H     0049H     UNIT         ?PR?EN_UART2_RX?DRV_UART
            CODE    E2FEH     0049H     UNIT         ?PR?ATOF?ATOF
            CODE    E347H     0048H     UNIT         ?PR?PROC_SLEEP_WHEN_RESET?PROC_SYSTEM_INITIALIZE
            CODE    E38FH     0047H     UNIT         ?PR?_DRV_RELAY_COMM_CMD_OPERATING?API_RELAY
            CODE    E3D6H     0047H     UNIT         ?PR?API_GET_NEXT_DIS_ITEM?API_LCD_DISPLAY
            CODE    E41DH     0044H     UNIT         ?C?LDIV
            CODE    E461H     0043H     UNIT         ?PR?EN_UART4_RX?DRV_UART
            CODE    E4A4H     0043H     UNIT         ?PR?_LIB_BCD_ARRY_ADD1?LIB_MYMATH
            CODE    E4E7H     0042H     UNIT         ?PR?LOADPRORST?API_LOADPROFILE
            CODE    E529H     0040H     UNIT         ?CO?DRV_ADC
            CODE    E569H     0040H     UNIT         ?PR?RF_COMM_DEAL?API_USER_COMM
            CODE    E5A9H     003EH     UNIT         ?PR?GET_EMU_ADJPARAM?LNK_EMU_ADJ
            CODE    E5E7H     003EH     UNIT         ?PR?API_HANDL_DIS_KEY?API_LCD_DISPLAY
            CODE    E625H     003DH     UNIT         ?PR?_GET_METER_ID_ASCLEN?API_USER_COMM
            CODE    E662H     003CH     UNIT         ?PR?_ENABLE_M_ADC?DRV_ADC
            CODE    E69EH     003CH     UNIT         ?PR?SAMLPE_BATADC?DRV_ADC
            CODE    E6DAH     003BH     UNIT         ?PR?E2P_STOP_I2C?DRV_E2P_I2CSOFT
            CODE    E715H     003BH     UNIT         ?PR?_SETEXTRTC?DRV_RTC
            CODE    E750H     003BH     UNIT         ?PR?_LIB_ATOB?LIB_MYMATH
            CODE    E78BH     003BH     UNIT         ?CO?API_EVENT
            CODE    E7C6H     003AH     UNIT         ?PR?_LIB_FCPYTMEM?LIB_MYSPRING
            CODE    E800H     003AH     UNIT         ?PR?API_INIT_MD_DATA_RAM?API_DEMAND
            CODE    E83AH     0039H     UNIT         ?PR?SAVE_EMU_ADJPARAM?LNK_EMU_ADJ
            CODE    E873H     0038H     UNIT         ?PR?_LIB_ENOB_GET?LIB_MYMATH
            CODE    E8ABH     0038H     UNIT         ?PR?_API_CHECK_DEMAND_PARA?API_DEMAND
            CODE    E8E3H     0038H     UNIT         ?PR?_GET_BCC_CHK?IEC62056_21
            CODE    E91BH     0037H     UNIT         ?PR?E2P_START_I2C?DRV_E2P_I2CSOFT
            CODE    E952H     0036H     UNIT         ?PR?API_MEASURE_VBAT_PRE_MIN?API_MEASURE
            CODE    E988H     0034H     UNIT         ?PR?API_INIT_DISPLAY?API_LCD_DISPLAY
            CODE    E9BCH     0032H     UNIT         ?PR?_LIB_MATH_GET_BCC_CHK?LIB_MYMATH
            CODE    E9EEH     0031H     UNIT         ?PR?PROC_INITIALIZE_SYSTERM_RESET?PROC_SYSTEM_INITIALIZE
            CODE    EA1FH     0031H     UNIT         ?PR?SAMLPE_TEMPERATUREADC?DRV_ADC
            CODE    EA50H     0031H     UNIT         ?PR?_LIB_GET_CSCK_INT16U_NUM?LIB_MYMATH
            CODE    EA81H     002EH     UNIT         ?PR?API_EVEN_DETECT_SEC?API_EVENT
            CODE    EAAFH     002DH     UNIT         ?PR?_IEC_CMD_BREAK_DEAL?API_USER_COMM
            CODE    EADCH     002CH     UNIT         ?PR?INTERRUPT_EXINT4?PROC_SYSTEM_INTERRUPT
            CODE    EB08H     002CH     UNIT         ?PR?DISABLE_M_ADC?DRV_ADC
            CODE    EB34H     002BH     UNIT         ?PR?_LIB_BTOA?LIB_MYMATH
            CODE    EB5FH     002BH     UNIT         ?PR?_LIB_SET_STRING?LIB_MYSPRING
            CODE    EB8AH     0029H     UNIT         ?PR?_LIB_SYSTEMDELAY?LIB_MYTIMER
BL51 BANKED LINKER/LOCATER V6.22                                                      03/11/2019  10:41:19  PAGE 8


            CODE    EBB3H     0028H     UNIT         ?PR?API_MEASURE_RAM_INIT?API_MEASURE
            CODE    EBDBH     0028H     UNIT         ?PR?API_HANDL_DIS_SLEEP?API_LCD_DISPLAY
            CODE    EC03H     0027H     UNIT         ?PR?CLOSE_CF?DRV_EMU_HARD
            CODE    EC2AH     0027H     UNIT         ?PR?_FULL_SEG?DRV_LCD
            CODE    EC51H     0027H     UNIT         ?PR?_LIB_GET_CSCK_INT8U_NUM?LIB_MYMATH
            CODE    EC78H     0027H     UNIT         ?PR?_LIB_BCDCHK?LIB_MYMATH
            CODE    EC9FH     0025H     UNIT         ?PR?PROC_HANDL_TOU_10MS?PROC_SYSTEM_TOU
            CODE    ECC4H     0025H     UNIT         ?PR?_LIB_BCD2_WORD?LIB_MYMATH
            CODE    ECE9H     0025H     UNIT         ?PR?_JUDAGE_MONTH?API_BILL_RECORD
            CODE    ED0EH     0022H     UNIT         ?PR?_LIB_DELAY_SEC?LIB_MYTIMER
            CODE    ED30H     0022H     UNIT         ?PR?LINK_GET_DIS_REALCHAR_BUFF?API_LCD_DISPLAY
            CODE    ED52H     0021H     UNIT         ?PR?_JUDAGE_YEAR?API_BILL_RECORD
            CODE    ED73H     0021H     UNIT         ?PR?API_EVEN_DETECT_NOL2?API_EVENT
            CODE    ED94H     0021H     UNIT         ?PR?API_EVEN_DETECT_NOL1?API_EVENT
            CODE    EDB5H     001EH     UNIT         ?PR?E2P_IIC_INITAIL?DRV_E2P_I2CSOFT
            CODE    EDD3H     001EH     UNIT         ?PR?_LIB_CLR_STRING_U16?LIB_MYSPRING
            CODE    EDF1H     001CH     UNIT         ?PR?CLR_ALL_LCD?DRV_LCD
            CODE    EE0DH     001CH     UNIT         ?PR?_LIB_BYTE_BCD?LIB_MYMATH
            CODE    EE29H     001BH     UNIT         ?PR?CLR_RTC_ADJPARAM?DRV_RTC
            CODE    EE44H     001BH     UNIT         ?PR?_LIB_BCD_BYTE?LIB_MYMATH
            CODE    EE5FH     001BH     UNIT         ?PR?_LIB_CLR_STRING?LIB_MYSPRING
            CODE    EE7AH     001AH     UNIT         ?PR?JUDGE_ERR_ADJ_KEY?DRV_KEY_IO
            CODE    EE94H     001AH     UNIT         ?PR?JUDGE_PG_DN_KEY?DRV_KEY_IO
            CODE    EEAEH     001AH     UNIT         ?PR?JUDGE_MAGN_CHK_KEY?DRV_KEY_IO
            CODE    EEC8H     001AH     UNIT         ?PR?API_MEASURE_TEMPERATURE_PRE_MIN?API_MEASURE
            CODE    EEE2H     0019H     UNIT         ?PR?_LIB_DELAY_MS?LIB_MYTIMER
            CODE    EEFBH     0018H     UNIT         ?PR?CHECKPOWERUP?PROC_SYSTEM_CHECK
            CODE    EF13H     0018H     UNIT         ?PR?JUDGE_MD_CLEAR_KEY?DRV_KEY_IO
            CODE    EF2BH     0018H     UNIT         ?PR?JUDGE_ERR_COVER_KEY?DRV_KEY_IO
            CODE    EF43H     0017H     UNIT         ?PR?INTERRUPT_UART1?PROC_SYSTEM_INTERRUPT
            CODE    EF5AH     0016H     UNIT         ?PR?EN_UART2_TX?DRV_UART
            CODE    EF70H     0016H     UNIT         ?PR?EN_UART4_TX?DRV_UART
            CODE    EF86H     0016H     UNIT         ?PR?_LIB_CHECK_BITNUM?LIB_MYMATH
            CODE    EF9CH     0014H     UNIT         ?PR?PROC_INIT_CHECK_VAR?PROC_SYSTEM_CHECK
            CODE    EFB0H     0014H     UNIT         ?PR?OPENCF?DRV_EMU_HARD
            CODE    EFC4H     0014H     UNIT         ?PR?_ISSPACE?ISSPACE
            CODE    EFD8H     0013H     UNIT         ?PR?SYS_ERR?PROC_SYSTEM_INITIALIZE
            CODE    EFEBH     0013H     UNIT         ?PR?OPEN_SECOUT?DRV_RTC
            CODE    EFFEH     000FH     UNIT         ?PR?INIT_TIMER?DRV_TMR
            CODE    F00DH     000EH     UNIT         ?PR?LCD_ON?DRV_LCD
            CODE    F01BH     000DH     UNIT         ?PR?API_EVEN_DETECT_LOWBATTERY?API_EVENT
            CODE    F028H     000DH     UNIT         ?PR?SECURITYCK?API_USER_COMM
            CODE    F035H     000BH     UNIT         ?PR?INIT_RTC?DRV_RTC
            CODE    F040H     000BH     UNIT         ?PR?_LIB_DELAY_2US?LIB_MYTIMER
            CODE    F04BH     000AH     UNIT         ?PR?INITLIZE_AUTO_CLRMETER_VAR?PROC_SYSTEM_TOU
            CODE    F055H     000AH     UNIT         ?PR?_LIB_DELAY_NOP?LIB_MYTIMER
            CODE    F05FH     0008H     UNIT         ?PR?DIS_UART2_RX?DRV_UART
            CODE    F067H     0008H     UNIT         ?PR?DIS_UART4_RX?DRV_UART
            CODE    F06FH     0008H     UNIT         ?CO?API_BILL_RECORD
            CODE    F077H     0006H     UNIT         ?PR?_INIT_UART2_HARD?DRV_UART
            CODE    F07DH     0006H     UNIT         ?PR?_INIT_UART4_HARD?DRV_UART
            CODE    F083H     0004H     UNIT         ?PR?INTERRUPT_TIMER1?PROC_SYSTEM_INTERRUPT
            CODE    F087H     0004H     UNIT         ?PR?INTERRUPT_TIMER2?PROC_SYSTEM_INTERRUPT
            CODE    F08BH     0003H     UNIT         ?PR?PROC_INIT_TOU_VAR?PROC_SYSTEM_TOU
            CODE    F08EH     0003H     UNIT         ?PR?INIT_EMU_RAM?LNK_EMU_HANDL
            CODE    F091H     0003H     UNIT         ?PR?LCD_OFF?DRV_LCD
            CODE    F094H     0003H     UNIT         ?PR?LNK_ADD_RAC_ENERGY_PLUSE?API_ENERGY
BL51 BANKED LINKER/LOCATER V6.22                                                      03/11/2019  10:41:19  PAGE 9


            CODE    F097H     0003H     UNIT         ?PR?READLPRUNPA?API_LOADPROFILE
            CODE    F09AH     0002H     UNIT         ?PR?API_EVEN_INT?API_EVENT
            CODE    F09CH     0001H     UNIT         ?PR?CLOSE_EMUPWR?DRV_EMU_HARD
            CODE    F09DH     0001H     UNIT         ?PR?HANDL_RTC_ADJ_PER_MINU?DRV_RTC
            CODE    F09EH     0001H     UNIT         ?PR?DRV_RELAY_RUN_CHECK?API_RELAY
            CODE    F09FH     0001H     UNIT         ?PR?API_UPDATED_LED_PER_SECOND?API_LCD_DISPLAY



OVERLAY MAP OF MODULE:   DI03B_9811A_V10 (?C_STARTUP)


SEGMENT                                             BIT_GROUP          DATA_GROUP          XDATA_GROUP
  +--> CALLED SEGMENT                            START    LENGTH     START    LENGTH     START    LENGTH
--------------------------------------------------------------------------------------------------------
?C_C51STARTUP                                    -----    -----      -----    -----      -----    -----
  +--> ?PR?MAIN?MAIN
  +--> ?C_INITSEG

?PR?MAIN?MAIN                                    -----    -----      -----    -----      -----    -----
  +--> ?PR?PROC_INITIALIZE_SYSTERM_RESET?PRO...
  +--> ?PR?CHECKPOWERUP?PROC_SYSTEM_CHECK
  +--> ?PR?PROC_HANDL_TOU_10MS?PROC_SYSTEM_TOU
  +--> ?PR?PROC_JUDGE_POWER_DOWN_PROCESS?PRO...
  +--> ?PR?PROC_HANDL_TOU_1S?PROC_SYSTEM_TOU
  +--> ?PR?API_UPDATED_LCDDISPLAYITEM_PER_SE...
  +--> ?PR?API_CLR_CURRENT_MD_DATA?API_DEMAND
  +--> ?PR?_API_DEAL_EVEN_CLASS_RECODE?API_E...
  +--> ?PR?_FULL_SEG?DRV_LCD

?PR?PROC_INITIALIZE_SYSTERM_RESET?PRO...         -----    -----      -----    -----      -----    -----
  +--> ?PR?PROC_HANDLE_WHEN_SYSTERM_RESET?PR...
  +--> ?PR?CHECKPOWERUP?PROC_SYSTEM_CHECK
  +--> ?PR?_LIB_DELAY_MS?LIB_MYTIMER
  +--> ?PR?PROC_SLEEP_WHEN_RESET?PROC_SYSTEM...
  +--> ?PR?PROC_INITIALIZE_SYSTERM_NORMAL_MO...

?PR?PROC_HANDLE_WHEN_SYSTERM_RESET?PR...         -----    -----      -----    -----      -----    -----
  +--> ?PR?_SET_MCUCLOCK?DRV_CORE
  +--> ?PR?INIT_GPIO_SLEEP?DRV_GPIO
  +--> ?PR?E2P_IIC_INITAIL?DRV_E2P_I2CSOFT
  +--> ?PR?E2P_STOP_I2C?DRV_E2P_I2CSOFT

?PR?_SET_MCUCLOCK?DRV_CORE                       -----    -----      -----    -----      0007H    0005H
  +--> ?PR?SYS_ERR?PROC_SYSTEM_INITIALIZE

?PR?PROC_SLEEP_WHEN_RESET?PROC_SYSTEM...         -----    -----      -----    -----      0000H    0002H
  +--> ?PR?API_MEASURE_RAM_INIT?API_MEASURE
  +--> ?PR?API_INIT_CURRENT_ENERGY_DATA_RAM?...
  +--> ?PR?INIT_LCD?DRV_LCD
  +--> ?PR?API_HANDL_DIS_SLEEP?API_LCD_DISPLAY
  +--> ?PR?INIT_GPIO_SLEEP?DRV_GPIO
  +--> ?PR?_SETEXTRTC?DRV_RTC
  +--> ?PR?SET_MCUSLEEP?DRV_CORE
  +--> ?PR?SYS_ERR?PROC_SYSTEM_INITIALIZE

?PR?API_MEASURE_RAM_INIT?API_MEASURE             -----    -----      -----    -----      -----    -----
BL51 BANKED LINKER/LOCATER V6.22                                                      03/11/2019  10:41:19  PAGE 10


  +--> ?PR?_LIB_SET_STRING?LIB_MYSPRING

?PR?_LIB_SET_STRING?LIB_MYSPRING                 -----    -----      -----    -----      0179H    0006H

?PR?API_INIT_CURRENT_ENERGY_DATA_RAM?...         -----    -----      -----    -----      000DH    0010H
  +--> ?PR?_LIB_SET_STRING?LIB_MYSPRING
  +--> ?PR?API_CHECK_CURRENT_ENERGY_DATA?API...
  +--> ?PR?_MEM_READ?PROC_EXMEM
  +--> ?PR?_LIB_BCD_BYTE?LIB_MYMATH
  +--> ?PR?_JUDAGE_MONTH?API_BILL_RECORD
  +--> ?PR?_API_WRITE_BILL_DATA?API_BILL_RECORD
  +--> ?PR?API_CLR_CURRENT_MD_DATA?API_DEMAND

?PR?API_CHECK_CURRENT_ENERGY_DATA?API...         -----    -----      -----    -----      -----    -----
  +--> ?PR?_LIB_GET_CSCK_INT16U_NUM?LIB_MYMATH
  +--> ?PR?_MEM_READ?PROC_EXMEM
  +--> ?PR?_LIB_COPY_STR_TWOARRY?LIB_MYSPRING

?PR?_LIB_GET_CSCK_INT16U_NUM?LIB_MYMATH          -----    -----      -----    -----      01D3H    0007H

?PR?_MEM_READ?PROC_EXMEM                         -----    -----      -----    -----      01D3H    000BH
  +--> ?PR?_LIB_COPY_STR_TWOARRY?LIB_MYSPRING
  +--> ?PR?_READ_EEPROM?DRV_E2P_24CXXX
  +--> ?PR?SYS_ERR?PROC_SYSTEM_INITIALIZE

?PR?_LIB_COPY_STR_TWOARRY?LIB_MYSPRING           -----    -----      -----    -----      01DEH    0008H

?PR?_READ_EEPROM?DRV_E2P_24CXXX                  -----    -----      -----    -----      01DEH    0008H
  +--> ?PR?_READ_EEPROM_PAGE?DRV_E2P_24CXXX

?PR?_READ_EEPROM_PAGE?DRV_E2P_24CXXX             -----    -----      -----    -----      01E6H    0047H
  +--> ?PR?_READ_EEPROM_PAGE_SUB?DRV_E2P_24CXXX
  +--> ?PR?_LIB_CMP_TWOARRY?LIB_MYSPRING

?PR?_READ_EEPROM_PAGE_SUB?DRV_E2P_24CXXX         -----    -----      -----    -----      022DH    0009H
  +--> ?PR?E2P_STOP_I2C?DRV_E2P_I2CSOFT
  +--> ?PR?E2P_START_I2C?DRV_E2P_I2CSOFT
  +--> ?PR?_E2P_TXBYTE_I2C?DRV_E2P_I2CSOFT
  +--> ?PR?_E2P_RXBYTE_I2C?DRV_E2P_I2CSOFT

?PR?_E2P_TXBYTE_I2C?DRV_E2P_I2CSOFT              -----    -----      0008H    0001H      -----    -----
  +--> ?PR?E2P_STOP_I2C?DRV_E2P_I2CSOFT

?PR?_E2P_RXBYTE_I2C?DRV_E2P_I2CSOFT              -----    -----      0008H    0002H      -----    -----

?PR?_LIB_CMP_TWOARRY?LIB_MYSPRING                -----    -----      -----    -----      022DH    0007H

?PR?_JUDAGE_MONTH?API_BILL_RECORD                -----    -----      -----    -----      -----    -----
  +--> ?PR?_JUDAGE_YEAR?API_BILL_RECORD

?PR?_API_WRITE_BILL_DATA?API_BILL_RECORD         -----    -----      -----    -----      001DH    0073H
  +--> ?PR?_LIB_CLR_STRING?LIB_MYSPRING
  +--> ?CO?API_BILL_RECORD
  +--> ?PR?_MEM_READ?PROC_EXMEM
  +--> ?PR?_MEM_DB_WRITE?PROC_EXMEM
  +--> ?PR?_LIB_COPY_STR_TWOARRY?LIB_MYSPRING
  +--> ?PR?SYS_ERR?PROC_SYSTEM_INITIALIZE
BL51 BANKED LINKER/LOCATER V6.22                                                      03/11/2019  10:41:19  PAGE 11



?PR?_MEM_DB_WRITE?PROC_EXMEM                     -----    -----      -----    -----      0179H    0012H
  +--> ?PR?_GET_MEM_TABLE_INDEX?PROC_EXMEM
  +--> ?PR?SYS_ERR?PROC_SYSTEM_INITIALIZE
  +--> ?CO?PROC_EXMEM
  +--> ?PR?_MEM_WRITE?PROC_EXMEM
  +--> ?PR?_GET_MEM_CK_DATA?PROC_EXMEM

?PR?_GET_MEM_TABLE_INDEX?PROC_EXMEM              -----    -----      -----    -----      018BH    0004H
  +--> ?CO?PROC_EXMEM

?PR?_MEM_WRITE?PROC_EXMEM                        -----    -----      -----    -----      018BH    0008H
  +--> ?PR?_LIB_COPY_STR_TWOARRY?LIB_MYSPRING
  +--> ?PR?_WRITE_EEPROM?DRV_E2P_24CXXX
  +--> ?PR?SYS_ERR?PROC_SYSTEM_INITIALIZE

?PR?_WRITE_EEPROM?DRV_E2P_24CXXX                 -----    -----      -----    -----      0193H    0008H
  +--> ?PR?_WRITE_EEPROM_PAGE?DRV_E2P_24CXXX

?PR?_WRITE_EEPROM_PAGE?DRV_E2P_24CXXX            -----    -----      -----    -----      019BH    0047H
  +--> ?PR?SYS_ERR?PROC_SYSTEM_INITIALIZE
  +--> ?PR?_WRITE_EEPROM_PAGE_SUB?DRV_E2P_24...
  +--> ?PR?_READ_EEPROM_PAGE_SUB?DRV_E2P_24CXXX
  +--> ?PR?_LIB_CMP_TWOARRY?LIB_MYSPRING

?PR?_WRITE_EEPROM_PAGE_SUB?DRV_E2P_24...         -----    -----      -----    -----      01E2H    0009H
  +--> ?PR?E2P_STOP_I2C?DRV_E2P_I2CSOFT
  +--> ?PR?E2P_START_I2C?DRV_E2P_I2CSOFT
  +--> ?PR?_E2P_TXBYTE_I2C?DRV_E2P_I2CSOFT
  +--> ?PR?_LIB_DELAY_MS?LIB_MYTIMER

?PR?_GET_MEM_CK_DATA?PROC_EXMEM                  -----    -----      -----    -----      018BH    0048H
  +--> ?PR?_MEM_READ?PROC_EXMEM
  +--> ?PR?_LIB_GET_CSCK_INT16U_NUM?LIB_MYMATH

?PR?API_CLR_CURRENT_MD_DATA?API_DEMAND           -----    -----      -----    -----      0095H    0038H
  +--> ?PR?_MEM_READ?PROC_EXMEM
  +--> ?PR?_MEM_WRITE?PROC_EXMEM
  +--> ?PR?_LIB_CLR_STRING?LIB_MYSPRING
  +--> ?PR?_MEM_DB_WRITE?PROC_EXMEM
  +--> ?PR?_LIB_SET_STRING?LIB_MYSPRING

?PR?INIT_LCD?DRV_LCD                             -----    -----      -----    -----      -----    -----
  +--> ?PR?LCD_ON?DRV_LCD

?PR?API_HANDL_DIS_SLEEP?API_LCD_DISPLAY          -----    -----      -----    -----      -----    -----
  +--> ?PR?_MEM_READ?PROC_EXMEM
  +--> ?PR?API_UPDATED_LCDDISPLAYPIXEL_PER_S...

?PR?API_UPDATED_LCDDISPLAYPIXEL_PER_S...         -----    -----      -----    -----      -----    -----
  +--> ?PR?_LIB_SET_STRING?LIB_MYSPRING
  +--> ?PR?_API_LCDDISPLAY_ADJ_ITEM?API_LCD_...
  +--> ?PR?LINK_GET_DIS_DATA_NUM_BUFF?API_LC...
  +--> ?PR?LINK_GET_DIS_CHAR_BUFF?API_LCD_DI...
  +--> ?PR?LINK_GET_DIS_REALCHAR_BUFF?API_LC...
  +--> ?PR?LINK_GET_DIS_DRV_BUFF?API_LCD_DIS...
  +--> ?PR?_LINK_GET_DISTAB_VAR?API_LCD_DISPLAY
BL51 BANKED LINKER/LOCATER V6.22                                                      03/11/2019  10:41:19  PAGE 12


  +--> ?PR?_WRITE_LCD?DRV_LCD

?PR?_API_LCDDISPLAY_ADJ_ITEM?API_LCD_...         -----    -----      -----    -----      0007H    0007H
  +--> ?PR?_LIB_SET_STRING?LIB_MYSPRING
  +--> ?CO?API_LCD_DISPLAY
  +--> ?PR?_MEM_READ?PROC_EXMEM
  +--> ?PR?SYS_ERR?PROC_SYSTEM_INITIALIZE

?PR?LINK_GET_DIS_DATA_NUM_BUFF?API_LC...         -----    -----      -----    -----      0007H    001AH
  +--> ?PR?_GET_RTCTIME?DRV_RTC
  +--> ?CO?API_LCD_DISPLAY
  +--> ?PR?_MEM_READ?PROC_EXMEM
  +--> ?PR?_API_GET_ENERGY_LCD?API_LCD_DISPLAY
  +--> ?PR?_LIB_LONG_BCD4?LIB_MYMATH

?PR?_GET_RTCTIME?DRV_RTC                         -----    -----      -----    -----      0021H    0004H
  +--> ?PR?_LIB_DELAY_2US?LIB_MYTIMER

?PR?_API_GET_ENERGY_LCD?API_LCD_DISPLAY          -----    -----      -----    -----      00E8H    0015H
  +--> ?PR?_LIB_COPY_STR_TWOARRY?LIB_MYSPRING
  +--> ?PR?_LIB_LONG_BCD4?LIB_MYMATH
  +--> ?PR?_LIB_BYTE_BCD?LIB_MYMATH

?PR?_LIB_LONG_BCD4?LIB_MYMATH                    -----    -----      -----    -----      00FDH    0007H
  +--> ?PR?_LIB_WORD_BCD2?LIB_MYMATH

?PR?_LIB_WORD_BCD2?LIB_MYMATH                    -----    -----      -----    -----      0104H    0005H
  +--> ?PR?_LIB_BYTE_BCD?LIB_MYMATH

?PR?_LINK_GET_DISTAB_VAR?API_LCD_DISPLAY         -----    -----      -----    -----      -----    -----
  +--> ?CO?API_LCD_DISPLAY

?PR?_SETEXTRTC?DRV_RTC                           -----    -----      -----    -----      0007H    0002H
  +--> ?PR?_LIB_DELAY_2US?LIB_MYTIMER

?PR?SET_MCUSLEEP?DRV_CORE                        -----    -----      -----    -----      0007H    0001H
  +--> ?PR?SYS_ERR?PROC_SYSTEM_INITIALIZE
  +--> ?PR?_LIB_DELAY_2US?LIB_MYTIMER

?PR?PROC_INITIALIZE_SYSTERM_NORMAL_MO...         -----    -----      -----    -----      -----    -----
  +--> ?PR?_SET_MCUCLOCK?DRV_CORE
  +--> ?PR?INIT_GPIO_RUN?DRV_GPIO
  +--> ?PR?INIT_LCD?DRV_LCD
  +--> ?PR?_FULL_SEG?DRV_LCD
  +--> ?PR?PROC_INITIALIZE_INRAM?PROC_SYSTEM...
  +--> ?PR?INIT_TIMER?DRV_TMR
  +--> ?PR?_API_HANDL_COMM_FRAME_ERROR?API_U...
  +--> ?PR?INIT_RTC?DRV_RTC
  +--> ?PR?_INIT_EMU?LNK_EMU_HANDL
  +--> ?PR?CHECK_EMU_ADJPARAM?LNK_EMU_ADJ
  +--> ?PR?_LIB_SET_STRING?LIB_MYSPRING
  +--> ?PR?_API_DEAL_EVEN_CLASS_RECODE?API_E...

?PR?PROC_INITIALIZE_INRAM?PROC_SYSTEM...         -----    -----      -----    -----      0000H    000DH
  +--> ?PR?_MEM_READ?PROC_EXMEM
  +--> ?PR?API_FREEZE_ENERGY_PRE_DAY?API_BIL...
  +--> ?PR?_MEM_FILL?PROC_EXMEM
BL51 BANKED LINKER/LOCATER V6.22                                                      03/11/2019  10:41:19  PAGE 13


  +--> ?PR?_MEM_DB_CLR?PROC_EXMEM
  +--> ?PR?MEM_DB_CHECK?PROC_EXMEM
  +--> ?PR?PROC_SYS_DATA_INIT?PROC_DATA
  +--> ?PR?PROC_INIT_CHECK_VAR?PROC_SYSTEM_C...
  +--> ?PR?INIT_EMU_RAM?LNK_EMU_HANDL
  +--> ?PR?PROC_INIT_TOU_VAR?PROC_SYSTEM_TOU
  +--> ?PR?INIT_LOADPRO_PARAM?API_LOADPROFILE
  +--> ?PR?API_INIT_MD_DATA_RAM?API_DEMAND
  +--> ?PR?API_INIT_CURRENT_ENERGY_DATA_RAM?...
  +--> ?PR?API_MEASURE_RAM_INIT?API_MEASURE
  +--> ?PR?API_MEASURE_VBAT_PRE_MIN?API_MEASURE
  +--> ?PR?API_MEASURE_TEMPERATURE_PRE_MIN?A...
  +--> ?PR?API_UPDATE_TRIFFNO_PRE_MINUTE?API...
  +--> ?PR?_API_WRITE_BILL_DATA?API_BILL_RECORD
  +--> ?PR?API_CLR_CURRENT_MD_DATA?API_DEMAND
  +--> ?PR?API_INIT_DISPLAY?API_LCD_DISPLAY

?PR?API_FREEZE_ENERGY_PRE_DAY?API_BIL...         -----    -----      -----    -----      -----    -----
  +--> ?PR?_MEM_WRITE?PROC_EXMEM
  +--> ?PR?_API_WRITE_BILL_DATA?API_BILL_RECORD
  +--> ?PR?API_CLR_CURRENT_MD_DATA?API_DEMAND

?PR?_MEM_FILL?PROC_EXMEM                         -----    -----      -----    -----      007AH    0047H
  +--> ?PR?_LIB_SET_STRING?LIB_MYSPRING
  +--> ?PR?_MEM_WRITE?PROC_EXMEM

?PR?_MEM_DB_CLR?PROC_EXMEM                       -----    -----      -----    -----      0095H    0007H
  +--> ?CO?PROC_EXMEM
  +--> ?PR?_MEM_WRITE?PROC_EXMEM

?PR?MEM_DB_CHECK?PROC_EXMEM                      -----    -----      -----    -----      000DH    000DH
  +--> ?CO?PROC_EXMEM
  +--> ?PR?_GET_MEM_CK_DATA?PROC_EXMEM
  +--> ?PR?_MEM_READ?PROC_EXMEM
  +--> ?PR?_MEM_TO_MEM?PROC_EXMEM
  +--> ?PR?_GET_DEFAULT_MEM_DATA?PROC_EXMEM
  +--> ?PR?_MEM_WRITE?PROC_EXMEM
  +--> ?PR?SYS_ERR?PROC_SYSTEM_INITIALIZE

?PR?_MEM_TO_MEM?PROC_EXMEM                       -----    -----      -----    -----      001AH    0048H
  +--> ?PR?_MEM_READ?PROC_EXMEM
  +--> ?PR?_MEM_WRITE?PROC_EXMEM

?PR?_GET_DEFAULT_MEM_DATA?PROC_EXMEM             -----    -----      -----    -----      001AH    0004H
  +--> ?CO?PROC_EXMEM
  +--> ?CO?PROC_DATA
  +--> ?CO?API_LCD_DISPLAY
  +--> ?CO?LNK_EMU_ADJ
  +--> ?CO?API_TRIFF
  +--> ?PR?_MEM_WRITE?PROC_EXMEM
  +--> ?PR?_MEM_FILL?PROC_EXMEM

?PR?PROC_SYS_DATA_INIT?PROC_DATA                 -----    -----      -----    -----      -----    -----
  +--> ?PR?_MEM_READ?PROC_EXMEM

?PR?PROC_INIT_CHECK_VAR?PROC_SYSTEM_C...         -----    -----      -----    -----      -----    -----
  +--> ?PR?_LIB_SET_STRING?LIB_MYSPRING
BL51 BANKED LINKER/LOCATER V6.22                                                      03/11/2019  10:41:19  PAGE 14



?PR?INIT_EMU_RAM?LNK_EMU_HANDL                   -----    -----      -----    -----      -----    -----
  +--> ?PR?GET_EMU_ADJPARAM?LNK_EMU_ADJ

?PR?GET_EMU_ADJPARAM?LNK_EMU_ADJ                 -----    -----      -----    -----      -----    -----
  +--> ?PR?_LIB_GET_CSCK_INT16U_NUM?LIB_MYMATH
  +--> ?PR?_MEM_READ?PROC_EXMEM

?PR?PROC_INIT_TOU_VAR?PROC_SYSTEM_TOU            -----    -----      -----    -----      -----    -----
  +--> ?PR?PROC_GET_CLOCK?PROC_SYSTEM_TOU

?PR?PROC_GET_CLOCK?PROC_SYSTEM_TOU               -----    -----      -----    -----      000DH    0007H
  +--> ?PR?_GET_RTCTIME?DRV_RTC
  +--> ?PR?_LIB_CHECK_RTC_DATA_FORM?LIB_MYMATH
  +--> ?PR?_MEM_READ?PROC_EXMEM
  +--> ?PR?_MEM_DB_WRITE?PROC_EXMEM
  +--> ?PR?_SET_RTCTIME?DRV_RTC
  +--> ?PR?_LIB_COPY_STR_TWOARRY?LIB_MYSPRING

?PR?_LIB_CHECK_RTC_DATA_FORM?LIB_MYMATH          -----    -----      -----    -----      -----    -----
  +--> ?PR?_LIB_BCD_BYTE?LIB_MYMATH
  +--> ?PR?_LIB_BYTE_BCD?LIB_MYMATH

?PR?_SET_RTCTIME?DRV_RTC                         -----    -----      -----    -----      0095H    0003H
  +--> ?PR?_LIB_DELAY_2US?LIB_MYTIMER

?PR?INIT_LOADPRO_PARAM?API_LOADPROFILE           -----    -----      -----    -----      -----    -----
  +--> ?PR?_MEM_READ?PROC_EXMEM

?PR?API_INIT_MD_DATA_RAM?API_DEMAND              -----    -----      -----    -----      -----    -----
  +--> ?PR?_MEM_READ?PROC_EXMEM
  +--> ?PR?_API_CHECK_DEMAND_PARA?API_DEMAND
  +--> ?PR?_LIB_SET_STRING?LIB_MYSPRING

?PR?API_MEASURE_VBAT_PRE_MIN?API_MEASURE         -----    -----      -----    -----      -----    -----
  +--> ?PR?SAMLPE_BATADC?DRV_ADC

?PR?SAMLPE_BATADC?DRV_ADC                        -----    -----      -----    -----      -----    -----
  +--> ?PR?_ENABLE_M_ADC?DRV_ADC
  +--> ?PR?_LIB_DELAY_MS?LIB_MYTIMER
  +--> ?PR?_READMETERPARAACK?DRV_EMU_HARD

?PR?_ENABLE_M_ADC?DRV_ADC                        -----    -----      -----    -----      -----    -----
  +--> ?PR?_READMETERPARAACK?DRV_EMU_HARD
  +--> ?PR?_SETMETERCFGACK?DRV_EMU_HARD

?PR?_READMETERPARAACK?DRV_EMU_HARD               -----    -----      0008H    0001H      00C8H    0008H

?PR?_SETMETERCFGACK?DRV_EMU_HARD                 -----    -----      -----    -----      00C8H    0006H

?PR?API_MEASURE_TEMPERATURE_PRE_MIN?A...         -----    -----      -----    -----      -----    -----
  +--> ?PR?_ENABLE_M_ADC?DRV_ADC
  +--> ?PR?_LIB_DELAY_MS?LIB_MYTIMER
  +--> ?PR?SAMLPE_TEMPERATUREADC?DRV_ADC
  +--> ?PR?DISABLE_M_ADC?DRV_ADC

?PR?SAMLPE_TEMPERATUREADC?DRV_ADC                -----    -----      -----    -----      000DH    0004H
BL51 BANKED LINKER/LOCATER V6.22                                                      03/11/2019  10:41:19  PAGE 15


  +--> ?PR?_ENABLE_M_ADC?DRV_ADC
  +--> ?PR?_LIB_DELAY_MS?LIB_MYTIMER
  +--> ?PR?CAL_TEMPERATURE_DATA?DRV_ADC

?PR?CAL_TEMPERATURE_DATA?DRV_ADC                 -----    -----      -----    -----      0011H    0027H
  +--> ?PR?_LIB_FCPYTMEM?LIB_MYSPRING
  +--> ?PR?_LIB_GET_CSCK_INT8U_NUM?LIB_MYMATH
  +--> ?PR?_LIB_REV_COPY_ARRY?LIB_MYSPRING
  +--> ?PR?_READMETERPARAACK?DRV_EMU_HARD
  +--> ?CO?DRV_ADC
  +--> ?PR?SQRT?SQRT

?PR?_LIB_FCPYTMEM?LIB_MYSPRING                   -----    -----      -----    -----      0038H    0004H

?PR?_LIB_GET_CSCK_INT8U_NUM?LIB_MYMATH           -----    -----      -----    -----      0038H    0006H

?PR?_LIB_REV_COPY_ARRY?LIB_MYSPRING              -----    -----      -----    -----      0038H    0006H

?PR?SQRT?SQRT                                    -----    -----      -----    -----      0038H    0004H

?PR?DISABLE_M_ADC?DRV_ADC                        -----    -----      -----    -----      -----    -----
  +--> ?PR?_READMETERPARAACK?DRV_EMU_HARD
  +--> ?PR?_SETMETERCFGACK?DRV_EMU_HARD

?PR?API_UPDATE_TRIFFNO_PRE_MINUTE?API...         -----    -----      -----    -----      0095H    0001H
  +--> ?PR?API_GET_SEASONTAB_NO?API_TRIFF
  +--> ?PR?_API_GET_DAYTAB_NO?API_TRIFF
  +--> ?PR?_API_GET_TRIFF_NO?API_TRIFF

?PR?API_GET_SEASONTAB_NO?API_TRIFF               -----    -----      -----    -----      0096H    0018H
  +--> ?PR?_MEM_READ?PROC_EXMEM

?PR?_API_GET_DAYTAB_NO?API_TRIFF                 -----    -----      -----    -----      0096H    0008H
  +--> ?PR?_MEM_READ?PROC_EXMEM
  +--> ?PR?SYS_ERR?PROC_SYSTEM_INITIALIZE

?PR?_API_GET_TRIFF_NO?API_TRIFF                  -----    -----      -----    -----      0096H    001BH
  +--> ?PR?_MEM_READ?PROC_EXMEM
  +--> ?PR?_LIB_BCDCHK?LIB_MYMATH

?PR?API_INIT_DISPLAY?API_LCD_DISPLAY             -----    -----      -----    -----      -----    -----
  +--> ?PR?_MEM_READ?PROC_EXMEM

?PR?INIT_TIMER?DRV_TMR                           -----    -----      -----    -----      -----    -----
  +--> ?PR?START_TIMER?DRV_TMR

?PR?_API_HANDL_COMM_FRAME_ERROR?API_U...         -----    -----      -----    -----      0038H    0001H
  +--> ?PR?_LIB_CLR_STRING?LIB_MYSPRING
  +--> ?PR?_INIT_UART4_HARD?DRV_UART
  +--> ?PR?_INIT_UART_SOFT?DRV_UART
  +--> ?PR?_LIB_SET_STRING?LIB_MYSPRING

?PR?_INIT_UART4_HARD?DRV_UART                    -----    -----      -----    -----      -----    -----
  +--> ?PR?_SET_UART4_BADU?DRV_UART
  +--> ?PR?EN_UART4_RX?DRV_UART

?PR?_INIT_EMU?LNK_EMU_HANDL                      -----    -----      -----    -----      0000H    0001H
BL51 BANKED LINKER/LOCATER V6.22                                                      03/11/2019  10:41:19  PAGE 16


  +--> ?PR?_SETMETERCFGACK?DRV_EMU_HARD
  +--> ?PR?_SET_EMUCLOCK?DRV_CORE
  +--> ?PR?SYS_ERR?PROC_SYSTEM_INITIALIZE

?PR?_SET_EMUCLOCK?DRV_CORE                       -----    -----      -----    -----      0001H    0005H
  +--> ?PR?SYS_ERR?PROC_SYSTEM_INITIALIZE

?PR?CHECK_EMU_ADJPARAM?LNK_EMU_ADJ               -----    -----      -----    -----      00B3H    0015H
  +--> ?PR?GET_EMU_ADJPARAM?LNK_EMU_ADJ
  +--> ?PR?_MEM_READ?PROC_EXMEM
  +--> ?PR?_SETMETERCFGACK?DRV_EMU_HARD
  +--> ?CO?LNK_EMU_ADJ
  +--> ?PR?_READMETERPARAACK?DRV_EMU_HARD

?PR?_API_DEAL_EVEN_CLASS_RECODE?API_E...         -----    -----      -----    -----      0095H    0005H
  +--> ?CO?API_EVENT
  +--> ?PR?_LNK_SAVE_EVEN_CLASS1_RECODE?API_...

?PR?_LNK_SAVE_EVEN_CLASS1_RECODE?API_...         -----    -----      -----    -----      009AH    00DFH
  +--> ?PR?_MEM_READ?PROC_EXMEM
  +--> ?PR?_LIB_COPY_STR_TWOARRY?LIB_MYSPRING
  +--> ?PR?_LIB_GET_CSCK_INT16U_NUM?LIB_MYMATH
  +--> ?CO?API_EVENT
  +--> ?PR?_MEM_DB_WRITE?PROC_EXMEM
  +--> ?PR?_LIB_SET_STRING?LIB_MYSPRING
  +--> ?PR?_GETTOTALTIME?API_EVENT
  +--> ?PR?_MEM_WRITE?PROC_EXMEM

?PR?_GETTOTALTIME?API_EVENT                      -----    -----      -----    -----      0179H    000BH
  +--> ?PR?_LIB_GETGMSEC?LIB_MYMATH
  +--> ?PR?_LIB_COPY_STR_TWOARRY?LIB_MYSPRING

?PR?_LIB_GETGMSEC?LIB_MYMATH                     -----    -----      -----    -----      0184H    0003H
  +--> ?PR?_LIB_GETGMMIN?LIB_MYMATH
  +--> ?PR?_LIB_BCD_BYTE?LIB_MYMATH

?PR?_LIB_GETGMMIN?LIB_MYMATH                     -----    -----      -----    -----      0187H    0003H
  +--> ?PR?_LIB_GETGMHOUR?LIB_MYMATH
  +--> ?PR?_LIB_BCD_BYTE?LIB_MYMATH

?PR?_LIB_GETGMHOUR?LIB_MYMATH                    -----    -----      -----    -----      018AH    0003H
  +--> ?PR?_LIB_GETGMDAY?LIB_MYMATH
  +--> ?PR?_LIB_BCD_BYTE?LIB_MYMATH

?PR?_LIB_GETGMDAY?LIB_MYMATH                     -----    -----      -----    -----      018DH    0004H
  +--> ?PR?_LIB_BCD_BYTE?LIB_MYMATH

?PR?PROC_HANDL_TOU_10MS?PROC_SYSTEM_TOU          -----    -----      -----    -----      0000H    0001H
  +--> ?PR?_HDL_UART_10MS_RUN?DRV_UART
  +--> ?PR?_API_HANDL_COMM_PRE_10MS?API_USER...
  +--> ?PR?API_HANDL_BUTTON_PRE_10MS?PROC_SY...

?PR?_HDL_UART_10MS_RUN?DRV_UART                  -----    -----      -----    -----      -----    -----
  +--> ?PR?EN_UART4_RX?DRV_UART
  +--> ?PR?_INIT_UART_SOFT?DRV_UART

?PR?_API_HANDL_COMM_PRE_10MS?API_USER...         -----    -----      -----    -----      0001H    0001H
BL51 BANKED LINKER/LOCATER V6.22                                                      03/11/2019  10:41:19  PAGE 17


  +--> ?PR?_PROCESS_IEC62056_21?API_USER_COMM
  +--> ?PR?_API_HANDL_COMM_FRAME_ERROR?API_U...
  +--> ?PR?_LNK_TX_COMM_READY?API_USER_COMM
  +--> ?PR?API_CLR_CURRENT_ENERGY_DATA?API_E...
  +--> ?PR?API_CLR_CURRENT_MD_DATA?API_DEMAND
  +--> ?PR?API_CLR_BILL_DATA?API_BILL_RECORD
  +--> ?PR?LOADPRORST?API_LOADPROFILE
  +--> ?PR?API_CLR_EVEN_BY_COMM?API_EVENT
  +--> ?PR?API_CLR_FREEZE_ENERGY?API_DEMAND
  +--> ?PR?_API_CHG_LCDDISPLAY_ADJ_ITEM?API_...

?PR?_PROCESS_IEC62056_21?API_USER_COMM           -----    -----      -----    -----      0002H    0036H
  +--> ?PR?_GET_UART_RX_BUFF?DRV_UART
  +--> ?PR?_MEM_READ?PROC_EXMEM
  +--> ?PR?_GET_METER_ID_ASCLEN?API_USER_COMM
  +--> ?PR?_LIB_BCD_ASCA?LIB_MYMATH
  +--> ?PR?_IEC_COMM_REQUEST_CMD_JUDGE?IEC62...
  +--> ?PR?_GET_IEC_COMM_REQUEST_CMD_ANSWER?...
  +--> ?PR?_IEC_COMM_ACKNOWLEDGEMENT_CMD_JUD...
  +--> ?PR?_GET_IEC_COMM_OPERAND_ANSWER?IEC6...
  +--> ?PR?_IEC_COMM_COMMAND_CMD_JUDGE?IEC62...
  +--> ?PR?_GET_ERROR_ANSWER?IEC62056_21
  +--> ?PR?_API_HANDL_COMM_FRAME_ERROR?API_U...

?PR?_GET_UART_RX_BUFF?DRV_UART                   -----    -----      -----    -----      0038H    0004H
  +--> ?PR?DIS_UART4_RX?DRV_UART

?PR?_GET_METER_ID_ASCLEN?API_USER_COMM           -----    -----      -----    -----      00E8H    0003H

?PR?_LIB_BCD_ASCA?LIB_MYMATH                     -----    -----      -----    -----      01CBH    000AH
  +--> ?PR?_LIB_BTOA?LIB_MYMATH

?PR?_IEC_COMM_REQUEST_CMD_JUDGE?IEC62...         -----    -----      -----    -----      0038H    0008H

?PR?_GET_IEC_COMM_REQUEST_CMD_ANSWER?...         -----    -----      -----    -----      0038H    0007H

?PR?_GET_IEC_COMM_OPERAND_ANSWER?IEC6...         -----    -----      -----    -----      0038H    0007H
  +--> ?PR?_GET_BCC_CHK?IEC62056_21

?PR?_GET_BCC_CHK?IEC62056_21                     -----    -----      -----    -----      00E8H    0005H

?PR?_IEC_COMM_COMMAND_CMD_JUDGE?IEC62...         -----    -----      -----    -----      0038H    000DH
  +--> ?PR?_GET_BCC_CHK?IEC62056_21
  +--> ?PR?_IEC_CMD_PASSWORD_DEAL?API_USER_COMM
  +--> ?PR?_IEC_CMD_READ_DEAL?API_USER_COMM
  +--> ?PR?_IEC_CMD_WRITE_DEAL?API_USER_COMM

?PR?_IEC_CMD_PASSWORD_DEAL?API_USER_COMM         -----    -----      -----    -----      0045H    000FH
  +--> ?PR?_MEM_READ?PROC_EXMEM
  +--> ?PR?_LIB_BCD_ASCA?LIB_MYMATH
  +--> ?PR?_LIB_CMP_TWOARRY?LIB_MYSPRING
  +--> ?PR?_GET_ACK_ANSWER?IEC62056_21
  +--> ?PR?_API_DEAL_EVEN_CLASS_RECODE?API_E...

?PR?_IEC_CMD_READ_DEAL?API_USER_COMM             -----    -----      -----    -----      0045H    00A3H
  +--> ?PR?_LIB_ASC_BCDA?LIB_MYMATH
  +--> ?PR?_GET_IEC_COMM_VAR?API_USER_COMM
BL51 BANKED LINKER/LOCATER V6.22                                                      03/11/2019  10:41:19  PAGE 18


  +--> ?PR?_LIB_SET_STRING?LIB_MYSPRING
  +--> ?PR?_LPREC_READ_1?API_LOADPROFILE
  +--> ?PR?_LPREC_READ_BLOCK?API_LOADPROFILE
  +--> ?PR?_GET_BCC_CHK?IEC62056_21
  +--> ?PR?_LIB_LONG_BCD4?LIB_MYMATH
  +--> ?PR?_LIB_WORD_BCD2?LIB_MYMATH
  +--> ?PR?_LIB_COPY_STR_TWOARRY?LIB_MYSPRING
  +--> ?PR?_MEM_READ?PROC_EXMEM
  +--> ?PR?_GET_METER_ID_ASCLEN?API_USER_COMM
  +--> ?PR?_API_GET_ENERGY_LCD?API_LCD_DISPLAY
  +--> ?PR?_LIB_BCD_ASCA?LIB_MYMATH
  +--> ?PR?_API_GET_BILL_RECORD_ADDR?API_BIL...
  +--> ?PR?_LIB_BTOA?LIB_MYMATH

?PR?_LIB_ASC_BCDA?LIB_MYMATH                     -----    -----      -----    -----      00E8H    000AH
  +--> ?PR?_LIB_ATOB?LIB_MYMATH

?PR?_GET_IEC_COMM_VAR?API_USER_COMM              -----    -----      -----    -----      00E8H    0006H
  +--> ?CO?API_USER_COMM

?CO?API_USER_COMM                                -----    -----      -----    -----      -----    -----
  +--> ?CO?PROC_DATA

?PR?_LPREC_READ_1?API_LOADPROFILE                -----    -----      -----    -----      00E8H    001AH
  +--> ?PR?_MEM_READ?PROC_EXMEM
  +--> ?PR?_LIB_BCD_ASCA?LIB_MYMATH

?PR?_LPREC_READ_BLOCK?API_LOADPROFILE            -----    -----      -----    -----      00E8H    00E3H
  +--> ?PR?_MEM_READ?PROC_EXMEM
  +--> ?PR?_LIB_BCD_ASCA?LIB_MYMATH

?PR?_API_GET_BILL_RECORD_ADDR?API_BIL...         -----    -----      -----    -----      00E8H    0006H
  +--> ?CO?API_BILL_RECORD
  +--> ?PR?_MEM_READ?PROC_EXMEM

?PR?_IEC_CMD_WRITE_DEAL?API_USER_COMM            -----    -----      -----    -----      0045H    0050H
  +--> ?PR?_LIB_ASC_BCDA?LIB_MYMATH
  +--> ?PR?_GET_IEC_COMM_VAR?API_USER_COMM
  +--> ?PR?SECURITYCK?API_USER_COMM
  +--> ?PR?_LIB_SET_STRING?LIB_MYSPRING
  +--> ?PR?_SET_RTCTIME?DRV_RTC
  +--> ?PR?_MEM_DB_WRITE?PROC_EXMEM
  +--> ?PR?_API_DEAL_EVEN_CLASS_RECODE?API_E...
  +--> ?PR?API_INIT_MD_DATA_RAM?API_DEMAND
  +--> ?PR?API_UPDATE_TRIFFNO_PRE_MINUTE?API...
  +--> ?PR?_MEASURE_ELECTRIC_ERR_GAIN?LNK_EM...
  +--> ?PR?SAVE_EMU_ADJPARAM?LNK_EMU_ADJ
  +--> ?PR?CHECK_EMU_ADJPARAM?LNK_EMU_ADJ
  +--> ?PR?API_CLR_EVEN_BY_COMM?API_EVENT
  +--> ?PR?API_CLR_CURRENT_MD_DATA?API_DEMAND
  +--> ?PR?LOADPRORST?API_LOADPROFILE
  +--> ?PR?_MEM_DB_CLR?PROC_EXMEM
  +--> ?PR?API_CLR_FREEZE_ENERGY?API_DEMAND
  +--> ?PR?_MEM_WRITE?PROC_EXMEM
  +--> ?PR?_MEM_READ?PROC_EXMEM
  +--> ?PR?_GET_ACK_ANSWER?IEC62056_21

BL51 BANKED LINKER/LOCATER V6.22                                                      03/11/2019  10:41:19  PAGE 19


?PR?SECURITYCK?API_USER_COMM                     -----    -----      -----    -----      0095H    0001H

?PR?_MEASURE_ELECTRIC_ERR_GAIN?LNK_EM...         -----    -----      -----    -----      0095H    001EH
  +--> ?PR?_LIB_ATOB?LIB_MYMATH
  +--> ?PR?_LIB_BCD4_LONG?LIB_MYMATH
  +--> ?PR?_LIB_COPY_STR_TWOARRY?LIB_MYSPRING
  +--> ?PR?ATOF?ATOF
  +--> ?PR?_CALIBRATION_POWER?LNK_EMU_ADJ
  +--> ?PR?_CALIBRATION_CURRENT?LNK_EMU_ADJ
  +--> ?PR?_CALIBRATION_ANGULAR?LNK_EMU_ADJ
  +--> ?PR?_CALIBRATION_SMALL_SIGNAL?LNK_EMU...
  +--> ?PR?SAVE_EMU_ADJPARAM?LNK_EMU_ADJ
  +--> ?PR?CHECK_EMU_ADJPARAM?LNK_EMU_ADJ

?PR?_LIB_BCD4_LONG?LIB_MYMATH                    -----    -----      -----    -----      00B3H    0003H
  +--> ?PR?_LIB_BCD_BYTE?LIB_MYMATH

?PR?ATOF?ATOF                                    -----    -----      -----    -----      00B3H    0003H
  +--> ?PR?_ISSPACE?ISSPACE
  +--> ?PR??C?ATOF??C?ATOF

?PR??C?ATOF??C?ATOF                              0020H.0  0000H.5    0008H    0002H      -----    -----

?PR?_CALIBRATION_POWER?LNK_EMU_ADJ               -----    -----      -----    -----      00B3H    000FH
  +--> ?PR?_READMETERPARAACK?DRV_EMU_HARD
  +--> ?PR?_CALCULATESC?LNK_EMU_ADJ
  +--> ?PR?_SETMETERCFGACK?DRV_EMU_HARD

?PR?_CALCULATESC?LNK_EMU_ADJ                     -----    -----      -----    -----      00C7H    001CH
  +--> ?PR?_FLOOR?FLOOR

?PR?_FLOOR?FLOOR                                 -----    -----      -----    -----      00E3H    0008H

?PR?_CALIBRATION_CURRENT?LNK_EMU_ADJ             -----    -----      -----    -----      00B3H    0014H
  +--> ?PR?_READMETERPARAACK?DRV_EMU_HARD
  +--> ?PR?_CALCULATESC?LNK_EMU_ADJ
  +--> ?PR?_SETMETERCFGACK?DRV_EMU_HARD

?PR?_CALIBRATION_ANGULAR?LNK_EMU_ADJ             -----    -----      -----    -----      00B3H    0015H
  +--> ?PR?_CALCULATEAC?LNK_EMU_ADJ
  +--> ?PR?_LIB_LONG_BCD4?LIB_MYMATH
  +--> ?PR?_SETMETERCFGACK?DRV_EMU_HARD

?PR?_CALCULATEAC?LNK_EMU_ADJ                     -----    -----      -----    -----      00C8H    000BH

?PR?_CALIBRATION_SMALL_SIGNAL?LNK_EMU...         -----    -----      -----    -----      00B3H    0011H
  +--> ?PR?_READMETERPARAACK?DRV_EMU_HARD
  +--> ?PR?_SETMETERCFGACK?DRV_EMU_HARD

?PR?SAVE_EMU_ADJPARAM?LNK_EMU_ADJ                -----    -----      -----    -----      -----    -----
  +--> ?PR?_LIB_GET_CSCK_INT16U_NUM?LIB_MYMATH
  +--> ?PR?_MEM_DB_WRITE?PROC_EXMEM

?PR?API_CLR_EVEN_BY_COMM?API_EVENT               -----    -----      -----    -----      0095H    00C1H
  +--> ?PR?_LIB_SET_STRING?LIB_MYSPRING
  +--> ?PR?_MEM_DB_WRITE?PROC_EXMEM
  +--> ?PR?_LIB_GET_CSCK_INT16U_NUM?LIB_MYMATH
BL51 BANKED LINKER/LOCATER V6.22                                                      03/11/2019  10:41:19  PAGE 20


  +--> ?CO?API_EVENT
  +--> ?PR?_MEM_WRITE?PROC_EXMEM

?PR?LOADPRORST?API_LOADPROFILE                   -----    -----      -----    -----      -----    -----
  +--> ?PR?_LIB_SET_STRING?LIB_MYSPRING
  +--> ?PR?_MEM_DB_WRITE?PROC_EXMEM

?PR?API_CLR_FREEZE_ENERGY?API_DEMAND             -----    -----      -----    -----      -----    -----
  +--> ?PR?_LIB_CLR_STRING?LIB_MYSPRING
  +--> ?PR?_MEM_WRITE?PROC_EXMEM

?PR?_LNK_TX_COMM_READY?API_USER_COMM             -----    -----      -----    -----      0002H    0004H
  +--> ?PR?_TX_UART_FRIST?DRV_UART

?PR?_TX_UART_FRIST?DRV_UART                      -----    -----      -----    -----      0006H    0008H
  +--> ?PR?_SET_UART4_BADU?DRV_UART
  +--> ?PR?DIS_UART4_RX?DRV_UART
  +--> ?PR?EN_UART4_TX?DRV_UART

?PR?API_CLR_CURRENT_ENERGY_DATA?API_E...         -----    -----      -----    -----      -----    -----
  +--> ?PR?_LIB_SET_STRING?LIB_MYSPRING
  +--> ?PR?_LIB_GET_CSCK_INT16U_NUM?LIB_MYMATH
  +--> ?PR?_LIB_COPY_STR_TWOARRY?LIB_MYSPRING
  +--> ?PR?_MEM_DB_WRITE?PROC_EXMEM

?PR?API_CLR_BILL_DATA?API_BILL_RECORD            -----    -----      -----    -----      0002H    0078H
  +--> ?PR?_LIB_CLR_STRING?LIB_MYSPRING
  +--> ?PR?_MEM_DB_WRITE?PROC_EXMEM
  +--> ?PR?_MEM_FILL?PROC_EXMEM

?PR?_API_CHG_LCDDISPLAY_ADJ_ITEM?API_...         -----    -----      -----    -----      -----    -----
  +--> ?PR?API_UPDATED_LCDDISPLAYPIXEL_PER_S...

?PR?API_HANDL_BUTTON_PRE_10MS?PROC_SY...         -----    -----      -----    -----      -----    -----
  +--> ?PR?JUDGE_PG_DN_KEY?DRV_KEY_IO
  +--> ?PR?JUDGE_MD_CLEAR_KEY?DRV_KEY_IO
  +--> ?PR?JUDGE_MAGN_CHK_KEY?DRV_KEY_IO

?PR?PROC_JUDGE_POWER_DOWN_PROCESS?PRO...         -----    -----      -----    -----      0000H    0007H
  +--> ?PR?CHECKPOWERUP?PROC_SYSTEM_CHECK
  +--> ?PR?API_ACCUM_CURRENT_ENERGY_DATA_PRE...
  +--> ?PR?_MEM_DB_WRITE?PROC_EXMEM
  +--> ?PR?_API_DEAL_EVEN_CLASS_RECODE?API_E...
  +--> ?PR?_MEM_READ?PROC_EXMEM
  +--> ?PR?API_CHECK_CURRENT_ENERGY_DATA?API...
  +--> ?PR?API_HANDL_DIS_SLEEP?API_LCD_DISPLAY
  +--> ?PR?INIT_GPIO_SLEEP?DRV_GPIO
  +--> ?PR?E2P_IIC_INITAIL?DRV_E2P_I2CSOFT
  +--> ?PR?E2P_STOP_I2C?DRV_E2P_I2CSOFT
  +--> ?PR?API_MEASURE_RAM_INIT?API_MEASURE
  +--> ?PR?_SETEXTRTC?DRV_RTC
  +--> ?PR?INIT_RTC?DRV_RTC
  +--> ?PR?SET_MCUSLEEP?DRV_CORE
  +--> ?PR?_SET_MCUCLOCK?DRV_CORE
  +--> ?PR?_GET_RTCTIME?DRV_RTC
  +--> ?PR?_LIB_COPY_STR_TWOARRY?LIB_MYSPRING
  +--> ?PR?INIT_GPIO_RUN?DRV_GPIO
BL51 BANKED LINKER/LOCATER V6.22                                                      03/11/2019  10:41:19  PAGE 21


  +--> ?PR?E2P_START_I2C?DRV_E2P_I2CSOFT
  +--> ?PR?_MEM_WRITE?PROC_EXMEM
  +--> ?PR?SYS_ERR?PROC_SYSTEM_INITIALIZE
  +--> ?PR?API_FREEZE_ENERGY_RAM_PRE_DAY?API...
  +--> ?PR?PROC_DISPLAY_POWER_DOWN_PROCESS?P...

?PR?API_ACCUM_CURRENT_ENERGY_DATA_PRE...         -----    -----      -----    -----      0007H    0002H
  +--> ?PR?API_CHECK_CURRENT_ENERGY_DATA?API...
  +--> ?PR?LNK_ADD_FAC_ENERGY_PLUSE?API_ENERGY
  +--> ?PR?_LIB_GET_CSCK_INT16U_NUM?LIB_MYMATH
  +--> ?PR?_LIB_COPY_STR_TWOARRY?LIB_MYSPRING
  +--> ?PR?_MEM_DB_WRITE?PROC_EXMEM

?PR?API_FREEZE_ENERGY_RAM_PRE_DAY?API...         -----    -----      -----    -----      0007H    0001H
  +--> ?PR?_MEM_READ?PROC_EXMEM
  +--> ?PR?_MEM_WRITE?PROC_EXMEM
  +--> ?PR?_LIB_GET_CSCK_INT16U_NUM?LIB_MYMATH

?PR?PROC_DISPLAY_POWER_DOWN_PROCESS?P...         -----    -----      -----    -----      -----    -----
  +--> ?PR?JUDGE_PG_DN_KEY?DRV_KEY_IO
  +--> ?PR?API_UPDATED_LCDDISPLAYPIXEL_PER_S...

?PR?PROC_HANDL_TOU_1S?PROC_SYSTEM_TOU            -----    -----      -----    -----      -----    -----
  +--> ?PR?PROC_GET_CLOCK?PROC_SYSTEM_TOU
  +--> ?PR?API_MEASURE_RAM_INIT?API_MEASURE
  +--> ?PR?API_MEASURE_DEAL_PRE_SECOND?API_M...
  +--> ?PR?API_ACCUM_CURRENT_ENERGY_DATA_PRE...
  +--> ?PR?API_EVEN_DETECT_SEC?API_EVENT
  +--> ?PR?API_UPDATA_MD_VAR_MIN_PER_SECOND?...
  +--> ?PR?PROC_CHECK_PROKEY_PRE_SEC?PROC_SY...
  +--> ?PR?API_UPDATED_LED_PER_SECOND?API_LC...
  +--> ?PR?API_MEASURE_VBAT_PRE_MIN?API_MEASURE
  +--> ?PR?API_UPDATED_LCDDISPLAYITEM_PER_SE...
  +--> ?PR?API_UPDATED_LCDDISPLAYPIXEL_PER_S...
  +--> ?PR?TIMEEVENTPROC?LNK_EMU_ADJ
  +--> ?PR?CHECK_EMU_ADJPARAM?LNK_EMU_ADJ
  +--> ?PR?API_UPDATA_MD_VAR_SLID_PER_MINUTE...
  +--> ?PR?API_FREEZE_ENERGY_RAM_PRE_DAY?API...
  +--> ?PR?API_FREEZE_ENERGY_PRE_DAY?API_BIL...
  +--> ?PR?API_HANDL_SETTLE_PER_MINUTE?API_B...
  +--> ?PR?LOADPRO_REC?API_LOADPROFILE
  +--> ?PR?API_UPDATE_TRIFFNO_PRE_MINUTE?API...
  +--> ?PR?HANDL_RTC_ADJ_PER_MINU?DRV_RTC
  +--> ?PR?API_MEASURE_TEMPERATURE_PRE_MIN?A...

?PR?API_MEASURE_DEAL_PRE_SECOND?API_M...         -----    -----      -----    -----      0000H    000CH
  +--> ?PR?LNK_CAL_EMU_CONSTSUM_PER_SECOND?L...
  +--> ?PR?_LNK_GET_EMU_VOLTAGE?LNK_EMU_HANDL
  +--> ?PR?_LNK_GET_EMU_CURRENT?LNK_EMU_HANDL
  +--> ?PR?_LNK_GET_EMU_FREQ?LNK_EMU_HANDL

?PR?LNK_CAL_EMU_CONSTSUM_PER_SECOND?L...         -----    -----      -----    -----      000CH    0010H
  +--> ?PR?_READMETERPARAACK?DRV_EMU_HARD
  +--> ?PR?_SETMETERCFGACK?DRV_EMU_HARD
  +--> ?CO?LNK_EMU_ADJ

?PR?_LNK_GET_EMU_VOLTAGE?LNK_EMU_HANDL           -----    -----      -----    -----      000CH    0011H
BL51 BANKED LINKER/LOCATER V6.22                                                      03/11/2019  10:41:19  PAGE 22


  +--> ?PR?_READMETERPARAACK?DRV_EMU_HARD
  +--> ?PR?_LIB_REV_COPY_ARRY?LIB_MYSPRING

?PR?_LNK_GET_EMU_CURRENT?LNK_EMU_HANDL           -----    -----      -----    -----      000CH    0011H
  +--> ?PR?_READMETERPARAACK?DRV_EMU_HARD

?PR?_LNK_GET_EMU_FREQ?LNK_EMU_HANDL              -----    -----      -----    -----      000CH    000DH
  +--> ?PR?_READMETERPARAACK?DRV_EMU_HARD
  +--> ?PR?_LIB_REV_COPY_ARRY?LIB_MYSPRING

?PR?API_EVEN_DETECT_SEC?API_EVENT                -----    -----      -----    -----      -----    -----
  +--> ?PR?CHECKPOWERUP?PROC_SYSTEM_CHECK
  +--> ?PR?API_EVEN_EE_ERR?API_EVENT
  +--> ?PR?API_EVEN_DETECT_LOWBATTERY?API_EVENT
  +--> ?PR?_API_DEAL_EVEN_CLASS_RECODE?API_E...
  +--> ?PR?API_EVEN_DETECT_L1REVERSE?API_EVENT

?PR?API_EVEN_EE_ERR?API_EVENT                    -----    -----      -----    -----      -----    -----
  +--> ?PR?_MEM_READ?PROC_EXMEM
  +--> ?PR?_API_DEAL_EVEN_CLASS_RECODE?API_E...

?PR?API_UPDATA_MD_VAR_MIN_PER_SECOND?...         -----    -----      -----    -----      0000H    0001H
  +--> ?PR?LNK_UPDATA_MD_VAR_POWER_PER_SECON...

?PR?LNK_UPDATA_MD_VAR_POWER_PER_SECON...         -----    -----      -----    -----      0001H    0001H
  +--> ?PR?SYS_ERR?PROC_SYSTEM_INITIALIZE

?PR?PROC_CHECK_PROKEY_PRE_SEC?PROC_SY...         -----    -----      -----    -----      -----    -----
  +--> ?PR?JUDGE_ERR_ADJ_KEY?DRV_KEY_IO
  +--> ?PR?API_CLR_CURRENT_ENERGY_DATA?API_E...
  +--> ?PR?API_CLR_CURRENT_MD_DATA?API_DEMAND
  +--> ?PR?API_CLR_FREEZE_ENERGY?API_DEMAND
  +--> ?PR?API_CLR_BILL_DATA?API_BILL_RECORD
  +--> ?PR?LOADPRORST?API_LOADPROFILE
  +--> ?PR?API_CLR_EVEN_BY_COMM?API_EVENT
  +--> ?PR?_API_CHG_LCDDISPLAY_ADJ_ITEM?API_...

?PR?API_UPDATED_LCDDISPLAYITEM_PER_SE...         -----    -----      -----    -----      -----    -----
  +--> ?PR?API_GET_NEXT_DIS_ITEM?API_LCD_DIS...

?PR?TIMEEVENTPROC?LNK_EMU_ADJ                    -----    -----      -----    -----      0000H    0002H
  +--> ?PR?_READMETERPARAACK?DRV_EMU_HARD
  +--> ?PR?_CALCULATESCHZ?LNK_EMU_ADJ
  +--> ?PR?_SETMETERCFGACK?DRV_EMU_HARD

?PR?_CALCULATESCHZ?LNK_EMU_ADJ                   -----    -----      -----    -----      0002H    0018H

?PR?API_UPDATA_MD_VAR_SLID_PER_MINUTE...         -----    -----      -----    -----      0000H    0006H
  +--> ?PR?_API_CHECK_DEMAND_PARA?API_DEMAND
  +--> ?PR?_API_CMP_SAVE_MD_DATA?API_DEMAND

?PR?_API_CMP_SAVE_MD_DATA?API_DEMAND             -----    -----      -----    -----      0006H    0010H
  +--> ?PR?_MEM_READ?PROC_EXMEM
  +--> ?PR?_MEM_DB_WRITE?PROC_EXMEM
  +--> ?PR?_MEM_WRITE?PROC_EXMEM

?PR?API_HANDL_SETTLE_PER_MINUTE?API_B...         -----    -----      -----    -----      0000H    0006H
BL51 BANKED LINKER/LOCATER V6.22                                                      03/11/2019  10:41:19  PAGE 23


  +--> ?PR?_MEM_READ?PROC_EXMEM
  +--> ?PR?_LIB_BCD_BYTE?LIB_MYMATH
  +--> ?PR?_API_WRITE_BILL_DATA?API_BILL_RECORD
  +--> ?PR?API_CLR_CURRENT_MD_DATA?API_DEMAND

?PR?LOADPRO_REC?API_LOADPROFILE                  -----    -----      -----    -----      0000H    0006H
  +--> ?PR?_MEM_READ?PROC_EXMEM
  +--> ?PR?_LIB_BCD2_WORD?LIB_MYMATH
  +--> ?PR?_LIB_BCD_BYTE?LIB_MYMATH
  +--> ?PR?_LOAD_REC?API_LOADPROFILE

?PR?_LIB_BCD2_WORD?LIB_MYMATH                    -----    -----      -----    -----      -----    -----
  +--> ?PR?_LIB_BCD_BYTE?LIB_MYMATH

?PR?_LOAD_REC?API_LOADPROFILE                    -----    -----      -----    -----      0006H    001AH
  +--> ?PR?_LIB_SET_STRING?LIB_MYSPRING
  +--> ?PR?_LIB_COPY_STR_TWOARRY?LIB_MYSPRING
  +--> ?PR?_API_GET_ENERGY_LCD?API_LCD_DISPLAY
  +--> ?PR?_LIB_LONG_BCD4?LIB_MYMATH
  +--> ?PR?_MEM_READ?PROC_EXMEM
  +--> ?PR?_MEM_DB_WRITE?PROC_EXMEM
  +--> ?PR?_MEM_WRITE?PROC_EXMEM

?PR?HANDL_RTC_ADJ_PER_MINU?DRV_RTC               -----    -----      -----    -----      0000H    0012H

*** NEW ROOT ***************************************************

?PR?INTERRUPT_EXINT2?PROC_SYSTEM_INTE...         -----    -----      -----    -----      0236H    0002H
  +--> ?PR?EN_UART4_RX?DRV_UART
  +--> ?PR?_INIT_UART_SOFT?DRV_UART



UNRESOLVED EXTERNAL SYMBOLS:
   ?_WRITERACCOON?BYTE
   GS_RACCTRL
   G_LORACONFIG
   RX_MODE
   SX127X_INIT
   _LSD_RF_RXPACKET
   _READRACCOON
   _SX1276_TXPACKET
   _WRITERACCOON



SYMBOL TABLE OF MODULE:  DI03B_9811A_V10 (?C_STARTUP)

  VALUE           TYPE          NAME
  ----------------------------------

  -------         MODULE        ?C_STARTUP
  C:CFCEH         SEGMENT       ?C_C51STARTUP
  I:0021H         SEGMENT       ?STACK
  C:0000H         PUBLIC        ?C_STARTUP
  D:00E0H         SYMBOL        ACC
  D:00F0H         SYMBOL        B
BL51 BANKED LINKER/LOCATER V6.22                                                      03/11/2019  10:41:19  PAGE 24


  D:0083H         SYMBOL        DPH
  D:0082H         SYMBOL        DPL
  N:0000H         SYMBOL        IBPSTACK
  N:0100H         SYMBOL        IBPSTACKTOP
  N:0080H         SYMBOL        IDATALEN
  N:0000H         SYMBOL        PBPSTACK
  N:0000H         SYMBOL        PBPSTACKTOP
  N:0000H         SYMBOL        PDATALEN
  N:0000H         SYMBOL        PDATASTART
  N:0000H         SYMBOL        PPAGE
  N:0000H         SYMBOL        PPAGEENABLE
  D:00A0H         SYMBOL        PPAGE_SFR
  D:0081H         SYMBOL        SP
  C:CFCEH         SYMBOL        STARTUP1
  N:0000H         SYMBOL        XBPSTACK
  N:0000H         SYMBOL        XBPSTACKTOP
  N:0000H         SYMBOL        XDATALEN
  N:0000H         SYMBOL        XDATASTART
  C:0400H         LINE#         82
  C:0000H         LINE#         105
  C:CFCEH         LINE#         163
  C:CFD1H         LINE#         167
  -------         ENDMOD        ?C_STARTUP

  -------         MODULE        MAIN
  C:0000H         SYMBOL        _ICE_DUMMY_
  D:00CEH         PUBLIC        wdt0
  D:0090H         PUBLIC        P1
  D:00CFH         PUBLIC        wdt1
  D:00B0H         PUBLIC        P3
  B:00A8H.7       PUBLIC        EA
  D:00A8H         PUBLIC        IE
  D:00B8H         PUBLIC        IP
  C:BDECH         PUBLIC        main
  D:0098H         PUBLIC        SCON
  D:0088H         PUBLIC        TCON
  D:00F0H         PUBLIC        B
  D:00E0H         PUBLIC        ACC
  D:0080H         PUBLIC        SysCtrl
  D:00C8H         PUBLIC        T2CON
  X:0804H         PUBLIC        debug_tmp1
  D:00D0H         PUBLIC        PSW
  -------         PROC          MAIN
  C:BDECH         LINE#         30
  C:BDECH         LINE#         31
  C:BDECH         LINE#         33
  C:BDEDH         LINE#         34
  C:BDFBH         LINE#         35
  C:BDFDH         LINE#         36
  C:BE00H         LINE#         37
  C:BE02H         LINE#         38
  C:BE03H         LINE#         39
  C:BE03H         LINE#         40
  C:BE03H         LINE#         41
  C:BE11H         LINE#         42
  C:BE19H         LINE#         43
  C:BE19H         LINE#         44
BL51 BANKED LINKER/LOCATER V6.22                                                      03/11/2019  10:41:19  PAGE 25


  C:BE27H         LINE#         45
  C:BE2FH         LINE#         46
  C:BE2FH         LINE#         47
  C:BE32H         LINE#         48
  C:BE35H         LINE#         49
  C:BE35H         LINE#         51
  C:BE38H         LINE#         52
  C:BE40H         LINE#         53
  C:BE40H         LINE#         54
  C:BE43H         LINE#         55
  C:BE46H         LINE#         56
  C:BE46H         LINE#         57
  C:BE55H         LINE#         58
  C:BE55H         LINE#         59
  C:BE58H         LINE#         60
  C:BE58H         LINE#         61
  C:BE60H         LINE#         62
  C:BE60H         LINE#         63
  C:BE61H         LINE#         64
  C:BE64H         LINE#         65
  C:BE72H         LINE#         66
  C:BE79H         LINE#         67
  C:BE7EH         LINE#         68
  C:BE84H         LINE#         69
  C:BE84H         LINE#         71
  C:BE87H         LINE#         73
  C:BE95H         LINE#         74
  C:BE95H         LINE#         76
  C:BE98H         LINE#         77
  -------         ENDPROC       MAIN
  -------         ENDMOD        MAIN

  -------         MODULE        PROC_DATA
  C:0000H         SYMBOL        _ICE_DUMMY_
  D:0090H         PUBLIC        P1
  D:00B0H         PUBLIC        P3
  D:00A8H         PUBLIC        IE
  D:00B8H         PUBLIC        IP
  D:0098H         PUBLIC        SCON
  D:0088H         PUBLIC        TCON
  D:00F0H         PUBLIC        B
  D:00E0H         PUBLIC        ACC
  C:DD2EH         PUBLIC        default_meter_parm1_tab
  X:0703H         PUBLIC        gs_sys_run
  D:0080H         PUBLIC        SysCtrl
  D:00C8H         PUBLIC        T2CON
  C:D66FH         PUBLIC        Proc_sys_data_init
  C:DD1FH         PUBLIC        sys_parm
  D:00D0H         PUBLIC        PSW
  X:0705H         PUBLIC        gs_sys_globaL_var
  -------         PROC          PROC_SYS_DATA_INIT
  C:D66FH         LINE#         82
  C:D66FH         LINE#         83
  C:D66FH         LINE#         84
  C:D674H         LINE#         85
  C:D676H         LINE#         86
  C:D67CH         LINE#         87
BL51 BANKED LINKER/LOCATER V6.22                                                      03/11/2019  10:41:19  PAGE 26


  C:D681H         LINE#         88
  C:D698H         LINE#         89
  C:D6B0H         LINE#         90
  C:D6C8H         LINE#         92
  -------         ENDPROC       PROC_SYS_DATA_INIT
  -------         ENDMOD        PROC_DATA

  -------         MODULE        PROC_EXMEM
  C:0000H         SYMBOL        _ICE_DUMMY_
  D:00CEH         PUBLIC        wdt0
  D:0090H         PUBLIC        P1
  D:00CFH         PUBLIC        wdt1
  D:00B0H         PUBLIC        P3
  C:BA58H         PUBLIC        _mem_db_clr
  D:00A8H         PUBLIC        IE
  C:B756H         PUBLIC        _get_mem_ck_data
  D:00B8H         PUBLIC        IP
  C:AC52H         PUBLIC        _mem_to_mem
  C:A388H         PUBLIC        _get_default_mem_data
  C:CD0EH         PUBLIC        _get_mem_table_Index
  C:D89FH         PUBLIC        mem_table
  D:0098H         PUBLIC        SCON
  D:0088H         PUBLIC        TCON
  C:CBF1H         PUBLIC        _mem_read
  D:00F0H         PUBLIC        B
  D:00E0H         PUBLIC        ACC
  C:70E0H         PUBLIC        mem_db_check
  C:C53FH         PUBLIC        _mem_fill
  C:C874H         PUBLIC        _mem_write
  D:0080H         PUBLIC        SysCtrl
  D:00C8H         PUBLIC        T2CON
  C:99A4H         PUBLIC        _mem_db_write
  D:00D0H         PUBLIC        PSW
  C:B74CH         SYMBOL        L?0090
  C:B74FH         SYMBOL        L?0091
  -------         PROC          L?0089
  -------         ENDPROC       L?0089
  C:B74CH         SYMBOL        L?0090
  C:B74FH         SYMBOL        L?0091
  -------         PROC          _GET_MEM_CK_DATA
  X:018BH         SYMBOL        src
  X:018DH         SYMBOL        lenth
  X:018FH         SYMBOL        memType
  -------         DO            
  X:0190H         SYMBOL        size
  X:0191H         SYMBOL        tmpBuf
  X:01D1H         SYMBOL        sum
  -------         ENDDO         
  C:B756H         LINE#         77
  C:B767H         LINE#         78
  C:B767H         LINE#         81
  C:B771H         LINE#         83
  C:B784H         LINE#         84
  C:B784H         LINE#         85
  C:B78FH         LINE#         86
  C:B78FH         LINE#         87
  C:B792H         LINE#         88
BL51 BANKED LINKER/LOCATER V6.22                                                      03/11/2019  10:41:19  PAGE 27


  C:B794H         LINE#         90
  C:B794H         LINE#         91
  C:B796H         LINE#         92
  C:B796H         LINE#         93
  C:B7BCH         LINE#         94
  C:B7DFH         LINE#         95
  C:B7F2H         LINE#         96
  C:B7FFH         LINE#         97
  C:B802H         LINE#         99
  C:B80AH         LINE#         100
  -------         ENDPROC       _GET_MEM_CK_DATA
  -------         PROC          _GET_MEM_TABLE_INDEX
  X:018BH         SYMBOL        adr
  D:0005H         SYMBOL        memType
  -------         DO            
  D:0007H         SYMBOL        i
  D:0001H         SYMBOL        len
  X:018DH         SYMBOL        blkAddr
  -------         ENDDO         
  C:CD0EH         LINE#         109
  C:CD16H         LINE#         110
  C:CD16H         LINE#         115
  C:CD18H         LINE#         116
  C:CD18H         LINE#         117
  C:CD2BH         LINE#         118
  C:CD2BH         LINE#         119
  C:CD30H         LINE#         120
  C:CD30H         LINE#         121
  C:CD33H         LINE#         122
  C:CD33H         LINE#         124
  C:CD33H         LINE#         125
  C:CD4FH         LINE#         126
  C:CD4FH         LINE#         127
  C:CD61H         LINE#         129
  C:CD92H         LINE#         130
  C:CD92H         LINE#         131
  C:CD93H         LINE#         132
  C:CD93H         LINE#         133
  C:CD93H         LINE#         134
  C:CD9CH         LINE#         135
  C:CD9EH         LINE#         136
  -------         ENDPROC       _GET_MEM_TABLE_INDEX
  C:AC3EH         SYMBOL        L?0088
  -------         PROC          L?0087
  -------         ENDPROC       L?0087
  C:AC3EH         SYMBOL        L?0088
  -------         PROC          _MEM_TO_MEM
  X:001AH         SYMBOL        dst
  X:001CH         SYMBOL        src
  X:001EH         SYMBOL        lenth
  X:0020H         SYMBOL        mode
  -------         DO            
  X:0021H         SYMBOL        tmp_Buffer
  X:0061H         SYMBOL        size
  -------         ENDDO         
  C:AC52H         LINE#         142
  C:AC66H         LINE#         143
BL51 BANKED LINKER/LOCATER V6.22                                                      03/11/2019  10:41:19  PAGE 28


  C:AC66H         LINE#         147
  C:AC79H         LINE#         148
  C:AC79H         LINE#         149
  C:AC85H         LINE#         150
  C:AC85H         LINE#         151
  C:AC88H         LINE#         152
  C:AC8AH         LINE#         154
  C:AC8AH         LINE#         155
  C:AC8CH         LINE#         156
  C:AC8CH         LINE#         157
  C:ACB6H         LINE#         158
  C:ACC4H         LINE#         159
  C:ACECH         LINE#         160
  C:AD00H         LINE#         161
  C:AD0CH         LINE#         162
  C:AD1AH         LINE#         163
  C:AD1DH         LINE#         165
  -------         ENDPROC       _MEM_TO_MEM
  -------         PROC          _MEM_FILL
  X:007AH         SYMBOL        dst
  X:007CH         SYMBOL        lenth
  D:0007H         SYMBOL        xx
  X:007FH         SYMBOL        memType
  -------         DO            
  X:0080H         SYMBOL        tmp_Buffer
  X:00C0H         SYMBOL        size
  -------         ENDDO         
  C:C53FH         LINE#         171
  C:C54FH         LINE#         172
  C:C54FH         LINE#         176
  C:C563H         LINE#         178
  C:C573H         LINE#         179
  C:C573H         LINE#         180
  C:C57FH         LINE#         181
  C:C57FH         LINE#         182
  C:C582H         LINE#         183
  C:C584H         LINE#         185
  C:C584H         LINE#         186
  C:C586H         LINE#         187
  C:C586H         LINE#         188
  C:C5ACH         LINE#         189
  C:C5BAH         LINE#         190
  C:C5CDH         LINE#         191
  C:C5DAH         LINE#         192
  C:C5DCH         LINE#         193
  -------         ENDPROC       _MEM_FILL
  -------         PROC          L?0092
  -------         ENDPROC       L?0092
  -------         PROC          _MEM_READ
  X:01D3H         SYMBOL        dst
  X:01D6H         SYMBOL        src
  X:01D8H         SYMBOL        lenth
  X:01DAH         SYMBOL        memType
  -------         DO            
  X:01DBH         SYMBOL        ptr_adr
  -------         ENDDO         
  C:CBF1H         LINE#         198
BL51 BANKED LINKER/LOCATER V6.22                                                      03/11/2019  10:41:19  PAGE 29


  C:CC02H         LINE#         199
  C:CC02H         LINE#         202
  C:CC0DH         LINE#         203
  C:CC0DH         LINE#         204
  C:CC0DH         LINE#         205
  C:CC23H         LINE#         206
  C:CC55H         LINE#         208
  C:CC55H         LINE#         210
  C:CC55H         LINE#         211
  C:CC76H         LINE#         212
  C:CC76H         LINE#         214
  C:CC76H         LINE#         215
  C:CC79H         LINE#         216
  C:CC79H         LINE#         217
  C:CC79H         LINE#         218
  -------         ENDPROC       _MEM_READ
  C:C862H         SYMBOL        L?0085
  C:C869H         SYMBOL        L?0086
  -------         PROC          L?0084
  -------         ENDPROC       L?0084
  C:C862H         SYMBOL        L?0085
  C:C869H         SYMBOL        L?0086
  -------         PROC          _MEM_WRITE
  X:018BH         SYMBOL        dst
  X:018DH         SYMBOL        src
  X:0190H         SYMBOL        lenth
  X:0192H         SYMBOL        memType
  -------         DO            
  D:0001H         SYMBOL        ptr_adr
  -------         ENDDO         
  C:C874H         LINE#         223
  C:C885H         LINE#         224
  C:C885H         LINE#         227
  C:C890H         LINE#         228
  C:C890H         LINE#         229
  C:C890H         LINE#         230
  C:C89CH         LINE#         231
  C:C8C9H         LINE#         232
  C:C8C9H         LINE#         234
  C:C8C9H         LINE#         235
  C:C8EAH         LINE#         236
  C:C8EAH         LINE#         238
  C:C8EAH         LINE#         239
  C:C8EDH         LINE#         241
  C:C8EDH         LINE#         242
  C:C8EDH         LINE#         243
  -------         ENDPROC       _MEM_WRITE
  -------         PROC          _MEM_DB_WRITE
  X:0179H         SYMBOL        dst
  X:017BH         SYMBOL        src
  X:017EH         SYMBOL        len
  X:0180H         SYMBOL        memType
  -------         DO            
  X:0181H         SYMBOL        index
  X:0182H         SYMBOL        checkNum
  X:0184H         SYMBOL        adr_dst
  X:0186H         SYMBOL        adr_csck
BL51 BANKED LINKER/LOCATER V6.22                                                      03/11/2019  10:41:19  PAGE 30


  X:0188H         SYMBOL        lenth
  X:018AH         SYMBOL        id_No
  -------         ENDDO         
  C:99A4H         LINE#         259
  C:99B7H         LINE#         260
  C:99B7H         LINE#         269
  C:99C4H         LINE#         271
  C:99C9H         LINE#         272
  C:99C9H         LINE#         273
  C:99CCH         LINE#         274
  C:99CCH         LINE#         275
  C:99ECH         LINE#         276
  C:9A0CH         LINE#         277
  C:9A1EH         LINE#         278
  C:9A35H         LINE#         280
  C:9A5EH         LINE#         281
  C:9A74H         LINE#         282
  C:9A7EH         LINE#         283
  C:9A87H         LINE#         284
  C:9A87H         LINE#         285
  C:9AB8H         LINE#         286
  C:9ACFH         LINE#         287
  C:9ACFH         LINE#         289
  -------         ENDPROC       _MEM_DB_WRITE
  -------         PROC          _GET_DEFAULT_MEM_DATA
  D:0007H         SYMBOL        index
  -------         DO            
  X:001AH         SYMBOL        adrAry
  X:001CH         SYMBOL        lenth
  D:0006H         SYMBOL        i
  -------         ENDDO         
  C:A388H         LINE#         300
  C:A388H         LINE#         301
  C:A388H         LINE#         306
  C:A38AH         LINE#         307
  C:A38AH         LINE#         308
  C:A39DH         LINE#         309
  C:A3A2H         LINE#         311
  C:A3ABH         LINE#         314
  C:A3C7H         LINE#         315
  C:A3E6H         LINE#         317
  C:A3FDH         LINE#         318
  C:A3FDH         LINE#         319
  C:A3FDH         LINE#         320
  C:A40BH         LINE#         321
  C:A40DH         LINE#         323
  C:A40DH         LINE#         324
  C:A41BH         LINE#         325
  C:A41DH         LINE#         328
  C:A41DH         LINE#         329
  C:A42BH         LINE#         330
  C:A42DH         LINE#         337
  C:A42DH         LINE#         338
  C:A43BH         LINE#         339
  C:A43DH         LINE#         341
  C:A43DH         LINE#         342
  C:A44BH         LINE#         343
BL51 BANKED LINKER/LOCATER V6.22                                                      03/11/2019  10:41:19  PAGE 31


  C:A44DH         LINE#         345
  C:A44DH         LINE#         346
  C:A46FH         LINE#         347
  C:A46FH         LINE#         353
  C:A46FH         LINE#         354
  C:A488H         LINE#         355
  C:A488H         LINE#         356
  C:A488H         LINE#         357
  -------         ENDPROC       _GET_DEFAULT_MEM_DATA
  -------         PROC          MEM_DB_CHECK
  -------         DO            
  X:000DH         SYMBOL        i
  X:000EH         SYMBOL        checkNum0
  X:0010H         SYMBOL        checkNum1
  X:0012H         SYMBOL        adr_dst
  X:0014H         SYMBOL        adr_csck
  X:0016H         SYMBOL        lenth
  X:0018H         SYMBOL        staus
  X:0019H         SYMBOL        u8_No
  -------         ENDDO         
  C:70E0H         LINE#         372
  C:70E0H         LINE#         373
  C:70E0H         LINE#         383
  C:70F2H         LINE#         384
  C:70F2H         LINE#         385
  C:70F7H         LINE#         386
  C:7117H         LINE#         387
  C:7136H         LINE#         388
  C:714FH         LINE#         389
  C:7163H         LINE#         391
  C:7171H         LINE#         393
  C:7186H         LINE#         394
  C:7197H         LINE#         395
  C:71B2H         LINE#         397
  C:71BBH         LINE#         398
  C:71BBH         LINE#         400
  C:71D4H         LINE#         401
  C:71EBH         LINE#         402
  C:7206H         LINE#         403
  C:7206H         LINE#         409
  C:7214H         LINE#         410
  C:7228H         LINE#         411
  C:7228H         LINE#         412
  C:7228H         LINE#         414
  C:7228H         LINE#         416
  C:7228H         LINE#         417
  C:7231H         LINE#         418
  C:7231H         LINE#         419
  C:7243H         LINE#         420
  C:7246H         LINE#         422
  C:7246H         LINE#         423
  C:724EH         LINE#         424
  C:7251H         LINE#         425
  C:7254H         LINE#         426
  C:7254H         LINE#         427
  C:7254H         LINE#         428
  C:7257H         LINE#         430
BL51 BANKED LINKER/LOCATER V6.22                                                      03/11/2019  10:41:19  PAGE 32


  C:7257H         LINE#         431
  C:7260H         LINE#         432
  C:7260H         LINE#         433
  C:7263H         LINE#         434
  C:7263H         LINE#         435
  C:7263H         LINE#         437
  C:7265H         LINE#         439
  C:7265H         LINE#         440
  C:726DH         LINE#         441
  C:7270H         LINE#         442
  C:7273H         LINE#         443
  C:7281H         LINE#         444
  C:728AH         LINE#         445
  C:728AH         LINE#         446
  C:728DH         LINE#         447
  C:729BH         LINE#         448
  C:729BH         LINE#         449
  C:729DH         LINE#         451
  C:729DH         LINE#         452
  C:72A0H         LINE#         453
  C:72A0H         LINE#         454
  C:72A0H         LINE#         455
  C:72AEH         LINE#         457
  C:72B7H         LINE#         459
  -------         ENDPROC       MEM_DB_CHECK
  -------         PROC          _MEM_DB_CLR
  X:0095H         SYMBOL        type
  -------         DO            
  X:0096H         SYMBOL        i
  X:0097H         SYMBOL        checkNum0
  D:0004H         SYMBOL        adr_dst
  X:0099H         SYMBOL        adr_csck
  D:0006H         SYMBOL        lenth
  X:009BH         SYMBOL        u8_No
  -------         ENDDO         
  C:BA58H         LINE#         475
  C:BA5DH         LINE#         476
  C:BA5DH         LINE#         484
  C:BA6DH         LINE#         485
  C:BA6DH         LINE#         486
  C:BA83H         LINE#         487
  C:BA96H         LINE#         488
  C:BAA1H         LINE#         489
  C:BAB6H         LINE#         491
  C:BAC1H         LINE#         492
  C:BAC1H         LINE#         493
  C:BACFH         LINE#         495
  C:BAD6H         LINE#         496
  C:BAE7H         LINE#         498
  C:BAF0H         LINE#         499
  C:BAF0H         LINE#         501
  C:BAF7H         LINE#         502
  C:BB0EH         LINE#         503
  C:BB0EH         LINE#         504
  C:BB0EH         LINE#         506
  C:BB17H         LINE#         508
  -------         ENDPROC       _MEM_DB_CLR
BL51 BANKED LINKER/LOCATER V6.22                                                      03/11/2019  10:41:19  PAGE 33


  -------         ENDMOD        PROC_EXMEM

  -------         MODULE        PROC_SYSTEM_CHECK
  C:0000H         SYMBOL        _ICE_DUMMY_
  D:00CEH         PUBLIC        wdt0
  D:0090H         PUBLIC        P1
  D:00CFH         PUBLIC        wdt1
  D:00B0H         PUBLIC        P3
  D:00A8H         PUBLIC        IE
  C:EEFBH         PUBLIC        CheckPOWERUP
  D:00B8H         PUBLIC        IP
  C:EF9CH         PUBLIC        Proc_init_Check_var
  C:004AH         PUBLIC        Proc_Check_System_Pre_Cycle
  X:07DFH         PUBLIC        gs_sys_check_var
  D:0098H         PUBLIC        SCON
  D:0088H         PUBLIC        TCON
  C:BE9BH         PUBLIC        Proc_Check_PROKEY_Pre_sec
  D:00F0H         PUBLIC        B
  D:00E0H         PUBLIC        ACC
  D:0080H         PUBLIC        SysCtrl
  C:DFA6H         PUBLIC        Proc_Check_COVER_Pre_sec
  D:00C8H         PUBLIC        T2CON
  D:00A1H         PUBLIC        Systate
  D:00D0H         PUBLIC        PSW
  -------         PROC          PROC_CHECK_PROKEY_PRE_SEC
  C:BE9BH         LINE#         31
  C:BE9BH         LINE#         32
  C:BE9BH         LINE#         33
  C:BEA6H         LINE#         34
  C:BEA6H         LINE#         35
  C:BEB2H         LINE#         36
  C:BEB2H         LINE#         37
  C:BEB5H         LINE#         38
  C:BEBEH         LINE#         39
  C:BEBEH         LINE#         40
  C:BEC9H         LINE#         41
  C:BEC9H         LINE#         42
  C:BED1H         LINE#         43
  C:BED1H         LINE#         46
  C:BED4H         LINE#         47
  C:BEE2H         LINE#         48
  C:BEE5H         LINE#         49
  C:BEF3H         LINE#         50
  C:BEF6H         LINE#         51
  C:BF04H         LINE#         53
  C:BF07H         LINE#         55
  C:BF0AH         LINE#         56
  C:BF18H         LINE#         57
  C:BF1BH         LINE#         58
  C:BF29H         LINE#         59
  C:BF2EH         LINE#         60
  C:BF34H         LINE#         61
  C:BF34H         LINE#         62
  C:BF34H         LINE#         63
  C:BF34H         LINE#         64
  C:BF34H         LINE#         65
  C:BF35H         LINE#         67
BL51 BANKED LINKER/LOCATER V6.22                                                      03/11/2019  10:41:19  PAGE 34


  C:BF35H         LINE#         68
  C:BF41H         LINE#         69
  C:BF49H         LINE#         70
  C:BF49H         LINE#         71
  -------         ENDPROC       PROC_CHECK_PROKEY_PRE_SEC
  -------         PROC          PROC_CHECK_COVER_PRE_SEC
  C:DFA6H         LINE#         73
  C:DFA6H         LINE#         74
  C:DFA6H         LINE#         75
  C:DFAEH         LINE#         76
  C:DFAEH         LINE#         77
  C:DFB7H         LINE#         78
  C:DFB7H         LINE#         79
  C:DFBAH         LINE#         80
  C:DFC0H         LINE#         81
  C:DFC0H         LINE#         83
  C:DFC0H         LINE#         84
  C:DFC6H         LINE#         85
  C:DFC6H         LINE#         86
  C:DFCDH         LINE#         87
  C:DFD3H         LINE#         89
  C:DFD3H         LINE#         90
  C:DFD3H         LINE#         91
  C:DFD3H         LINE#         92
  C:DFD3H         LINE#         93
  C:DFD4H         LINE#         95
  C:DFD4H         LINE#         96
  C:DFE3H         LINE#         97
  C:DFE9H         LINE#         98
  C:DFE9H         LINE#         99
  C:DFEEH         LINE#         100
  C:DFEEH         LINE#         101
  C:DFF5H         LINE#         102
  C:DFFAH         LINE#         103
  C:DFFAH         LINE#         105
  C:DFFAH         LINE#         106
  C:DFFAH         LINE#         107
  -------         ENDPROC       PROC_CHECK_COVER_PRE_SEC
  -------         PROC          PROC_INIT_CHECK_VAR
  C:EF9CH         LINE#         121
  C:EF9CH         LINE#         122
  C:EF9CH         LINE#         123
  -------         ENDPROC       PROC_INIT_CHECK_VAR
  -------         PROC          PROC_CHECK_SYSTEM_PRE_CYCLE
  C:004AH         LINE#         135
  C:004AH         LINE#         136
  C:004AH         LINE#         140
  -------         ENDPROC       PROC_CHECK_SYSTEM_PRE_CYCLE
  -------         PROC          CHECKPOWERUP
  -------         DO            
  D:0007H         SYMBOL        i
  -------         ENDDO         
  C:EEFBH         LINE#         151
  C:EEFBH         LINE#         152
  C:EEFBH         LINE#         155
  C:EEFDH         LINE#         156
  C:EEFDH         LINE#         163
BL51 BANKED LINKER/LOCATER V6.22                                                      03/11/2019  10:41:19  PAGE 35


  C:EF02H         LINE#         166
  C:EF02H         LINE#         167
  C:EF07H         LINE#         168
  C:EF0DH         LINE#         169
  C:EF10H         LINE#         171
  C:EF12H         LINE#         173
  -------         ENDPROC       CHECKPOWERUP
  -------         ENDMOD        PROC_SYSTEM_CHECK

  -------         MODULE        PROC_SYSTEM_INITIALIZE
  C:0000H         SYMBOL        _ICE_DUMMY_
  C:E050H         PUBLIC        Proc_handle_when_systerm_reset
  D:00CEH         PUBLIC        wdt0
  D:0090H         PUBLIC        P1
  D:00CFH         PUBLIC        wdt1
  C:D154H         PUBLIC        Proc_Initialize_systerm_normal_mode
  D:00B0H         PUBLIC        P3
  B:00A8H.7       PUBLIC        EA
  C:EFD8H         PUBLIC        sys_err
  D:00A8H         PUBLIC        IE
  C:E9EEH         PUBLIC        Proc_Initialize_systerm_reset
  D:00A5H         PUBLIC        P9IE
  D:00B8H         PUBLIC        IP
  D:00A4H         PUBLIC        P9OE
  C:7665H         PUBLIC        Proc_Initialize_INRam
  C:E347H         PUBLIC        Proc_sleep_when_reset
  D:0098H         PUBLIC        SCON
  D:0088H         PUBLIC        TCON
  D:00C9H         PUBLIC        IOWK
  D:008FH         PUBLIC        SPCFNC
  D:00F0H         PUBLIC        B
  D:00E0H         PUBLIC        ACC
  D:0090H         PUBLIC        RTCPEN
  D:0097H         PUBLIC        RTCPWD
  D:0080H         PUBLIC        SysCtrl
  D:00A0H         PUBLIC        CBANK
  C:E0EFH         PUBLIC        Proc_display_Power_down_process
  B:0080H.4       PUBLIC        PMG
  D:00C8H         PUBLIC        T2CON
  D:00A1H         PUBLIC        Systate
  D:0094H         PUBLIC        RTCCH
  C:89E4H         PUBLIC        Proc_judge_Power_down_process
  D:0095H         PUBLIC        RTCCL
  D:00D0H         PUBLIC        PSW
  -------         PROC          PROC_HANDLE_WHEN_SYSTERM_RESET
  C:E050H         LINE#         30
  C:E050H         LINE#         31
  C:E050H         LINE#         40
  C:E056H         LINE#         42
  C:E06EH         LINE#         43
  C:E06EH         LINE#         44
  C:E071H         LINE#         45
  C:E074H         LINE#         46
  C:E077H         LINE#         47
  C:E079H         LINE#         48
  C:E07CH         LINE#         49
  C:E07FH         LINE#         50
BL51 BANKED LINKER/LOCATER V6.22                                                      03/11/2019  10:41:19  PAGE 36


  C:E07FH         LINE#         51
  C:E080H         LINE#         54
  C:E083H         LINE#         55
  C:E089H         LINE#         56
  C:E08CH         LINE#         57
  C:E08FH         LINE#         58
  C:E097H         LINE#         62
  C:E09AH         LINE#         63
  C:E09DH         LINE#         64
  -------         ENDPROC       PROC_HANDLE_WHEN_SYSTERM_RESET
  -------         PROC          PROC_INITIALIZE_INRAM
  -------         DO            
  X:0000H         SYMBOL        i
  X:0001H         SYMBOL        j
  X:0002H         SYMBOL        last_rec_dateTime
  X:0008H         SYMBOL        param_settel
  X:000AH         SYMBOL        eeprom_flg
  -------         ENDDO         
  C:7665H         LINE#         77
  C:7665H         LINE#         78
  C:7665H         LINE#         94
  C:767EH         LINE#         95
  C:7690H         LINE#         96
  C:7690H         LINE#         97
  C:7696H         LINE#         98
  C:7699H         LINE#         99
  C:76AAH         LINE#         100
  C:76AFH         LINE#         101
  C:76BDH         LINE#         102
  C:76BDH         LINE#         107
  C:76C3H         LINE#         108
  C:76C3H         LINE#         109
  C:76C6H         LINE#         110
  C:76D4H         LINE#         111
  C:76D4H         LINE#         115
  C:76D7H         LINE#         116
  C:76DAH         LINE#         117
  C:76E8H         LINE#         121
  C:7702H         LINE#         122
  C:7705H         LINE#         123
  C:7708H         LINE#         128
  C:770BH         LINE#         129
  C:7719H         LINE#         130
  C:771CH         LINE#         131
  C:771FH         LINE#         132
  C:7722H         LINE#         133
  C:7725H         LINE#         134
  C:7728H         LINE#         135
  C:7736H         LINE#         141
  C:7739H         LINE#         142
  C:7747H         LINE#         146
  C:7752H         LINE#         147
  C:7752H         LINE#         148
  C:7760H         LINE#         149
  C:7764H         LINE#         151
  C:777DH         LINE#         152
  C:7795H         LINE#         153
BL51 BANKED LINKER/LOCATER V6.22                                                      03/11/2019  10:41:19  PAGE 37


  C:77A2H         LINE#         154
  C:77A2H         LINE#         155
  C:77A8H         LINE#         156
  C:77AAH         LINE#         157
  C:77AFH         LINE#         158
  C:77AFH         LINE#         159
  C:77C6H         LINE#         160
  C:77CBH         LINE#         161
  C:77CBH         LINE#         162
  C:77CEH         LINE#         163
  C:77D0H         LINE#         164
  C:77D5H         LINE#         165
  C:77D5H         LINE#         166
  C:77DEH         LINE#         167
  C:77E1H         LINE#         168
  C:77EAH         LINE#         169
  C:77EAH         LINE#         170
  C:77F8H         LINE#         171
  C:77F8H         LINE#         172
  C:77FDH         LINE#         173
  C:780BH         LINE#         174
  C:7813H         LINE#         175
  C:7821H         LINE#         176
  C:7824H         LINE#         177
  C:7824H         LINE#         178
  C:7824H         LINE#         184
  -------         ENDPROC       PROC_INITIALIZE_INRAM
  -------         PROC          PROC_SLEEP_WHEN_RESET
  -------         DO            
  X:0000H         SYMBOL        check_cnt
  X:0001H         SYMBOL        check_cnt2
  -------         ENDDO         
  C:E347H         LINE#         196
  C:E347H         LINE#         197
  C:E347H         LINE#         201
  C:E34CH         LINE#         202
  C:E34EH         LINE#         204
  C:E35CH         LINE#         272
  C:E36AH         LINE#         273
  C:E36DH         LINE#         274
  C:E370H         LINE#         276
  C:E373H         LINE#         277
  C:E376H         LINE#         278
  C:E379H         LINE#         279
  C:E380H         LINE#         281
  C:E383H         LINE#         282
  C:E386H         LINE#         283
  C:E38BH         LINE#         284
  C:E38BH         LINE#         285
  C:E38EH         LINE#         286
  C:E38EH         LINE#         288
  -------         ENDPROC       PROC_SLEEP_WHEN_RESET
  -------         PROC          PROC_INITIALIZE_SYSTERM_NORMAL_MODE
  C:D154H         LINE#         303
  C:D154H         LINE#         304
  C:D154H         LINE#         305
  C:D15FH         LINE#         306
BL51 BANKED LINKER/LOCATER V6.22                                                      03/11/2019  10:41:19  PAGE 38


  C:D162H         LINE#         307
  C:D165H         LINE#         308
  C:D16AH         LINE#         309
  C:D178H         LINE#         310
  C:D17BH         LINE#         313
  C:D17EH         LINE#         314
  C:D183H         LINE#         315
  C:D186H         LINE#         316
  C:D18BH         LINE#         317
  C:D18EH         LINE#         318
  C:D1A2H         LINE#         319
  C:D1A8H         LINE#         320
  C:D1ACH         LINE#         321
  C:D1B3H         LINE#         322
  C:D1C7H         LINE#         323
  C:D1CDH         LINE#         324
  -------         ENDPROC       PROC_INITIALIZE_SYSTERM_NORMAL_MODE
  -------         PROC          PROC_INITIALIZE_SYSTERM_RESET
  C:E9EEH         LINE#         336
  C:E9EEH         LINE#         337
  C:E9EEH         LINE#         339
  C:E9F1H         LINE#         340
  C:E9F7H         LINE#         341
  C:E9F7H         LINE#         342
  C:E9FEH         LINE#         343
  C:E9FEH         LINE#         344
  C:EA04H         LINE#         345
  C:EA04H         LINE#         346
  C:EA0AH         LINE#         347
  C:EA0CH         LINE#         349
  C:EA0CH         LINE#         350
  C:EA11H         LINE#         351
  C:EA11H         LINE#         353
  C:EA18H         LINE#         354
  C:EA18H         LINE#         355
  C:EA1BH         LINE#         356
  C:EA1BH         LINE#         358
  C:EA1BH         LINE#         359
  C:EA1EH         LINE#         360
  C:EA1EH         LINE#         361
  -------         ENDPROC       PROC_INITIALIZE_SYSTERM_RESET
  -------         PROC          PROC_DISPLAY_POWER_DOWN_PROCESS
  C:E0EFH         LINE#         363
  C:E0EFH         LINE#         364
  C:E0EFH         LINE#         370
  C:E0F8H         LINE#         371
  C:E0F8H         LINE#         372
  C:E0FDH         LINE#         375
  C:E0FDH         LINE#         382
  C:E104H         LINE#         383
  C:E104H         LINE#         384
  C:E106H         LINE#         385
  C:E10DH         LINE#         386
  C:E10DH         LINE#         387
  C:E10FH         LINE#         388
  C:E111H         LINE#         390
  C:E111H         LINE#         391
BL51 BANKED LINKER/LOCATER V6.22                                                      03/11/2019  10:41:19  PAGE 39


  C:E117H         LINE#         392
  C:E117H         LINE#         393
  C:E11AH         LINE#         394
  C:E120H         LINE#         395
  C:E122H         LINE#         397
  C:E122H         LINE#         398
  C:E12BH         LINE#         399
  C:E12EH         LINE#         400
  C:E12EH         LINE#         401
  C:E134H         LINE#         402
  C:E134H         LINE#         403
  C:E138H         LINE#         404
  C:E13BH         LINE#         405
  C:E13BH         LINE#         407
  -------         ENDPROC       PROC_DISPLAY_POWER_DOWN_PROCESS
  -------         PROC          PROC_JUDGE_POWER_DOWN_PROCESS
  -------         DO            
  X:0000H         SYMBOL        rtc_data_tmp
  -------         ENDDO         
  C:89E4H         LINE#         417
  C:89E4H         LINE#         418
  C:89E4H         LINE#         421
  C:89EDH         LINE#         422
  C:89EDH         LINE#         423
  C:89EFH         LINE#         424
  C:89F1H         LINE#         425
  C:89F4H         LINE#         426
  C:8A0DH         LINE#         430
  C:8A13H         LINE#         432
  C:8A2DH         LINE#         434
  C:8A33H         LINE#         435
  C:8A3AH         LINE#         443
  C:8A40H         LINE#         444
  C:8A44H         LINE#         445
  C:8A4BH         LINE#         450
  C:8A63H         LINE#         452
  C:8A66H         LINE#         453
  C:8A69H         LINE#         455
  C:8A6CH         LINE#         458
  C:8A71H         LINE#         459
  C:8A78H         LINE#         461
  C:8A7BH         LINE#         462
  C:8A7EH         LINE#         463
  C:8A81H         LINE#         469
  C:8A86H         LINE#         470
  C:8A8AH         LINE#         471
  C:8A8AH         LINE#         472
  C:8A8AH         LINE#         473
  C:8A98H         LINE#         474
  C:8A9FH         LINE#         475
  C:8AA2H         LINE#         476
  C:8AA5H         LINE#         477
  C:8AA8H         LINE#         480
  C:8AB6H         LINE#         481
  C:8AC1H         LINE#         485
  C:8ACAH         LINE#         486
  C:8AE8H         LINE#         492
BL51 BANKED LINKER/LOCATER V6.22                                                      03/11/2019  10:41:19  PAGE 40


  C:8AEDH         LINE#         493
  C:8AEDH         LINE#         494
  C:8AF0H         LINE#         495
  C:8AF3H         LINE#         496
  C:8AF6H         LINE#         498
  C:8B10H         LINE#         499
  C:8B2AH         LINE#         500
  C:8B43H         LINE#         505
  C:8B46H         LINE#         506
  C:8B46H         LINE#         507
  C:8B49H         LINE#         509
  C:8B4CH         LINE#         510
  C:8B4FH         LINE#         511
  C:8B4FH         LINE#         513
  C:8B4FH         LINE#         515
  C:8B4FH         LINE#         516
  -------         ENDPROC       PROC_JUDGE_POWER_DOWN_PROCESS
  -------         PROC          SYS_ERR
  C:EFD8H         LINE#         527
  C:EFD8H         LINE#         528
  C:EFD8H         LINE#         529
  C:EFE6H         LINE#         531
  C:EFE6H         LINE#         532
  C:EFE6H         LINE#         533
  C:EFE7H         LINE#         534
  C:EFE8H         LINE#         535
  C:EFE9H         LINE#         536
  -------         ENDPROC       SYS_ERR
  -------         ENDMOD        PROC_SYSTEM_INITIALIZE

  -------         MODULE        PROC_SYSTEM_INTERRUPT
  C:0000H         SYMBOL        _ICE_DUMMY_
  D:0090H         PUBLIC        P1
  D:00B0H         PUBLIC        P3
  C:EF43H         PUBLIC        Interrupt_Uart1
  D:00A8H         PUBLIC        IE
  C:0046H         PUBLIC        Interrupt_Int0
  C:004EH         PUBLIC        Interrupt_Int1
  D:00B8H         PUBLIC        IP
  D:0091H         PUBLIC        EXIF
  D:0098H         PUBLIC        SCON
  D:0088H         PUBLIC        TCON
  D:00F0H         PUBLIC        B
  D:00E0H         PUBLIC        ACC
  D:008CH         PUBLIC        TH0
  B:00D0H.0       PUBLIC        P
  D:008AH         PUBLIC        TL0
  C:939FH         PUBLIC        Interrupt_ExInt2
  C:DBEFH         PUBLIC        Interrupt_ExInt3
  C:EADCH         PUBLIC        Interrupt_ExInt4
  D:0080H         PUBLIC        SysCtrl
  D:00C0H         PUBLIC        SCON1
  D:00C8H         PUBLIC        T2CON
  C:DEF5H         PUBLIC        Interrupt_Timer0
  C:F083H         PUBLIC        Interrupt_Timer1
  C:F087H         PUBLIC        Interrupt_Timer2
  D:00D0H         PUBLIC        PSW
BL51 BANKED LINKER/LOCATER V6.22                                                      03/11/2019  10:41:19  PAGE 41


  -------         PROC          INTERRUPT_INT0
  C:0046H         LINE#         27
  C:0046H         LINE#         29
  C:0049H         LINE#         32
  -------         ENDPROC       INTERRUPT_INT0
  -------         PROC          INTERRUPT_TIMER0
  C:DEF5H         LINE#         38
  C:DEFDH         LINE#         41
  C:DF00H         LINE#         42
  C:DF03H         LINE#         45
  C:DF0AH         LINE#         47
  C:DF1EH         LINE#         48
  C:DF25H         LINE#         49
  C:DF25H         LINE#         50
  C:DF40H         LINE#         51
  C:DF40H         LINE#         66
  C:DF46H         LINE#         81
  -------         ENDPROC       INTERRUPT_TIMER0
  -------         PROC          INTERRUPT_INT1
  C:004EH         LINE#         87
  C:004EH         LINE#         89
  C:0051H         LINE#         90
  -------         ENDPROC       INTERRUPT_INT1
  -------         PROC          INTERRUPT_TIMER1
  C:F083H         LINE#         95
  C:F083H         LINE#         97
  C:F086H         LINE#         101
  -------         ENDPROC       INTERRUPT_TIMER1
  -------         PROC          INTERRUPT_TIMER2
  C:F087H         LINE#         107
  C:F087H         LINE#         109
  C:F08AH         LINE#         112
  -------         ENDPROC       INTERRUPT_TIMER2
  -------         PROC          INTERRUPT_UART1
  C:EF43H         LINE#         118
  C:EF45H         LINE#         120
  C:EF4AH         LINE#         121
  C:EF4AH         LINE#         122
  C:EF4DH         LINE#         124
  C:EF4FH         LINE#         125
  C:EF54H         LINE#         126
  C:EF54H         LINE#         127
  C:EF57H         LINE#         129
  C:EF57H         LINE#         130
  -------         ENDPROC       INTERRUPT_UART1
  -------         PROC          INTERRUPT_EXINT2
  -------         DO            
  X:0236H         SYMBOL        buf
  X:0237H         SYMBOL        temp_ifg
  -------         ENDDO         
  C:939FH         LINE#         138
  C:93ACH         LINE#         143
  C:93BAH         LINE#         222
  C:93C1H         LINE#         223
  C:93C1H         LINE#         224
  C:93C8H         LINE#         225
  C:93CFH         LINE#         226
BL51 BANKED LINKER/LOCATER V6.22                                                      03/11/2019  10:41:19  PAGE 42


  C:93D8H         LINE#         227
  C:93D8H         LINE#         228
  C:93E9H         LINE#         229
  C:93F0H         LINE#         230
  C:93F0H         LINE#         232
  C:93F8H         LINE#         233
  C:93FBH         LINE#         234
  C:93FBH         LINE#         235
  C:93FFH         LINE#         236
  C:9401H         LINE#         238
  C:9401H         LINE#         239
  C:9406H         LINE#         240
  C:9406H         LINE#         241
  C:9406H         LINE#         242
  C:940EH         LINE#         243
  C:9415H         LINE#         244
  C:9421H         LINE#         245
  C:9427H         LINE#         246
  C:942DH         LINE#         247
  C:942FH         LINE#         249
  C:942FH         LINE#         251
  C:9434H         LINE#         252
  C:943AH         LINE#         253
  C:943DH         LINE#         254
  C:9442H         LINE#         255
  C:9442H         LINE#         278
  C:9442H         LINE#         287
  C:944AH         LINE#         288
  C:944AH         LINE#         290
  C:9451H         LINE#         291
  C:9458H         LINE#         292
  C:945EH         LINE#         293
  C:9471H         LINE#         294
  C:9478H         LINE#         295
  C:947EH         LINE#         296
  C:9485H         LINE#         297
  C:9485H         LINE#         298
  C:9486H         LINE#         299
  C:9487H         LINE#         300
  C:9487H         LINE#         301
  C:9493H         LINE#         302
  C:9498H         LINE#         303
  C:9498H         LINE#         304
  C:9499H         LINE#         305
  C:949AH         LINE#         306
  C:949AH         LINE#         323
  C:949AH         LINE#         329
  C:949EH         LINE#         330
  C:949EH         LINE#         331
  C:94A5H         LINE#         333
  C:94A5H         LINE#         334
  C:94ACH         LINE#         335
  C:94ACH         LINE#         336
  C:94B3H         LINE#         338
  C:94B3H         LINE#         339
  C:94BBH         LINE#         340
  C:94BBH         LINE#         341
BL51 BANKED LINKER/LOCATER V6.22                                                      03/11/2019  10:41:19  PAGE 43


  C:94C2H         LINE#         343
  C:94C2H         LINE#         348
  C:94C6H         LINE#         349
  C:94C6H         LINE#         350
  C:94CDH         LINE#         352
  C:94D3H         LINE#         354
  C:94D3H         LINE#         360
  C:94D6H         LINE#         361
  -------         ENDPROC       INTERRUPT_EXINT2
  -------         PROC          INTERRUPT_EXINT3
  -------         DO            
  D:0015H         SYMBOL        temp_ifg
  -------         ENDDO         
  C:DBEFH         LINE#         368
  C:DBFAH         LINE#         372
  C:DC05H         LINE#         373
  C:DC08H         LINE#         374
  C:DC08H         LINE#         375
  C:DC0FH         LINE#         377
  C:DC0FH         LINE#         378
  C:DC15H         LINE#         379
  C:DC15H         LINE#         380
  C:DC1CH         LINE#         382
  C:DC1CH         LINE#         383
  C:DC22H         LINE#         384
  C:DC22H         LINE#         385
  C:DC29H         LINE#         387
  C:DC30H         LINE#         388
  C:DC36H         LINE#         390
  C:DC36H         LINE#         393
  C:DC3CH         LINE#         394
  C:DC3CH         LINE#         395
  C:DC43H         LINE#         396
  C:DC49H         LINE#         401
  C:DC49H         LINE#         402
  C:DC4CH         LINE#         403
  -------         ENDPROC       INTERRUPT_EXINT3
  -------         PROC          INTERRUPT_EXINT4
  -------         DO            
  D:0017H         SYMBOL        temp_ifg
  -------         ENDDO         
  C:EADCH         LINE#         409
  C:EAE7H         LINE#         414
  C:EAF2H         LINE#         430
  C:EAF5H         LINE#         431
  C:EAF5H         LINE#         441
  C:EAFCH         LINE#         443
  C:EAFCH         LINE#         455
  C:EAFFH         LINE#         456
  -------         ENDPROC       INTERRUPT_EXINT4
  -------         ENDMOD        PROC_SYSTEM_INTERRUPT

  -------         MODULE        PROC_SYSTEM_TOU
  C:0000H         SYMBOL        _ICE_DUMMY_
  D:00CEH         PUBLIC        wdt0
  D:0090H         PUBLIC        P1
  D:00CFH         PUBLIC        wdt1
BL51 BANKED LINKER/LOCATER V6.22                                                      03/11/2019  10:41:19  PAGE 44


  D:00B0H         PUBLIC        P3
  X:06D1H         PUBLIC        MD_delay
  X:06D2H         PUBLIC        MD_flag
  D:00A8H         PUBLIC        IE
  X:06D3H         PUBLIC        button_delay
  C:F08BH         PUBLIC        Proc_init_tou_var
  X:06D4H         PUBLIC        MAGN_delay
  D:00B8H         PUBLIC        IP
  X:06D5H         PUBLIC        button_flag
  X:06D6H         PUBLIC        MAGN_flag
  X:06D7H         PUBLIC        MD_dis_delay
  C:CA22H         PUBLIC        Proc_get_clock
  D:0098H         PUBLIC        SCON
  D:0088H         PUBLIC        TCON
  C:0052H         PUBLIC        Proc_Auto_ClrMeter_Pre_sec
  C:9E48H         PUBLIC        Proc_handl_tou_1s
  X:06D8H         PUBLIC        gs_tou_var
  D:00F0H         PUBLIC        B
  X:06E0H         PUBLIC        gs_auto_clrMeter_var
  D:00E0H         PUBLIC        ACC
  C:F04BH         PUBLIC        Initlize_Auto_ClrMeter_Var
  D:0080H         PUBLIC        SysCtrl
  C:EC9FH         PUBLIC        Proc_handl_tou_10ms
  X:06E2H         PUBLIC        Bill_Data
  D:00C8H         PUBLIC        T2CON
  C:DB1FH         PUBLIC        api_handl_button_pre_10ms
  X:06E3H         PUBLIC        gs_CurDateTime
  D:00D0H         PUBLIC        PSW
  -------         PROC          PROC_GET_CLOCK
  -------         DO            
  X:000DH         SYMBOL        rtc_data_tmp
  -------         ENDDO         
  C:CA22H         LINE#         48
  C:CA22H         LINE#         49
  C:CA22H         LINE#         53
  C:CA2BH         LINE#         54
  C:CA37H         LINE#         55
  C:CA37H         LINE#         56
  C:CA50H         LINE#         57
  C:CA5CH         LINE#         58
  C:CA5CH         LINE#         60
  C:CA62H         LINE#         61
  C:CA66H         LINE#         62
  C:CA6AH         LINE#         63
  C:CA6EH         LINE#         64
  C:CA72H         LINE#         65
  C:CA76H         LINE#         66
  C:CA78H         LINE#         67
  C:CA92H         LINE#         68
  C:CA92H         LINE#         69
  C:CA9BH         LINE#         70
  C:CA9BH         LINE#         71
  -------         ENDPROC       PROC_GET_CLOCK
  -------         PROC          PROC_INIT_TOU_VAR
  C:F08BH         LINE#         87
  C:F08BH         LINE#         88
  C:F08BH         LINE#         89
BL51 BANKED LINKER/LOCATER V6.22                                                      03/11/2019  10:41:19  PAGE 45


  -------         ENDPROC       PROC_INIT_TOU_VAR
  -------         PROC          API_HANDL_BUTTON_PRE_10MS
  C:DB1FH         LINE#         92
  C:DB1FH         LINE#         93
  C:DB1FH         LINE#         94
  C:DB2EH         LINE#         95
  C:DB2EH         LINE#         96
  C:DB33H         LINE#         97
  C:DB37H         LINE#         99
  C:DB37H         LINE#         100
  C:DB3EH         LINE#         101
  C:DB3EH         LINE#         102
  C:DB42H         LINE#         103
  C:DB42H         LINE#         104
  C:DB51H         LINE#         105
  C:DB51H         LINE#         106
  C:DB54H         LINE#         107
  C:DB58H         LINE#         108
  C:DB58H         LINE#         109
  C:DB5FH         LINE#         110
  C:DB5FH         LINE#         111
  C:DB63H         LINE#         112
  C:DB63H         LINE#         113
  C:DB72H         LINE#         114
  C:DB72H         LINE#         115
  C:DB77H         LINE#         116
  C:DB7BH         LINE#         118
  C:DB7BH         LINE#         119
  C:DB82H         LINE#         120
  C:DB82H         LINE#         121
  C:DB86H         LINE#         122
  C:DB86H         LINE#         123
  -------         ENDPROC       API_HANDL_BUTTON_PRE_10MS
  -------         PROC          PROC_HANDL_TOU_10MS
  -------         DO            
  X:0000H         SYMBOL        i
  -------         ENDDO         
  C:EC9FH         LINE#         138
  C:EC9FH         LINE#         139
  C:EC9FH         LINE#         143
  C:ECAEH         LINE#         144
  C:ECAEH         LINE#         145
  C:ECB1H         LINE#         146
  C:ECB9H         LINE#         147
  C:ECC1H         LINE#         148
  -------         ENDPROC       PROC_HANDL_TOU_10MS
  -------         PROC          PROC_HANDL_TOU_1S
  C:9E48H         LINE#         166
  C:9E48H         LINE#         167
  C:9E48H         LINE#         172
  C:9E4BH         LINE#         174
  C:9E59H         LINE#         175
  C:9E62H         LINE#         176
  C:9E62H         LINE#         177
  C:9E65H         LINE#         178
  C:9E68H         LINE#         179
  C:9E68H         LINE#         181
BL51 BANKED LINKER/LOCATER V6.22                                                      03/11/2019  10:41:19  PAGE 46


  C:9E6EH         LINE#         182
  C:9E6EH         LINE#         185
  C:9E71H         LINE#         186
  C:9E7FH         LINE#         188
  C:9E82H         LINE#         189
  C:9E90H         LINE#         190
  C:9E93H         LINE#         192
  C:9E96H         LINE#         193
  C:9EA4H         LINE#         195
  C:9EA7H         LINE#         197
  C:9EAAH         LINE#         198
  C:9EADH         LINE#         199
  C:9EADH         LINE#         200
  C:9EB3H         LINE#         201
  C:9EB3H         LINE#         203
  C:9EB6H         LINE#         205
  C:9EB9H         LINE#         206
  C:9EBBH         LINE#         208
  C:9EBBH         LINE#         209
  C:9EC1H         LINE#         210
  C:9EC1H         LINE#         215
  C:9EC4H         LINE#         217
  C:9ECAH         LINE#         218
  C:9ECAH         LINE#         219
  C:9ECDH         LINE#         220
  C:9EDBH         LINE#         221
  C:9EDEH         LINE#         222
  C:9EECH         LINE#         224
  C:9EEFH         LINE#         225
  C:9EF2H         LINE#         228
  C:9EF9H         LINE#         229
  C:9EF9H         LINE#         230
  C:9F07H         LINE#         231
  C:9F0AH         LINE#         232
  C:9F0AH         LINE#         233
  C:9F18H         LINE#         235
  C:9F1BH         LINE#         236
  C:9F29H         LINE#         238
  C:9F2CH         LINE#         241
  C:9F2CH         LINE#         243
  C:9F33H         LINE#         244
  C:9F33H         LINE#         245
  C:9F36H         LINE#         246
  C:9F44H         LINE#         247
  C:9F44H         LINE#         250
  C:9F4BH         LINE#         251
  C:9F4BH         LINE#         252
  C:9F4EH         LINE#         253
  C:9F5CH         LINE#         254
  C:9F5CH         LINE#         256
  -------         ENDPROC       PROC_HANDL_TOU_1S
  -------         PROC          PROC_AUTO_CLRMETER_PRE_SEC
  C:0052H         LINE#         266
  C:0052H         LINE#         267
  C:0052H         LINE#         270
  -------         ENDPROC       PROC_AUTO_CLRMETER_PRE_SEC
  -------         PROC          INITLIZE_AUTO_CLRMETER_VAR
BL51 BANKED LINKER/LOCATER V6.22                                                      03/11/2019  10:41:19  PAGE 47


  C:F04BH         LINE#         281
  C:F04BH         LINE#         282
  C:F04BH         LINE#         284
  C:F050H         LINE#         285
  C:F054H         LINE#         287
  -------         ENDPROC       INITLIZE_AUTO_CLRMETER_VAR
  -------         ENDMOD        PROC_SYSTEM_TOU

  -------         MODULE        DRV_E2P_24CXXX
  C:0000H         SYMBOL        _ICE_DUMMY_
  D:0090H         PUBLIC        P1
  D:00B0H         PUBLIC        P3
  C:D0D9H         PUBLIC        _Read_EEPROM_Page
  D:00A8H         PUBLIC        IE
  C:BC93H         PUBLIC        _Read_EEPROM_Page_Sub
  C:CE2DH         PUBLIC        _Write_EEPROM_Page
  D:00B8H         PUBLIC        IP
  C:C201H         PUBLIC        _Write_EEPROM_Page_Sub
  C:C3FFH         PUBLIC        _Read_EEPROM
  D:0098H         PUBLIC        SCON
  D:0088H         PUBLIC        TCON
  C:C719H         PUBLIC        _Write_EEPROM
  D:00F0H         PUBLIC        B
  D:00E0H         PUBLIC        ACC
  D:0080H         PUBLIC        SysCtrl
  D:00C8H         PUBLIC        T2CON
  D:00D0H         PUBLIC        PSW
  C:BC8DH         SYMBOL        L?0054
  -------         PROC          L?0053
  -------         ENDPROC       L?0053
  C:BC8DH         SYMBOL        L?0054
  -------         PROC          _READ_EEPROM_PAGE_SUB
  X:022DH         SYMBOL        Buf
  X:0230H         SYMBOL        Addr
  X:0232H         SYMBOL        Len
  -------         DO            
  X:0233H         SYMBOL        NewWrCmd
  X:0234H         SYMBOL        NewRdCmd
  X:0235H         SYMBOL        err_cnt
  -------         ENDDO         
  C:BC93H         LINE#         30
  C:BCA4H         LINE#         31
  C:BCA4H         LINE#         36
  C:BCA9H         LINE#         47
  C:BCAFH         LINE#         48
  C:BCB2H         LINE#         52
  C:BCB2H         LINE#         53
  C:BCB5H         LINE#         54
  C:BCBBH         LINE#         55
  C:BCC4H         LINE#         56
  C:BCC7H         LINE#         57
  C:BCD2H         LINE#         62
  C:BCE2H         LINE#         63
  C:BCF3H         LINE#         66
  C:BCF6H         LINE#         68
  C:BD06H         LINE#         70
  C:BD10H         LINE#         71
BL51 BANKED LINKER/LOCATER V6.22                                                      03/11/2019  10:41:19  PAGE 48


  C:BD10H         LINE#         72
  C:BD2AH         LINE#         73
  C:BD34H         LINE#         74
  C:BD36H         LINE#         75
  C:BD39H         LINE#         76
  C:BD3BH         LINE#         77
  -------         ENDPROC       _READ_EEPROM_PAGE_SUB
  -------         PROC          _WRITE_EEPROM_PAGE_SUB
  X:01E2H         SYMBOL        Addr
  X:01E4H         SYMBOL        Buf
  X:01E7H         SYMBOL        Len
  -------         DO            
  X:01E8H         SYMBOL        NewWrCmd
  X:01E9H         SYMBOL        NewRdCmd
  X:01EAH         SYMBOL        err_cnt
  -------         ENDDO         
  C:C201H         LINE#         88
  C:C212H         LINE#         89
  C:C212H         LINE#         95
  C:C217H         LINE#         104
  C:C21DH         LINE#         105
  C:C220H         LINE#         108
  C:C221H         LINE#         110
  C:C221H         LINE#         111
  C:C224H         LINE#         112
  C:C22AH         LINE#         113
  C:C233H         LINE#         114
  C:C236H         LINE#         115
  C:C241H         LINE#         120
  C:C251H         LINE#         121
  C:C262H         LINE#         125
  C:C262H         LINE#         126
  C:C279H         LINE#         127
  C:C279H         LINE#         128
  C:C27AH         LINE#         129
  C:C27DH         LINE#         130
  C:C27DH         LINE#         131
  C:C287H         LINE#         132
  C:C295H         LINE#         133
  C:C29BH         LINE#         134
  C:C29EH         LINE#         136
  C:C2A1H         LINE#         138
  C:C2A8H         LINE#         140
  C:C2A9H         LINE#         142
  C:C2ABH         LINE#         143
  -------         ENDPROC       _WRITE_EEPROM_PAGE_SUB
  -------         PROC          _READ_EEPROM_PAGE
  X:01E6H         SYMBOL        u8p_dst
  X:01E9H         SYMBOL        u16_src
  X:01EBH         SYMBOL        u8_len
  -------         DO            
  X:01ECH         SYMBOL        data00
  X:022CH         SYMBOL        i
  -------         ENDDO         
  C:D0D9H         LINE#         157
  C:D0EAH         LINE#         158
  C:D0EAH         LINE#         162
BL51 BANKED LINKER/LOCATER V6.22                                                      03/11/2019  10:41:19  PAGE 49


  C:D0F8H         LINE#         163
  C:D0F8H         LINE#         164
  C:D0FBH         LINE#         165
  C:D0FBH         LINE#         166
  C:D100H         LINE#         167
  C:D100H         LINE#         168
  C:D10CH         LINE#         169
  C:D11BH         LINE#         170
  C:D145H         LINE#         171
  C:D151H         LINE#         172
  C:D153H         LINE#         173
  -------         ENDPROC       _READ_EEPROM_PAGE
  -------         PROC          _WRITE_EEPROM_PAGE
  X:019BH         SYMBOL        u16_dst
  X:019DH         SYMBOL        u8p_src
  X:01A0H         SYMBOL        u8_len
  -------         DO            
  X:01A1H         SYMBOL        data00
  X:01E1H         SYMBOL        i
  -------         ENDDO         
  C:CE2DH         LINE#         186
  C:CE3EH         LINE#         187
  C:CE3EH         LINE#         191
  C:CE4CH         LINE#         192
  C:CE4CH         LINE#         193
  C:CE4FH         LINE#         194
  C:CE4FH         LINE#         195
  C:CE54H         LINE#         196
  C:CE54H         LINE#         197
  C:CE6EH         LINE#         198
  C:CE81H         LINE#         199
  C:CEABH         LINE#         200
  C:CEB7H         LINE#         201
  C:CEB9H         LINE#         202
  -------         ENDPROC       _WRITE_EEPROM_PAGE
  -------         PROC          _READ_EEPROM
  X:01DEH         SYMBOL        u8p_dst
  X:01E1H         SYMBOL        u16_src
  X:01E3H         SYMBOL        u16_len
  -------         DO            
  D:0005H         SYMBOL        tmp
  X:01E5H         SYMBOL        u8_lenth
  -------         ENDDO         
  C:C3FFH         LINE#         216
  C:C410H         LINE#         217
  C:C410H         LINE#         221
  C:C420H         LINE#         222
  C:C420H         LINE#         223
  C:C428H         LINE#         224
  C:C42AH         LINE#         225
  C:C42AH         LINE#         226
  C:C431H         LINE#         227
  C:C433H         LINE#         229
  C:C433H         LINE#         230
  C:C439H         LINE#         231
  C:C439H         LINE#         232
  C:C44DH         LINE#         234
BL51 BANKED LINKER/LOCATER V6.22                                                      03/11/2019  10:41:19  PAGE 50


  C:C46EH         LINE#         235
  C:C47FH         LINE#         236
  C:C48BH         LINE#         237
  C:C499H         LINE#         238
  C:C49CH         LINE#         239
  C:C49EH         LINE#         240
  -------         ENDPROC       _READ_EEPROM
  -------         PROC          _WRITE_EEPROM
  X:0193H         SYMBOL        u16_dst
  X:0195H         SYMBOL        u8p_src
  X:0198H         SYMBOL        u16_len
  -------         DO            
  D:0003H         SYMBOL        tmp
  X:019AH         SYMBOL        u8_lenth
  -------         ENDDO         
  C:C719H         LINE#         253
  C:C72AH         LINE#         254
  C:C72AH         LINE#         258
  C:C73AH         LINE#         259
  C:C73AH         LINE#         260
  C:C745H         LINE#         261
  C:C747H         LINE#         262
  C:C747H         LINE#         263
  C:C74EH         LINE#         264
  C:C750H         LINE#         266
  C:C750H         LINE#         267
  C:C756H         LINE#         268
  C:C756H         LINE#         269
  C:C76AH         LINE#         272
  C:C785H         LINE#         273
  C:C799H         LINE#         274
  C:C7A2H         LINE#         275
  C:C7B0H         LINE#         276
  C:C7B3H         LINE#         277
  C:C7B5H         LINE#         278
  -------         ENDPROC       _WRITE_EEPROM
  -------         ENDMOD        DRV_E2P_24CXXX

  -------         MODULE        DRV_E2P_I2CSOFT
  C:0000H         SYMBOL        _ICE_DUMMY_
  D:0090H         PUBLIC        P1
  D:00B0H         PUBLIC        P3
  C:CD9FH         PUBLIC        _E2p_RxByte_i2c
  C:C7B6H         PUBLIC        _E2p_TxByte_i2c
  D:00A8H         PUBLIC        IE
  D:00B8H         PUBLIC        IP
  D:0098H         PUBLIC        SCON
  D:0088H         PUBLIC        TCON
  C:E91BH         PUBLIC        E2p_Start_i2c
  D:00F0H         PUBLIC        B
  D:00E0H         PUBLIC        ACC
  C:EDB5H         PUBLIC        E2p_IIC_Initail
  C:E6DAH         PUBLIC        E2p_Stop_i2c
  D:0080H         PUBLIC        SysCtrl
  D:00C8H         PUBLIC        T2CON
  D:00D0H         PUBLIC        PSW
  -------         PROC          E2P_IIC_INITAIL
BL51 BANKED LINKER/LOCATER V6.22                                                      03/11/2019  10:41:19  PAGE 51


  C:EDB5H         LINE#         28
  C:EDB5H         LINE#         29
  C:EDB5H         LINE#         30
  C:EDC1H         LINE#         31
  C:EDC6H         LINE#         32
  C:EDD2H         LINE#         33
  -------         ENDPROC       E2P_IIC_INITAIL
  -------         PROC          E2P_START_I2C
  C:E91BH         LINE#         43
  C:E91BH         LINE#         44
  C:E91BH         LINE#         45
  C:E927H         LINE#         46
  C:E92CH         LINE#         47
  C:E932H         LINE#         48
  C:E944H         LINE#         49
  C:E94AH         LINE#         50
  C:E951H         LINE#         51
  -------         ENDPROC       E2P_START_I2C
  -------         PROC          E2P_STOP_I2C
  C:E6DAH         LINE#         61
  C:E6DAH         LINE#         62
  C:E6DAH         LINE#         82
  C:E6EFH         LINE#         83
  C:E6F5H         LINE#         84
  C:E6FCH         LINE#         85
  C:E702H         LINE#         86
  C:E70EH         LINE#         87
  C:E714H         LINE#         88
  -------         ENDPROC       E2P_STOP_I2C
  -------         PROC          _E2P_TXBYTE_I2C
  D:0007H         SYMBOL        txData
  -------         DO            
  D:0008H         SYMBOL        i
  -------         ENDDO         
  C:C7B6H         LINE#         99
  C:C7B6H         LINE#         100
  C:C7B6H         LINE#         101
  C:C7B9H         LINE#         104
  C:C7BBH         LINE#         105
  C:C7BBH         LINE#         106
  C:C7C2H         LINE#         107
  C:C7C6H         LINE#         108
  C:C7C6H         LINE#         109
  C:C7D2H         LINE#         110
  C:C7D4H         LINE#         112
  C:C7D4H         LINE#         113
  C:C7E9H         LINE#         114
  C:C7E9H         LINE#         115
  C:C7EDH         LINE#         116
  C:C7F4H         LINE#         117
  C:C7FAH         LINE#         118
  C:C801H         LINE#         121
  C:C808H         LINE#         122
  C:C814H         LINE#         123
  C:C817H         LINE#         124
  C:C81AH         LINE#         125
  C:C81AH         LINE#         126
BL51 BANKED LINKER/LOCATER V6.22                                                      03/11/2019  10:41:19  PAGE 52


  C:C821H         LINE#         127
  C:C821H         LINE#         128
  C:C828H         LINE#         129
  C:C82EH         LINE#         130
  C:C832H         LINE#         131
  C:C835H         LINE#         132
  C:C835H         LINE#         133
  C:C83CH         LINE#         136
  C:C843H         LINE#         137
  C:C849H         LINE#         138
  C:C84DH         LINE#         139
  C:C850H         LINE#         141
  C:C852H         LINE#         142
  -------         ENDPROC       _E2P_TXBYTE_I2C
  -------         PROC          _E2P_RXBYTE_I2C
  D:0007H         SYMBOL        u8_ack
  -------         DO            
  D:0008H         SYMBOL        i
  D:0009H         SYMBOL        rxData
  -------         ENDDO         
  C:CD9FH         LINE#         153
  C:CD9FH         LINE#         154
  C:CD9FH         LINE#         155
  C:CDA2H         LINE#         156
  C:CDA4H         LINE#         158
  C:CDB0H         LINE#         159
  C:CDB5H         LINE#         162
  C:CDB8H         LINE#         163
  C:CDB8H         LINE#         164
  C:CDBEH         LINE#         165
  C:CDC5H         LINE#         166
  C:CDCBH         LINE#         167
  C:CDD0H         LINE#         168
  C:CDD0H         LINE#         169
  C:CDD3H         LINE#         170
  C:CDD3H         LINE#         171
  C:CDDAH         LINE#         172
  C:CDE0H         LINE#         173
  C:CDE7H         LINE#         176
  C:CDEAH         LINE#         177
  C:CDEAH         LINE#         178
  C:CDFFH         LINE#         179
  C:CE01H         LINE#         181
  C:CE01H         LINE#         182
  C:CE0DH         LINE#         183
  C:CE0DH         LINE#         185
  C:CE14H         LINE#         186
  C:CE1AH         LINE#         187
  C:CE1EH         LINE#         188
  C:CE2AH         LINE#         190
  C:CE2CH         LINE#         191
  -------         ENDPROC       _E2P_RXBYTE_I2C
  -------         ENDMOD        DRV_E2P_I2CSOFT

  -------         MODULE        DRV_EMU_HARD
  C:0000H         SYMBOL        _ICE_DUMMY_
  D:0090H         PUBLIC        P1
BL51 BANKED LINKER/LOCATER V6.22                                                      03/11/2019  10:41:19  PAGE 53


  C:EC03H         PUBLIC        Close_Cf
  D:00B0H         PUBLIC        P3
  C:BF4AH         PUBLIC        _SetMeterCfgI
  D:00A8H         PUBLIC        IE
  C:C67BH         PUBLIC        _SetMeterCfgACK
  C:C5DDH         PUBLIC        _SetMeterCfgACKPM800K
  D:00B8H         PUBLIC        IP
  C:EFB0H         PUBLIC        OpenCF
  D:0098H         PUBLIC        SCON
  D:0088H         PUBLIC        TCON
  C:F09CH         PUBLIC        Close_EmuPwr
  B:0080H.7       PUBLIC        MEAFRQ
  D:00F0H         PUBLIC        B
  D:00E0H         PUBLIC        ACC
  D:00E8H         PUBLIC        EIE
  C:9254H         PUBLIC        _ReadMeterParaACK
  D:0080H         PUBLIC        SysCtrl
  D:00C8H         PUBLIC        T2CON
  D:00D0H         PUBLIC        PSW
  -------         PROC          CLOSE_EMUPWR
  C:F09CH         LINE#         91
  C:F09CH         LINE#         92
  C:F09CH         LINE#         94
  -------         ENDPROC       CLOSE_EMUPWR
  -------         PROC          OPENCF
  C:EFB0H         LINE#         103
  C:EFB0H         LINE#         104
  C:EFB0H         LINE#         105
  C:EFB8H         LINE#         106
  C:EFC3H         LINE#         108
  -------         ENDPROC       OPENCF
  -------         PROC          CLOSE_CF
  -------         DO            
  D:0004H         SYMBOL        PmPara
  -------         ENDDO         
  C:EC03H         LINE#         118
  C:EC03H         LINE#         119
  C:EC03H         LINE#         122
  C:EC0AH         LINE#         123
  C:EC0EH         LINE#         124
  C:EC1BH         LINE#         126
  C:EC22H         LINE#         128
  C:EC29H         LINE#         129
  -------         ENDPROC       CLOSE_CF
  -------         PROC          _SETMETERCFGACKPM800K
  X:07D9H         SYMBOL        u32PMdatal
  X:07DDH         SYMBOL        addr
  -------         DO            
  D:0007H         SYMBOL        index
  -------         ENDDO         
  C:C5DDH         LINE#         140
  C:C5E3H         LINE#         141
  C:C5E3H         LINE#         143
  C:C5E5H         LINE#         145
  C:C5EBH         LINE#         146
  C:C5EDH         LINE#         147
  C:C5F3H         LINE#         148
BL51 BANKED LINKER/LOCATER V6.22                                                      03/11/2019  10:41:19  PAGE 54


  C:C5F3H         LINE#         149
  C:C5F4H         LINE#         150
  C:C5FAH         LINE#         151
  C:C5FAH         LINE#         152
  C:C5FDH         LINE#         153
  C:C5FDH         LINE#         154
  C:C5FDH         LINE#         155
  C:C60AH         LINE#         156
  C:C622H         LINE#         157
  C:C63AH         LINE#         158
  C:C652H         LINE#         159
  C:C65FH         LINE#         160
  C:C660H         LINE#         161
  C:C666H         LINE#         162
  C:C668H         LINE#         163
  C:C66EH         LINE#         164
  C:C66EH         LINE#         165
  C:C66FH         LINE#         166
  C:C675H         LINE#         167
  C:C678H         LINE#         168
  C:C678H         LINE#         169
  C:C67AH         LINE#         171
  -------         ENDPROC       _SETMETERCFGACKPM800K
  -------         PROC          _SETMETERCFGI
  X:07CBH         SYMBOL        u32PMdatal
  X:07CFH         SYMBOL        addr
  -------         DO            
  D:0003H         SYMBOL        index
  X:07D1H         SYMBOL        i
  -------         ENDDO         
  C:BF4AH         LINE#         184
  C:BF50H         LINE#         185
  C:BF50H         LINE#         187
  C:BF52H         LINE#         189
  C:BF58H         LINE#         190
  C:BF5AH         LINE#         191
  C:BF60H         LINE#         192
  C:BF60H         LINE#         193
  C:BF61H         LINE#         194
  C:BF67H         LINE#         195
  C:BF67H         LINE#         196
  C:BF6AH         LINE#         197
  C:BF6AH         LINE#         198
  C:BF6AH         LINE#         199
  C:BF77H         LINE#         200
  C:BF8FH         LINE#         201
  C:BFA7H         LINE#         202
  C:BFBFH         LINE#         204
  C:BFC1H         LINE#         205
  C:BFC4H         LINE#         206
  C:BFC4H         LINE#         207
  C:BFCAH         LINE#         208
  C:BFD0H         LINE#         209
  C:BFD0H         LINE#         210
  C:BFD0H         LINE#         211
  C:BFD0H         LINE#         213
  C:BFDDH         LINE#         214
BL51 BANKED LINKER/LOCATER V6.22                                                      03/11/2019  10:41:19  PAGE 55


  C:BFDEH         LINE#         215
  C:BFE4H         LINE#         216
  C:BFE6H         LINE#         217
  C:BFECH         LINE#         218
  C:BFECH         LINE#         219
  C:BFEDH         LINE#         220
  C:BFF3H         LINE#         221
  C:BFF6H         LINE#         222
  C:BFF6H         LINE#         224
  C:BFF8H         LINE#         226
  -------         ENDPROC       _SETMETERCFGI
  -------         PROC          _SETMETERCFGACK
  X:00C8H         SYMBOL        u32PMdatal
  X:00CCH         SYMBOL        addr
  -------         DO            
  D:0007H         SYMBOL        index
  -------         ENDDO         
  C:C67BH         LINE#         237
  C:C681H         LINE#         238
  C:C681H         LINE#         240
  C:C683H         LINE#         242
  C:C689H         LINE#         243
  C:C68BH         LINE#         244
  C:C691H         LINE#         245
  C:C691H         LINE#         246
  C:C692H         LINE#         247
  C:C698H         LINE#         248
  C:C698H         LINE#         249
  C:C69BH         LINE#         250
  C:C69BH         LINE#         251
  C:C69BH         LINE#         252
  C:C6A8H         LINE#         253
  C:C6C0H         LINE#         254
  C:C6D8H         LINE#         255
  C:C6F0H         LINE#         256
  C:C6FDH         LINE#         257
  C:C6FEH         LINE#         258
  C:C704H         LINE#         259
  C:C706H         LINE#         260
  C:C70CH         LINE#         261
  C:C70CH         LINE#         262
  C:C70DH         LINE#         263
  C:C713H         LINE#         264
  C:C716H         LINE#         265
  C:C716H         LINE#         267
  C:C718H         LINE#         268
  -------         ENDPROC       _SETMETERCFGACK
  -------         PROC          _READMETERPARAACK
  D:0006H         SYMBOL        addr
  -------         DO            
  D:0008H         SYMBOL        index
  X:00C8H         SYMBOL        u32PMdatal
  X:00CCH         SYMBOL        temp
  -------         ENDDO         
  C:9254H         LINE#         279
  C:9254H         LINE#         280
  C:9254H         LINE#         284
BL51 BANKED LINKER/LOCATER V6.22                                                      03/11/2019  10:41:19  PAGE 56


  C:925AH         LINE#         285
  C:925CH         LINE#         286
  C:925EH         LINE#         287
  C:9264H         LINE#         288
  C:9264H         LINE#         289
  C:9266H         LINE#         290
  C:926DH         LINE#         291
  C:926DH         LINE#         292
  C:926FH         LINE#         293
  C:926FH         LINE#         294
  C:926FH         LINE#         296
  C:9276H         LINE#         297
  C:9279H         LINE#         298
  C:9281H         LINE#         299
  C:9284H         LINE#         300
  C:928AH         LINE#         301
  C:928AH         LINE#         302
  C:928CH         LINE#         303
  C:9293H         LINE#         304
  C:9293H         LINE#         305
  C:9299H         LINE#         306
  C:9299H         LINE#         307
  C:9299H         LINE#         308
  C:92A8H         LINE#         309
  C:92BCH         LINE#         310
  C:92E8H         LINE#         311
  C:92F7H         LINE#         312
  C:9310H         LINE#         313
  C:933CH         LINE#         314
  C:934BH         LINE#         315
  C:9364H         LINE#         316
  C:9390H         LINE#         317
  C:939EH         LINE#         319
  -------         ENDPROC       _READMETERPARAACK
  -------         ENDMOD        DRV_EMU_HARD

  -------         MODULE        LNK_EMU_ADJ
  C:0000H         SYMBOL        _ICE_DUMMY_
  D:00CEH         PUBLIC        wdt0
  D:0090H         PUBLIC        P1
  D:00CFH         PUBLIC        wdt1
  D:00B0H         PUBLIC        P3
  B:00A8H.7       PUBLIC        EA
  X:05B8H         PUBLIC        gs_adj_emu_param
  D:00A8H         PUBLIC        IE
  C:822EH         PUBLIC        _CalculateSChz
  C:66C5H         PUBLIC        Check_EMU_AdjParam
  C:A285H         PUBLIC        _CalculateAC
  D:00B8H         PUBLIC        IP
  C:9D24H         PUBLIC        _Calibration_Angular
  C:7490H         PUBLIC        _SoftAdjust_Phase_Process
  C:A79DH         PUBLIC        _CalculateSC
  C:8B50H         PUBLIC        _Get_Original_Power
  C:A587H         PUBLIC        TimeEventProc
  C:BB18H         PUBLIC        default_adj_emu_param_tab
  C:2DF2H         PUBLIC        Hardware_AdjustDiv_Sub
  D:0098H         PUBLIC        SCON
BL51 BANKED LINKER/LOCATER V6.22                                                      03/11/2019  10:41:19  PAGE 57


  C:BB9BH         PUBLIC        cst_emu_constchck_tab
  D:0088H         PUBLIC        TCON
  C:BB6EH         PUBLIC        cst_emu_selfchck_tab
  C:5D3AH         PUBLIC        _Calibration_Current
  C:8CB9H         PUBLIC        _Get_Original_Irms
  C:9F5DH         PUBLIC        _SoftAdjust_IB_Process
  C:E83AH         PUBLIC        Save_EMU_AdjParam
  X:05F2H         PUBLIC        gs_emu_adj_var
  D:00F0H         PUBLIC        B
  D:00E0H         PUBLIC        ACC
  C:BBA7H         PUBLIC        cst_emu_constchck_tab_9260f
  C:7D3EH         PUBLIC        _Calibration_small_signal
  C:E5A9H         PUBLIC        Get_EMU_AdjParam
  C:5562H         PUBLIC        _Measure_Electric_Err_Gain
  D:0080H         PUBLIC        SysCtrl
  C:B8D1H         PUBLIC        _Calibration_Power
  C:BB52H         PUBLIC        cst_adj_const
  D:00C8H         PUBLIC        T2CON
  C:B409H         PUBLIC        _SoftAdjust_IB5_Process
  D:00D0H         PUBLIC        PSW
  -------         PROC          SAVE_EMU_ADJPARAM
  C:E83AH         LINE#         100
  C:E83AH         LINE#         101
  C:E83AH         LINE#         102
  C:E859H         LINE#         103
  -------         ENDPROC       SAVE_EMU_ADJPARAM
  -------         PROC          GET_EMU_ADJPARAM
  -------         DO            
  D:0006H         SYMBOL        csck_u16
  -------         ENDDO         
  C:E5A9H         LINE#         114
  C:E5A9H         LINE#         115
  C:E5A9H         LINE#         119
  C:E5C0H         LINE#         120
  C:E5CCH         LINE#         121
  C:E5CCH         LINE#         122
  C:E5E6H         LINE#         123
  C:E5E6H         LINE#         124
  -------         ENDPROC       GET_EMU_ADJPARAM
  -------         PROC          CHECK_EMU_ADJPARAM
  -------         DO            
  X:00B3H         SYMBOL        regval
  X:00B7H         SYMBOL        i
  X:00B8H         SYMBOL        tmp_tab
  X:00BDH         SYMBOL        tmp_const_tab
  X:00C3H         SYMBOL        ucSum
  X:00C7H         SYMBOL        u8_tmp
  -------         ENDDO         
  C:66C5H         LINE#         133
  C:66C5H         LINE#         134
  C:66C5H         LINE#         139
  C:66CFH         LINE#         143
  C:66D2H         LINE#         146
  C:66EAH         LINE#         147
  C:66F4H         LINE#         148
  C:66F4H         LINE#         150
  C:6706H         LINE#         151
BL51 BANKED LINKER/LOCATER V6.22                                                      03/11/2019  10:41:19  PAGE 58


  C:6718H         LINE#         152
  C:671AH         LINE#         154
  C:671AH         LINE#         155
  C:672CH         LINE#         156
  C:6741H         LINE#         157
  C:6741H         LINE#         161
  C:6746H         LINE#         162
  C:6746H         LINE#         163
  C:6766H         LINE#         164
  C:677DH         LINE#         165
  C:6787H         LINE#         166
  C:6798H         LINE#         167
  C:67BAH         LINE#         168
  C:67BAH         LINE#         169
  C:67CEH         LINE#         170
  C:67EEH         LINE#         171
  C:67EEH         LINE#         172
  C:67FDH         LINE#         174
  C:6802H         LINE#         175
  C:6802H         LINE#         176
  C:6822H         LINE#         177
  C:6845H         LINE#         178
  C:684FH         LINE#         179
  C:6860H         LINE#         180
  C:687BH         LINE#         181
  C:687BH         LINE#         182
  C:6890H         LINE#         183
  C:6890H         LINE#         184
  C:6894H         LINE#         185
  C:6894H         LINE#         186
  C:6894H         LINE#         187
  C:6896H         LINE#         189
  C:6896H         LINE#         190
  C:68B8H         LINE#         191
  C:68B8H         LINE#         192
  C:68CCH         LINE#         193
  C:68ECH         LINE#         194
  C:68ECH         LINE#         195
  C:68ECH         LINE#         196
  C:68FBH         LINE#         198
  -------         ENDPROC       CHECK_EMU_ADJPARAM
  -------         PROC          _GET_ORIGINAL_POWER
  X:0744H         SYMBOL        avr_times
  X:0745H         SYMBOL        ch
  -------         DO            
  X:0746H         SYMBOL        val
  X:074AH         SYMBOL        i
  X:074BH         SYMBOL        aery_old
  D:0004H         SYMBOL        aery_val
  X:074FH         SYMBOL        avr_aery
  X:0753H         SYMBOL        TempValue
  -------         ENDDO         
  C:8B50H         LINE#         206
  C:8B58H         LINE#         207
  C:8B58H         LINE#         208
  C:8B58H         LINE#         214
  C:8B66H         LINE#         216
BL51 BANKED LINKER/LOCATER V6.22                                                      03/11/2019  10:41:19  PAGE 59


  C:8B70H         LINE#         217
  C:8B75H         LINE#         218
  C:8B89H         LINE#         219
  C:8B89H         LINE#         220
  C:8B97H         LINE#         221
  C:8B9DH         LINE#         222
  C:8BA2H         LINE#         223
  C:8BB0H         LINE#         224
  C:8BB6H         LINE#         225
  C:8BB6H         LINE#         226
  C:8BBDH         LINE#         227
  C:8BBFH         LINE#         229
  C:8BBFH         LINE#         231
  C:8BCDH         LINE#         232
  C:8BCDH         LINE#         233
  C:8BE0H         LINE#         234
  C:8BEBH         LINE#         235
  C:8BFFH         LINE#         236
  C:8C01H         LINE#         238
  C:8C01H         LINE#         239
  C:8C08H         LINE#         240
  C:8C08H         LINE#         241
  C:8C08H         LINE#         243
  C:8C22H         LINE#         244
  C:8C22H         LINE#         245
  C:8C46H         LINE#         246
  C:8C46H         LINE#         248
  C:8C5AH         LINE#         249
  C:8C86H         LINE#         250
  C:8C8FH         LINE#         252
  C:8CA9H         LINE#         253
  C:8CB7H         LINE#         254
  C:8CB8H         LINE#         255
  C:8CB8H         LINE#         256
  -------         ENDPROC       _GET_ORIGINAL_POWER
  -------         PROC          _GET_ORIGINAL_IRMS
  X:0757H         SYMBOL        avr_times
  X:0758H         SYMBOL        ch
  -------         DO            
  X:0759H         SYMBOL        val
  X:075DH         SYMBOL        i
  X:075EH         SYMBOL        aery_old
  D:0004H         SYMBOL        aery_val
  X:0762H         SYMBOL        avr_aery
  X:0766H         SYMBOL        TempValue
  -------         ENDDO         
  C:8CB9H         LINE#         266
  C:8CC1H         LINE#         267
  C:8CC1H         LINE#         268
  C:8CC1H         LINE#         274
  C:8CCFH         LINE#         276
  C:8CD9H         LINE#         277
  C:8CDEH         LINE#         278
  C:8CF2H         LINE#         279
  C:8CF2H         LINE#         280
  C:8D00H         LINE#         281
  C:8D06H         LINE#         282
BL51 BANKED LINKER/LOCATER V6.22                                                      03/11/2019  10:41:19  PAGE 60


  C:8D0BH         LINE#         283
  C:8D19H         LINE#         284
  C:8D1FH         LINE#         285
  C:8D1FH         LINE#         286
  C:8D26H         LINE#         287
  C:8D28H         LINE#         289
  C:8D28H         LINE#         291
  C:8D36H         LINE#         292
  C:8D36H         LINE#         293
  C:8D49H         LINE#         294
  C:8D54H         LINE#         295
  C:8D68H         LINE#         296
  C:8D6AH         LINE#         298
  C:8D6AH         LINE#         299
  C:8D71H         LINE#         300
  C:8D71H         LINE#         301
  C:8D71H         LINE#         303
  C:8D8BH         LINE#         304
  C:8D8BH         LINE#         305
  C:8DAFH         LINE#         306
  C:8DAFH         LINE#         308
  C:8DC3H         LINE#         309
  C:8DEFH         LINE#         310
  C:8DF8H         LINE#         312
  C:8E12H         LINE#         313
  C:8E20H         LINE#         314
  C:8E21H         LINE#         315
  C:8E21H         LINE#         316
  -------         ENDPROC       _GET_ORIGINAL_IRMS
  C:A77EH         SYMBOL        L?0165
  C:A792H         SYMBOL        L?0166
  -------         PROC          L?0164
  -------         ENDPROC       L?0164
  C:A77EH         SYMBOL        L?0165
  C:A792H         SYMBOL        L?0166
  -------         PROC          _CALCULATESC
  D:0004H         SYMBOL        CurValue
  X:00CBH         SYMBOL        TarValue
  -------         DO            
  D:0004H         SYMBOL        s32_tmp0
  X:00CFH         SYMBOL        f_CurValue
  X:00D3H         SYMBOL        f_TarValue
  X:00D7H         SYMBOL        f_Error
  X:00DBH         SYMBOL        f_s32_tmp0
  X:00DFH         SYMBOL        f_s32_tmp1
  D:0004H         SYMBOL        f_s32_tmp2
  D:0004H         SYMBOL        f_s32_tmp3
  -------         ENDDO         
  C:A79DH         LINE#         337
  C:A79DH         LINE#         338
  C:A79DH         LINE#         345
  C:A7A7H         LINE#         346
  C:A7BFH         LINE#         347
  C:A801H         LINE#         349
  C:A831H         LINE#         351
  C:A84FH         LINE#         353
  C:A866H         LINE#         355
BL51 BANKED LINKER/LOCATER V6.22                                                      03/11/2019  10:41:19  PAGE 61


  C:A869H         LINE#         356
  C:A86CH         LINE#         357
  C:A86CH         LINE#         358
  -------         ENDPROC       _CALCULATESC
  -------         PROC          _CALCULATEAC
  X:00C8H         SYMBOL        CurValue
  X:00CCH         SYMBOL        TarValue
  -------         DO            
  X:00D0H         SYMBOL        Error
  D:0007H         SYMBOL        Result
  X:00D2H         SYMBOL        JCFH
  -------         ENDDO         
  C:A285H         LINE#         378
  C:A28BH         LINE#         379
  C:A28BH         LINE#         385
  C:A290H         LINE#         386
  C:A2ACH         LINE#         388
  C:A2CCH         LINE#         389
  C:A2CCH         LINE#         391
  C:A313H         LINE#         392
  C:A317H         LINE#         393
  C:A319H         LINE#         395
  C:A319H         LINE#         397
  C:A363H         LINE#         398
  C:A363H         LINE#         399
  C:A37CH         LINE#         400
  C:A383H         LINE#         401
  C:A383H         LINE#         402
  C:A387H         LINE#         403
  C:A387H         LINE#         404
  C:A387H         LINE#         405
  -------         ENDPROC       _CALCULATEAC
  -------         PROC          _SOFTADJUST_IB_PROCESS
  X:07B0H         SYMBOL        jzval
  X:07B4H         SYMBOL        channel
  -------         DO            
  X:07B5H         SYMBOL        val
  D:0004H         SYMBOL        adjust_wcval
  -------         ENDDO         
  C:9F5DH         LINE#         414
  C:9F63H         LINE#         415
  C:9F63H         LINE#         416
  C:9F63H         LINE#         419
  C:9F71H         LINE#         420
  C:9F77H         LINE#         421
  C:9F77H         LINE#         422
  C:9F7FH         LINE#         423
  C:9F9AH         LINE#         424
  C:9FB5H         LINE#         425
  C:9FB7H         LINE#         427
  C:9FB7H         LINE#         428
  C:9FC1H         LINE#         429
  C:9FDFH         LINE#         431
  C:9FFDH         LINE#         432
  C:9FFDH         LINE#         433
  C:A007H         LINE#         434
  C:A034H         LINE#         436
BL51 BANKED LINKER/LOCATER V6.22                                                      03/11/2019  10:41:19  PAGE 62


  C:A042H         LINE#         437
  C:A048H         LINE#         438
  C:A048H         LINE#         439
  C:A057H         LINE#         440
  C:A059H         LINE#         442
  C:A059H         LINE#         443
  C:A06DH         LINE#         444
  C:A06DH         LINE#         445
  -------         ENDPROC       _SOFTADJUST_IB_PROCESS
  -------         PROC          _SOFTADJUST_IB5_PROCESS
  X:07B9H         SYMBOL        jzval
  X:07BDH         SYMBOL        channel
  -------         DO            
  B:0020H.5       SYMBOL        Flag_fu
  X:07BEH         SYMBOL        val
  D:0004H         SYMBOL        adjust_wcval
  -------         ENDDO         
  C:B409H         LINE#         454
  C:B40FH         LINE#         455
  C:B40FH         LINE#         456
  C:B411H         LINE#         462
  C:B41FH         LINE#         463
  C:B429H         LINE#         464
  C:B42FH         LINE#         465
  C:B42FH         LINE#         466
  C:B448H         LINE#         467
  C:B44AH         LINE#         469
  C:B44AH         LINE#         471
  C:B468H         LINE#         472
  C:B468H         LINE#         473
  C:B472H         LINE#         474
  C:B4A3H         LINE#         476
  C:B4B1H         LINE#         477
  C:B4B7H         LINE#         478
  C:B4B7H         LINE#         479
  C:B4C6H         LINE#         480
  C:B4C8H         LINE#         482
  C:B4C8H         LINE#         483
  C:B4DCH         LINE#         484
  C:B4DCH         LINE#         486
  -------         ENDPROC       _SOFTADJUST_IB5_PROCESS
  -------         PROC          _SOFTADJUST_PHASE_PROCESS
  X:07C2H         SYMBOL        jzval
  X:07C6H         SYMBOL        channel
  -------         DO            
  X:07C7H         SYMBOL        val
  D:0004H         SYMBOL        adjust_wcval
  -------         ENDDO         
  C:7490H         LINE#         495
  C:7496H         LINE#         496
  C:7496H         LINE#         497
  C:7496H         LINE#         502
  C:74A4H         LINE#         503
  C:74AEH         LINE#         504
  C:74B4H         LINE#         505
  C:74B4H         LINE#         506
  C:74CDH         LINE#         507
BL51 BANKED LINKER/LOCATER V6.22                                                      03/11/2019  10:41:19  PAGE 63


  C:74CFH         LINE#         509
  C:74CFH         LINE#         510
  C:74E5H         LINE#         511
  C:74E5H         LINE#         512
  C:74F3H         LINE#         514
  C:74F8H         LINE#         515
  C:74FEH         LINE#         516
  C:7503H         LINE#         518
  C:750DH         LINE#         519
  C:753EH         LINE#         521
  C:754CH         LINE#         522
  C:7552H         LINE#         523
  C:7552H         LINE#         524
  C:755EH         LINE#         525
  C:7561H         LINE#         527
  C:7561H         LINE#         528
  C:7571H         LINE#         529
  C:7571H         LINE#         530
  C:7585H         LINE#         531
  C:75ABH         LINE#         532
  C:75C4H         LINE#         533
  C:75D5H         LINE#         534
  C:75D7H         LINE#         536
  C:75D7H         LINE#         537
  C:75FAH         LINE#         538
  C:7613H         LINE#         539
  C:762CH         LINE#         540
  C:762CH         LINE#         541
  C:7636H         LINE#         542
  C:7664H         LINE#         543
  C:7664H         LINE#         545
  -------         ENDPROC       _SOFTADJUST_PHASE_PROCESS
  -------         PROC          _CALCULATESCHZ
  D:0006H         SYMBOL        error
  X:0004H         SYMBOL        LastSC
  -------         DO            
  X:0008H         SYMBOL        Error
  X:000AH         SYMBOL        Stemp0remd
  X:000CH         SYMBOL        Stemp2remd
  X:000EH         SYMBOL        Stemp0
  X:0012H         SYMBOL        Stemp1
  X:0016H         SYMBOL        Stemp2
  D:0004H         SYMBOL        Stemp3
  D:0004H         SYMBOL        Result
  -------         ENDDO         
  C:822EH         LINE#         593
  C:822EH         LINE#         594
  C:822EH         LINE#         603
  C:8236H         LINE#         604
  C:8257H         LINE#         605
  C:827FH         LINE#         606
  C:82A6H         LINE#         607
  C:82FAH         LINE#         609
  C:8326H         LINE#         610
  C:8358H         LINE#         611
  C:8378H         LINE#         612
  C:83AFH         LINE#         614
BL51 BANKED LINKER/LOCATER V6.22                                                      03/11/2019  10:41:19  PAGE 64


  C:83CAH         LINE#         615
  C:83CAH         LINE#         617
  -------         ENDPROC       _CALCULATESCHZ
  -------         PROC          TIMEEVENTPROC
  -------         DO            
  X:05B0H         SYMBOL        temp
  X:0000H         SYMBOL        HZ
  -------         ENDDO         
  C:A587H         LINE#         618
  C:A587H         LINE#         619
  C:A587H         LINE#         623
  C:A5A7H         LINE#         624
  C:A5C1H         LINE#         625
  C:A5C1H         LINE#         626
  C:A5D5H         LINE#         627
  C:A5DEH         LINE#         628
  C:A5DEH         LINE#         629
  C:A5EBH         LINE#         630
  C:A5EBH         LINE#         631
  C:A5EDH         LINE#         632
  C:A5FDH         LINE#         633
  C:A5FDH         LINE#         634
  C:A639H         LINE#         635
  C:A654H         LINE#         636
  C:A654H         LINE#         638
  C:A654H         LINE#         639
  C:A66FH         LINE#         640
  C:A683H         LINE#         641
  C:A683H         LINE#         642
  C:A683H         LINE#         644
  -------         ENDPROC       TIMEEVENTPROC
  -------         PROC          HARDWARE_ADJUSTDIV_SUB
  -------         DO            
  X:0632H         SYMBOL        i
  X:0633H         SYMBOL        val
  X:0637H         SYMBOL        tmpval
  X:063BH         SYMBOL        tmpval1
  X:063FH         SYMBOL        jzwcval
  X:0643H         SYMBOL        ajust1_type
  X:0644H         SYMBOL        ajust2_type
  X:0645H         SYMBOL        cmp_val
  X:0655H         SYMBOL        adjust1_wcval
  X:0659H         SYMBOL        adjust2_wcval
  X:065DH         SYMBOL        TempValue
  -------         ENDDO         
  C:2DF2H         LINE#         651
  C:2DF2H         LINE#         652
  C:2DF2H         LINE#         656
  C:2DFCH         LINE#         665
  C:2E02H         LINE#         668
  C:2E08H         LINE#         670
  C:2E14H         LINE#         671
  C:2E3AH         LINE#         672
  C:2E60H         LINE#         673
  C:2E86H         LINE#         674
  C:2EACH         LINE#         676
  C:2EBAH         LINE#         679
BL51 BANKED LINKER/LOCATER V6.22                                                      03/11/2019  10:41:19  PAGE 65


  C:2EC7H         LINE#         680
  C:2EE9H         LINE#         681
  C:2EE9H         LINE#         682
  C:2EEEH         LINE#         683
  C:2EF1H         LINE#         684
  C:2F13H         LINE#         685
  C:2F13H         LINE#         686
  C:2F19H         LINE#         687
  C:2F1BH         LINE#         688
  C:2F3DH         LINE#         689
  C:2F3DH         LINE#         690
  C:2F43H         LINE#         691
  C:2F45H         LINE#         692
  C:2F68H         LINE#         693
  C:2F68H         LINE#         694
  C:2F6BH         LINE#         695
  C:2F6DH         LINE#         697
  C:2F6DH         LINE#         698
  C:2F70H         LINE#         699
  C:2F70H         LINE#         730
  C:2F76H         LINE#         731
  C:2F76H         LINE#         732
  C:2F80H         LINE#         733
  C:2F8AH         LINE#         734
  C:2F8FH         LINE#         735
  C:2F8FH         LINE#         738
  C:2F9AH         LINE#         739
  C:2F9AH         LINE#         741
  C:2FB0H         LINE#         744
  C:2FBAH         LINE#         745
  C:2FBFH         LINE#         746
  C:2FBFH         LINE#         747
  C:2FC6H         LINE#         748
  C:2FD3H         LINE#         749
  C:2FEDH         LINE#         750
  C:2FEDH         LINE#         751
  C:3011H         LINE#         752
  C:3011H         LINE#         753
  C:303DH         LINE#         754
  C:304BH         LINE#         755
  C:305AH         LINE#         756
  C:3077H         LINE#         758
  C:30ACH         LINE#         760
  C:30B6H         LINE#         761
  C:30BBH         LINE#         762
  C:30BBH         LINE#         763
  C:30C2H         LINE#         764
  C:30CFH         LINE#         765
  C:30E9H         LINE#         766
  C:30E9H         LINE#         767
  C:310DH         LINE#         768
  C:310DH         LINE#         769
  C:3139H         LINE#         770
  C:3147H         LINE#         771
  C:3156H         LINE#         772
  C:3173H         LINE#         774
  C:31A8H         LINE#         775
BL51 BANKED LINKER/LOCATER V6.22                                                      03/11/2019  10:41:19  PAGE 66


  C:31ADH         LINE#         777
  C:31BBH         LINE#         778
  C:31BBH         LINE#         781
  C:31C2H         LINE#         782
  C:31C2H         LINE#         783
  C:31DFH         LINE#         784
  C:31F5H         LINE#         785
  C:31FAH         LINE#         787
  C:31FAH         LINE#         789
  C:3201H         LINE#         790
  C:3201H         LINE#         791
  C:321EH         LINE#         792
  C:3234H         LINE#         793
  C:3239H         LINE#         795
  C:3239H         LINE#         801
  C:3240H         LINE#         802
  C:3240H         LINE#         803
  C:324AH         LINE#         804
  C:3254H         LINE#         805
  C:3259H         LINE#         806
  C:3259H         LINE#         809
  C:3264H         LINE#         810
  C:3264H         LINE#         812
  C:3274H         LINE#         813
  C:327EH         LINE#         814
  C:3283H         LINE#         815
  C:3283H         LINE#         816
  C:3291H         LINE#         817
  C:3291H         LINE#         818
  C:32A4H         LINE#         819
  C:32AFH         LINE#         820
  C:32C3H         LINE#         821
  C:32C5H         LINE#         823
  C:32C5H         LINE#         824
  C:32CCH         LINE#         825
  C:32CCH         LINE#         826
  C:32E6H         LINE#         827
  C:32E6H         LINE#         828
  C:330AH         LINE#         829
  C:330AH         LINE#         830
  C:3336H         LINE#         831
  C:3344H         LINE#         832
  C:3353H         LINE#         833
  C:3370H         LINE#         835
  C:33A5H         LINE#         838
  C:33AFH         LINE#         839
  C:33B4H         LINE#         840
  C:33B4H         LINE#         841
  C:33C2H         LINE#         842
  C:33C2H         LINE#         843
  C:33D5H         LINE#         844
  C:33E0H         LINE#         845
  C:33F4H         LINE#         846
  C:33F6H         LINE#         848
  C:33F6H         LINE#         849
  C:33FDH         LINE#         850
  C:33FDH         LINE#         851
BL51 BANKED LINKER/LOCATER V6.22                                                      03/11/2019  10:41:19  PAGE 67


  C:3417H         LINE#         852
  C:3417H         LINE#         853
  C:343BH         LINE#         854
  C:343BH         LINE#         855
  C:3467H         LINE#         856
  C:3475H         LINE#         857
  C:3484H         LINE#         858
  C:34A1H         LINE#         860
  C:34D6H         LINE#         861
  C:34DBH         LINE#         862
  C:34DBH         LINE#         864
  C:34E2H         LINE#         865
  C:34E2H         LINE#         866
  C:34FFH         LINE#         867
  C:3516H         LINE#         868
  C:351BH         LINE#         869
  C:351BH         LINE#         871
  C:3522H         LINE#         872
  C:3522H         LINE#         873
  C:353FH         LINE#         874
  C:3556H         LINE#         875
  C:355BH         LINE#         876
  C:355BH         LINE#         878
  C:356BH         LINE#         879
  C:356BH         LINE#         880
  C:356EH         LINE#         881
  C:357CH         LINE#         883
  C:358AH         LINE#         886
  C:358DH         LINE#         888
  C:35A2H         LINE#         889
  C:35B0H         LINE#         891
  C:35B5H         LINE#         892
  C:35B5H         LINE#         894
  C:35B8H         LINE#         895
  C:35BBH         LINE#         896
  C:35C9H         LINE#         897
  C:35CEH         LINE#         899
  -------         ENDPROC       HARDWARE_ADJUSTDIV_SUB
  -------         PROC          _MEASURE_ELECTRIC_ERR_GAIN
  X:0095H         SYMBOL        sptr
  -------         DO            
  X:0098H         SYMBOL        u32_tmp_U
  X:009CH         SYMBOL        u32_tmp_A
  X:00A0H         SYMBOL        u32_tmp_P
  X:00A4H         SYMBOL        u32_tmp
  X:00A8H         SYMBOL        errbuf
  X:00AFH         SYMBOL        Err_Data
  -------         ENDDO         
  C:5562H         LINE#         908
  C:556DH         LINE#         909
  C:556DH         LINE#         915
  C:5572H         LINE#         916
  C:558CH         LINE#         917
  C:55C4H         LINE#         918
  C:55FCH         LINE#         919
  C:560BH         LINE#         921
  C:5610H         LINE#         922
BL51 BANKED LINKER/LOCATER V6.22                                                      03/11/2019  10:41:19  PAGE 68


  C:562AH         LINE#         923
  C:5662H         LINE#         924
  C:569AH         LINE#         925
  C:56A9H         LINE#         927
  C:56AEH         LINE#         928
  C:56C8H         LINE#         929
  C:5700H         LINE#         930
  C:5738H         LINE#         931
  C:5747H         LINE#         934
  C:5772H         LINE#         935
  C:5777H         LINE#         936
  C:5786H         LINE#         938
  C:57BFH         LINE#         939
  C:57BFH         LINE#         940
  C:57BFH         LINE#         941
  C:57BFH         LINE#         942
  C:57D0H         LINE#         943
  C:57DEH         LINE#         944
  C:5803H         LINE#         945
  C:5805H         LINE#         946
  C:5805H         LINE#         947
  C:5805H         LINE#         948
  C:5816H         LINE#         949
  C:5818H         LINE#         950
  C:5818H         LINE#         951
  C:5818H         LINE#         952
  C:5829H         LINE#         953
  C:5829H         LINE#         954
  C:5829H         LINE#         956
  C:5829H         LINE#         957
  C:582CH         LINE#         958
  C:582FH         LINE#         959
  C:583DH         LINE#         960
  -------         ENDPROC       _MEASURE_ELECTRIC_ERR_GAIN
  -------         PROC          _CALIBRATION_POWER
  X:00B3H         SYMBOL        f_err_data
  -------         DO            
  X:00B7H         SYMBOL        offset
  X:00B8H         SYMBOL        u32_tmp
  X:00BCH         SYMBOL        u32_PMdataltemp
  X:05B4H         SYMBOL        temp
  X:00C0H         SYMBOL        HZ
  -------         ENDDO         
  C:B8D1H         LINE#         966
  C:B8D7H         LINE#         967
  C:B8D7H         LINE#         968
  C:B8D7H         LINE#         974
  C:B8E5H         LINE#         976
  C:B8FBH         LINE#         977
  C:B8FBH         LINE#         978
  C:B8FBH         LINE#         979
  C:B8FBH         LINE#         981
  C:B8FBH         LINE#         982
  C:B927H         LINE#         983
  C:B927H         LINE#         1004
  C:B942H         LINE#         1005
  C:B942H         LINE#         1007
BL51 BANKED LINKER/LOCATER V6.22                                                      03/11/2019  10:41:19  PAGE 69


  C:B94FH         LINE#         1008
  C:B965H         LINE#         1009
  C:B980H         LINE#         1010
  C:B994H         LINE#         1012
  C:B994H         LINE#         1015
  -------         ENDPROC       _CALIBRATION_POWER
  -------         PROC          _CALIBRATION_CURRENT
  X:00B3H         SYMBOL        Current
  X:00B7H         SYMBOL        Voltage
  -------         DO            
  X:00BBH         SYMBOL        u32_tmp
  X:00BFH         SYMBOL        u32_PMdataltemp
  X:00C3H         SYMBOL        u32_PMdataltempSII1
  -------         ENDDO         
  C:5D3AH         LINE#         1024
  C:5D40H         LINE#         1025
  C:5D40H         LINE#         1028
  C:5D5EH         LINE#         1029
  C:5D5EH         LINE#         1031
  C:5D6BH         LINE#         1032
  C:5D97H         LINE#         1033
  C:5DA4H         LINE#         1034
  C:5DBDH         LINE#         1035
  C:5DBDH         LINE#         1037
  C:5DC6H         LINE#         1038
  C:5DDAH         LINE#         1039
  C:5DDAH         LINE#         1042
  C:5DE7H         LINE#         1043
  C:5E2DH         LINE#         1044
  C:5E3AH         LINE#         1045
  C:5E56H         LINE#         1046
  C:5E56H         LINE#         1048
  C:5E56H         LINE#         1049
  C:5E56H         LINE#         1050
  C:5E56H         LINE#         1051
  C:5E56H         LINE#         1052
  C:5E59H         LINE#         1053
  C:5E77H         LINE#         1054
  C:5E77H         LINE#         1056
  C:5E84H         LINE#         1057
  C:5EB0H         LINE#         1058
  C:5EBDH         LINE#         1059
  C:5ED6H         LINE#         1060
  C:5ED6H         LINE#         1062
  C:5EDFH         LINE#         1063
  C:5EF3H         LINE#         1064
  C:5EF3H         LINE#         1067
  C:5F00H         LINE#         1068
  C:5F46H         LINE#         1069
  C:5F53H         LINE#         1070
  C:5F6CH         LINE#         1071
  C:5F6CH         LINE#         1073
  C:5F78H         LINE#         1074
  C:5F8CH         LINE#         1075
  C:5FA7H         LINE#         1076
  C:5FA7H         LINE#         1077
  C:5FA7H         LINE#         1081
BL51 BANKED LINKER/LOCATER V6.22                                                      03/11/2019  10:41:19  PAGE 70


  -------         ENDPROC       _CALIBRATION_CURRENT
  -------         PROC          _CALIBRATION_ANGULAR
  X:00B3H         SYMBOL        f_err_data
  -------         DO            
  X:00B7H         SYMBOL        u32_tmp
  X:00BBH         SYMBOL        u32_PMdataltemp
  X:00BFH         SYMBOL        offset
  X:00C0H         SYMBOL        PHCCTRL1_adj_val
  X:00C4H         SYMBOL        PHCCTRL2_adj_val
  -------         ENDDO         
  C:9D24H         LINE#         1088
  C:9D2AH         LINE#         1089
  C:9D2AH         LINE#         1094
  C:9D40H         LINE#         1095
  C:9D40H         LINE#         1096
  C:9D40H         LINE#         1097
  C:9D40H         LINE#         1099
  C:9D40H         LINE#         1100
  C:9D6CH         LINE#         1101
  C:9D6CH         LINE#         1103
  C:9D91H         LINE#         1140
  C:9DACH         LINE#         1141
  C:9DACH         LINE#         1142
  C:9DC0H         LINE#         1143
  C:9DD7H         LINE#         1144
  C:9DE9H         LINE#         1145
  C:9DEBH         LINE#         1146
  C:9E06H         LINE#         1147
  C:9E06H         LINE#         1148
  C:9E1AH         LINE#         1149
  C:9E31H         LINE#         1150
  C:9E47H         LINE#         1152
  C:9E47H         LINE#         1155
  -------         ENDPROC       _CALIBRATION_ANGULAR
  -------         PROC          _CALIBRATION_SMALL_SIGNAL
  X:00B3H         SYMBOL        f_err_data
  -------         DO            
  X:00B7H         SYMBOL        u32_PMdataltemp
  X:00BBH         SYMBOL        offset
  X:00BCH         SYMBOL        s32_tmp
  X:00C0H         SYMBOL        s32_PMdataltemp
  -------         ENDDO         
  C:7D3EH         LINE#         1162
  C:7D44H         LINE#         1163
  C:7D44H         LINE#         1200
  C:7D62H         LINE#         1201
  C:7D62H         LINE#         1202
  C:7D6FH         LINE#         1204
  C:7DA5H         LINE#         1206
  C:7DAAH         LINE#         1207
  C:7DD0H         LINE#         1208
  C:7DE5H         LINE#         1211
  C:7E00H         LINE#         1212
  C:7E11H         LINE#         1213
  C:7E14H         LINE#         1215
  C:7E32H         LINE#         1216
  C:7E32H         LINE#         1217
BL51 BANKED LINKER/LOCATER V6.22                                                      03/11/2019  10:41:19  PAGE 71


  C:7E3FH         LINE#         1219
  C:7E75H         LINE#         1221
  C:7E7AH         LINE#         1222
  C:7EA0H         LINE#         1223
  C:7EB5H         LINE#         1226
  C:7ED0H         LINE#         1227
  C:7EE4H         LINE#         1228
  C:7EE4H         LINE#         1231
  -------         ENDPROC       _CALIBRATION_SMALL_SIGNAL
  -------         ENDMOD        LNK_EMU_ADJ

  -------         MODULE        LNK_EMU_HANDL
  C:0000H         SYMBOL        _ICE_DUMMY_
  D:0090H         PUBLIC        P1
  C:6D0AH         PUBLIC        _Lnk_get_EMU_activePower
  D:00B0H         PUBLIC        P3
  C:7EE5H         PUBLIC        lnk_CAL_EMU_constSum_per_second
  D:00A8H         PUBLIC        IE
  D:00ADH         PUBLIC        P9FC
  D:00B8H         PUBLIC        IP
  D:00A4H         PUBLIC        P9OE
  C:F08EH         PUBLIC        Init_EMU_RAM
  C:B0A7H         PUBLIC        _Lnk_get_EMU_freq
  D:0098H         PUBLIC        SCON
  D:0088H         PUBLIC        TCON
  D:00F0H         PUBLIC        B
  D:00E0H         PUBLIC        ACC
  D:00E8H         PUBLIC        EIE
  D:0080H         PUBLIC        SysCtrl
  C:5AC1H         PUBLIC        _Init_EMU
  B:0080H.4       PUBLIC        PMG
  X:07F2H         PUBLIC        gs_emu_run_var
  D:00C8H         PUBLIC        T2CON
  C:8F8AH         PUBLIC        _Lnk_get_EMU_voltage
  C:3BD8H         PUBLIC        Lnk_get_EMU_ractive_const
  C:7B8FH         PUBLIC        _Lnk_get_EMU_ractivePower
  C:9AD0H         PUBLIC        _Lnk_get_EMU_current
  D:00D0H         PUBLIC        PSW
  -------         PROC          INIT_EMU_RAM
  C:F08EH         LINE#         31
  C:F08EH         LINE#         32
  C:F08EH         LINE#         33
  -------         ENDPROC       INIT_EMU_RAM
  -------         PROC          _INIT_EMU
  X:0000H         SYMBOL        u8_mode
  C:5AC1H         LINE#         43
  C:5AC6H         LINE#         44
  C:5AC6H         LINE#         157
  C:5AC9H         LINE#         158
  C:5AC9H         LINE#         159
  C:5ACFH         LINE#         160
  C:5AD2H         LINE#         161
  C:5AD5H         LINE#         163
  C:5AD5H         LINE#         165
  C:5AD7H         LINE#         167
  C:5AECH         LINE#         168
  C:5B01H         LINE#         170
BL51 BANKED LINKER/LOCATER V6.22                                                      03/11/2019  10:41:19  PAGE 72


  C:5B07H         LINE#         171
  C:5B0AH         LINE#         172
  C:5B10H         LINE#         173
  C:5B10H         LINE#         174
  C:5B18H         LINE#         175
  C:5B1FH         LINE#         176
  C:5B31H         LINE#         177
  C:5B33H         LINE#         178
  C:5B40H         LINE#         179
  C:5B40H         LINE#         180
  C:5B4BH         LINE#         181
  C:5B52H         LINE#         182
  C:5B67H         LINE#         183
  C:5B69H         LINE#         185
  C:5B69H         LINE#         186
  C:5B6CH         LINE#         187
  C:5B6CH         LINE#         188
  C:5B72H         LINE#         191
  C:5B87H         LINE#         192
  C:5B9CH         LINE#         196
  C:5BB1H         LINE#         197
  C:5BC6H         LINE#         201
  C:5BDBH         LINE#         206
  C:5BF0H         LINE#         208
  C:5C05H         LINE#         211
  C:5C1AH         LINE#         212
  C:5C2FH         LINE#         213
  C:5C44H         LINE#         214
  C:5C59H         LINE#         215
  C:5C6EH         LINE#         216
  C:5C83H         LINE#         217
  C:5C98H         LINE#         218
  C:5CADH         LINE#         220
  C:5CC2H         LINE#         225
  C:5CD7H         LINE#         226
  C:5CECH         LINE#         228
  C:5D01H         LINE#         231
  C:5D16H         LINE#         232
  C:5D19H         LINE#         233
  C:5D1CH         LINE#         234
  C:5D1FH         LINE#         235
  C:5D22H         LINE#         236
  C:5D25H         LINE#         237
  C:5D2CH         LINE#         238
  C:5D33H         LINE#         240
  C:5D39H         LINE#         244
  -------         ENDPROC       _INIT_EMU
  -------         PROC          _LNK_GET_EMU_VOLTAGE
  X:000CH         SYMBOL        ch
  -------         DO            
  X:000DH         SYMBOL        val
  X:0011H         SYMBOL        tmpval
  X:0015H         SYMBOL        f32_tmp
  X:0019H         SYMBOL        TempValue
  -------         ENDDO         
  C:8F8AH         LINE#         252
  C:8F8FH         LINE#         253
BL51 BANKED LINKER/LOCATER V6.22                                                      03/11/2019  10:41:19  PAGE 73


  C:8F8FH         LINE#         257
  C:8F93H         LINE#         258
  C:8F93H         LINE#         259
  C:8FA0H         LINE#         260
  C:8FBAH         LINE#         261
  C:8FBAH         LINE#         262
  C:8FDEH         LINE#         263
  C:8FDEH         LINE#         264
  C:8FDEH         LINE#         265
  C:8FDEH         LINE#         266
  C:8FE1H         LINE#         267
  C:8FECH         LINE#         268
  C:8FECH         LINE#         269
  C:8FF9H         LINE#         270
  C:8FF9H         LINE#         271
  C:900CH         LINE#         272
  C:9017H         LINE#         273
  C:902BH         LINE#         274
  C:902DH         LINE#         276
  C:902DH         LINE#         277
  C:9034H         LINE#         278
  C:9034H         LINE#         280
  C:904EH         LINE#         281
  C:904EH         LINE#         282
  C:9072H         LINE#         283
  C:9072H         LINE#         284
  C:909BH         LINE#         285
  C:90B2H         LINE#         286
  C:90B4H         LINE#         288
  C:90B4H         LINE#         289
  C:90BEH         LINE#         290
  C:90BEH         LINE#         293
  C:90E2H         LINE#         295
  C:90F0H         LINE#         298
  -------         ENDPROC       _LNK_GET_EMU_VOLTAGE
  -------         PROC          _LNK_GET_EMU_CURRENT
  X:000CH         SYMBOL        ch
  -------         DO            
  X:000DH         SYMBOL        val
  X:0011H         SYMBOL        tmpval
  X:0015H         SYMBOL        f32_tmp
  X:0019H         SYMBOL        TempValue
  -------         ENDDO         
  C:9AD0H         LINE#         306
  C:9AD5H         LINE#         307
  C:9AD5H         LINE#         312
  C:9AD9H         LINE#         313
  C:9AD9H         LINE#         314
  C:9AE6H         LINE#         315
  C:9B00H         LINE#         316
  C:9B00H         LINE#         317
  C:9B24H         LINE#         318
  C:9B24H         LINE#         319
  C:9B24H         LINE#         320
  C:9B24H         LINE#         321
  C:9B26H         LINE#         322
  C:9B31H         LINE#         323
BL51 BANKED LINKER/LOCATER V6.22                                                      03/11/2019  10:41:19  PAGE 74


  C:9B31H         LINE#         324
  C:9B3EH         LINE#         325
  C:9B58H         LINE#         326
  C:9B58H         LINE#         327
  C:9B7CH         LINE#         328
  C:9B7CH         LINE#         329
  C:9BA5H         LINE#         330
  C:9BBCH         LINE#         332
  C:9BBEH         LINE#         334
  C:9BBEH         LINE#         335
  C:9BC8H         LINE#         336
  C:9BC8H         LINE#         338
  C:9BECH         LINE#         340
  C:9BFAH         LINE#         342
  -------         ENDPROC       _LNK_GET_EMU_CURRENT
  -------         PROC          _LNK_GET_EMU_ACTIVEPOWER
  X:071BH         SYMBOL        ch
  -------         DO            
  X:071CH         SYMBOL        val
  X:0720H         SYMBOL        val2
  X:0724H         SYMBOL        tmpval
  X:0728H         SYMBOL        f32_tmp
  X:072CH         SYMBOL        TempValue
  -------         ENDDO         
  C:6D0AH         LINE#         350
  C:6D0FH         LINE#         351
  C:6D0FH         LINE#         356
  C:6D14H         LINE#         357
  C:6D14H         LINE#         358
  C:6D21H         LINE#         359
  C:6D2FH         LINE#         360
  C:6D2FH         LINE#         361
  C:6D42H         LINE#         362
  C:6D4DH         LINE#         363
  C:6D61H         LINE#         364
  C:6D63H         LINE#         366
  C:6D63H         LINE#         367
  C:6D6AH         LINE#         368
  C:6D6AH         LINE#         370
  C:6D96H         LINE#         371
  C:6D96H         LINE#         372
  C:6D9DH         LINE#         373
  C:6D9DH         LINE#         375
  C:6DAAH         LINE#         376
  C:6DC7H         LINE#         377
  C:6DC7H         LINE#         378
  C:6DC7H         LINE#         380
  C:6DC7H         LINE#         382
  C:6DC9H         LINE#         383
  C:6DD4H         LINE#         384
  C:6DD4H         LINE#         386
  C:6DE1H         LINE#         387
  C:6DE1H         LINE#         388
  C:6DF4H         LINE#         389
  C:6DFFH         LINE#         390
  C:6E13H         LINE#         391
  C:6E15H         LINE#         393
BL51 BANKED LINKER/LOCATER V6.22                                                      03/11/2019  10:41:19  PAGE 75


  C:6E15H         LINE#         394
  C:6E1CH         LINE#         395
  C:6E1CH         LINE#         397
  C:6E36H         LINE#         398
  C:6E36H         LINE#         399
  C:6E5AH         LINE#         401
  C:6E5AH         LINE#         402
  C:6E5CH         LINE#         404
  C:6E5CH         LINE#         405
  C:6E66H         LINE#         406
  C:6E66H         LINE#         408
  C:6E81H         LINE#         409
  C:6E81H         LINE#         410
  C:6E8BH         LINE#         413
  C:6E8DH         LINE#         415
  C:6E8DH         LINE#         416
  C:6EB3H         LINE#         417
  C:6ED9H         LINE#         418
  C:6EF0H         LINE#         419
  C:6EF0H         LINE#         422
  C:6EF0H         LINE#         423
  C:6EF0H         LINE#         425
  C:6EF0H         LINE#         427
  C:6EF0H         LINE#         429
  C:6EF0H         LINE#         432
  C:6EFEH         LINE#         433
  -------         ENDPROC       _LNK_GET_EMU_ACTIVEPOWER
  -------         PROC          _LNK_GET_EMU_FREQ
  X:000CH         SYMBOL        ch
  -------         DO            
  X:000DH         SYMBOL        val
  X:0011H         SYMBOL        tmpval
  X:0015H         SYMBOL        TempValue
  -------         ENDDO         
  C:B0A7H         LINE#         441
  C:B0ACH         LINE#         442
  C:B0ACH         LINE#         445
  C:B0AFH         LINE#         446
  C:B0AFH         LINE#         447
  C:B0BCH         LINE#         448
  C:B0D1H         LINE#         449
  C:B0D3H         LINE#         450
  C:B0DBH         LINE#         451
  C:B0DBH         LINE#         452
  C:B0EAH         LINE#         453
  C:B0EAH         LINE#         454
  C:B0FCH         LINE#         455
  C:B107H         LINE#         456
  C:B11BH         LINE#         457
  C:B139H         LINE#         458
  C:B13BH         LINE#         460
  C:B13BH         LINE#         461
  C:B142H         LINE#         462
  C:B142H         LINE#         463
  C:B144H         LINE#         465
  C:B144H         LINE#         466
  C:B14EH         LINE#         467
BL51 BANKED LINKER/LOCATER V6.22                                                      03/11/2019  10:41:19  PAGE 76


  C:B14EH         LINE#         469
  C:B174H         LINE#         473
  C:B182H         LINE#         474
  -------         ENDPROC       _LNK_GET_EMU_FREQ
  -------         PROC          LNK_CAL_EMU_CONSTSUM_PER_SECOND
  -------         DO            
  X:000CH         SYMBOL        sumval0
  X:0010H         SYMBOL        val1
  X:0014H         SYMBOL        val2
  X:0018H         SYMBOL        TempValue
  -------         ENDDO         
  C:7EE5H         LINE#         483
  C:7EE5H         LINE#         484
  C:7EE5H         LINE#         499
  C:7EEFH         LINE#         529
  C:7EFCH         LINE#         530
  C:7F1AH         LINE#         531
  C:7F1AH         LINE#         532
  C:7F1DH         LINE#         533
  C:7F41H         LINE#         535
  C:7F43H         LINE#         537
  C:7F46H         LINE#         539
  C:7F5AH         LINE#         540
  C:7F75H         LINE#         541
  C:7F75H         LINE#         542
  C:7F7FH         LINE#         543
  C:7F89H         LINE#         544
  C:7F90H         LINE#         545
  C:7F90H         LINE#         546
  C:7FABH         LINE#         547
  C:7FCFH         LINE#         549
  C:7FDCH         LINE#         550
  C:7FF6H         LINE#         551
  C:7FF6H         LINE#         552
  C:801AH         LINE#         553
  C:801AH         LINE#         557
  C:802EH         LINE#         558
  C:8049H         LINE#         559
  C:8049H         LINE#         560
  C:8053H         LINE#         561
  C:805DH         LINE#         562
  C:805DH         LINE#         563
  -------         ENDPROC       LNK_CAL_EMU_CONSTSUM_PER_SECOND
  -------         PROC          LNK_GET_EMU_RACTIVE_CONST
  -------         DO            
  X:06B5H         SYMBOL        Temp_paraqc
  X:06B9H         SYMBOL        val1
  X:06BDH         SYMBOL        sumval1
  X:06C1H         SYMBOL        val2
  X:06C5H         SYMBOL        sumval2
  X:06C9H         SYMBOL        TempValue
  X:06CDH         SYMBOL        err_ec
  -------         ENDDO         
  C:3BD8H         LINE#         577
  C:3BD8H         LINE#         578
  C:3BD8H         LINE#         585
  C:3BE2H         LINE#         586
BL51 BANKED LINKER/LOCATER V6.22                                                      03/11/2019  10:41:19  PAGE 77


  C:3BECH         LINE#         587
  C:3BF6H         LINE#         589
  C:3C03H         LINE#         591
  C:3C10H         LINE#         594
  C:3C20H         LINE#         595
  C:3C20H         LINE#         596
  C:3C32H         LINE#         597
  C:3C3DH         LINE#         598
  C:3C63H         LINE#         599
  C:3C65H         LINE#         601
  C:3C65H         LINE#         602
  C:3C6DH         LINE#         604
  C:3C6DH         LINE#         606
  C:3CA3H         LINE#         607
  C:3CA3H         LINE#         608
  C:3CADH         LINE#         609
  C:3CADH         LINE#         611
  C:3CE3H         LINE#         612
  C:3CE3H         LINE#         613
  C:3CEDH         LINE#         614
  C:3CEDH         LINE#         618
  C:3CF0H         LINE#         619
  C:3CF0H         LINE#         621
  C:3CF0H         LINE#         623
  C:3CF0H         LINE#         625
  C:3CF0H         LINE#         627
  C:3CF3H         LINE#         628
  C:3CF3H         LINE#         630
  C:3CF3H         LINE#         632
  C:3CF3H         LINE#         634
  C:3CF3H         LINE#         700
  C:3CFDH         LINE#         701
  C:3CFDH         LINE#         702
  C:3D00H         LINE#         703
  C:3D00H         LINE#         704
  C:3D24H         LINE#         708
  C:3D4DH         LINE#         712
  C:3D50H         LINE#         714
  C:3D50H         LINE#         715
  C:3D72H         LINE#         716
  C:3D72H         LINE#         717
  C:3D9EH         LINE#         719
  C:3DBFH         LINE#         720
  C:3DC2H         LINE#         722
  C:3DC2H         LINE#         724
  C:3DEFH         LINE#         725
  C:3DFAH         LINE#         726
  C:3DFAH         LINE#         727
  C:3E1BH         LINE#         728
  C:3E1BH         LINE#         729
  C:3E1BH         LINE#         730
  C:3E1BH         LINE#         731
  C:3E1EH         LINE#         733
  C:3E1EH         LINE#         734
  C:3E28H         LINE#         735
  C:3E28H         LINE#         736
  C:3E4AH         LINE#         737
BL51 BANKED LINKER/LOCATER V6.22                                                      03/11/2019  10:41:19  PAGE 78


  C:3E4AH         LINE#         738
  C:3E76H         LINE#         740
  C:3E81H         LINE#         741
  C:3E81H         LINE#         742
  C:3E8CH         LINE#         743
  C:3E8EH         LINE#         745
  C:3E8EH         LINE#         746
  C:3EACH         LINE#         747
  C:3EACH         LINE#         748
  C:3EAFH         LINE#         750
  C:3EAFH         LINE#         752
  C:3EDCH         LINE#         753
  C:3EFDH         LINE#         754
  C:3EFDH         LINE#         755
  C:3EFFH         LINE#         757
  C:3EFFH         LINE#         758
  C:3F2BH         LINE#         760
  C:3F36H         LINE#         761
  C:3F36H         LINE#         762
  C:3F41H         LINE#         763
  C:3F43H         LINE#         765
  C:3F43H         LINE#         766
  C:3F64H         LINE#         767
  C:3F64H         LINE#         768
  C:3F64H         LINE#         769
  C:3F64H         LINE#         772
  C:3F99H         LINE#         774
  C:3FB8H         LINE#         775
  C:3FB8H         LINE#         776
  C:3FD7H         LINE#         777
  C:4003H         LINE#         778
  C:4021H         LINE#         779
  C:4023H         LINE#         780
  C:404AH         LINE#         782
  C:4065H         LINE#         786
  C:407FH         LINE#         787
  C:407FH         LINE#         788
  C:40A3H         LINE#         789
  C:40A3H         LINE#         791
  C:40BDH         LINE#         792
  C:40BDH         LINE#         793
  C:40E1H         LINE#         794
  C:40E1H         LINE#         795
  C:40FBH         LINE#         796
  C:40FBH         LINE#         797
  C:411FH         LINE#         798
  C:411FH         LINE#         799
  C:4143H         LINE#         800
  C:4167H         LINE#         801
  C:418BH         LINE#         802
  C:4195H         LINE#         804
  -------         ENDPROC       LNK_GET_EMU_RACTIVE_CONST
  -------         PROC          _LNK_GET_EMU_RACTIVEPOWER
  X:076AH         SYMBOL        ch
  -------         DO            
  X:076BH         SYMBOL        val
  X:076FH         SYMBOL        tmpval
BL51 BANKED LINKER/LOCATER V6.22                                                      03/11/2019  10:41:19  PAGE 79


  X:0773H         SYMBOL        f32_tmp
  X:0777H         SYMBOL        TempValue
  -------         ENDDO         
  C:7B8FH         LINE#         814
  C:7B94H         LINE#         815
  C:7B94H         LINE#         820
  C:7B97H         LINE#         821
  C:7B97H         LINE#         823
  C:7BA4H         LINE#         824
  C:7BC1H         LINE#         825
  C:7BC1H         LINE#         826
  C:7BDFH         LINE#         828
  C:7BDFH         LINE#         829
  C:7BE2H         LINE#         831
  C:7BEDH         LINE#         832
  C:7BEDH         LINE#         833
  C:7BFAH         LINE#         834
  C:7BFAH         LINE#         835
  C:7C0DH         LINE#         836
  C:7C18H         LINE#         837
  C:7C2CH         LINE#         838
  C:7C2EH         LINE#         840
  C:7C2EH         LINE#         841
  C:7C35H         LINE#         842
  C:7C35H         LINE#         845
  C:7C4FH         LINE#         846
  C:7C4FH         LINE#         847
  C:7C73H         LINE#         849
  C:7C73H         LINE#         851
  C:7C99H         LINE#         852
  C:7C9BH         LINE#         854
  C:7C9BH         LINE#         855
  C:7CA5H         LINE#         856
  C:7CA5H         LINE#         858
  C:7CC0H         LINE#         859
  C:7CC0H         LINE#         860
  C:7CCAH         LINE#         863
  C:7CCCH         LINE#         865
  C:7CCCH         LINE#         867
  C:7CF2H         LINE#         868
  C:7D18H         LINE#         869
  C:7D2FH         LINE#         870
  C:7D2FH         LINE#         872
  C:7D3DH         LINE#         873
  -------         ENDPROC       _LNK_GET_EMU_RACTIVEPOWER
  -------         ENDMOD        LNK_EMU_HANDL

  -------         MODULE        DRV_ADC
  C:0000H         SYMBOL        _ICE_DUMMY_
  D:0090H         PUBLIC        P1
  D:00B0H         PUBLIC        P3
  C:EA1FH         PUBLIC        Samlpe_temperatureAdc
  C:E529H         PUBLIC        InitParaRTC
  D:00A8H         PUBLIC        IE
  C:EB08H         PUBLIC        Disable_M_ADC
  D:00B8H         PUBLIC        IP
  C:E662H         PUBLIC        _Enable_M_ADC
BL51 BANKED LINKER/LOCATER V6.22                                                      03/11/2019  10:41:19  PAGE 80


  C:0056H         PUBLIC        Cal_temperature_data
  D:0098H         PUBLIC        SCON
  D:0088H         PUBLIC        TCON
  D:00F0H         PUBLIC        B
  D:00E0H         PUBLIC        ACC
  D:0080H         PUBLIC        SysCtrl
  D:00C8H         PUBLIC        T2CON
  C:E69EH         PUBLIC        Samlpe_BatAdc
  D:00D0H         PUBLIC        PSW
  -------         PROC          _ENABLE_M_ADC
  D:0007H         SYMBOL        m_ch
  -------         DO            
  D:0004H         SYMBOL        ctmp
  -------         ENDDO         
  C:E662H         LINE#         65
  C:E662H         LINE#         66
  C:E662H         LINE#         70
  C:E666H         LINE#         71
  C:E666H         LINE#         72
  C:E66CH         LINE#         73
  C:E66EH         LINE#         74
  C:E673H         LINE#         75
  C:E673H         LINE#         77
  C:E679H         LINE#         78
  C:E679H         LINE#         80
  C:E679H         LINE#         82
  C:E679H         LINE#         84
  C:E680H         LINE#         85
  C:E685H         LINE#         87
  C:E68CH         LINE#         88
  C:E690H         LINE#         89
  C:E69DH         LINE#         91
  -------         ENDPROC       _ENABLE_M_ADC
  -------         PROC          DISABLE_M_ADC
  -------         DO            
  D:0004H         SYMBOL        ctmp
  -------         ENDDO         
  C:EB08H         LINE#         100
  C:EB08H         LINE#         101
  C:EB08H         LINE#         104
  C:EB0FH         LINE#         105
  C:EB15H         LINE#         107
  C:EB1CH         LINE#         108
  C:EB23H         LINE#         109
  C:EB27H         LINE#         110
  -------         ENDPROC       DISABLE_M_ADC
  -------         PROC          SAMLPE_BATADC
  -------         DO            
  D:0006H         SYMBOL        nVBAT
  D:0004H         SYMBOL        u32_PMdataltemp
  -------         ENDDO         
  C:E69EH         LINE#         121
  C:E69EH         LINE#         122
  C:E69EH         LINE#         126
  C:E6A3H         LINE#         127
  C:E6AAH         LINE#         129
  C:E6B1H         LINE#         130
BL51 BANKED LINKER/LOCATER V6.22                                                      03/11/2019  10:41:19  PAGE 81


  C:E6B6H         LINE#         131
  C:E6BAH         LINE#         132
  C:E6BAH         LINE#         134
  C:E6C7H         LINE#         135
  C:E6C9H         LINE#         137
  C:E6C9H         LINE#         138
  C:E6D8H         LINE#         139
  C:E6D8H         LINE#         141
  C:E6D9H         LINE#         143
  C:E6D9H         LINE#         144
  -------         ENDPROC       SAMLPE_BATADC
  -------         PROC          SAMLPE_TEMPERATUREADC
  -------         DO            
  X:000DH         SYMBOL        temperature
  -------         ENDDO         
  C:EA1FH         LINE#         154
  C:EA1FH         LINE#         155
  C:EA1FH         LINE#         158
  C:EA24H         LINE#         159
  C:EA2BH         LINE#         160
  C:EA34H         LINE#         161
  C:EA4FH         LINE#         162
  -------         ENDPROC       SAMLPE_TEMPERATUREADC
  -------         PROC          CAL_TEMPERATURE_DATA
  -------         DO            
  X:0011H         SYMBOL        i
  X:0012H         SYMBOL        p
  X:0014H         SYMBOL        s_TempPara
  D:0004H         SYMBOL        MAdcValue
  X:0029H         SYMBOL        Kpara
  X:002BH         SYMBOL        temp1
  X:002FH         SYMBOL        temperature
  X:0033H         SYMBOL        TempParaSum
  X:0034H         SYMBOL        temp
  -------         ENDDO         
  C:0056H         LINE#         172
  C:0056H         LINE#         173
  C:0056H         LINE#         187
  C:0060H         LINE#         188
  C:006FH         LINE#         189
  C:006FH         LINE#         190
  C:008BH         LINE#         191
  C:00A3H         LINE#         192
  C:00AAH         LINE#         193
  C:00AAH         LINE#         194
  C:00AAH         LINE#         195
  C:00AAH         LINE#         196
  C:00B2H         LINE#         197
  C:00BDH         LINE#         198
  C:00C8H         LINE#         199
  C:00D3H         LINE#         200
  C:00DEH         LINE#         201
  C:00E9H         LINE#         203
  C:00F0H         LINE#         205
  C:00FBH         LINE#         206
  C:0114H         LINE#         207
  C:0140H         LINE#         209
BL51 BANKED LINKER/LOCATER V6.22                                                      03/11/2019  10:41:19  PAGE 82


  C:014CH         LINE#         210
  C:014CH         LINE#         211
  C:0156H         LINE#         212
  C:0160H         LINE#         213
  C:016AH         LINE#         214
  C:0174H         LINE#         215
  C:017EH         LINE#         216
  C:017EH         LINE#         217
  C:0241H         LINE#         220
  C:024BH         LINE#         221
  C:025AH         LINE#         222
  C:025AH         LINE#         223
  C:0276H         LINE#         224
  C:028EH         LINE#         225
  C:0298H         LINE#         226
  C:0298H         LINE#         227
  C:0298H         LINE#         228
  C:0298H         LINE#         229
  C:02A0H         LINE#         231
  C:02ACH         LINE#         232
  C:02ACH         LINE#         233
  C:02B3H         LINE#         234
  C:02B3H         LINE#         236
  C:02BAH         LINE#         237
  C:02BAH         LINE#         238
  C:02D3H         LINE#         239
  C:0313H         LINE#         240
  C:0315H         LINE#         242
  C:0315H         LINE#         243
  C:0353H         LINE#         244
  C:0353H         LINE#         246
  C:036FH         LINE#         247
  C:036FH         LINE#         248
  C:0379H         LINE#         249
  C:0395H         LINE#         250
  C:0395H         LINE#         251
  C:039FH         LINE#         252
  C:039FH         LINE#         254
  C:03ADH         LINE#         256
  -------         ENDPROC       CAL_TEMPERATURE_DATA
  -------         ENDMOD        DRV_ADC

  -------         MODULE        DRV_CORE
  C:0000H         SYMBOL        _ICE_DUMMY_
  D:0090H         PUBLIC        P1
  D:00B0H         PUBLIC        P3
  D:00A8H         PUBLIC        IE
  D:00B8H         PUBLIC        IP
  C:AE04H         PUBLIC        _Set_McuClock
  C:BD3CH         PUBLIC        _Set_EmuClock
  B:0080H.1       PUBLIC        SLEEP0
  C:DFFBH         PUBLIC        Set_McuSleep
  D:0098H         PUBLIC        SCON
  D:0088H         PUBLIC        TCON
  B:0080H.7       PUBLIC        MEAFRQ
  D:00F0H         PUBLIC        B
  C:D3AFH         PUBLIC        Set_Sleep_out
BL51 BANKED LINKER/LOCATER V6.22                                                      03/11/2019  10:41:19  PAGE 83


  D:00A3H         PUBLIC        PLLLCK
  D:00E0H         PUBLIC        ACC
  B:0080H.0       PUBLIC        MCUFRQ
  D:0080H         PUBLIC        SysCtrl
  B:0080H.5       PUBLIC        FSC
  B:0080H.6       PUBLIC        FWC
  B:0080H.4       PUBLIC        PMG
  D:00C8H         PUBLIC        T2CON
  D:00A1H         PUBLIC        Systate
  D:00D0H         PUBLIC        PSW
  -------         PROC          _SET_MCUCLOCK
  X:0007H         SYMBOL        u32_freq
  -------         DO            
  X:000BH         SYMBOL        i
  -------         ENDDO         
  C:AE04H         LINE#         30
  C:AE0AH         LINE#         31
  C:AE0AH         LINE#         32
  C:AE0FH         LINE#         34
  C:AE11H         LINE#         35
  C:AE13H         LINE#         36
  C:AE1AH         LINE#         38
  C:AE1EH         LINE#         43
  C:AE57H         LINE#         44
  C:AE57H         LINE#         45
  C:AE57H         LINE#         46
  C:AE5DH         LINE#         47
  C:AE5DH         LINE#         48
  C:AE5FH         LINE#         50
  C:AE5FH         LINE#         51
  C:AE66H         LINE#         52
  C:AE6AH         LINE#         53
  C:AE6DH         LINE#         54
  C:AE6FH         LINE#         56
  C:AE6FH         LINE#         57
  C:AE75H         LINE#         58
  C:AE75H         LINE#         59
  C:AE77H         LINE#         61
  C:AE77H         LINE#         62
  C:AE7EH         LINE#         63
  C:AE82H         LINE#         64
  C:AE84H         LINE#         66
  C:AE84H         LINE#         67
  C:AE8BH         LINE#         68
  C:AE8FH         LINE#         69
  C:AE94H         LINE#         70
  C:AE96H         LINE#         72
  C:AE96H         LINE#         73
  C:AE9DH         LINE#         74
  C:AEA1H         LINE#         75
  C:AEA6H         LINE#         76
  C:AEA8H         LINE#         78
  C:AEA8H         LINE#         79
  C:AEABH         LINE#         80
  C:AEABH         LINE#         81
  C:AEABH         LINE#         83
  C:AEB0H         LINE#         84
BL51 BANKED LINKER/LOCATER V6.22                                                      03/11/2019  10:41:19  PAGE 84


  C:AEB0H         LINE#         85
  C:AEB6H         LINE#         86
  C:AEBCH         LINE#         87
  C:AEBCH         LINE#         88
  C:AEBFH         LINE#         89
  C:AEBFH         LINE#         90
  C:AEBFH         LINE#         91
  C:AEC1H         LINE#         92
  C:AEC6H         LINE#         94
  C:AEC9H         LINE#         95
  C:AEC9H         LINE#         96
  C:AECFH         LINE#         97
  C:AED5H         LINE#         98
  C:AED5H         LINE#         99
  C:AED8H         LINE#         100
  C:AED8H         LINE#         101
  C:AED8H         LINE#         103
  C:AEDDH         LINE#         104
  C:AEE1H         LINE#         105
  C:AEE6H         LINE#         107
  C:AEE8H         LINE#         108
  -------         ENDPROC       _SET_MCUCLOCK
  -------         PROC          _SET_EMUCLOCK
  X:0001H         SYMBOL        u32_freq
  -------         DO            
  X:0005H         SYMBOL        i
  -------         ENDDO         
  C:BD3CH         LINE#         118
  C:BD42H         LINE#         119
  C:BD42H         LINE#         120
  C:BD47H         LINE#         122
  C:BD49H         LINE#         123
  C:BD50H         LINE#         125
  C:BD7DH         LINE#         126
  C:BD7DH         LINE#         127
  C:BD7DH         LINE#         128
  C:BD7FH         LINE#         129
  C:BD82H         LINE#         131
  C:BD82H         LINE#         132
  C:BD89H         LINE#         133
  C:BD8DH         LINE#         134
  C:BD8FH         LINE#         136
  C:BD8FH         LINE#         137
  C:BD96H         LINE#         138
  C:BD9AH         LINE#         140
  C:BD9EH         LINE#         141
  C:BDA2H         LINE#         142
  C:BDA4H         LINE#         144
  C:BDA4H         LINE#         145
  C:BDABH         LINE#         146
  C:BDAFH         LINE#         148
  C:BDB3H         LINE#         149
  C:BDB7H         LINE#         150
  C:BDB9H         LINE#         152
  C:BDB9H         LINE#         153
  C:BDBCH         LINE#         154
  C:BDBCH         LINE#         155
BL51 BANKED LINKER/LOCATER V6.22                                                      03/11/2019  10:41:19  PAGE 85


  C:BDBCH         LINE#         157
  C:BDC1H         LINE#         158
  C:BDC1H         LINE#         159
  C:BDC7H         LINE#         160
  C:BDCDH         LINE#         161
  C:BDCDH         LINE#         162
  C:BDD0H         LINE#         163
  C:BDD0H         LINE#         164
  C:BDD0H         LINE#         166
  C:BDD2H         LINE#         167
  C:BDD7H         LINE#         168
  C:BDDAH         LINE#         169
  C:BDDAH         LINE#         170
  C:BDE0H         LINE#         171
  C:BDE6H         LINE#         172
  C:BDE6H         LINE#         173
  C:BDE9H         LINE#         174
  C:BDE9H         LINE#         175
  C:BDE9H         LINE#         177
  C:BDEBH         LINE#         178
  -------         ENDPROC       _SET_EMUCLOCK
  -------         PROC          SET_MCUSLEEP
  -------         DO            
  X:0007H         SYMBOL        i
  -------         ENDDO         
  C:DFFBH         LINE#         187
  C:DFFBH         LINE#         188
  C:DFFBH         LINE#         190
  C:DFFDH         LINE#         191
  C:DFFFH         LINE#         193
  C:E004H         LINE#         194
  C:E008H         LINE#         196
  C:E016H         LINE#         197
  C:E018H         LINE#         200
  C:E01DH         LINE#         201
  C:E01DH         LINE#         202
  C:E020H         LINE#         203
  C:E020H         LINE#         205
  C:E022H         LINE#         206
  C:E025H         LINE#         208
  C:E02AH         LINE#         209
  C:E02AH         LINE#         210
  C:E02DH         LINE#         211
  C:E02DH         LINE#         213
  C:E03CH         LINE#         214
  C:E041H         LINE#         215
  C:E047H         LINE#         217
  C:E049H         LINE#         218
  C:E04EH         LINE#         219
  C:E04FH         LINE#         224
  -------         ENDPROC       SET_MCUSLEEP
  -------         PROC          SET_SLEEP_OUT
  -------         DO            
  D:0007H         SYMBOL        i
  -------         ENDDO         
  C:D3AFH         LINE#         234
  C:D3AFH         LINE#         235
BL51 BANKED LINKER/LOCATER V6.22                                                      03/11/2019  10:41:19  PAGE 86


  C:D3AFH         LINE#         240
  C:D3BDH         LINE#         241
  C:D3C4H         LINE#         242
  C:D3D0H         LINE#         243
  C:D3D5H         LINE#         246
  C:D3DAH         LINE#         247
  C:D3DEH         LINE#         248
  C:D3E2H         LINE#         249
  C:D3E6H         LINE#         251
  C:D3EAH         LINE#         252
  C:D3F1H         LINE#         254
  C:D406H         LINE#         255
  C:D41BH         LINE#         257
  C:D422H         LINE#         259
  C:D424H         LINE#         262
  -------         ENDPROC       SET_SLEEP_OUT
  -------         ENDMOD        DRV_CORE

  -------         MODULE        DRV_GPIO
  C:0000H         SYMBOL        _ICE_DUMMY_
  D:0090H         PUBLIC        P1
  D:00B0H         PUBLIC        P3
  D:00A8H         PUBLIC        IE
  D:00ADH         PUBLIC        P9FC
  D:00A5H         PUBLIC        P9IE
  D:00B8H         PUBLIC        IP
  D:00A6H         PUBLIC        P9DO
  D:00A4H         PUBLIC        P9OE
  C:DF4FH         PUBLIC        Init_GPIO_sleep
  D:0098H         PUBLIC        SCON
  D:0088H         PUBLIC        TCON
  D:00F0H         PUBLIC        B
  D:00E0H         PUBLIC        ACC
  D:0080H         PUBLIC        SysCtrl
  C:CEBAH         PUBLIC        Init_GPIO_run
  D:00C8H         PUBLIC        T2CON
  D:00D0H         PUBLIC        PSW
  -------         PROC          INIT_GPIO_RUN
  C:CEBAH         LINE#         29
  C:CEBAH         LINE#         30
  C:CEBAH         LINE#         32
  C:CEC1H         LINE#         33
  C:CEC8H         LINE#         35
  C:CECBH         LINE#         36
  C:CECEH         LINE#         37
  C:CED1H         LINE#         38
  C:CED4H         LINE#         39
  C:CEFBH         LINE#         40
  C:CF0EH         LINE#         42
  C:CF17H         LINE#         44
  C:CF19H         LINE#         45
  C:CF20H         LINE#         46
  C:CF27H         LINE#         48
  C:CF2CH         LINE#         49
  C:CF33H         LINE#         51
  C:CF38H         LINE#         52
  C:CF3FH         LINE#         54
BL51 BANKED LINKER/LOCATER V6.22                                                      03/11/2019  10:41:19  PAGE 87


  C:CF42H         LINE#         55
  C:CF45H         LINE#         57
  -------         ENDPROC       INIT_GPIO_RUN
  -------         PROC          INIT_GPIO_SLEEP
  C:DF4FH         LINE#         66
  C:DF4FH         LINE#         67
  C:DF4FH         LINE#         68
  C:DF55H         LINE#         69
  C:DF58H         LINE#         70
  C:DF5EH         LINE#         71
  C:DF61H         LINE#         72
  C:DF67H         LINE#         73
  C:DF6AH         LINE#         74
  C:DF70H         LINE#         75
  C:DF73H         LINE#         76
  C:DF79H         LINE#         77
  C:DF7CH         LINE#         78
  C:DF82H         LINE#         79
  C:DF85H         LINE#         80
  C:DF8BH         LINE#         81
  C:DF8EH         LINE#         82
  C:DF94H         LINE#         83
  C:DF97H         LINE#         84
  C:DF9DH         LINE#         85
  C:DFA0H         LINE#         86
  C:DFA3H         LINE#         87
  C:DFA5H         LINE#         88
  -------         ENDPROC       INIT_GPIO_SLEEP
  -------         ENDMOD        DRV_GPIO

  -------         MODULE        DRV_KEY_IO
  C:0000H         SYMBOL        _ICE_DUMMY_
  D:0090H         PUBLIC        P1
  D:00B0H         PUBLIC        P3
  C:EE94H         PUBLIC        Judge_PG_DN_key
  D:00A8H         PUBLIC        IE
  D:00A7H         PUBLIC        P9DI
  C:EE7AH         PUBLIC        Judge_ERR_ADJ_key
  D:00B8H         PUBLIC        IP
  D:0098H         PUBLIC        SCON
  D:0088H         PUBLIC        TCON
  D:00F0H         PUBLIC        B
  D:00E0H         PUBLIC        ACC
  C:EF2BH         PUBLIC        Judge_ERR_COVER_key
  C:EF13H         PUBLIC        Judge_MD_CLEAR_key
  D:0080H         PUBLIC        SysCtrl
  C:EEAEH         PUBLIC        Judge_MAGN_CHK_key
  D:00C8H         PUBLIC        T2CON
  D:00D0H         PUBLIC        PSW
  -------         PROC          JUDGE_ERR_ADJ_KEY
  -------         DO            
  D:0007H         SYMBOL        i
  -------         ENDDO         
  C:EE7AH         LINE#         31
  C:EE7AH         LINE#         32
  C:EE7AH         LINE#         36
  C:EE7CH         LINE#         37
BL51 BANKED LINKER/LOCATER V6.22                                                      03/11/2019  10:41:19  PAGE 88


  C:EE7CH         LINE#         38
  C:EE83H         LINE#         39
  C:EE88H         LINE#         41
  C:EE8EH         LINE#         42
  C:EE8EH         LINE#         43
  C:EE91H         LINE#         44
  C:EE91H         LINE#         46
  C:EE91H         LINE#         47
  C:EE93H         LINE#         48
  C:EE93H         LINE#         50
  -------         ENDPROC       JUDGE_ERR_ADJ_KEY
  -------         PROC          JUDGE_PG_DN_KEY
  -------         DO            
  D:0007H         SYMBOL        i
  -------         ENDDO         
  C:EE94H         LINE#         58
  C:EE94H         LINE#         59
  C:EE94H         LINE#         63
  C:EE96H         LINE#         64
  C:EE96H         LINE#         65
  C:EE9DH         LINE#         66
  C:EEA2H         LINE#         68
  C:EEA8H         LINE#         69
  C:EEA8H         LINE#         70
  C:EEABH         LINE#         71
  C:EEABH         LINE#         73
  C:EEABH         LINE#         74
  C:EEADH         LINE#         75
  C:EEADH         LINE#         77
  -------         ENDPROC       JUDGE_PG_DN_KEY
  -------         PROC          JUDGE_MD_CLEAR_KEY
  -------         DO            
  D:0007H         SYMBOL        i
  -------         ENDDO         
  C:EF13H         LINE#         85
  C:EF13H         LINE#         86
  C:EF13H         LINE#         90
  C:EF15H         LINE#         91
  C:EF15H         LINE#         92
  C:EF1AH         LINE#         93
  C:EF1FH         LINE#         95
  C:EF25H         LINE#         96
  C:EF25H         LINE#         97
  C:EF28H         LINE#         98
  C:EF28H         LINE#         100
  C:EF28H         LINE#         101
  C:EF2AH         LINE#         102
  C:EF2AH         LINE#         104
  -------         ENDPROC       JUDGE_MD_CLEAR_KEY
  -------         PROC          JUDGE_MAGN_CHK_KEY
  -------         DO            
  D:0007H         SYMBOL        i
  -------         ENDDO         
  C:EEAEH         LINE#         113
  C:EEAEH         LINE#         114
  C:EEAEH         LINE#         118
  C:EEB0H         LINE#         119
BL51 BANKED LINKER/LOCATER V6.22                                                      03/11/2019  10:41:19  PAGE 89


  C:EEB0H         LINE#         120
  C:EEB7H         LINE#         121
  C:EEBCH         LINE#         123
  C:EEC2H         LINE#         124
  C:EEC2H         LINE#         125
  C:EEC5H         LINE#         126
  C:EEC5H         LINE#         128
  C:EEC5H         LINE#         129
  C:EEC7H         LINE#         130
  C:EEC7H         LINE#         132
  -------         ENDPROC       JUDGE_MAGN_CHK_KEY
  -------         PROC          JUDGE_ERR_COVER_KEY
  -------         DO            
  D:0007H         SYMBOL        i
  -------         ENDDO         
  C:EF2BH         LINE#         142
  C:EF2BH         LINE#         143
  C:EF2BH         LINE#         147
  C:EF2DH         LINE#         148
  C:EF2DH         LINE#         149
  C:EF32H         LINE#         150
  C:EF37H         LINE#         152
  C:EF3DH         LINE#         153
  C:EF3DH         LINE#         154
  C:EF40H         LINE#         155
  C:EF40H         LINE#         157
  C:EF40H         LINE#         158
  C:EF42H         LINE#         159
  C:EF42H         LINE#         161
  -------         ENDPROC       JUDGE_ERR_COVER_KEY
  -------         ENDMOD        DRV_KEY_IO

  -------         MODULE        DRV_LCD
  C:0000H         SYMBOL        _ICE_DUMMY_
  D:0090H         PUBLIC        P1
  D:00B0H         PUBLIC        P3
  D:00A8H         PUBLIC        IE
  C:F091H         PUBLIC        LCD_OFF
  D:00B8H         PUBLIC        IP
  B:0080H.3       PUBLIC        LCDG
  D:0098H         PUBLIC        SCON
  D:0088H         PUBLIC        TCON
  D:00F0H         PUBLIC        B
  C:AEE9H         PUBLIC        _Write_LCD
  D:00E0H         PUBLIC        ACC
  C:D832H         PUBLIC        Init_LCD
  C:F00DH         PUBLIC        LCD_ON
  C:EDF1H         PUBLIC        Clr_all_lcd
  C:EC2AH         PUBLIC        _Full_SEG
  D:0080H         PUBLIC        SysCtrl
  D:00C8H         PUBLIC        T2CON
  D:00D0H         PUBLIC        PSW
  -------         PROC          LCD_ON
  C:F00DH         LINE#         29
  C:F00DH         LINE#         30
  C:F00DH         LINE#         31
  C:F00FH         LINE#         32
BL51 BANKED LINKER/LOCATER V6.22                                                      03/11/2019  10:41:19  PAGE 90


  C:F014H         LINE#         33
  C:F01AH         LINE#         34
  -------         ENDPROC       LCD_ON
  -------         PROC          LCD_OFF
  C:F091H         LINE#         43
  C:F091H         LINE#         44
  C:F091H         LINE#         45
  C:F093H         LINE#         46
  -------         ENDPROC       LCD_OFF
  -------         PROC          CLR_ALL_LCD
  C:EDF1H         LINE#         54
  C:EDF1H         LINE#         55
  C:EDF1H         LINE#         56
  C:EDF6H         LINE#         57
  C:EDF8H         LINE#         58
  C:EDFAH         LINE#         59
  C:EDFCH         LINE#         60
  C:EDFEH         LINE#         61
  C:EE00H         LINE#         62
  C:EE02H         LINE#         63
  C:EE04H         LINE#         64
  C:EE08H         LINE#         65
  C:EE0AH         LINE#         66
  C:EE0CH         LINE#         67
  -------         ENDPROC       CLR_ALL_LCD
  -------         PROC          _FULL_SEG
  D:0007H         SYMBOL        val
  C:EC2AH         LINE#         76
  C:EC2AH         LINE#         77
  C:EC2AH         LINE#         78
  C:EC2FH         LINE#         79
  C:EC33H         LINE#         80
  C:EC35H         LINE#         81
  C:EC37H         LINE#         82
  C:EC39H         LINE#         83
  C:EC3DH         LINE#         84
  C:EC3FH         LINE#         85
  C:EC41H         LINE#         86
  C:EC45H         LINE#         87
  C:EC47H         LINE#         88
  C:EC4BH         LINE#         89
  C:EC50H         LINE#         90
  -------         ENDPROC       _FULL_SEG
  -------         PROC          INIT_LCD
  C:D832H         LINE#         99
  C:D832H         LINE#         100
  C:D832H         LINE#         103
  C:D839H         LINE#         104
  C:D840H         LINE#         105
  C:D847H         LINE#         106
  C:D84EH         LINE#         107
  C:D855H         LINE#         108
  C:D85CH         LINE#         110
  C:D863H         LINE#         111
  C:D86AH         LINE#         112
  C:D870H         LINE#         113
  C:D877H         LINE#         114
BL51 BANKED LINKER/LOCATER V6.22                                                      03/11/2019  10:41:19  PAGE 91


  C:D87EH         LINE#         115
  C:D885H         LINE#         117
  C:D888H         LINE#         119
  C:D88EH         LINE#         121
  C:D892H         LINE#         124
  C:D896H         LINE#         126
  C:D89AH         LINE#         128
  C:D89EH         LINE#         130
  -------         ENDPROC       INIT_LCD
  -------         PROC          _WRITE_LCD
  D:0001H         SYMBOL        bf_i2cData
  C:AEE9H         LINE#         138
  C:AEE9H         LINE#         139
  C:AEE9H         LINE#         141
  C:AEFEH         LINE#         142
  C:AF12H         LINE#         143
  C:AF23H         LINE#         144
  C:AF3AH         LINE#         145
  C:AF4BH         LINE#         146
  C:AF62H         LINE#         147
  C:AF73H         LINE#         148
  C:AF8AH         LINE#         149
  C:AF9BH         LINE#         150
  C:AFB2H         LINE#         151
  C:AFB7H         LINE#         152
  C:AFC8H         LINE#         154
  -------         ENDPROC       _WRITE_LCD
  -------         ENDMOD        DRV_LCD

  -------         MODULE        DRV_RTC
  C:0000H         SYMBOL        _ICE_DUMMY_
  D:009AH         PUBLIC        RTCSC
  D:0090H         PUBLIC        P1
  D:00B0H         PUBLIC        P3
  D:009EH         PUBLIC        RTCWC
  C:86ECH         PUBLIC        _SetRTCNormal
  D:0093H         PUBLIC        RTCYC
  C:DA4DH         PUBLIC        _Set_RTCTime
  D:00A8H         PUBLIC        IE
  D:00B8H         PUBLIC        IP
  D:0098H         PUBLIC        SCON
  D:0088H         PUBLIC        TCON
  D:00F0H         PUBLIC        B
  D:00E0H         PUBLIC        ACC
  D:00DFH         PUBLIC        SECINT
  D:00DBH         PUBLIC        DIVTHH
  C:E715H         PUBLIC        _SetExtRTC
  C:EFEBH         PUBLIC        Open_SecOut
  D:00DDH         PUBLIC        DIVTHL
  D:00DCH         PUBLIC        DIVTHM
  D:0090H         PUBLIC        RTCPEN
  C:EE29H         PUBLIC        Clr_RTC_AdjParam
  D:00E8H         PUBLIC        EIE
  D:0096H         PUBLIC        INTRTC
  D:0097H         PUBLIC        RTCPWD
  D:00DAH         PUBLIC        RTCLATCH
  D:0080H         PUBLIC        SysCtrl
BL51 BANKED LINKER/LOCATER V6.22                                                      03/11/2019  10:41:19  PAGE 92


  C:F035H         PUBLIC        Init_RTC
  D:009BH         PUBLIC        RTCMiC
  D:00C8H         PUBLIC        T2CON
  C:F09DH         PUBLIC        Handl_RTC_Adj_per_minu
  D:009FH         PUBLIC        RTCMoC
  D:009DH         PUBLIC        RTCDC
  D:009CH         PUBLIC        RTCHC
  D:0094H         PUBLIC        RTCCH
  D:0095H         PUBLIC        RTCCL
  D:00D0H         PUBLIC        PSW
  C:DD80H         PUBLIC        _Get_RTCTime
  -------         PROC          OPEN_SECOUT
  C:EFEBH         LINE#         28
  C:EFEBH         LINE#         29
  C:EFEBH         LINE#         30
  C:EFF1H         LINE#         32
  C:EFF8H         LINE#         33
  C:EFFDH         LINE#         34
  -------         ENDPROC       OPEN_SECOUT
  -------         PROC          INIT_RTC
  C:F035H         LINE#         52
  C:F035H         LINE#         53
  C:F035H         LINE#         54
  C:F038H         LINE#         55
  C:F03FH         LINE#         56
  -------         ENDPROC       INIT_RTC
  -------         PROC          _SETEXTRTC
  X:0007H         SYMBOL        SEC
  X:0008H         SYMBOL        intRTC
  C:E715H         LINE#         67
  C:E71DH         LINE#         68
  C:E71DH         LINE#         70
  C:E720H         LINE#         71
  C:E723H         LINE#         72
  C:E728H         LINE#         74
  C:E72FH         LINE#         77
  C:E733H         LINE#         78
  C:E733H         LINE#         79
  C:E736H         LINE#         80
  C:E740H         LINE#         81
  C:E740H         LINE#         84
  C:E745H         LINE#         86
  C:E748H         LINE#         87
  C:E74BH         LINE#         88
  -------         ENDPROC       _SETEXTRTC
  -------         PROC          _GET_RTCTIME
  X:0021H         SYMBOL        pTime
  -------         DO            
  X:0024H         SYMBOL        RTCFLAG
  -------         ENDDO         
  C:DD80H         LINE#         99
  C:DD8BH         LINE#         100
  C:DD8BH         LINE#         103
  C:DD8FH         LINE#         104
  C:DD94H         LINE#         106
  C:DDA4H         LINE#         107
  C:DDB7H         LINE#         108
BL51 BANKED LINKER/LOCATER V6.22                                                      03/11/2019  10:41:19  PAGE 93


  C:DDBFH         LINE#         109
  C:DDC7H         LINE#         110
  C:DDCFH         LINE#         111
  C:DDD7H         LINE#         112
  -------         ENDPROC       _GET_RTCTIME
  -------         PROC          _SET_RTCTIME
  X:0095H         SYMBOL        pTime
  C:DA4DH         LINE#         122
  C:DA58H         LINE#         123
  C:DA58H         LINE#         125
  C:DA5BH         LINE#         126
  C:DA5EH         LINE#         127
  C:DA63H         LINE#         129
  C:DA73H         LINE#         130
  C:DA7BH         LINE#         131
  C:DA83H         LINE#         132
  C:DA8BH         LINE#         133
  C:DA93H         LINE#         134
  C:DA9BH         LINE#         135
  C:DAA3H         LINE#         136
  C:DAA8H         LINE#         139
  C:DAABH         LINE#         140
  C:DAAEH         LINE#         141
  C:DAB3H         LINE#         143
  C:DAB5H         LINE#         144
  -------         ENDPROC       _SET_RTCTIME
  -------         PROC          CLR_RTC_ADJPARAM
  C:EE29H         LINE#         155
  C:EE29H         LINE#         156
  C:EE29H         LINE#         158
  C:EE2CH         LINE#         159
  C:EE2FH         LINE#         160
  C:EE34H         LINE#         161
  C:EE37H         LINE#         162
  C:EE39H         LINE#         165
  C:EE3CH         LINE#         166
  C:EE3FH         LINE#         167
  -------         ENDPROC       CLR_RTC_ADJPARAM
  -------         PROC          _SETRTCNORMAL
  X:0792H         SYMBOL        offset
  -------         DO            
  X:0794H         SYMBOL        temp1
  X:0798H         SYMBOL        temp2
  D:0006H         SYMBOL        temp3
  -------         ENDDO         
  C:86ECH         LINE#         178
  C:86F4H         LINE#         179
  C:86F4H         LINE#         183
  C:86FEH         LINE#         184
  C:870DH         LINE#         185
  C:8719H         LINE#         186
  C:8719H         LINE#         187
  C:8728H         LINE#         188
  C:8732H         LINE#         189
  C:8758H         LINE#         190
  C:8762H         LINE#         191
  C:87A2H         LINE#         192
BL51 BANKED LINKER/LOCATER V6.22                                                      03/11/2019  10:41:19  PAGE 94


  C:87A4H         LINE#         194
  C:87A4H         LINE#         195
  C:87CAH         LINE#         196
  C:87D4H         LINE#         197
  C:8824H         LINE#         198
  C:8824H         LINE#         200
  C:8833H         LINE#         201
  C:883AH         LINE#         202
  C:883DH         LINE#         203
  C:8840H         LINE#         204
  C:8845H         LINE#         205
  C:884BH         LINE#         206
  C:884FH         LINE#         207
  C:8855H         LINE#         208
  C:8859H         LINE#         209
  C:885DH         LINE#         211
  C:8862H         LINE#         212
  C:8865H         LINE#         213
  C:8868H         LINE#         214
  -------         ENDPROC       _SETRTCNORMAL
  -------         PROC          HANDL_RTC_ADJ_PER_MINU
  -------         DO            
  X:0000H         SYMBOL        i
  X:0001H         SYMBOL        p
  X:0003H         SYMBOL        temp1
  X:0007H         SYMBOL        temperature
  X:000BH         SYMBOL        delta
  D:0006H         SYMBOL        OSC
  X:000DH         SYMBOL        Bpara
  X:0011H         SYMBOL        Ti
  -------         ENDDO         
  C:F09DH         LINE#         224
  C:F09DH         LINE#         225
  -------         ENDPROC       HANDL_RTC_ADJ_PER_MINU
  -------         ENDMOD        DRV_RTC

  -------         MODULE        DRV_TMR
  C:0000H         SYMBOL        _ICE_DUMMY_
  D:0090H         PUBLIC        P1
  D:00B0H         PUBLIC        P3
  C:000EH         PUBLIC        Stop_Timer
  D:00A8H         PUBLIC        IE
  D:00B8H         PUBLIC        IP
  D:0098H         PUBLIC        SCON
  D:0089H         PUBLIC        TMOD
  D:0088H         PUBLIC        TCON
  D:00F0H         PUBLIC        B
  D:00E0H         PUBLIC        ACC
  B:00A8H.1       PUBLIC        ET0
  D:008CH         PUBLIC        TH0
  D:008AH         PUBLIC        TL0
  B:0088H.4       PUBLIC        TR0
  D:0080H         PUBLIC        SysCtrl
  D:00C8H         PUBLIC        T2CON
  D:008EH         PUBLIC        CKCON
  C:0006H         PUBLIC        Start_Timer
  C:EFFEH         PUBLIC        Init_Timer
BL51 BANKED LINKER/LOCATER V6.22                                                      03/11/2019  10:41:19  PAGE 95


  D:00D0H         PUBLIC        PSW
  -------         PROC          START_TIMER
  C:0006H         LINE#         30
  C:0006H         LINE#         31
  C:0006H         LINE#         32
  C:0008H         LINE#         33
  C:000AH         LINE#         34
  -------         ENDPROC       START_TIMER
  -------         PROC          STOP_TIMER
  C:000EH         LINE#         43
  C:000EH         LINE#         44
  C:000EH         LINE#         45
  C:0010H         LINE#         46
  C:0012H         LINE#         47
  -------         ENDPROC       STOP_TIMER
  -------         PROC          INIT_TIMER
  C:EFFEH         LINE#         56
  C:EFFEH         LINE#         57
  C:EFFEH         LINE#         59
  C:F001H         LINE#         60
  C:F004H         LINE#         61
  C:F007H         LINE#         62
  C:F00AH         LINE#         63
  -------         ENDPROC       INIT_TIMER
  -------         ENDMOD        DRV_TMR

  -------         MODULE        DRV_UART
  C:0000H         SYMBOL        _ICE_DUMMY_
  D:0090H         PUBLIC        P1
  D:00B0H         PUBLIC        P3
  B:00A8H.7       PUBLIC        EA
  C:E0A0H         PUBLIC        Uart4_Transmit
  D:00A8H         PUBLIC        IE
  C:A86DH         PUBLIC        _Get_UART_rx_buff
  C:AFC9H         PUBLIC        _Hdl_UART_10ms_run
  D:00B8H         PUBLIC        IP
  C:EF5AH         PUBLIC        En_UART2_Tx
  C:EF70H         PUBLIC        En_UART4_Tx
  D:0098H         PUBLIC        SCON
  D:0088H         PUBLIC        TCON
  C:F05FH         PUBLIC        Dis_UART2_rx
  C:F067H         PUBLIC        Dis_UART4_rx
  D:00F0H         PUBLIC        B
  D:00E0H         PUBLIC        ACC
  C:E2B5H         PUBLIC        En_UART2_rx
  B:00D0H.0       PUBLIC        P
  C:E461H         PUBLIC        En_UART4_rx
  C:C357H         PUBLIC        _Init_UART_soft
  X:0238H         PUBLIC        gs_uart_drv_var
  D:00E8H         PUBLIC        EIE
  D:0080H         PUBLIC        SysCtrl
  C:D425H         PUBLIC        _Set_Uart2_badu
  C:D49BH         PUBLIC        _Set_Uart4_badu
  D:00C8H         PUBLIC        T2CON
  C:F077H         PUBLIC        _Init_UART2_hard
  C:F07DH         PUBLIC        _Init_UART4_hard
  C:79DCH         PUBLIC        _Tx_UART_frist
BL51 BANKED LINKER/LOCATER V6.22                                                      03/11/2019  10:41:19  PAGE 96


  D:00D0H         PUBLIC        PSW
  -------         PROC          _SET_UART2_BADU
  D:0006H         SYMBOL        rate
  C:D425H         LINE#         32
  C:D425H         LINE#         33
  C:D425H         LINE#         34
  C:D42BH         LINE#         35
  C:D449H         LINE#         36
  C:D449H         LINE#         37
  C:D449H         LINE#         39
  C:D44FH         LINE#         41
  C:D454H         LINE#         56
  C:D456H         LINE#         58
  C:D456H         LINE#         60
  C:D45CH         LINE#         62
  C:D461H         LINE#         77
  C:D463H         LINE#         79
  C:D463H         LINE#         81
  C:D469H         LINE#         83
  C:D46EH         LINE#         98
  C:D470H         LINE#         100
  C:D470H         LINE#         103
  C:D476H         LINE#         105
  C:D47BH         LINE#         120
  C:D47DH         LINE#         122
  C:D47DH         LINE#         124
  C:D483H         LINE#         126
  C:D488H         LINE#         141
  C:D48AH         LINE#         142
  C:D48AH         LINE#         143
  C:D48AH         LINE#         145
  C:D490H         LINE#         147
  C:D49AH         LINE#         162
  C:D49AH         LINE#         164
  C:D49AH         LINE#         166
  -------         ENDPROC       _SET_UART2_BADU
  -------         PROC          _SET_UART4_BADU
  D:0006H         SYMBOL        rate
  C:D49BH         LINE#         176
  C:D49BH         LINE#         177
  C:D49BH         LINE#         178
  C:D4A1H         LINE#         179
  C:D4BFH         LINE#         180
  C:D4BFH         LINE#         181
  C:D4BFH         LINE#         183
  C:D4C5H         LINE#         185
  C:D4CAH         LINE#         198
  C:D4CCH         LINE#         200
  C:D4CCH         LINE#         202
  C:D4D2H         LINE#         204
  C:D4D7H         LINE#         217
  C:D4D9H         LINE#         219
  C:D4D9H         LINE#         221
  C:D4DFH         LINE#         223
  C:D4E4H         LINE#         236
  C:D4E6H         LINE#         238
  C:D4E6H         LINE#         240
BL51 BANKED LINKER/LOCATER V6.22                                                      03/11/2019  10:41:19  PAGE 97


  C:D4ECH         LINE#         242
  C:D4F1H         LINE#         255
  C:D4F3H         LINE#         257
  C:D4F3H         LINE#         259
  C:D4F9H         LINE#         261
  C:D4FEH         LINE#         274
  C:D500H         LINE#         275
  C:D500H         LINE#         276
  C:D500H         LINE#         278
  C:D506H         LINE#         280
  C:D510H         LINE#         293
  C:D510H         LINE#         295
  C:D510H         LINE#         297
  -------         ENDPROC       _SET_UART4_BADU
  -------         PROC          EN_UART2_RX
  C:E2B5H         LINE#         308
  C:E2B5H         LINE#         309
  C:E2B5H         LINE#         310
  C:E2E2H         LINE#         311
  C:E2E8H         LINE#         312
  C:E2EFH         LINE#         313
  C:E2F6H         LINE#         314
  C:E2FAH         LINE#         315
  C:E2FDH         LINE#         316
  -------         ENDPROC       EN_UART2_RX
  -------         PROC          EN_UART4_RX
  C:E461H         LINE#         336
  C:E461H         LINE#         337
  C:E461H         LINE#         354
  C:E488H         LINE#         355
  C:E48EH         LINE#         356
  C:E495H         LINE#         357
  C:E49CH         LINE#         358
  C:E4A0H         LINE#         359
  C:E4A3H         LINE#         360
  -------         ENDPROC       EN_UART4_RX
  -------         PROC          DIS_UART2_RX
  C:F05FH         LINE#         369
  C:F05FH         LINE#         370
  C:F05FH         LINE#         371
  C:F066H         LINE#         372
  -------         ENDPROC       DIS_UART2_RX
  -------         PROC          DIS_UART4_RX
  C:F067H         LINE#         381
  C:F067H         LINE#         382
  C:F067H         LINE#         383
  C:F06EH         LINE#         384
  -------         ENDPROC       DIS_UART4_RX
  -------         PROC          EN_UART2_TX
  C:EF5AH         LINE#         393
  C:EF5AH         LINE#         394
  C:EF5AH         LINE#         395
  C:EF61H         LINE#         396
  C:EF68H         LINE#         397
  C:EF6CH         LINE#         398
  C:EF6FH         LINE#         400
  -------         ENDPROC       EN_UART2_TX
BL51 BANKED LINKER/LOCATER V6.22                                                      03/11/2019  10:41:19  PAGE 98


  -------         PROC          EN_UART4_TX
  C:EF70H         LINE#         410
  C:EF70H         LINE#         411
  C:EF70H         LINE#         412
  C:EF77H         LINE#         413
  C:EF7EH         LINE#         414
  C:EF82H         LINE#         415
  C:EF85H         LINE#         416
  -------         ENDPROC       EN_UART4_TX
  -------         PROC          _INIT_UART2_HARD
  D:0006H         SYMBOL        badu
  C:F077H         LINE#         428
  C:F077H         LINE#         429
  C:F077H         LINE#         431
  C:F07AH         LINE#         432
  -------         ENDPROC       _INIT_UART2_HARD
  -------         PROC          _INIT_UART4_HARD
  D:0006H         SYMBOL        badu
  C:F07DH         LINE#         444
  C:F07DH         LINE#         445
  C:F07DH         LINE#         447
  C:F080H         LINE#         448
  -------         ENDPROC       _INIT_UART4_HARD
  -------         PROC          _INIT_UART_SOFT
  D:0007H         SYMBOL        ch
  -------         DO            
  D:0006H         SYMBOL        i
  -------         ENDDO         
  C:C357H         LINE#         460
  C:C357H         LINE#         461
  C:C357H         LINE#         464
  C:C360H         LINE#         467
  C:C374H         LINE#         468
  C:C388H         LINE#         469
  C:C39CH         LINE#         470
  C:C3B0H         LINE#         471
  C:C3C4H         LINE#         472
  C:C3D9H         LINE#         473
  C:C3DBH         LINE#         474
  C:C3DBH         LINE#         475
  C:C3F9H         LINE#         476
  C:C3FEH         LINE#         477
  -------         ENDPROC       _INIT_UART_SOFT
  -------         PROC          _HDL_UART_10MS_RUN
  D:0007H         SYMBOL        ch
  -------         DO            
  D:0006H         SYMBOL        rx_len
  -------         ENDDO         
  C:AFC9H         LINE#         486
  C:AFC9H         LINE#         487
  C:AFC9H         LINE#         490
  C:AFD2H         LINE#         493
  C:AFE7H         LINE#         494
  C:AFE7H         LINE#         495
  C:AFE9H         LINE#         497
  C:AFE9H         LINE#         500
  C:B000H         LINE#         501
BL51 BANKED LINKER/LOCATER V6.22                                                      03/11/2019  10:41:19  PAGE 99


  C:B000H         LINE#         502
  C:B002H         LINE#         504
  C:B002H         LINE#         506
  C:B006H         LINE#         507
  C:B006H         LINE#         508
  C:B009H         LINE#         509
  C:B009H         LINE#         510
  C:B00CH         LINE#         511
  C:B00CH         LINE#         512
  C:B010H         LINE#         513
  C:B010H         LINE#         515
  C:B011H         LINE#         516
  C:B011H         LINE#         517
  C:B014H         LINE#         519
  C:B014H         LINE#         523
  C:B028H         LINE#         524
  C:B02AH         LINE#         525
  C:B02AH         LINE#         526
  C:B03FH         LINE#         528
  C:B03FH         LINE#         530
  C:B054H         LINE#         532
  C:B06DH         LINE#         533
  C:B06DH         LINE#         534
  C:B07FH         LINE#         535
  C:B081H         LINE#         537
  C:B081H         LINE#         538
  C:B092H         LINE#         539
  C:B092H         LINE#         540
  C:B0A6H         LINE#         543
  -------         ENDPROC       _HDL_UART_10MS_RUN
  -------         PROC          _TX_UART_FRIST
  X:0006H         SYMBOL        p_buf
  X:0009H         SYMBOL        len
  X:000AH         SYMBOL        badu
  X:000CH         SYMBOL        ch
  -------         DO            
  D:0007H         SYMBOL        i
  X:000DH         SYMBOL        bits_len
  -------         ENDDO         
  C:79DCH         LINE#         556
  C:79EAH         LINE#         557
  C:79EAH         LINE#         562
  C:79F0H         LINE#         564
  C:79F6H         LINE#         565
  C:79F6H         LINE#         566
  C:79FCH         LINE#         567
  C:79FCH         LINE#         569
  C:7A08H         LINE#         571
  C:7A14H         LINE#         572
  C:7A14H         LINE#         573
  C:7A4CH         LINE#         574
  C:7A4FH         LINE#         575
  C:7A6FH         LINE#         576
  C:7A86H         LINE#         577
  C:7A9CH         LINE#         578
  C:7AB3H         LINE#         580
  C:7AB9H         LINE#         581
BL51 BANKED LINKER/LOCATER V6.22                                                      03/11/2019  10:41:19  PAGE 100


  C:7AB9H         LINE#         582
  C:7ABBH         LINE#         583
  C:7AD4H         LINE#         584
  C:7AD4H         LINE#         586
  C:7AEDH         LINE#         587
  C:7AF3H         LINE#         588
  C:7AF3H         LINE#         589
  C:7B0CH         LINE#         590
  C:7B0EH         LINE#         592
  C:7B0EH         LINE#         593
  C:7B25H         LINE#         594
  C:7B25H         LINE#         595
  C:7B25H         LINE#         596
  C:7B27H         LINE#         597
  C:7B32H         LINE#         598
  C:7B35H         LINE#         599
  C:7B38H         LINE#         600
  C:7B55H         LINE#         601
  C:7B55H         LINE#         603
  C:7B5DH         LINE#         604
  C:7B5DH         LINE#         605
  C:7B65H         LINE#         606
  C:7B7BH         LINE#         607
  C:7B7EH         LINE#         608
  C:7B83H         LINE#         609
  C:7B89H         LINE#         610
  C:7B8EH         LINE#         611
  C:7B8EH         LINE#         615
  -------         ENDPROC       _TX_UART_FRIST
  -------         PROC          _GET_UART_RX_BUFF
  X:0038H         SYMBOL        p_buf
  X:003BH         SYMBOL        ch
  -------         DO            
  D:0005H         SYMBOL        len
  -------         ENDDO         
  C:A86DH         LINE#         626
  C:A87BH         LINE#         627
  C:A87BH         LINE#         630
  C:A883H         LINE#         633
  C:A8AFH         LINE#         636
  C:A8CDH         LINE#         637
  C:A8CDH         LINE#         638
  C:A8D0H         LINE#         639
  C:A8D0H         LINE#         642
  C:A8EAH         LINE#         643
  C:A901H         LINE#         645
  C:A904H         LINE#         646
  C:A904H         LINE#         648
  C:A907H         LINE#         649
  C:A907H         LINE#         651
  C:A90FH         LINE#         652
  C:A90FH         LINE#         655
  C:A910H         LINE#         656
  C:A910H         LINE#         658
  C:A92AH         LINE#         659
  C:A940H         LINE#         660
  C:A954H         LINE#         662
BL51 BANKED LINKER/LOCATER V6.22                                                      03/11/2019  10:41:19  PAGE 101


  C:A95AH         LINE#         663
  C:A95AH         LINE#         664
  C:A95CH         LINE#         665
  C:A95CH         LINE#         667
  C:A95EH         LINE#         668
  -------         ENDPROC       _GET_UART_RX_BUFF
  -------         PROC          UART4_TRANSMIT
  -------         DO            
  D:0007H         SYMBOL        i
  -------         ENDDO         
  C:E0A0H         LINE#         672
  C:E0A0H         LINE#         673
  C:E0A0H         LINE#         675
  C:E0A8H         LINE#         676
  C:E0A8H         LINE#         677
  C:E0B2H         LINE#         678
  C:E0B2H         LINE#         679
  C:E0C1H         LINE#         680
  C:E0C7H         LINE#         681
  C:E0C7H         LINE#         682
  C:E0CBH         LINE#         683
  C:E0CDH         LINE#         685
  C:E0CDH         LINE#         686
  C:E0D1H         LINE#         687
  C:E0D1H         LINE#         688
  C:E0E7H         LINE#         689
  C:E0E8H         LINE#         691
  C:E0E8H         LINE#         692
  C:E0EEH         LINE#         693
  C:E0EEH         LINE#         694
  C:E0EEH         LINE#         695
  -------         ENDPROC       UART4_TRANSMIT
  -------         ENDMOD        DRV_UART

  -------         MODULE        LIB_MYMATH
  C:0000H         SYMBOL        _ICE_DUMMY_
  C:EA50H         PUBLIC        _Lib_get_csck_int16u_num
  C:E4A4H         PUBLIC        _Lib_bcd_arry_add1
  D:0090H         PUBLIC        P1
  D:00B0H         PUBLIC        P3
  C:E9BCH         PUBLIC        _Lib_math_get_BCC_chk
  D:00A8H         PUBLIC        IE
  D:00B8H         PUBLIC        IP
  C:EC78H         PUBLIC        _Lib_BCDCHK
  C:E873H         PUBLIC        _Lib_ENOB_Get
  D:0098H         PUBLIC        SCON
  D:0088H         PUBLIC        TCON
  C:A95FH         PUBLIC        _Lib_Check_RTC_data_FORM
  X:0661H         PUBLIC        DayTab
  C:EE50H         PUBLIC        _Lib_bcd_byte
  C:EE0DH         PUBLIC        _Lib_byte_bcd
  C:D2C0H         PUBLIC        _Lib_BCD_Asc
  C:D7C4H         PUBLIC        _Lib_Asc_BCD
  C:E13CH         PUBLIC        _Lib_bcd_inc
  D:00F0H         PUBLIC        B
  X:067BH         PUBLIC        MonTab
  X:0688H         PUBLIC        DefaultData
BL51 BANKED LINKER/LOCATER V6.22                                                      03/11/2019  10:41:19  PAGE 102


  D:00E0H         PUBLIC        ACC
  C:EC51H         PUBLIC        _Lib_get_csck_int8u_num
  D:0080H         PUBLIC        SysCtrl
  C:EB44H         PUBLIC        _Lib_BtoA
  C:E764H         PUBLIC        _Lib_AtoB
  D:00C8H         PUBLIC        T2CON
  C:B67BH         PUBLIC        _Lib_bcd4_long
  C:BBD1H         PUBLIC        _Lib_long_bcd4
  C:E1D4H         PUBLIC        _Lib_GetGmSec
  C:EF86H         PUBLIC        _Lib_check_bitnum
  C:CAB9H         PUBLIC        _Lib_GetGmDay
  C:E26BH         PUBLIC        _Lib_GetGmHour
  C:ECC4H         PUBLIC        _Lib_bcd2_word
  C:D338H         PUBLIC        _Lib_word_bcd2
  C:E188H         PUBLIC        _Lib_GetGmMin
  D:00D0H         PUBLIC        PSW
  C:D753H         PUBLIC        _Lib_BCD_AscA
  C:D6E2H         PUBLIC        _Lib_Asc_BCDA
  -------         PROC          _LIB_BYTE_BCD
  D:0007H         SYMBOL        xx
  C:EE0DH         LINE#         37
  C:EE0DH         LINE#         38
  C:EE0DH         LINE#         39
  C:EE16H         LINE#         40
  C:EE28H         LINE#         41
  -------         ENDPROC       _LIB_BYTE_BCD
  C:EE44H         SYMBOL        L?0101
  C:EE4CH         SYMBOL        L?0102
  -------         PROC          L?0100
  -------         ENDPROC       L?0100
  C:EE44H         SYMBOL        L?0101
  C:EE4CH         SYMBOL        L?0102
  -------         PROC          _LIB_BCD_BYTE
  D:0007H         SYMBOL        xx
  C:EE50H         LINE#         46
  C:EE50H         LINE#         47
  C:EE50H         LINE#         48
  C:EE5EH         LINE#         49
  -------         ENDPROC       _LIB_BCD_BYTE
  -------         PROC          _LIB_WORD_BCD2
  X:0104H         SYMBOL        ptr
  X:0107H         SYMBOL        xx
  C:D338H         LINE#         54
  C:D349H         LINE#         55
  C:D349H         LINE#         56
  C:D351H         LINE#         57
  C:D351H         LINE#         58
  C:D363H         LINE#         59
  C:D367H         LINE#         61
  C:D367H         LINE#         67
  C:D388H         LINE#         68
  C:D3AEH         LINE#         71
  -------         ENDPROC       _LIB_WORD_BCD2
  -------         PROC          _LIB_BCD2_WORD
  D:0001H         SYMBOL        ptr
  C:ECC4H         LINE#         76
  C:ECC4H         LINE#         77
BL51 BANKED LINKER/LOCATER V6.22                                                      03/11/2019  10:41:19  PAGE 103


  C:ECC4H         LINE#         83
  C:ECE8H         LINE#         86
  -------         ENDPROC       _LIB_BCD2_WORD
  -------         PROC          _LIB_LONG_BCD4
  X:00FDH         SYMBOL        ptr
  X:0100H         SYMBOL        xx
  C:BBD1H         LINE#         91
  C:BBE0H         LINE#         92
  C:BBE0H         LINE#         93
  C:BBFCH         LINE#         94
  C:BBFCH         LINE#         95
  C:BC0EH         LINE#         96
  C:BC15H         LINE#         97
  C:BC1CH         LINE#         98
  C:BC20H         LINE#         100
  C:BC20H         LINE#         106
  C:BC4AH         LINE#         107
  C:BC87H         LINE#         111
  -------         ENDPROC       _LIB_LONG_BCD4
  -------         PROC          _LIB_BCD4_LONG
  X:00B3H         SYMBOL        ptr
  C:B67BH         LINE#         116
  C:B686H         LINE#         117
  C:B686H         LINE#         121
  C:B743H         LINE#         125
  -------         ENDPROC       _LIB_BCD4_LONG
  -------         PROC          _LIB_BCD_INC
  X:07F5H         SYMBOL        ptr
  C:E13CH         LINE#         132
  C:E147H         LINE#         133
  C:E147H         LINE#         135
  C:E157H         LINE#         136
  C:E162H         LINE#         137
  C:E162H         LINE#         138
  C:E168H         LINE#         139
  C:E178H         LINE#         140
  C:E187H         LINE#         141
  C:E187H         LINE#         142
  -------         ENDPROC       _LIB_BCD_INC
  -------         PROC          _LIB_BCD_ARRY_ADD1
  X:07F8H         SYMBOL        ptr
  D:0005H         SYMBOL        len
  -------         DO            
  D:0006H         SYMBOL        result
  -------         ENDDO         
  C:E4A4H         LINE#         150
  C:E4AFH         LINE#         151
  C:E4AFH         LINE#         154
  C:E4B5H         LINE#         155
  C:E4B5H         LINE#         156
  C:E4B7H         LINE#         157
  C:E4C5H         LINE#         158
  C:E4D5H         LINE#         159
  C:E4D6H         LINE#         160
  C:E4E0H         LINE#         161
  C:E4E2H         LINE#         162
  C:E4E4H         LINE#         163
BL51 BANKED LINKER/LOCATER V6.22                                                      03/11/2019  10:41:19  PAGE 104


  C:E4E6H         LINE#         164
  -------         ENDPROC       _LIB_BCD_ARRY_ADD1
  -------         PROC          _LIB_GET_CSCK_INT16U_NUM
  D:0001H         SYMBOL        ptr
  D:0004H         SYMBOL        len
  X:01D8H         SYMBOL        key
  C:EA50H         LINE#         177
  C:EA50H         LINE#         178
  C:EA50H         LINE#         179
  C:EA59H         LINE#         180
  C:EA59H         LINE#         181
  C:EA6AH         LINE#         182
  C:EA71H         LINE#         183
  C:EA76H         LINE#         184
  C:EA78H         LINE#         185
  C:EA80H         LINE#         186
  -------         ENDPROC       _LIB_GET_CSCK_INT16U_NUM
  -------         PROC          _LIB_GET_CSCK_INT8U_NUM
  D:0001H         SYMBOL        ptr
  D:0004H         SYMBOL        len
  X:003DH         SYMBOL        key
  C:EC51H         LINE#         198
  C:EC51H         LINE#         199
  C:EC51H         LINE#         200
  C:EC5AH         LINE#         201
  C:EC5AH         LINE#         202
  C:EC64H         LINE#         203
  C:EC6BH         LINE#         204
  C:EC70H         LINE#         205
  C:EC72H         LINE#         206
  C:EC77H         LINE#         207
  -------         ENDPROC       _LIB_GET_CSCK_INT8U_NUM
  -------         PROC          _LIB_BCDCHK
  D:0001H         SYMBOL        ptr
  D:0005H         SYMBOL        len
  -------         DO            
  D:0007H         SYMBOL        i
  D:0006H         SYMBOL        Temp
  -------         ENDDO         
  C:EC78H         LINE#         217
  C:EC78H         LINE#         218
  C:EC78H         LINE#         222
  C:EC7AH         LINE#         224
  C:EC7AH         LINE#         225
  C:EC7EH         LINE#         226
  C:EC8FH         LINE#         227
  C:EC96H         LINE#         228
  C:EC97H         LINE#         229
  C:EC9CH         LINE#         231
  C:EC9EH         LINE#         232
  -------         ENDPROC       _LIB_BCDCHK
  -------         PROC          _LIB_GETGMDAY
  D:0001H         SYMBOL        Addr
  -------         DO            
  D:0006H         SYMBOL        Day
  X:018DH         SYMBOL        Mon
  X:018FH         SYMBOL        Year
BL51 BANKED LINKER/LOCATER V6.22                                                      03/11/2019  10:41:19  PAGE 105


  -------         ENDDO         
  C:CAB9H         LINE#         239
  C:CAB9H         LINE#         240
  C:CAB9H         LINE#         243
  C:CACBH         LINE#         244
  C:CADDH         LINE#         245
  C:CB36H         LINE#         246
  C:CB4FH         LINE#         247
  C:CB4FH         LINE#         248
  -------         ENDPROC       _LIB_GETGMDAY
  -------         PROC          _LIB_GETGMHOUR
  X:018AH         SYMBOL        Addr
  C:E26BH         LINE#         255
  C:E276H         LINE#         256
  C:E276H         LINE#         258
  C:E2B4H         LINE#         259
  -------         ENDPROC       _LIB_GETGMHOUR
  -------         PROC          _LIB_GETGMMIN
  X:0187H         SYMBOL        Addr
  C:E188H         LINE#         266
  C:E193H         LINE#         267
  C:E193H         LINE#         269
  C:E1D3H         LINE#         270
  -------         ENDPROC       _LIB_GETGMMIN
  -------         PROC          _LIB_GETGMSEC
  X:0184H         SYMBOL        Addr
  C:E1D4H         LINE#         277
  C:E1DFH         LINE#         278
  C:E1DFH         LINE#         280
  C:E21FH         LINE#         281
  -------         ENDPROC       _LIB_GETGMSEC
  -------         PROC          _LIB_CHECK_RTC_DATA_FORM
  D:0001H         SYMBOL        ClkData
  C:A95FH         LINE#         295
  C:A95FH         LINE#         296
  C:A95FH         LINE#         298
  C:A96AH         LINE#         301
  C:A979H         LINE#         302
  C:A984H         LINE#         305
  C:A999H         LINE#         306
  C:A9AAH         LINE#         308
  C:A9F0H         LINE#         309
  C:A9F3H         LINE#         310
  C:A9FEH         LINE#         313
  C:AA0DH         LINE#         314
  C:AA18H         LINE#         316
  C:AA27H         LINE#         317
  C:AA32H         LINE#         319
  C:AA41H         LINE#         320
  C:AA4CH         LINE#         322
  C:AA4EH         LINE#         323
  -------         ENDPROC       _LIB_CHECK_RTC_DATA_FORM
  -------         PROC          _LIB_ENOB_GET
  D:0001H         SYMBOL        s1
  D:0005H         SYMBOL        len
  X:07E8H         SYMBOL        ENOB_len
  -------         DO            
BL51 BANKED LINKER/LOCATER V6.22                                                      03/11/2019  10:41:19  PAGE 106


  D:0007H         SYMBOL        i
  -------         ENDDO         
  C:E873H         LINE#         348
  C:E873H         LINE#         349
  C:E873H         LINE#         351
  C:E87DH         LINE#         352
  C:E87DH         LINE#         353
  C:E888H         LINE#         354
  C:E88CH         LINE#         355
  C:E88CH         LINE#         356
  C:E894H         LINE#         357
  C:E89BH         LINE#         358
  C:E89DH         LINE#         360
  C:E89DH         LINE#         361
  C:E8A5H         LINE#         362
  C:E8A5H         LINE#         363
  C:E8A8H         LINE#         364
  C:E8AAH         LINE#         365
  -------         ENDPROC       _LIB_ENOB_GET
  C:E753H         SYMBOL        L?0099
  -------         PROC          L?0098
  -------         ENDPROC       L?0098
  C:E753H         SYMBOL        L?0099
  -------         PROC          _LIB_ATOB
  D:0007H         SYMBOL        Asc
  -------         DO            
  D:0006H         SYMBOL        Tmp
  -------         ENDDO         
  C:E764H         LINE#         371
  C:E764H         LINE#         372
  C:E764H         LINE#         373
  C:E766H         LINE#         375
  C:E772H         LINE#         376
  C:E778H         LINE#         377
  C:E784H         LINE#         378
  C:E788H         LINE#         379
  C:E78AH         LINE#         380
  -------         ENDPROC       _LIB_ATOB
  -------         PROC          L?0103
  -------         ENDPROC       L?0103
  -------         PROC          _LIB_BTOA
  D:0007H         SYMBOL        BCD
  -------         DO            
  D:0006H         SYMBOL        Tmp
  -------         ENDDO         
  C:EB44H         LINE#         385
  C:EB44H         LINE#         386
  C:EB44H         LINE#         387
  C:EB46H         LINE#         389
  C:EB4CH         LINE#         390
  C:EB52H         LINE#         391
  C:EB58H         LINE#         392
  C:EB5CH         LINE#         393
  C:EB5EH         LINE#         394
  -------         ENDPROC       _LIB_BTOA
  -------         PROC          _LIB_ASC_BCD
  X:079CH         SYMBOL        BCD
BL51 BANKED LINKER/LOCATER V6.22                                                      03/11/2019  10:41:19  PAGE 107


  X:079FH         SYMBOL        Asc
  X:07A2H         SYMBOL        Lenth
  -------         DO            
  D:0005H         SYMBOL        i
  X:07A3H         SYMBOL        Ptr
  -------         ENDDO         
  C:D7C4H         LINE#         400
  C:D7CFH         LINE#         401
  C:D7CFH         LINE#         405
  C:D7DCH         LINE#         406
  C:D7DCH         LINE#         407
  C:D804H         LINE#         408
  C:D81BH         LINE#         409
  C:D82DH         LINE#         410
  C:D831H         LINE#         411
  -------         ENDPROC       _LIB_ASC_BCD
  -------         PROC          _LIB_ASC_BCDA
  X:00E8H         SYMBOL        BCD
  X:00EBH         SYMBOL        Asc
  X:00EEH         SYMBOL        Lenth
  -------         DO            
  D:0005H         SYMBOL        i
  X:00EFH         SYMBOL        Ptr
  -------         ENDDO         
  C:D6E2H         LINE#         416
  C:D6EDH         LINE#         417
  C:D6EDH         LINE#         421
  C:D6F4H         LINE#         422
  C:D700H         LINE#         423
  C:D700H         LINE#         424
  C:D720H         LINE#         425
  C:D73AH         LINE#         426
  C:D74FH         LINE#         427
  C:D752H         LINE#         428
  -------         ENDPROC       _LIB_ASC_BCDA
  -------         PROC          _LIB_BCD_ASC
  X:07A6H         SYMBOL        Asc
  X:07A9H         SYMBOL        BCD
  X:07ACH         SYMBOL        Lenth
  -------         DO            
  D:0005H         SYMBOL        i
  X:07ADH         SYMBOL        Ptr
  -------         ENDDO         
  C:D2C0H         LINE#         433
  C:D2CBH         LINE#         434
  C:D2CBH         LINE#         438
  C:D2D6H         LINE#         439
  C:D2D6H         LINE#         440
  C:D2F5H         LINE#         441
  C:D30CH         LINE#         442
  C:D334H         LINE#         443
  C:D337H         LINE#         444
  -------         ENDPROC       _LIB_BCD_ASC
  -------         PROC          _LIB_BCD_ASCA
  X:01CBH         SYMBOL        Asc
  X:01CEH         SYMBOL        BCD
  X:01D1H         SYMBOL        Lenth
BL51 BANKED LINKER/LOCATER V6.22                                                      03/11/2019  10:41:19  PAGE 108


  -------         DO            
  D:0005H         SYMBOL        i
  X:01D2H         SYMBOL        Ptr
  -------         ENDDO         
  C:D753H         LINE#         449
  C:D75EH         LINE#         450
  C:D75EH         LINE#         454
  C:D76AH         LINE#         455
  C:D76AH         LINE#         456
  C:D781H         LINE#         457
  C:D798H         LINE#         458
  C:D7C0H         LINE#         459
  C:D7C3H         LINE#         460
  -------         ENDPROC       _LIB_BCD_ASCA
  -------         PROC          _LIB_MATH_GET_BCC_CHK
  X:07E9H         SYMBOL        yourBuf
  D:0005H         SYMBOL        StartID
  X:07EDH         SYMBOL        EndID
  -------         DO            
  D:0006H         SYMBOL        i
  D:0007H         SYMBOL        tmp
  -------         ENDDO         
  C:E9BCH         LINE#         472
  C:E9C7H         LINE#         473
  C:E9C7H         LINE#         477
  C:E9C9H         LINE#         478
  C:E9D5H         LINE#         479
  C:E9D5H         LINE#         480
  C:E9EAH         LINE#         481
  C:E9EDH         LINE#         482
  C:E9EDH         LINE#         483
  -------         ENDPROC       _LIB_MATH_GET_BCC_CHK
  -------         PROC          _LIB_CHECK_BITNUM
  D:0007H         SYMBOL        value
  -------         DO            
  D:0005H         SYMBOL        i
  D:0007H         SYMBOL        temp_data
  D:0006H         SYMBOL        re_value
  -------         ENDDO         
  C:EF86H         LINE#         490
  C:EF86H         LINE#         491
  C:EF86H         LINE#         493
  C:EF86H         LINE#         494
  C:EF88H         LINE#         495
  C:EF89H         LINE#         496
  C:EF89H         LINE#         497
  C:EF8DH         LINE#         498
  C:EF8DH         LINE#         499
  C:EF8EH         LINE#         500
  C:EF8EH         LINE#         501
  C:EF92H         LINE#         502
  C:EF97H         LINE#         503
  C:EF9AH         LINE#         504
  C:EF9BH         LINE#         505
  -------         ENDPROC       _LIB_CHECK_BITNUM
  -------         ENDMOD        LIB_MYMATH

BL51 BANKED LINKER/LOCATER V6.22                                                      03/11/2019  10:41:19  PAGE 109


  -------         MODULE        LIB_MYSPRING
  C:0000H         SYMBOL        _ICE_DUMMY_
  D:0090H         PUBLIC        P1
  C:EB5FH         PUBLIC        _Lib_Set_String
  D:00B0H         PUBLIC        P3
  D:00A8H         PUBLIC        IE
  C:EDD3H         PUBLIC        _Lib_Clr_String_U16
  D:00B8H         PUBLIC        IP
  C:C0A8H         PUBLIC        _Lib_Rev_Copy_Arry
  C:D511H         PUBLIC        _Lib_get_data_0xFF_asclen
  D:0098H         PUBLIC        SCON
  D:0088H         PUBLIC        TCON
  D:00F0H         PUBLIC        B
  D:00E0H         PUBLIC        ACC
  C:D1CEH         PUBLIC        _Lib_Cmp_TwoArry
  D:0080H         PUBLIC        SysCtrl
  C:D247H         PUBLIC        _Lib_MVHalfByte_L
  C:E7C6H         PUBLIC        _Lib_FCpyTMem
  C:DE3CH         PUBLIC        _Lib_MVHalfByte_R
  D:00C8H         PUBLIC        T2CON
  C:DDDFH         PUBLIC        _Lib_Copy_Str_TwoArry
  C:EE5FH         PUBLIC        _Lib_Clr_String
  D:00D0H         PUBLIC        PSW
  -------         PROC          _LIB_CMP_TWOARRY
  X:022DH         SYMBOL        s1
  X:0230H         SYMBOL        s2
  X:0233H         SYMBOL        len
  -------         DO            
  D:0007H         SYMBOL        i
  -------         ENDDO         
  C:D1CEH         LINE#         33
  C:D1D9H         LINE#         34
  C:D1D9H         LINE#         37
  C:D1EBH         LINE#         38
  C:D1F4H         LINE#         39
  C:D200H         LINE#         40
  C:D200H         LINE#         41
  C:D225H         LINE#         42
  C:D22DH         LINE#         43
  C:D237H         LINE#         44
  C:D241H         LINE#         45
  C:D244H         LINE#         46
  C:D246H         LINE#         47
  -------         ENDPROC       _LIB_CMP_TWOARRY
  -------         PROC          _LIB_REV_COPY_ARRY
  X:0038H         SYMBOL        s1
  X:003BH         SYMBOL        len
  -------         DO            
  X:003CH         SYMBOL        tmpData
  X:003DH         SYMBOL        i
  -------         ENDDO         
  C:C0A8H         LINE#         60
  C:C0B6H         LINE#         61
  C:C0B6H         LINE#         63
  C:C0BDH         LINE#         65
  C:C0D2H         LINE#         66
  C:C0D2H         LINE#         67
BL51 BANKED LINKER/LOCATER V6.22                                                      03/11/2019  10:41:19  PAGE 110


  C:C0EEH         LINE#         68
  C:C123H         LINE#         69
  C:C14BH         LINE#         70
  C:C154H         LINE#         71
  -------         ENDPROC       _LIB_REV_COPY_ARRY
  -------         PROC          _LIB_COPY_STR_TWOARRY
  X:01DEH         SYMBOL        s1
  X:01E1H         SYMBOL        s2
  X:01E4H         SYMBOL        len
  C:DDDFH         LINE#         84
  C:DDEAH         LINE#         85
  C:DDEAH         LINE#         86
  C:DDF9H         LINE#         87
  C:DDF9H         LINE#         88
  C:DE17H         LINE#         89
  C:DE21H         LINE#         90
  C:DE2BH         LINE#         91
  C:DE39H         LINE#         92
  C:DE3BH         LINE#         93
  -------         ENDPROC       _LIB_COPY_STR_TWOARRY
  -------         PROC          _LIB_SET_STRING
  D:0001H         SYMBOL        s1
  D:0005H         SYMBOL        tmp
  X:017DH         SYMBOL        len
  C:EB5FH         LINE#         106
  C:EB5FH         LINE#         107
  C:EB5FH         LINE#         108
  C:EB6EH         LINE#         109
  C:EB6EH         LINE#         110
  C:EB72H         LINE#         111
  C:EB79H         LINE#         112
  C:EB87H         LINE#         113
  C:EB89H         LINE#         114
  -------         ENDPROC       _LIB_SET_STRING
  -------         PROC          _LIB_CLR_STRING_U16
  D:0001H         SYMBOL        s1
  D:0004H         SYMBOL        len
  C:EDD3H         LINE#         126
  C:EDD3H         LINE#         127
  C:EDD3H         LINE#         128
  C:EDDCH         LINE#         129
  C:EDDCH         LINE#         130
  C:EDE2H         LINE#         131
  C:EDE9H         LINE#         132
  C:EDEEH         LINE#         133
  C:EDF0H         LINE#         135
  -------         ENDPROC       _LIB_CLR_STRING_U16
  -------         PROC          _LIB_CLR_STRING
  D:0001H         SYMBOL        s1
  D:0004H         SYMBOL        len
  C:EE5FH         LINE#         146
  C:EE5FH         LINE#         147
  C:EE5FH         LINE#         148
  C:EE68H         LINE#         149
  C:EE68H         LINE#         150
  C:EE6CH         LINE#         151
  C:EE72H         LINE#         152
BL51 BANKED LINKER/LOCATER V6.22                                                      03/11/2019  10:41:19  PAGE 111


  C:EE77H         LINE#         153
  C:EE79H         LINE#         155
  -------         ENDPROC       _LIB_CLR_STRING
  -------         PROC          _LIB_GET_DATA_0XFF_ASCLEN
  X:07D2H         SYMBOL        Addr
  X:07D5H         SYMBOL        numbyte
  -------         DO            
  D:0006H         SYMBOL        i
  X:07D7H         SYMBOL        asclen
  -------         ENDDO         
  C:D511H         LINE#         163
  C:D522H         LINE#         164
  C:D522H         LINE#         166
  C:D527H         LINE#         167
  C:D536H         LINE#         168
  C:D536H         LINE#         169
  C:D550H         LINE#         170
  C:D550H         LINE#         171
  C:D552H         LINE#         172
  C:D552H         LINE#         173
  C:D560H         LINE#         174
  C:D567H         LINE#         175
  C:D567H         LINE#         176
  C:D569H         LINE#         177
  C:D569H         LINE#         178
  C:D577H         LINE#         179
  C:D57EH         LINE#         180
  C:D586H         LINE#         181
  -------         ENDPROC       _LIB_GET_DATA_0XFF_ASCLEN
  -------         PROC          _LIB_MVHALFBYTE_R
  X:07FBH         SYMBOL        addr
  D:0005H         SYMBOL        numbyte
  -------         DO            
  D:0007H         SYMBOL        i
  -------         ENDDO         
  C:DE3CH         LINE#         190
  C:DE47H         LINE#         191
  C:DE47H         LINE#         195
  C:DE50H         LINE#         196
  C:DE50H         LINE#         197
  C:DE82H         LINE#         198
  C:DE85H         LINE#         199
  -------         ENDPROC       _LIB_MVHALFBYTE_R
  -------         PROC          _LIB_MVHALFBYTE_L
  X:07FEH         SYMBOL        addr
  D:0004H         SYMBOL        numbyte
  -------         DO            
  D:0005H         SYMBOL        i
  -------         ENDDO         
  C:D247H         LINE#         209
  C:D254H         LINE#         210
  C:D254H         LINE#         214
  C:D25EH         LINE#         215
  C:D25EH         LINE#         216
  C:D28FH         LINE#         217
  C:D292H         LINE#         218
  -------         ENDPROC       _LIB_MVHALFBYTE_L
BL51 BANKED LINKER/LOCATER V6.22                                                      03/11/2019  10:41:19  PAGE 112


  -------         PROC          _LIB_FCPYTMEM
  X:0038H         SYMBOL        des
  X:003AH         SYMBOL        src
  D:0003H         SYMBOL        len
  C:E7C6H         LINE#         225
  C:E7D4H         LINE#         226
  C:E7D4H         LINE#         227
  C:E7DAH         LINE#         228
  C:E7DAH         LINE#         229
  C:E7FDH         LINE#         230
  C:E7FFH         LINE#         231
  -------         ENDPROC       _LIB_FCPYTMEM
  -------         ENDMOD        LIB_MYSPRING

  -------         MODULE        LIB_MYTIMER
  C:0000H         SYMBOL        _ICE_DUMMY_
  D:00CEH         PUBLIC        wdt0
  D:0090H         PUBLIC        P1
  D:00CFH         PUBLIC        wdt1
  D:00B0H         PUBLIC        P3
  C:ED0EH         PUBLIC        _Lib_Delay_sec
  D:00A8H         PUBLIC        IE
  D:00B8H         PUBLIC        IP
  C:EEE2H         PUBLIC        _Lib_Delay_ms
  D:0098H         PUBLIC        SCON
  D:0088H         PUBLIC        TCON
  D:00F0H         PUBLIC        B
  D:00E0H         PUBLIC        ACC
  D:0080H         PUBLIC        SysCtrl
  C:F040H         PUBLIC        _Lib_Delay_2us
  D:00C8H         PUBLIC        T2CON
  C:EB8AH         PUBLIC        _Lib_SystemDelay
  C:F055H         PUBLIC        _Lib_Delay_Nop
  D:00D0H         PUBLIC        PSW
  -------         PROC          _LIB_DELAY_NOP
  D:0007H         SYMBOL        cnt
  C:F055H         LINE#         29
  C:F055H         LINE#         30
  C:F055H         LINE#         31
  C:F05BH         LINE#         32
  C:F05BH         LINE#         33
  C:F05CH         LINE#         34
  C:F05EH         LINE#         35
  -------         ENDPROC       _LIB_DELAY_NOP
  -------         PROC          _LIB_DELAY_2US
  D:0007H         SYMBOL        cnt
  C:F040H         LINE#         45
  C:F040H         LINE#         46
  C:F040H         LINE#         49
  C:F046H         LINE#         50
  C:F046H         LINE#         51
  C:F047H         LINE#         52
  C:F048H         LINE#         53
  C:F04AH         LINE#         54
  -------         ENDPROC       _LIB_DELAY_2US
  -------         PROC          _LIB_DELAY_MS
  D:0006H         SYMBOL        cnt
BL51 BANKED LINKER/LOCATER V6.22                                                      03/11/2019  10:41:19  PAGE 113


  -------         DO            
  D:0006H         SYMBOL        i
  D:0005H         SYMBOL        j
  -------         ENDDO         
  C:EEE2H         LINE#         87
  C:EEE2H         LINE#         88
  C:EEE2H         LINE#         92
  C:EEEBH         LINE#         93
  C:EEEBH         LINE#         94
  C:EEEDH         LINE#         95
  C:EEEDH         LINE#         96
  C:EEEEH         LINE#         97
  C:EEF3H         LINE#         98
  C:EEFAH         LINE#         99
  -------         ENDPROC       _LIB_DELAY_MS
  -------         PROC          _LIB_DELAY_SEC
  D:0004H         SYMBOL        cnt
  -------         DO            
  D:0003H         SYMBOL        i
  -------         ENDDO         
  C:ED0EH         LINE#         109
  C:ED10H         LINE#         110
  C:ED10H         LINE#         112
  C:ED17H         LINE#         113
  C:ED17H         LINE#         114
  C:ED25H         LINE#         115
  C:ED2CH         LINE#         116
  C:ED2FH         LINE#         117
  -------         ENDPROC       _LIB_DELAY_SEC
  -------         PROC          _LIB_SYSTEMDELAY
  D:0006H         SYMBOL        t
  -------         DO            
  D:0004H         SYMBOL        i
  -------         ENDDO         
  C:EB8AH         LINE#         129
  C:EB8AH         LINE#         130
  C:EB8AH         LINE#         132
  C:EB94H         LINE#         133
  C:EB94H         LINE#         134
  C:EBA2H         LINE#         136
  C:EBB0H         LINE#         137
  C:EBB2H         LINE#         138
  -------         ENDPROC       _LIB_SYSTEMDELAY
  -------         ENDMOD        LIB_MYTIMER

  -------         MODULE        API_ADJERR
  C:0000H         SYMBOL        _ICE_DUMMY_
  D:0090H         PUBLIC        P1
  D:00B0H         PUBLIC        P3
  D:00A8H         PUBLIC        IE
  D:00B8H         PUBLIC        IP
  X:0805H         PUBLIC        u8_channel_fg
  D:0098H         PUBLIC        SCON
  D:0088H         PUBLIC        TCON
  D:00F0H         PUBLIC        B
  D:00E0H         PUBLIC        ACC
  D:0080H         PUBLIC        SysCtrl
BL51 BANKED LINKER/LOCATER V6.22                                                      03/11/2019  10:41:19  PAGE 114


  D:00C8H         PUBLIC        T2CON
  D:00D0H         PUBLIC        PSW
  -------         ENDMOD        API_ADJERR

  -------         MODULE        API_BILL_RECORD
  C:0000H         SYMBOL        _ICE_DUMMY_
  D:00CEH         PUBLIC        wdt0
  D:0090H         PUBLIC        P1
  D:00CFH         PUBLIC        wdt1
  D:00B0H         PUBLIC        P3
  C:855EH         PUBLIC        api_handl_settle_when_powerUp
  X:0465H         PUBLIC        energy_data_array
  D:00A8H         PUBLIC        IE
  D:00B8H         PUBLIC        IP
  X:0483H         PUBLIC        csck
  X:0484H         PUBLIC        st_mmd_unit_array
  C:F06FH         PUBLIC        bill_info
  D:0098H         PUBLIC        SCON
  D:0088H         PUBLIC        TCON
  C:C8EEH         PUBLIC        api_handl_settle_per_minute
  C:ECE9H         PUBLIC        _Judage_Month
  D:00F0H         PUBLIC        B
  C:72B8H         PUBLIC        _api_get_bill_record_addr
  C:ED52H         PUBLIC        _Judage_Year
  D:00E0H         PUBLIC        ACC
  C:83CBH         PUBLIC        _api_write_bill_data
  D:0080H         PUBLIC        SysCtrl
  C:D054H         PUBLIC        api_freeze_energy_pre_day
  C:6EFFH         PUBLIC        api_freeze_energy_Ram_pre_day
  X:04B1H         PUBLIC        d_flag
  C:A06EH         PUBLIC        api_clr_bill_data
  X:04B2H         PUBLIC        Excsck
  X:04B3H         PUBLIC        sum_st_mmd_unit_array
  D:00C8H         PUBLIC        T2CON
  D:00D0H         PUBLIC        PSW
  -------         PROC          _JUDAGE_YEAR
  D:0007H         SYMBOL        year
  C:ED52H         LINE#         39
  C:ED52H         LINE#         40
  C:ED52H         LINE#         41
  C:ED6DH         LINE#         42
  C:ED6DH         LINE#         43
  C:ED70H         LINE#         44
  C:ED70H         LINE#         46
  C:ED70H         LINE#         47
  C:ED72H         LINE#         48
  C:ED72H         LINE#         49
  -------         ENDPROC       _JUDAGE_YEAR
  -------         PROC          _JUDAGE_MONTH
  D:0007H         SYMBOL        month
  D:0005H         SYMBOL        year
  C:ECE9H         LINE#         51
  C:ECE9H         LINE#         52
  C:ECE9H         LINE#         53
  C:ECEDH         LINE#         54
  C:ECF4H         LINE#         55
  C:ECFAH         LINE#         56
BL51 BANKED LINKER/LOCATER V6.22                                                      03/11/2019  10:41:19  PAGE 115


  C:ECFAH         LINE#         57
  C:ECFEH         LINE#         58
  C:ECFEH         LINE#         59
  C:ED01H         LINE#         60
  C:ED01H         LINE#         62
  C:ED01H         LINE#         63
  C:ED04H         LINE#         64
  C:ED04H         LINE#         65
  C:ED04H         LINE#         67
  C:ED04H         LINE#         68
  C:ED08H         LINE#         69
  C:ED08H         LINE#         70
  C:ED0BH         LINE#         71
  C:ED0BH         LINE#         73
  C:ED0BH         LINE#         74
  C:ED0DH         LINE#         75
  C:ED0DH         LINE#         76
  C:ED0DH         LINE#         77
  -------         ENDPROC       _JUDAGE_MONTH
  -------         PROC          _API_GET_BILL_RECORD_ADDR
  X:00E8H         SYMBOL        addr
  -------         DO            
  X:00EAH         SYMBOL        i
  X:00EBH         SYMBOL        ptr
  D:0007H         SYMBOL        temp
  D:0003H         SYMBOL        num
  X:00ECH         SYMBOL        hist_addr
  D:0006H         SYMBOL        len
  -------         ENDDO         
  C:72B8H         LINE#         92
  C:72C0H         LINE#         93
  C:72C0H         LINE#         97
  C:72D0H         LINE#         98
  C:72D0H         LINE#         99
  C:72EDH         LINE#         100
  C:7318H         LINE#         101
  C:7346H         LINE#         102
  C:734FH         LINE#         104
  C:738DH         LINE#         105
  C:73A9H         LINE#         106
  C:73A9H         LINE#         107
  C:73ABH         LINE#         108
  C:73ABH         LINE#         110
  C:73D7H         LINE#         111
  C:73F7H         LINE#         112
  C:7418H         LINE#         113
  C:7421H         LINE#         114
  C:7421H         LINE#         115
  C:743DH         LINE#         116
  C:743FH         LINE#         118
  C:743FH         LINE#         119
  C:7446H         LINE#         120
  C:7446H         LINE#         121
  C:748FH         LINE#         123
  C:748FH         LINE#         124
  -------         ENDPROC       _API_GET_BILL_RECORD_ADDR
  -------         PROC          _API_WRITE_BILL_DATA
BL51 BANKED LINKER/LOCATER V6.22                                                      03/11/2019  10:41:19  PAGE 116


  X:001DH         SYMBOL        id
  -------         DO            
  X:001EH         SYMBOL        adr_tmp
  X:0020H         SYMBOL        ptr_tmp
  X:0021H         SYMBOL        buff_int8u
  -------         ENDDO         
  C:83CBH         LINE#         140
  C:83D0H         LINE#         141
  C:83D0H         LINE#         147
  C:83DDH         LINE#         150
  C:8409H         LINE#         151
  C:840FH         LINE#         152
  C:842FH         LINE#         153
  C:846FH         LINE#         154
  C:8498H         LINE#         157
  C:84A1H         LINE#         158
  C:84A1H         LINE#         159
  C:84A1H         LINE#         160
  C:84A9H         LINE#         161
  C:84B1H         LINE#         162
  C:84B9H         LINE#         163
  C:84C1H         LINE#         164
  C:84C9H         LINE#         165
  C:84D1H         LINE#         166
  C:84EBH         LINE#         167
  C:8509H         LINE#         168
  C:8523H         LINE#         169
  C:855AH         LINE#         172
  C:855AH         LINE#         174
  C:855AH         LINE#         175
  C:855DH         LINE#         176
  C:855DH         LINE#         177
  C:855DH         LINE#         180
  -------         ENDPROC       _API_WRITE_BILL_DATA
  -------         PROC          API_HANDL_SETTLE_PER_MINUTE
  -------         DO            
  X:0000H         SYMBOL        param_settel
  X:0002H         SYMBOL        u16_hour_A
  X:0004H         SYMBOL        u16_hour_B
  -------         ENDDO         
  C:C8EEH         LINE#         195
  C:C8EEH         LINE#         196
  C:C8EEH         LINE#         200
  C:C8F7H         LINE#         202
  C:C90FH         LINE#         203
  C:C93CH         LINE#         204
  C:C969H         LINE#         206
  C:C980H         LINE#         207
  C:C980H         LINE#         208
  C:C984H         LINE#         209
  C:C987H         LINE#         210
  C:C987H         LINE#         211
  -------         ENDPROC       API_HANDL_SETTLE_PER_MINUTE
  -------         PROC          API_FREEZE_ENERGY_PRE_DAY
  C:D054H         LINE#         225
  C:D054H         LINE#         226
  C:D054H         LINE#         228
BL51 BANKED LINKER/LOCATER V6.22                                                      03/11/2019  10:41:19  PAGE 117


  C:D05CH         LINE#         229
  C:D05DH         LINE#         230
  C:D076H         LINE#         231
  C:D090H         LINE#         232
  C:D0A9H         LINE#         235
  C:D0AFH         LINE#         236
  C:D0AFH         LINE#         238
  C:D0B5H         LINE#         239
  C:D0B5H         LINE#         240
  C:D0BBH         LINE#         241
  C:D0BBH         LINE#         243
  C:D0C2H         LINE#         244
  C:D0C2H         LINE#         246
  C:D0D0H         LINE#         247
  C:D0D5H         LINE#         248
  C:D0D8H         LINE#         250
  C:D0D8H         LINE#         251
  C:D0D8H         LINE#         252
  C:D0D8H         LINE#         253
  C:D0D8H         LINE#         255
  C:D0D8H         LINE#         258
  -------         ENDPROC       API_FREEZE_ENERGY_PRE_DAY
  -------         PROC          API_FREEZE_ENERGY_RAM_PRE_DAY
  -------         DO            
  X:0007H         SYMBOL        i
  -------         ENDDO         
  C:6EFFH         LINE#         260
  C:6EFFH         LINE#         261
  C:6EFFH         LINE#         265
  C:6F08H         LINE#         266
  C:6F08H         LINE#         268
  C:6F11H         LINE#         269
  C:6F11H         LINE#         270
  C:6F1AH         LINE#         271
  C:6F1AH         LINE#         273
  C:6F1FH         LINE#         274
  C:6F38H         LINE#         275
  C:6F4AH         LINE#         276
  C:6F4AH         LINE#         277
  C:6F91H         LINE#         278
  C:6F99H         LINE#         281
  C:6FA1H         LINE#         282
  C:6FA9H         LINE#         283
  C:6FB1H         LINE#         284
  C:6FB9H         LINE#         285
  C:6FC1H         LINE#         286
  C:6FD3H         LINE#         287
  C:6FD3H         LINE#         288
  C:701AH         LINE#         289
  C:7022H         LINE#         292
  C:7034H         LINE#         293
  C:7034H         LINE#         294
  C:707BH         LINE#         295
  C:7083H         LINE#         312
  C:7088H         LINE#         313
  C:70A5H         LINE#         314
  C:70C2H         LINE#         315
BL51 BANKED LINKER/LOCATER V6.22                                                      03/11/2019  10:41:19  PAGE 118


  C:70DFH         LINE#         317
  C:70DFH         LINE#         318
  C:70DFH         LINE#         319
  C:70DFH         LINE#         320
  -------         ENDPROC       API_FREEZE_ENERGY_RAM_PRE_DAY
  -------         PROC          API_HANDL_SETTLE_WHEN_POWERUP
  -------         DO            
  X:0730H         SYMBOL        last_rec_dateTime
  X:0736H         SYMBOL        param_settel
  X:0738H         SYMBOL        u16_month_A
  X:073AH         SYMBOL        u16_month_B
  X:073CH         SYMBOL        u16_hour_A
  X:073EH         SYMBOL        u16_hour_B
  X:0740H         SYMBOL        months_no_settled
  X:0742H         SYMBOL        i
  X:0743H         SYMBOL        j
  -------         ENDDO         
  C:855EH         LINE#         337
  C:855EH         LINE#         338
  C:855EH         LINE#         352
  C:8578H         LINE#         353
  C:85A5H         LINE#         354
  C:85D2H         LINE#         355
  C:85EAH         LINE#         356
  C:8617H         LINE#         357
  C:8644H         LINE#         365
  C:8659H         LINE#         366
  C:8659H         LINE#         367
  C:8661H         LINE#         368
  C:8663H         LINE#         370
  C:8663H         LINE#         371
  C:867EH         LINE#         372
  C:867EH         LINE#         373
  C:8683H         LINE#         374
  C:8687H         LINE#         375
  C:8687H         LINE#         376
  C:8690H         LINE#         377
  C:869BH         LINE#         378
  C:86A1H         LINE#         379
  C:86A1H         LINE#         380
  C:86B6H         LINE#         381
  C:86B6H         LINE#         382
  C:86B6H         LINE#         383
  C:86B6H         LINE#         384
  C:86B6H         LINE#         385
  C:86B6H         LINE#         386
  C:86B8H         LINE#         388
  C:86B8H         LINE#         389
  C:86B8H         LINE#         390
  C:86B8H         LINE#         391
  C:86B8H         LINE#         393
  C:86B8H         LINE#         394
  C:86BDH         LINE#         395
  C:86CBH         LINE#         396
  C:86D1H         LINE#         397
  C:86DFH         LINE#         398
  C:86DFH         LINE#         399
BL51 BANKED LINKER/LOCATER V6.22                                                      03/11/2019  10:41:19  PAGE 119


  C:86EBH         LINE#         400
  -------         ENDPROC       API_HANDL_SETTLE_WHEN_POWERUP
  -------         PROC          API_CLR_BILL_DATA
  -------         DO            
  X:0002H         SYMBOL        tmp_bill_var
  X:000BH         SYMBOL        tmp_bill_unit
  -------         ENDDO         
  C:A06EH         LINE#         416
  C:A06EH         LINE#         417
  C:A06EH         LINE#         418
  C:A06EH         LINE#         420
  C:A07CH         LINE#         421
  C:A089H         LINE#         422
  C:A096H         LINE#         424
  C:A0B0H         LINE#         425
  C:A0BEH         LINE#         427
  C:A0CFH         LINE#         428
  C:A0DDH         LINE#         429
  C:A0EFH         LINE#         430
  C:A0FDH         LINE#         431
  C:A10FH         LINE#         432
  C:A11DH         LINE#         433
  C:A12FH         LINE#         434
  C:A13DH         LINE#         435
  C:A14FH         LINE#         436
  C:A15DH         LINE#         437
  C:A16FH         LINE#         438
  C:A17DH         LINE#         454
  -------         ENDPROC       API_CLR_BILL_DATA
  -------         ENDMOD        API_BILL_RECORD

  -------         MODULE        API_DEMAND
  C:0000H         SYMBOL        _ICE_DUMMY_
  D:00CEH         PUBLIC        wdt0
  D:0090H         PUBLIC        P1
  X:03D6H         PUBLIC        gs_md_param
  D:00CFH         PUBLIC        wdt1
  D:00B0H         PUBLIC        P3
  D:00A8H         PUBLIC        IE
  D:00B8H         PUBLIC        IP
  C:7827H         PUBLIC        _api_cmp_save_md_data
  C:E220H         PUBLIC        lnk_updata_md_var_power_per_second
  C:E800H         PUBLIC        api_init_md_data_ram
  C:646FH         PUBLIC        api_updata_md_var_slid_per_minute
  C:D587H         PUBLIC        api_updata_md_var_min_per_second
  C:D5FBH         PUBLIC        api_clr_freeze_energy
  D:0098H         PUBLIC        SCON
  D:0088H         PUBLIC        TCON
  C:B25CH         PUBLIC        api_clr_current_MD_data
  X:03D8H         PUBLIC        gs_md_var
  D:00F0H         PUBLIC        B
  D:00E0H         PUBLIC        ACC
  C:E8B1H         PUBLIC        _api_check_Demand_para
  D:0080H         PUBLIC        SysCtrl
  D:00C8H         PUBLIC        T2CON
  D:00D0H         PUBLIC        PSW
  -------         PROC          L?0040
BL51 BANKED LINKER/LOCATER V6.22                                                      03/11/2019  10:41:19  PAGE 120


  -------         ENDPROC       L?0040
  -------         PROC          _API_CHECK_DEMAND_PARA
  D:0001H         SYMBOL        s_para
  -------         DO            
  D:0007H         SYMBOL        flg
  D:0006H         SYMBOL        u8_period
  D:0005H         SYMBOL        u8_slid
  -------         ENDDO         
  C:E8B1H         LINE#         37
  C:E8B1H         LINE#         38
  C:E8B1H         LINE#         39
  C:E8B3H         LINE#         42
  C:E8B7H         LINE#         43
  C:E8BEH         LINE#         45
  C:E8CAH         LINE#         46
  C:E8CAH         LINE#         47
  C:E8D5H         LINE#         48
  C:E8D5H         LINE#         49
  C:E8D9H         LINE#         50
  C:E8D9H         LINE#         51
  C:E8E1H         LINE#         52
  C:E8E1H         LINE#         53
  C:E8E2H         LINE#         54
  C:E8E2H         LINE#         55
  C:E8E2H         LINE#         56
  C:E8E2H         LINE#         57
  C:E8E2H         LINE#         59
  C:E8E2H         LINE#         61
  -------         ENDPROC       _API_CHECK_DEMAND_PARA
  -------         PROC          API_INIT_MD_DATA_RAM
  C:E800H         LINE#         76
  C:E800H         LINE#         77
  C:E800H         LINE#         80
  C:E818H         LINE#         82
  C:E81EH         LINE#         83
  C:E81EH         LINE#         85
  C:E824H         LINE#         86
  C:E826H         LINE#         87
  C:E826H         LINE#         90
  -------         ENDPROC       API_INIT_MD_DATA_RAM
  -------         PROC          _API_CMP_SAVE_MD_DATA
  X:0006H         SYMBOL        ch
  X:0007H         SYMBOL        val_hex32
  -------         DO            
  X:000BH         SYMBOL        st_mmd_unit
  X:0014H         SYMBOL        adr_offset
  -------         ENDDO         
  C:7827H         LINE#         105
  C:782CH         LINE#         106
  C:782CH         LINE#         111
  C:7834H         LINE#         112
  C:7834H         LINE#         113
  C:7843H         LINE#         114
  C:7864H         LINE#         115
  C:7889H         LINE#         116
  C:7889H         LINE#         117
  C:789BH         LINE#         118
BL51 BANKED LINKER/LOCATER V6.22                                                      03/11/2019  10:41:19  PAGE 121


  C:78A3H         LINE#         119
  C:78ABH         LINE#         120
  C:78B3H         LINE#         121
  C:78BBH         LINE#         122
  C:78C3H         LINE#         123
  C:78E7H         LINE#         124
  C:7901H         LINE#         125
  C:791BH         LINE#         126
  C:791BH         LINE#         129
  C:793AH         LINE#         130
  C:795BH         LINE#         131
  C:797DH         LINE#         132
  C:797DH         LINE#         133
  C:798FH         LINE#         134
  C:7997H         LINE#         135
  C:799FH         LINE#         136
  C:79A7H         LINE#         137
  C:79AFH         LINE#         138
  C:79B7H         LINE#         139
  C:79DBH         LINE#         140
  C:79DBH         LINE#         160
  C:79DBH         LINE#         163
  -------         ENDPROC       _API_CMP_SAVE_MD_DATA
  -------         PROC          LNK_UPDATA_MD_VAR_POWER_PER_SECOND
  -------         DO            
  X:0001H         SYMBOL        i
  -------         ENDDO         
  C:E220H         LINE#         178
  C:E220H         LINE#         179
  C:E220H         LINE#         182
  C:E22FH         LINE#         183
  C:E22FH         LINE#         184
  C:E236H         LINE#         185
  C:E236H         LINE#         186
  C:E236H         LINE#         187
  C:E239H         LINE#         188
  C:E23BH         LINE#         190
  C:E23BH         LINE#         191
  C:E25DH         LINE#         192
  C:E25FH         LINE#         193
  C:E25FH         LINE#         194
  C:E262H         LINE#         195
  C:E262H         LINE#         196
  C:E26AH         LINE#         198
  -------         ENDPROC       LNK_UPDATA_MD_VAR_POWER_PER_SECOND
  -------         PROC          API_UPDATA_MD_VAR_MIN_PER_SECOND
  -------         DO            
  X:0000H         SYMBOL        i
  -------         ENDDO         
  C:D587H         LINE#         213
  C:D587H         LINE#         214
  C:D587H         LINE#         218
  C:D58AH         LINE#         222
  C:D58FH         LINE#         223
  C:D58FH         LINE#         224
  C:D5A4H         LINE#         225
  C:D5F0H         LINE#         226
BL51 BANKED LINKER/LOCATER V6.22                                                      03/11/2019  10:41:19  PAGE 122


  C:D5FAH         LINE#         228
  -------         ENDPROC       API_UPDATA_MD_VAR_MIN_PER_SECOND
  -------         PROC          API_UPDATA_MD_VAR_SLID_PER_MINUTE
  -------         DO            
  X:0000H         SYMBOL        i
  X:0001H         SYMBOL        j
  X:0002H         SYMBOL        sum_hex32
  -------         ENDDO         
  C:646FH         LINE#         244
  C:646FH         LINE#         245
  C:646FH         LINE#         250
  C:6475H         LINE#         251
  C:6475H         LINE#         253
  C:647BH         LINE#         254
  C:647DH         LINE#         255
  C:647DH         LINE#         257
  C:648FH         LINE#         258
  C:648FH         LINE#         260
  C:64A0H         LINE#         261
  C:64A0H         LINE#         262
  C:64D9H         LINE#         263
  C:64E9H         LINE#         264
  C:64FEH         LINE#         265
  C:64FEH         LINE#         268
  C:651FH         LINE#         269
  C:651FH         LINE#         270
  C:6569H         LINE#         271
  C:657AH         LINE#         272
  C:6596H         LINE#         273
  C:6596H         LINE#         274
  C:65ABH         LINE#         275
  C:65BBH         LINE#         276
  C:65BBH         LINE#         278
  C:65D5H         LINE#         279
  C:65D5H         LINE#         280
  C:65DFH         LINE#         281
  C:65FFH         LINE#         282
  C:65FFH         LINE#         283
  C:6610H         LINE#         284
  C:6610H         LINE#         285
  C:665CH         LINE#         286
  C:6664H         LINE#         287
  C:6693H         LINE#         288
  C:66BBH         LINE#         289
  C:66BBH         LINE#         290
  C:66BBH         LINE#         291
  C:66BBH         LINE#         293
  C:66C4H         LINE#         295
  -------         ENDPROC       API_UPDATA_MD_VAR_SLID_PER_MINUTE
  -------         PROC          API_CLR_CURRENT_MD_DATA
  -------         DO            
  X:0095H         SYMBOL        tmp_ms_user_data
  X:00C4H         SYMBOL        st_mmd_unit
  -------         ENDDO         
  C:B25CH         LINE#         310
  C:B25CH         LINE#         311
  C:B25CH         LINE#         315
BL51 BANKED LINKER/LOCATER V6.22                                                      03/11/2019  10:41:19  PAGE 123


  C:B276H         LINE#         316
  C:B2A4H         LINE#         317
  C:B2AAH         LINE#         318
  C:B2C3H         LINE#         320
  C:B2D0H         LINE#         321
  C:B2DDH         LINE#         322
  C:B2F7H         LINE#         323
  C:B311H         LINE#         324
  C:B31FH         LINE#         326
  -------         ENDPROC       API_CLR_CURRENT_MD_DATA
  -------         PROC          API_CLR_FREEZE_ENERGY
  C:D5FBH         LINE#         329
  C:D5FBH         LINE#         330
  C:D5FBH         LINE#         331
  C:D608H         LINE#         332
  C:D615H         LINE#         333
  C:D622H         LINE#         334
  C:D63CH         LINE#         335
  C:D656H         LINE#         336
  -------         ENDPROC       API_CLR_FREEZE_ENERGY
  -------         ENDMOD        API_DEMAND

  -------         MODULE        API_ENERGY
  C:0000H         SYMBOL        _ICE_DUMMY_
  D:00CEH         PUBLIC        wdt0
  D:0090H         PUBLIC        P1
  D:00CFH         PUBLIC        wdt1
  D:00B0H         PUBLIC        P3
  B:00A8H.7       PUBLIC        EA
  C:5FA8H         PUBLIC        api_accum_current_energy_data_pre_second
  D:00A8H         PUBLIC        IE
  D:00B8H         PUBLIC        IP
  C:D9E3H         PUBLIC        api_clr_current_energy_data
  D:0098H         PUBLIC        SCON
  D:0088H         PUBLIC        TCON
  D:00F0H         PUBLIC        B
  D:00E0H         PUBLIC        ACC
  C:68FCH         PUBLIC        api_init_current_energy_data_ram
  D:0080H         PUBLIC        SysCtrl
  C:DB87H         PUBLIC        lnk_add_fac_energy_pluse
  X:04E5H         PUBLIC        gs_energy_user_data_back
  C:F094H         PUBLIC        lnk_add_rac_energy_pluse
  D:00C8H         PUBLIC        T2CON
  X:0523H         PUBLIC        gs_energy_user_data
  C:BFF9H         PUBLIC        api_check_current_energy_data
  X:0561H         PUBLIC        gs_energy_var
  D:00D0H         PUBLIC        PSW
  -------         PROC          API_INIT_CURRENT_ENERGY_DATA_RAM
  -------         DO            
  X:000DH         SYMBOL        i
  X:000EH         SYMBOL        u16_month_A
  X:0010H         SYMBOL        u16_month_B
  X:0012H         SYMBOL        u16_day_A
  X:0014H         SYMBOL        u16_day_B
  X:0016H         SYMBOL        last_rec_dateTime
  X:001CH         SYMBOL        max_dateTime
  -------         ENDDO         
BL51 BANKED LINKER/LOCATER V6.22                                                      03/11/2019  10:41:19  PAGE 124


  C:68FCH         LINE#         41
  C:68FCH         LINE#         42
  C:68FCH         LINE#         51
  C:6910H         LINE#         52
  C:6924H         LINE#         53
  C:6927H         LINE#         55
  C:693FH         LINE#         57
  C:6959H         LINE#         58
  C:6973H         LINE#         59
  C:698CH         LINE#         60
  C:6991H         LINE#         78
  C:69AAH         LINE#         79
  C:69D7H         LINE#         80
  C:6A04H         LINE#         81
  C:6A12H         LINE#         82
  C:6A2AH         LINE#         83
  C:6A2AH         LINE#         84
  C:6A47H         LINE#         85
  C:6A47H         LINE#         86
  C:6A4DH         LINE#         87
  C:6A4FH         LINE#         89
  C:6A4FH         LINE#         90
  C:6A6AH         LINE#         91
  C:6A87H         LINE#         93
  C:6A96H         LINE#         94
  C:6A96H         LINE#         98
  C:6A9EH         LINE#         99
  C:6A9EH         LINE#         100
  C:6AAEH         LINE#         101
  C:6AAEH         LINE#         102
  C:6ABCH         LINE#         103
  C:6ACEH         LINE#         104
  C:6ACEH         LINE#         105
  C:6AD3H         LINE#         106
  C:6AE1H         LINE#         107
  C:6AE9H         LINE#         108
  C:6AF7H         LINE#         109
  C:6AFAH         LINE#         111
  C:6B08H         LINE#         112
  C:6B08H         LINE#         113
  C:6B08H         LINE#         121
  C:6B08H         LINE#         129
  C:6B0DH         LINE#         130
  -------         ENDPROC       API_INIT_CURRENT_ENERGY_DATA_RAM
  -------         PROC          API_CHECK_CURRENT_ENERGY_DATA
  -------         DO            
  D:0006H         SYMBOL        csck_tmp
  -------         ENDDO         
  C:BFF9H         LINE#         144
  C:BFF9H         LINE#         145
  C:BFF9H         LINE#         149
  C:C010H         LINE#         150
  C:C01FH         LINE#         151
  C:C01FH         LINE#         152
  C:C036H         LINE#         153
  C:C042H         LINE#         154
  C:C042H         LINE#         155
BL51 BANKED LINKER/LOCATER V6.22                                                      03/11/2019  10:41:19  PAGE 125


  C:C05BH         LINE#         156
  C:C07AH         LINE#         166
  C:C07AH         LINE#         167
  C:C098H         LINE#         168
  C:C0A7H         LINE#         169
  C:C0A7H         LINE#         170
  -------         ENDPROC       API_CHECK_CURRENT_ENERGY_DATA
  -------         PROC          LNK_ADD_FAC_ENERGY_PLUSE
  -------         DO            
  D:0007H         SYMBOL        chg_fg
  D:0005H         SYMBOL        u8_tmp
  D:0006H         SYMBOL        i
  -------         ENDDO         
  C:DB87H         LINE#         184
  C:DB87H         LINE#         185
  C:DB87H         LINE#         187
  C:DB89H         LINE#         190
  C:DB8AH         LINE#         191
  C:DB8AH         LINE#         192
  C:DB9BH         LINE#         193
  C:DB9BH         LINE#         194
  C:DB9DH         LINE#         195
  C:DB9DH         LINE#         196
  C:DBA9H         LINE#         197
  C:DBABH         LINE#         199
  C:DBC1H         LINE#         201
  C:DBE7H         LINE#         203
  C:DBE9H         LINE#         204
  C:DBE9H         LINE#         205
  C:DBEEH         LINE#         207
  C:DBEEH         LINE#         208
  -------         ENDPROC       LNK_ADD_FAC_ENERGY_PLUSE
  -------         PROC          LNK_ADD_RAC_ENERGY_PLUSE
  -------         DO            
  D:0007H         SYMBOL        chg_fg
  -------         ENDDO         
  C:F094H         LINE#         224
  C:F094H         LINE#         225
  C:F094H         LINE#         227
  C:F096H         LINE#         287
  C:F096H         LINE#         288
  -------         ENDPROC       LNK_ADD_RAC_ENERGY_PLUSE
  -------         PROC          API_ACCUM_CURRENT_ENERGY_DATA_PRE_SECOND
  -------         DO            
  X:0007H         SYMBOL        save_fg
  X:0008H         SYMBOL        i
  D:0007H         SYMBOL        chg_fg1
  -------         ENDDO         
  C:5FA8H         LINE#         302
  C:5FA8H         LINE#         303
  C:5FA8H         LINE#         304
  C:5FADH         LINE#         309
  C:5FB0H         LINE#         311
  C:5FB3H         LINE#         313
  C:5FB9H         LINE#         315
  C:5FBEH         LINE#         316
  C:5FCDH         LINE#         317
BL51 BANKED LINKER/LOCATER V6.22                                                      03/11/2019  10:41:19  PAGE 126


  C:5FCDH         LINE#         318
  C:5FF2H         LINE#         319
  C:5FF2H         LINE#         320
  C:5FFEH         LINE#         321
  C:6018H         LINE#         322
  C:604DH         LINE#         323
  C:6074H         LINE#         324
  C:6074H         LINE#         325
  C:608CH         LINE#         326
  C:608CH         LINE#         327
  C:608CH         LINE#         329
  C:60C6H         LINE#         330
  C:60C6H         LINE#         331
  C:60F3H         LINE#         332
  C:6144H         LINE#         333
  C:6180H         LINE#         334
  C:6180H         LINE#         335
  C:61AAH         LINE#         336
  C:61AAH         LINE#         337
  C:61AAH         LINE#         340
  C:61B3H         LINE#         343
  C:61D2H         LINE#         344
  C:61F0H         LINE#         347
  C:61F7H         LINE#         348
  C:61F7H         LINE#         349
  C:6210H         LINE#         350
  C:6210H         LINE#         351
  -------         ENDPROC       API_ACCUM_CURRENT_ENERGY_DATA_PRE_SECOND
  -------         PROC          API_CLR_CURRENT_ENERGY_DATA
  C:D9E3H         LINE#         367
  C:D9E3H         LINE#         368
  C:D9E3H         LINE#         370
  C:D9F7H         LINE#         371
  C:DA16H         LINE#         373
  C:DA34H         LINE#         375
  -------         ENDPROC       API_CLR_CURRENT_ENERGY_DATA
  -------         ENDMOD        API_ENERGY

  -------         MODULE        API_EVENT
  C:0000H         SYMBOL        _ICE_DUMMY_
  D:00CEH         PUBLIC        wdt0
  D:0090H         PUBLIC        P1
  D:00CFH         PUBLIC        wdt1
  D:00B0H         PUBLIC        P3
  C:ED94H         PUBLIC        api_even_Detect_NOL1
  C:ED73H         PUBLIC        api_even_Detect_NOL2
  D:00A8H         PUBLIC        IE
  C:B995H         PUBLIC        _api_deal_even_class_recode
  C:E78BH         PUBLIC        gs_even_var
  D:00B8H         PUBLIC        IP
  C:DAB6H         PUBLIC        api_even_ee_err
  C:EA81H         PUBLIC        api_even_Detect_sec
  D:0098H         PUBLIC        SCON
  D:0088H         PUBLIC        TCON
  C:9BFBH         PUBLIC        api_clr_even_by_comm
  C:A489H         PUBLIC        _GetTotalTime
  C:F01BH         PUBLIC        api_even_Detect_lowbattery
BL51 BANKED LINKER/LOCATER V6.22                                                      03/11/2019  10:41:19  PAGE 127


  D:00F0H         PUBLIC        B
  X:077BH         PUBLIC        gs_even_fun_var
  D:00E0H         PUBLIC        ACC
  C:4A42H         PUBLIC        _api_pwl_cover_even_class_recode
  D:0080H         PUBLIC        SysCtrl
  D:00C8H         PUBLIC        T2CON
  C:002EH         PUBLIC        api_even_Detect_L1reverse
  C:001EH         PUBLIC        api_even_Detect_L2reverse
  C:35CFH         PUBLIC        _lnk_save_even_class1_recode
  C:E7A5H         PUBLIC        even_class_I_tab
  C:F09AH         PUBLIC        api_even_int
  D:00D0H         PUBLIC        PSW
  -------         PROC          API_EVEN_INT
  C:F09AH         LINE#         101
  C:F09AH         LINE#         102
  C:F09AH         LINE#         104
  C:F09BH         LINE#         105
  -------         ENDPROC       API_EVEN_INT
  -------         PROC          _API_PWL_COVER_EVEN_CLASS_RECODE
  X:033AH         SYMBOL        even_id
  D:0005H         SYMBOL        type
  -------         DO            
  X:033BH         SYMBOL        data_class2
  X:03BBH         SYMBOL        buftmp
  X:03D1H         SYMBOL        Time
  X:03D5H         SYMBOL        i
  -------         ENDDO         
  C:4A42H         LINE#         110
  C:4A47H         LINE#         111
  C:4A47H         LINE#         120
  C:4A4FH         LINE#         121
  C:4A4FH         LINE#         122
  C:4A6FH         LINE#         123
  C:4A6FH         LINE#         124
  C:4A7FH         LINE#         125
  C:4AA2H         LINE#         126
  C:4AA4H         LINE#         128
  C:4AA4H         LINE#         129
  C:4AB4H         LINE#         130
  C:4AD5H         LINE#         132
  C:4AD5H         LINE#         133
  C:4AEFH         LINE#         136
  C:4B14H         LINE#         137
  C:4B24H         LINE#         138
  C:4B24H         LINE#         139
  C:4B5EH         LINE#         140
  C:4B66H         LINE#         141
  C:4B6EH         LINE#         142
  C:4B76H         LINE#         143
  C:4B7EH         LINE#         144
  C:4B86H         LINE#         145
  C:4B8EH         LINE#         146
  C:4B96H         LINE#         148
  C:4BA6H         LINE#         149
  C:4BA6H         LINE#         150
  C:4BE0H         LINE#         151
  C:4BE8H         LINE#         152
BL51 BANKED LINKER/LOCATER V6.22                                                      03/11/2019  10:41:19  PAGE 128


  C:4BF6H         LINE#         154
  C:4C0AH         LINE#         156
  C:4C29H         LINE#         158
  C:4C43H         LINE#         159
  C:4C43H         LINE#         161
  C:4C43H         LINE#         163
  C:4C59H         LINE#         164
  C:4C59H         LINE#         166
  C:4C59H         LINE#         167
  C:4C69H         LINE#         168
  C:4C69H         LINE#         169
  C:4C79H         LINE#         170
  C:4C86H         LINE#         172
  C:4C87H         LINE#         174
  C:4C87H         LINE#         177
  C:4C97H         LINE#         178
  C:4CBAH         LINE#         179
  C:4CC8H         LINE#         180
  C:4CE2H         LINE#         182
  C:4CEAH         LINE#         183
  C:4CF2H         LINE#         184
  C:4CFAH         LINE#         185
  C:4D02H         LINE#         186
  C:4D0AH         LINE#         187
  C:4D13H         LINE#         189
  C:4D1BH         LINE#         190
  C:4D23H         LINE#         191
  C:4D2BH         LINE#         192
  C:4D33H         LINE#         193
  C:4D3BH         LINE#         194
  C:4D43H         LINE#         196
  C:4D46H         LINE#         197
  C:4D4EH         LINE#         198
  C:4D56H         LINE#         199
  C:4D5EH         LINE#         200
  C:4D66H         LINE#         201
  C:4D6EH         LINE#         203
  C:4D77H         LINE#         205
  C:4D95H         LINE#         207
  C:4DF6H         LINE#         209
  C:4E15H         LINE#         210
  C:4E23H         LINE#         212
  C:4E3DH         LINE#         214
  C:4E4DH         LINE#         215
  C:4E59H         LINE#         216
  C:4E59H         LINE#         218
  C:4E59H         LINE#         221
  -------         ENDPROC       _API_PWL_COVER_EVEN_CLASS_RECODE
  -------         PROC          _LNK_SAVE_EVEN_CLASS1_RECODE
  X:009AH         SYMBOL        ID
  X:009BH         SYMBOL        adr
  X:009DH         SYMBOL        type
  -------         DO            
  X:009EH         SYMBOL        data_class1
  X:00DEH         SYMBOL        data_class2
  X:015EH         SYMBOL        buftmp
  X:0174H         SYMBOL        Time
BL51 BANKED LINKER/LOCATER V6.22                                                      03/11/2019  10:41:19  PAGE 129


  X:0178H         SYMBOL        i
  -------         ENDDO         
  C:35CFH         LINE#         237
  C:35E1H         LINE#         238
  C:35E1H         LINE#         246
  C:35ECH         LINE#         248
  C:35FEH         LINE#         249
  C:35FEH         LINE#         251
  C:3619H         LINE#         253
  C:363EH         LINE#         254
  C:364EH         LINE#         255
  C:364EH         LINE#         256
  C:3688H         LINE#         257
  C:3690H         LINE#         259
  C:3698H         LINE#         260
  C:36A0H         LINE#         261
  C:36A8H         LINE#         262
  C:36B0H         LINE#         263
  C:36B8H         LINE#         264
  C:36C0H         LINE#         266
  C:36DFH         LINE#         269
  C:36F8H         LINE#         271
  C:36F8H         LINE#         274
  C:3717H         LINE#         275
  C:3717H         LINE#         276
  C:3720H         LINE#         277
  C:3720H         LINE#         278
  C:3730H         LINE#         281
  C:3750H         LINE#         282
  C:3769H         LINE#         283
  C:3769H         LINE#         284
  C:3774H         LINE#         285
  C:3777H         LINE#         287
  C:3777H         LINE#         288
  C:3787H         LINE#         289
  C:37ABH         LINE#         290
  C:37B9H         LINE#         292
  C:37CFH         LINE#         293
  C:37CFH         LINE#         294
  C:37E0H         LINE#         295
  C:3800H         LINE#         296
  C:3800H         LINE#         300
  C:381EH         LINE#         303
  C:3843H         LINE#         304
  C:3853H         LINE#         305
  C:3853H         LINE#         306
  C:388DH         LINE#         307
  C:3895H         LINE#         308
  C:389DH         LINE#         309
  C:38A5H         LINE#         310
  C:38ADH         LINE#         311
  C:38B5H         LINE#         312
  C:38BDH         LINE#         313
  C:38C5H         LINE#         315
  C:38D5H         LINE#         316
  C:38D5H         LINE#         317
  C:390FH         LINE#         318
BL51 BANKED LINKER/LOCATER V6.22                                                      03/11/2019  10:41:19  PAGE 130


  C:3917H         LINE#         319
  C:3925H         LINE#         322
  C:3939H         LINE#         326
  C:3958H         LINE#         329
  C:396EH         LINE#         330
  C:396EH         LINE#         331
  C:3971H         LINE#         333
  C:3971H         LINE#         334
  C:398DH         LINE#         335
  C:398DH         LINE#         336
  C:39B0H         LINE#         338
  C:39B0H         LINE#         339
  C:39C0H         LINE#         340
  C:39CCH         LINE#         343
  C:39ECH         LINE#         344
  C:3A00H         LINE#         345
  C:3A00H         LINE#         347
  C:3A00H         LINE#         350
  C:3A10H         LINE#         351
  C:3A30H         LINE#         352
  C:3A3EH         LINE#         353
  C:3A5CH         LINE#         355
  C:3A64H         LINE#         356
  C:3A6CH         LINE#         357
  C:3A74H         LINE#         358
  C:3A7CH         LINE#         359
  C:3A84H         LINE#         360
  C:3A8DH         LINE#         362
  C:3A95H         LINE#         363
  C:3A9DH         LINE#         364
  C:3AA5H         LINE#         365
  C:3AADH         LINE#         366
  C:3AB5H         LINE#         367
  C:3ABDH         LINE#         370
  C:3AC0H         LINE#         371
  C:3AC8H         LINE#         372
  C:3AD0H         LINE#         373
  C:3AD8H         LINE#         374
  C:3AE0H         LINE#         375
  C:3AE8H         LINE#         377
  C:3AF1H         LINE#         379
  C:3B0FH         LINE#         381
  C:3B70H         LINE#         383
  C:3B8FH         LINE#         385
  C:3B9DH         LINE#         388
  C:3BBBH         LINE#         390
  C:3BBBH         LINE#         391
  C:3BBBH         LINE#         393
  C:3BBBH         LINE#         394
  C:3BCBH         LINE#         395
  C:3BD7H         LINE#         396
  C:3BD7H         LINE#         397
  C:3BD7H         LINE#         399
  C:3BD7H         LINE#         402
  -------         ENDPROC       _LNK_SAVE_EVEN_CLASS1_RECODE
  -------         PROC          _API_DEAL_EVEN_CLASS_RECODE
  D:0007H         SYMBOL        even_id
BL51 BANKED LINKER/LOCATER V6.22                                                      03/11/2019  10:41:19  PAGE 131


  D:0006H         SYMBOL        type
  -------         DO            
  X:0095H         SYMBOL        i
  X:0096H         SYMBOL        ID
  X:0097H         SYMBOL        tab_class
  -------         ENDDO         
  C:B995H         LINE#         418
  C:B997H         LINE#         419
  C:B997H         LINE#         423
  C:B99DH         LINE#         424
  C:B99DH         LINE#         425
  C:B9ACH         LINE#         426
  C:B9ACH         LINE#         427
  C:B9BFH         LINE#         428
  C:B9C7H         LINE#         430
  C:B9D4H         LINE#         432
  C:B9E0H         LINE#         433
  C:B9E0H         LINE#         434
  C:B9E2H         LINE#         435
  C:B9EDH         LINE#         436
  C:B9EDH         LINE#         437
  C:B9FCH         LINE#         438
  C:B9FCH         LINE#         439
  C:BA0FH         LINE#         440
  C:BA17H         LINE#         442
  C:BA20H         LINE#         444
  C:BA40H         LINE#         445
  C:BA45H         LINE#         446
  C:BA45H         LINE#         449
  C:BA57H         LINE#         451
  -------         ENDPROC       _API_DEAL_EVEN_CLASS_RECODE
  -------         PROC          API_CLR_EVEN_BY_COMM
  -------         DO            
  X:0095H         SYMBOL        i
  X:0096H         SYMBOL        data_class1
  X:00D6H         SYMBOL        data_class2
  -------         ENDDO         
  C:9BFBH         LINE#         466
  C:9BFBH         LINE#         467
  C:9BFBH         LINE#         472
  C:9C0FH         LINE#         473
  C:9C23H         LINE#         474
  C:9C28H         LINE#         475
  C:9C3BH         LINE#         477
  C:9C55H         LINE#         479
  C:9C74H         LINE#         480
  C:9C93H         LINE#         482
  C:9CA5H         LINE#         483
  C:9CA5H         LINE#         484
  C:9CB3H         LINE#         485
  C:9CDEH         LINE#         486
  C:9D0CH         LINE#         487
  C:9D1AH         LINE#         488
  C:9D23H         LINE#         491
  -------         ENDPROC       API_CLR_EVEN_BY_COMM
  -------         PROC          _GETTOTALTIME
  X:0179H         SYMBOL        buftmp
BL51 BANKED LINKER/LOCATER V6.22                                                      03/11/2019  10:41:19  PAGE 132


  -------         DO            
  X:017CH         SYMBOL        temp1
  X:0180H         SYMBOL        temp2
  -------         ENDDO         
  C:A489H         LINE#         502
  C:A494H         LINE#         503
  C:A494H         LINE#         506
  C:A4BFH         LINE#         507
  C:A4BFH         LINE#         508
  C:A4C9H         LINE#         509
  C:A4D3H         LINE#         510
  C:A4D5H         LINE#         512
  C:A4D5H         LINE#         513
  C:A4E5H         LINE#         514
  C:A4FEH         LINE#         518
  C:A4FEH         LINE#         520
  C:A523H         LINE#         521
  C:A523H         LINE#         522
  C:A54EH         LINE#         523
  C:A550H         LINE#         525
  C:A550H         LINE#         526
  C:A557H         LINE#         527
  C:A557H         LINE#         529
  -------         ENDPROC       _GETTOTALTIME
  -------         PROC          API_EVEN_DETECT_SEC
  C:EA81H         LINE#         545
  C:EA81H         LINE#         546
  C:EA81H         LINE#         547
  C:EA89H         LINE#         549
  C:EA8CH         LINE#         551
  C:EA96H         LINE#         552
  C:EA9DH         LINE#         562
  C:EAA7H         LINE#         563
  C:EAAEH         LINE#         572
  -------         ENDPROC       API_EVEN_DETECT_SEC
  -------         PROC          API_EVEN_DETECT_L2REVERSE
  C:001EH         LINE#         587
  C:001EH         LINE#         588
  C:001EH         LINE#         590
  C:0025H         LINE#         591
  C:0028H         LINE#         593
  C:002AH         LINE#         595
  -------         ENDPROC       API_EVEN_DETECT_L2REVERSE
  -------         PROC          API_EVEN_DETECT_L1REVERSE
  C:002EH         LINE#         611
  C:002EH         LINE#         612
  C:002EH         LINE#         613
  C:0035H         LINE#         614
  C:0038H         LINE#         616
  C:003AH         LINE#         617
  -------         ENDPROC       API_EVEN_DETECT_L1REVERSE
  -------         PROC          API_EVEN_DETECT_NOL2
  C:ED73H         LINE#         631
  C:ED73H         LINE#         632
  C:ED73H         LINE#         634
  C:ED8EH         LINE#         635
  C:ED8EH         LINE#         637
BL51 BANKED LINKER/LOCATER V6.22                                                      03/11/2019  10:41:19  PAGE 133


  C:ED91H         LINE#         638
  C:ED91H         LINE#         640
  C:ED91H         LINE#         642
  C:ED93H         LINE#         643
  C:ED93H         LINE#         644
  -------         ENDPROC       API_EVEN_DETECT_NOL2
  -------         PROC          API_EVEN_DETECT_NOL1
  C:ED94H         LINE#         658
  C:ED94H         LINE#         659
  C:ED94H         LINE#         661
  C:EDAFH         LINE#         662
  C:EDAFH         LINE#         664
  C:EDB2H         LINE#         665
  C:EDB2H         LINE#         667
  C:EDB2H         LINE#         669
  C:EDB4H         LINE#         670
  C:EDB4H         LINE#         671
  -------         ENDPROC       API_EVEN_DETECT_NOL1
  -------         PROC          API_EVEN_DETECT_LOWBATTERY
  C:F01BH         LINE#         685
  C:F01BH         LINE#         686
  C:F01BH         LINE#         687
  C:F022H         LINE#         688
  C:F025H         LINE#         690
  C:F027H         LINE#         691
  -------         ENDPROC       API_EVEN_DETECT_LOWBATTERY
  -------         PROC          API_EVEN_EE_ERR
  C:DAB6H         LINE#         707
  C:DAB6H         LINE#         708
  C:DAB6H         LINE#         709
  C:DAD0H         LINE#         711
  C:DAECH         LINE#         712
  C:DAECH         LINE#         713
  C:DAF0H         LINE#         714
  C:DAF0H         LINE#         716
  C:DB11H         LINE#         717
  C:DB11H         LINE#         718
  C:DB18H         LINE#         719
  C:DB1EH         LINE#         720
  C:DB1EH         LINE#         722
  C:DB1EH         LINE#         724
  C:DB1EH         LINE#         725
  -------         ENDPROC       API_EVEN_EE_ERR
  -------         ENDMOD        API_EVENT

  -------         MODULE        API_LOADPROFILE
  C:0000H         SYMBOL        _ICE_DUMMY_
  D:00CEH         PUBLIC        wdt0
  D:0090H         PUBLIC        P1
  D:00CFH         PUBLIC        wdt1
  D:00B0H         PUBLIC        P3
  C:F097H         PUBLIC        ReadLPRunPa
  X:06EAH         PUBLIC        LPRunPa
  D:00A8H         PUBLIC        IE
  D:00B8H         PUBLIC        IP
  C:D90BH         PUBLIC        Init_LoadPro_param
  X:06EEH         PUBLIC        LPReadPara
BL51 BANKED LINKER/LOCATER V6.22                                                      03/11/2019  10:41:19  PAGE 134


  C:C2ACH         PUBLIC        _LPRec_Read_1
  C:CC7AH         PUBLIC        LoadPro_Rec
  D:0098H         PUBLIC        SCON
  D:0088H         PUBLIC        TCON
  D:00F0H         PUBLIC        B
  D:00E0H         PUBLIC        ACC
  X:06F3H         PUBLIC        LPRd
  D:0080H         PUBLIC        SysCtrl
  C:6211H         PUBLIC        _LPRec_Read_Block
  D:00C8H         PUBLIC        T2CON
  C:E4E7H         PUBLIC        LoadProRst
  D:00D0H         PUBLIC        PSW
  C:583EH         PUBLIC        _Load_Rec
  -------         PROC          LOADPRORST
  C:E4E7H         LINE#         28
  C:E4E7H         LINE#         29
  C:E4E7H         LINE#         30
  C:E4FBH         LINE#         31
  C:E515H         LINE#         33
  -------         ENDPROC       LOADPRORST
  -------         PROC          READLPRUNPA
  C:F097H         LINE#         45
  C:F097H         LINE#         46
  C:F097H         LINE#         47
  C:F099H         LINE#         48
  -------         ENDPROC       READLPRUNPA
  -------         PROC          _LPREC_READ_1
  X:00E8H         SYMBOL        dst
  D:0004H         SYMBOL        idNo
  -------         DO            
  X:00EBH         SYMBOL        RecLen
  X:00ECH         SYMBOL        Buffer
  D:0004H         SYMBOL        LPAddr
  X:0100H         SYMBOL        ptr
  -------         ENDDO         
  C:C2ACH         LINE#         58
  C:C2B7H         LINE#         59
  C:C2B7H         LINE#         66
  C:C2C5H         LINE#         67
  C:C2C5H         LINE#         68
  C:C2CAH         LINE#         69
  C:C2CCH         LINE#         71
  C:C2CCH         LINE#         72
  C:C2EEH         LINE#         73
  C:C2EEH         LINE#         75
  C:C2F4H         LINE#         76
  C:C312H         LINE#         77
  C:C32DH         LINE#         78
  C:C351H         LINE#         85
  C:C356H         LINE#         86
  -------         ENDPROC       _LPREC_READ_1
  -------         PROC          _LPREC_READ_BLOCK
  X:00E8H         SYMBOL        dst
  X:00EBH         SYMBOL        StartARESS
  X:00EDH         SYMBOL        EndARESS
  -------         DO            
  X:00EFH         SYMBOL        Ch
BL51 BANKED LINKER/LOCATER V6.22                                                      03/11/2019  10:41:19  PAGE 135


  X:00F0H         SYMBOL        RecLen
  X:00F1H         SYMBOL        Buffer
  X:01B9H         SYMBOL        LPAddr
  X:01BDH         SYMBOL        LPAddr2
  X:01C1H         SYMBOL        HGAddr
  D:0002H         SYMBOL        LWAddr
  X:01C3H         SYMBOL        ComLenth
  X:01C5H         SYMBOL        ptr
  X:01C7H         SYMBOL        ComNo
  X:01C9H         SYMBOL        TempLen
  -------         ENDDO         
  C:6211H         LINE#         94
  C:6222H         LINE#         95
  C:6222H         LINE#         104
  C:622FH         LINE#         105
  C:623DH         LINE#         106
  C:625BH         LINE#         107
  C:6265H         LINE#         109
  C:6281H         LINE#         110
  C:6286H         LINE#         112
  C:629FH         LINE#         114
  C:62C3H         LINE#         116
  C:62C9H         LINE#         118
  C:62D3H         LINE#         119
  C:62E1H         LINE#         120
  C:62F3H         LINE#         121
  C:62F3H         LINE#         122
  C:6339H         LINE#         123
  C:636AH         LINE#         125
  C:6373H         LINE#         127
  C:639EH         LINE#         128
  C:63A3H         LINE#         130
  C:63B2H         LINE#         131
  C:63C0H         LINE#         133
  C:63C9H         LINE#         134
  C:63D0H         LINE#         137
  C:63DEH         LINE#         138
  C:63F5H         LINE#         139
  C:63F5H         LINE#         140
  C:6441H         LINE#         149
  C:644FH         LINE#         150
  C:645DH         LINE#         151
  C:6466H         LINE#         153
  C:646EH         LINE#         154
  -------         ENDPROC       _LPREC_READ_BLOCK
  -------         PROC          _LOAD_REC
  X:0006H         SYMBOL        Ch
  -------         DO            
  X:0007H         SYMBOL        LPAddr
  X:000BH         SYMBOL        Len
  X:000CH         SYMBOL        Buffer
  -------         ENDDO         
  C:583EH         LINE#         233
  C:5843H         LINE#         234
  C:5843H         LINE#         240
  C:584DH         LINE#         248
  C:5861H         LINE#         249
BL51 BANKED LINKER/LOCATER V6.22                                                      03/11/2019  10:41:19  PAGE 136


  C:5866H         LINE#         250
  C:588AH         LINE#         251
  C:5891H         LINE#         256
  C:58B0H         LINE#         257
  C:58B7H         LINE#         262
  C:58D2H         LINE#         263
  C:5909H         LINE#         264
  C:5910H         LINE#         269
  C:592BH         LINE#         270
  C:5962H         LINE#         271
  C:5969H         LINE#         275
  C:5987H         LINE#         276
  C:598EH         LINE#         294
  C:59B0H         LINE#         295
  C:59E4H         LINE#         296
  C:5A02H         LINE#         297
  C:5A2BH         LINE#         300
  C:5A35H         LINE#         301
  C:5A82H         LINE#         303
  C:5A9CH         LINE#         312
  C:5ABEH         LINE#         314
  C:5AC0H         LINE#         315
  -------         ENDPROC       _LOAD_REC
  -------         PROC          LOADPRO_REC
  -------         DO            
  X:0000H         SYMBOL        Ch
  D:0006H         SYMBOL        Addr
  X:0001H         SYMBOL        TimeInv
  X:0003H         SYMBOL        flag
  X:0004H         SYMBOL        Buffer
  -------         ENDDO         
  C:CC7AH         LINE#         323
  C:CC7AH         LINE#         324
  C:CC7AH         LINE#         331
  C:CC8CH         LINE#         332
  C:CC8CH         LINE#         333
  C:CC98H         LINE#         335
  C:CCAFH         LINE#         336
  C:CCC0H         LINE#         337
  C:CCC3H         LINE#         338
  C:CCC3H         LINE#         339
  C:CCC6H         LINE#         340
  C:CCD5H         LINE#         341
  C:CCD5H         LINE#         348
  C:CCE2H         LINE#         349
  C:CCF6H         LINE#         350
  C:CCF6H         LINE#         351
  C:CCFCH         LINE#         352
  C:CCFCH         LINE#         353
  C:CD04H         LINE#         354
  C:CD04H         LINE#         355
  C:CD04H         LINE#         356
  C:CD0DH         LINE#         357
  -------         ENDPROC       LOADPRO_REC
  -------         PROC          INIT_LOADPRO_PARAM
  C:D90BH         LINE#         366
  C:D90BH         LINE#         367
BL51 BANKED LINKER/LOCATER V6.22                                                      03/11/2019  10:41:19  PAGE 137


  C:D90BH         LINE#         370
  C:D925H         LINE#         372
  C:D93DH         LINE#         373
  C:D94DH         LINE#         374
  C:D94DH         LINE#         375
  C:D953H         LINE#         376
  C:D953H         LINE#         379
  C:D95DH         LINE#         381
  -------         ENDPROC       INIT_LOADPRO_PARAM
  -------         ENDMOD        API_LOADPROFILE

  -------         MODULE        API_MEASURE
  C:0000H         SYMBOL        _ICE_DUMMY_
  D:00CEH         PUBLIC        wdt0
  D:0090H         PUBLIC        P1
  D:00CFH         PUBLIC        wdt1
  D:00B0H         PUBLIC        P3
  D:00A8H         PUBLIC        IE
  C:8E22H         PUBLIC        api_measure_deal_pre_second
  D:00B8H         PUBLIC        IP
  C:EBB3H         PUBLIC        api_Measure_ram_INIT
  D:0098H         PUBLIC        SCON
  D:0088H         PUBLIC        TCON
  D:00F0H         PUBLIC        B
  D:00E0H         PUBLIC        ACC
  D:0080H         PUBLIC        SysCtrl
  X:068FH         PUBLIC        gs_measure_status_judge_var
  X:0695H         PUBLIC        gs_measure_var_data
  D:00C8H         PUBLIC        T2CON
  C:E952H         PUBLIC        api_measure_VBAT_pre_min
  C:EEC8H         PUBLIC        api_measure_temperature_pre_min
  D:00D0H         PUBLIC        PSW
  -------         PROC          API_MEASURE_RAM_INIT
  C:EBB3H         LINE#         37
  C:EBB3H         LINE#         38
  C:EBB3H         LINE#         39
  C:EBC7H         LINE#         40
  -------         ENDPROC       API_MEASURE_RAM_INIT
  -------         PROC          API_MEASURE_DEAL_PRE_SECOND
  -------         DO            
  X:0000H         SYMBOL        u32_UI
  X:0004H         SYMBOL        u32_P
  X:0008H         SYMBOL        u32_PF
  -------         ENDDO         
  C:8E22H         LINE#         55
  C:8E22H         LINE#         56
  C:8E22H         LINE#         57
  C:8E22H         LINE#         58
  C:8E30H         LINE#         61
  C:8E33H         LINE#         64
  C:8E3EH         LINE#         68
  C:8E48H         LINE#         69
  C:8E7DH         LINE#         70
  C:8EB2H         LINE#         72
  C:8EBFH         LINE#         78
  C:8EDDH         LINE#         79
  C:8F0CH         LINE#         80
BL51 BANKED LINKER/LOCATER V6.22                                                      03/11/2019  10:41:19  PAGE 138


  C:8F25H         LINE#         81
  C:8F25H         LINE#         82
  C:8F2FH         LINE#         83
  C:8F30H         LINE#         85
  C:8F30H         LINE#         86
  C:8F53H         LINE#         87
  C:8F78H         LINE#         88
  C:8F89H         LINE#         89
  C:8F89H         LINE#         90
  -------         ENDPROC       API_MEASURE_DEAL_PRE_SECOND
  -------         PROC          API_MEASURE_VBAT_PRE_MIN
  C:E952H         LINE#         103
  C:E952H         LINE#         104
  C:E952H         LINE#         105
  C:E95DH         LINE#         107
  C:E965H         LINE#         108
  C:E965H         LINE#         109
  C:E970H         LINE#         110
  C:E978H         LINE#         111
  C:E978H         LINE#         112
  C:E97FH         LINE#         114
  C:E97FH         LINE#         115
  C:E980H         LINE#         117
  C:E980H         LINE#         118
  C:E987H         LINE#         119
  C:E987H         LINE#         120
  -------         ENDPROC       API_MEASURE_VBAT_PRE_MIN
  -------         PROC          API_MEASURE_TEMPERATURE_PRE_MIN
  C:EEC8H         LINE#         135
  C:EEC8H         LINE#         136
  C:EEC8H         LINE#         137
  C:EECDH         LINE#         138
  C:EED4H         LINE#         140
  C:EEDFH         LINE#         142
  -------         ENDPROC       API_MEASURE_TEMPERATURE_PRE_MIN
  -------         ENDMOD        API_MEASURE

  -------         MODULE        API_TRIFF
  C:0000H         SYMBOL        _ICE_DUMMY_
  C:DE99H         PUBLIC        api_update_triffNo_pre_minute
  D:0090H         PUBLIC        P1
  C:9619H         PUBLIC        api_get_seasonTab_No
  D:00B0H         PUBLIC        P3
  D:00A8H         PUBLIC        IE
  C:C9A2H         PUBLIC        default_triff_week_tab
  D:00B8H         PUBLIC        IP
  C:C9C0H         PUBLIC        default_triff_day_tab
  D:0098H         PUBLIC        SCON
  C:C49FH         PUBLIC        _api_get_dayTab_No
  D:0088H         PUBLIC        TCON
  D:00F0H         PUBLIC        B
  D:00E0H         PUBLIC        ACC
  D:0080H         PUBLIC        SysCtrl
  D:00C8H         PUBLIC        T2CON
  X:07EEH         PUBLIC        gs_current_triff_var
  C:C988H         PUBLIC        default_triff_season_tab
  C:808CH         PUBLIC        _api_get_triff_No
BL51 BANKED LINKER/LOCATER V6.22                                                      03/11/2019  10:41:19  PAGE 139


  D:00D0H         PUBLIC        PSW
  -------         PROC          API_GET_SEASONTAB_NO
  -------         DO            
  X:0096H         SYMBOL        s_season_data
  D:0006H         SYMBOL        i
  D:0005H         SYMBOL        result
  D:0007H         SYMBOL        table_ok_len
  -------         ENDDO         
  C:9619H         LINE#         639
  C:9619H         LINE#         640
  C:9619H         LINE#         648
  C:9633H         LINE#         651
  C:9635H         LINE#         652
  C:9636H         LINE#         653
  C:9636H         LINE#         654
  C:964CH         LINE#         655
  C:9662H         LINE#         656
  C:9678H         LINE#         657
  C:9679H         LINE#         658
  C:967EH         LINE#         660
  C:9686H         LINE#         661
  C:9686H         LINE#         662
  C:9689H         LINE#         663
  C:9689H         LINE#         666
  C:968BH         LINE#         667
  C:9690H         LINE#         668
  C:9699H         LINE#         669
  C:9699H         LINE#         670
  C:96B5H         LINE#         671
  C:96CBH         LINE#         674
  C:96E5H         LINE#         675
  C:96E5H         LINE#         676
  C:96E5H         LINE#         677
  C:96E5H         LINE#         678
  C:96E7H         LINE#         679
  C:96EBH         LINE#         680
  C:96EBH         LINE#         681
  C:9705H         LINE#         682
  C:9705H         LINE#         683
  C:970BH         LINE#         684
  C:971BH         LINE#         685
  C:971DH         LINE#         687
  C:971DH         LINE#         688
  C:9720H         LINE#         689
  C:9720H         LINE#         690
  C:9720H         LINE#         691
  C:9720H         LINE#         692
  C:9722H         LINE#         693
  C:9722H         LINE#         695
  C:9722H         LINE#         696
  C:9722H         LINE#         697
  C:9722H         LINE#         698
  C:9722H         LINE#         699
  C:9722H         LINE#         701
  C:9722H         LINE#         702
  C:9725H         LINE#         703
  C:9725H         LINE#         704
BL51 BANKED LINKER/LOCATER V6.22                                                      03/11/2019  10:41:19  PAGE 140


  C:972AH         LINE#         705
  C:9739H         LINE#         706
  C:973BH         LINE#         707
  C:973BH         LINE#         709
  C:973BH         LINE#         710
  C:973BH         LINE#         711
  C:973BH         LINE#         712
  C:973BH         LINE#         713
  C:973FH         LINE#         715
  C:9745H         LINE#         716
  C:9747H         LINE#         718
  -------         ENDPROC       API_GET_SEASONTAB_NO
  -------         PROC          _API_GET_DAYTAB_NO
  D:0007H         SYMBOL        weekTab_no
  -------         DO            
  X:0096H         SYMBOL        s_weekTab_data
  X:009DH         SYMBOL        result
  -------         ENDDO         
  C:C49FH         LINE#         734
  C:C49FH         LINE#         735
  C:C49FH         LINE#         740
  C:C4A7H         LINE#         741
  C:C4A7H         LINE#         742
  C:C4ADH         LINE#         743
  C:C4AEH         LINE#         744
  C:C4AEH         LINE#         746
  C:C4D5H         LINE#         750
  C:C4FAH         LINE#         751
  C:C4FAH         LINE#         752
  C:C4FAH         LINE#         753
  C:C4FDH         LINE#         754
  C:C4FFH         LINE#         755
  C:C4FFH         LINE#         756
  C:C502H         LINE#         757
  C:C504H         LINE#         758
  C:C504H         LINE#         759
  C:C507H         LINE#         760
  C:C509H         LINE#         761
  C:C509H         LINE#         762
  C:C50CH         LINE#         763
  C:C50EH         LINE#         764
  C:C50EH         LINE#         765
  C:C511H         LINE#         766
  C:C513H         LINE#         767
  C:C513H         LINE#         768
  C:C51BH         LINE#         769
  C:C51DH         LINE#         770
  C:C51DH         LINE#         771
  C:C523H         LINE#         772
  C:C525H         LINE#         773
  C:C525H         LINE#         774
  C:C528H         LINE#         775
  C:C528H         LINE#         776
  C:C528H         LINE#         778
  C:C533H         LINE#         779
  C:C533H         LINE#         780
  C:C539H         LINE#         781
BL51 BANKED LINKER/LOCATER V6.22                                                      03/11/2019  10:41:19  PAGE 141


  C:C539H         LINE#         783
  C:C53EH         LINE#         785
  -------         ENDPROC       _API_GET_DAYTAB_NO
  -------         PROC          _API_GET_TRIFF_NO
  D:0007H         SYMBOL        dayTab_no
  -------         DO            
  X:0096H         SYMBOL        s_dayTab_data
  X:00AEH         SYMBOL        i
  X:00AFH         SYMBOL        table_ok_len
  X:00B0H         SYMBOL        result
  -------         ENDDO         
  C:808CH         LINE#         800
  C:808CH         LINE#         801
  C:808CH         LINE#         809
  C:8094H         LINE#         810
  C:8094H         LINE#         811
  C:809AH         LINE#         812
  C:809BH         LINE#         813
  C:809BH         LINE#         816
  C:80C2H         LINE#         819
  C:80C7H         LINE#         820
  C:80D5H         LINE#         821
  C:80D5H         LINE#         822
  C:80ECH         LINE#         823
  C:8104H         LINE#         824
  C:8118H         LINE#         825
  C:8131H         LINE#         826
  C:8137H         LINE#         827
  C:813FH         LINE#         829
  C:814AH         LINE#         830
  C:814AH         LINE#         831
  C:814DH         LINE#         832
  C:814DH         LINE#         836
  C:8153H         LINE#         837
  C:8158H         LINE#         838
  C:816DH         LINE#         839
  C:816DH         LINE#         840
  C:8187H         LINE#         841
  C:81A3H         LINE#         842
  C:81B8H         LINE#         845
  C:81C2H         LINE#         846
  C:81C2H         LINE#         847
  C:81C2H         LINE#         848
  C:81C4H         LINE#         849
  C:81D9H         LINE#         850
  C:81D9H         LINE#         851
  C:81E3H         LINE#         852
  C:81E3H         LINE#         853
  C:81F9H         LINE#         854
  C:81FBH         LINE#         856
  C:81FBH         LINE#         857
  C:8201H         LINE#         858
  C:8201H         LINE#         859
  C:8201H         LINE#         860
  C:8203H         LINE#         861
  C:8203H         LINE#         863
  C:8203H         LINE#         864
BL51 BANKED LINKER/LOCATER V6.22                                                      03/11/2019  10:41:19  PAGE 142


  C:8203H         LINE#         865
  C:8203H         LINE#         866
  C:8203H         LINE#         867
  C:8203H         LINE#         869
  C:8203H         LINE#         870
  C:8209H         LINE#         871
  C:8209H         LINE#         872
  C:821DH         LINE#         873
  C:821FH         LINE#         874
  C:821FH         LINE#         876
  C:821FH         LINE#         877
  C:821FH         LINE#         878
  C:821FH         LINE#         879
  C:821FH         LINE#         880
  C:8228H         LINE#         882
  C:822DH         LINE#         884
  -------         ENDPROC       _API_GET_TRIFF_NO
  -------         PROC          API_UPDATE_TRIFFNO_PRE_MINUTE
  -------         DO            
  X:0095H         SYMBOL        u8_temp
  -------         ENDDO         
  C:DE99H         LINE#         899
  C:DE99H         LINE#         900
  C:DE99H         LINE#         907
  C:DE9FH         LINE#         909
  C:DEA2H         LINE#         910
  C:DEA2H         LINE#         912
  C:DEA7H         LINE#         914
  C:DEA9H         LINE#         916
  C:DEA9H         LINE#         918
  C:DEB1H         LINE#         919
  C:DEB4H         LINE#         920
  C:DEB4H         LINE#         921
  C:DEBAH         LINE#         922
  C:DEBAH         LINE#         923
  C:DEBCH         LINE#         925
  C:DEBCH         LINE#         926
  C:DEC4H         LINE#         927
  C:DEC4H         LINE#         928
  C:DED1H         LINE#         930
  C:DED1H         LINE#         932
  C:DEDEH         LINE#         933
  C:DEE6H         LINE#         934
  C:DEE6H         LINE#         935
  C:DEECH         LINE#         936
  C:DEECH         LINE#         938
  C:DEF4H         LINE#         940
  -------         ENDPROC       API_UPDATE_TRIFFNO_PRE_MINUTE
  -------         ENDMOD        API_TRIFF

  -------         MODULE        API_RELAY
  C:0000H         SYMBOL        _ICE_DUMMY_
  D:00CEH         PUBLIC        wdt0
  D:0090H         PUBLIC        P1
  D:00CFH         PUBLIC        wdt1
  D:00B0H         PUBLIC        P3
  C:CB50H         PUBLIC        Drv_relay_powerup_check
BL51 BANKED LINKER/LOCATER V6.22                                                      03/11/2019  10:41:19  PAGE 143


  D:00A8H         PUBLIC        IE
  D:00B8H         PUBLIC        IP
  C:E38FH         PUBLIC        _Drv_relay_COMM_CMD_operating
  D:0098H         PUBLIC        SCON
  D:0088H         PUBLIC        TCON
  D:00F0H         PUBLIC        B
  C:F09EH         PUBLIC        Drv_relay_run_check
  D:00E0H         PUBLIC        ACC
  X:0801H         PUBLIC        gs_relay_manage_var
  D:0080H         PUBLIC        SysCtrl
  D:00C8H         PUBLIC        T2CON
  D:00D0H         PUBLIC        PSW
  -------         PROC          DRV_RELAY_RUN_CHECK
  C:F09EH         LINE#         52
  C:F09EH         LINE#         53
  C:F09EH         LINE#         99
  -------         ENDPROC       DRV_RELAY_RUN_CHECK
  -------         PROC          DRV_RELAY_POWERUP_CHECK
  C:CB50H         LINE#         116
  C:CB50H         LINE#         117
  C:CB50H         LINE#         119
  C:CB5CH         LINE#         120
  C:CB67H         LINE#         121
  C:CB6EH         LINE#         124
  C:CB79H         LINE#         125
  C:CB80H         LINE#         126
  C:CB8BH         LINE#         129
  C:CBA3H         LINE#         130
  C:CBA8H         LINE#         133
  C:CBB2H         LINE#         134
  C:CBB2H         LINE#         135
  C:CBB5H         LINE#         136
  C:CBCCH         LINE#         137
  C:CBCCH         LINE#         138
  C:CBD1H         LINE#         139
  C:CBD7H         LINE#         140
  C:CBE5H         LINE#         141
  -------         ENDPROC       DRV_RELAY_POWERUP_CHECK
  -------         PROC          _DRV_RELAY_COMM_CMD_OPERATING
  D:0001H         SYMBOL        ptr_cmd
  -------         DO            
  D:0007H         SYMBOL        u8_cmd
  D:0006H         SYMBOL        u8_sta
  -------         ENDDO         
  C:E38FH         LINE#         160
  C:E38FH         LINE#         161
  C:E38FH         LINE#         164
  C:E393H         LINE#         165
  C:E39AH         LINE#         169
  C:E3A0H         LINE#         171
  C:E3A3H         LINE#         172
  C:E3A3H         LINE#         174
  C:E3A7H         LINE#         175
  C:E3ABH         LINE#         176
  C:E3ACH         LINE#         177
  C:E3ACH         LINE#         178
  C:E3AEH         LINE#         179
BL51 BANKED LINKER/LOCATER V6.22                                                      03/11/2019  10:41:19  PAGE 144


  C:E3B2H         LINE#         180
  C:E3B2H         LINE#         182
  C:E3B8H         LINE#         183
  C:E3BBH         LINE#         184
  C:E3BDH         LINE#         185
  C:E3C0H         LINE#         186
  C:E3C2H         LINE#         188
  C:E3C2H         LINE#         189
  C:E3C5H         LINE#         190
  C:E3C5H         LINE#         192
  C:E3D3H         LINE#         193
  C:E3D5H         LINE#         194
  -------         ENDPROC       _DRV_RELAY_COMM_CMD_OPERATING
  -------         ENDMOD        API_RELAY

  -------         MODULE        API_LCD_DISPLAY
  C:0000H         SYMBOL        _ICE_DUMMY_
  C:4E73H         PUBLIC        _api_get_energy_LCD
  D:0090H         PUBLIC        P1
  C:ED30H         PUBLIC        Link_Get_Dis_RealChar_buff
  C:03AEH         PUBLIC        _api_chg_LCDDisplay_adj_item
  D:00B0H         PUBLIC        P3
  C:45EEH         PUBLIC        Link_Get_Dis_Data_Num_buff
  D:00A8H         PUBLIC        IE
  D:00B8H         PUBLIC        IP
  C:DC55H         PUBLIC        default_dis_param_tab
  C:DC65H         PUBLIC        NumSegD1_D6
  C:6B0EH         PUBLIC        Link_Get_Dis_Drv_buff
  C:B4DDH         PUBLIC        api_updated_LCDDisplayPixel_per_second
  C:DC75H         PUBLIC        NumSegD7_D9
  C:E988H         PUBLIC        api_init_display
  X:05F4H         PUBLIC        gs_dis_pixel_var
  C:E3DEH         PUBLIC        api_get_next_dis_item
  C:B333H         PUBLIC        api_updated_LCDDisplayItem_per_second
  D:0098H         PUBLIC        SCON
  D:0088H         PUBLIC        TCON
  C:A684H         PUBLIC        _Link_Get_DisTab_Var
  C:5241H         PUBLIC        Link_Get_Dis_OBIS_Num_buff
  D:00F0H         PUBLIC        B
  C:EBDBH         PUBLIC        api_handl_dis_sleep
  D:00E0H         PUBLIC        ACC
  C:F09FH         PUBLIC        api_updated_LED_per_second
  X:060CH         PUBLIC        gs_dis_ctl_var
  C:DC85H         PUBLIC        LcdDisTab
  D:0080H         PUBLIC        SysCtrl
  X:0616H         PUBLIC        dis_data_sec
  X:0617H         PUBLIC        dis_data_type
  D:00C8H         PUBLIC        T2CON
  C:90F1H         PUBLIC        _api_LCDDisplay_adj_item
  X:0618H         PUBLIC        gs_dis_param
  C:E5E7H         PUBLIC        api_handl_dis_key
  X:0628H         PUBLIC        dis_num_char
  X:0629H         PUBLIC        gs_LCDDISTAB_var
  C:B80BH         PUBLIC        Link_Get_Dis_Char_buff
  D:00D0H         PUBLIC        PSW
  -------         PROC          API_INIT_DISPLAY
  C:E988H         LINE#         105
BL51 BANKED LINKER/LOCATER V6.22                                                      03/11/2019  10:41:19  PAGE 145


  C:E988H         LINE#         106
  C:E988H         LINE#         107
  C:E9A2H         LINE#         108
  C:E9A8H         LINE#         109
  C:E9ABH         LINE#         110
  C:E9AEH         LINE#         111
  C:E9B3H         LINE#         112
  C:E9B5H         LINE#         113
  C:E9B7H         LINE#         114
  C:E9BBH         LINE#         115
  -------         ENDPROC       API_INIT_DISPLAY
  -------         PROC          API_HANDL_DIS_KEY
  C:E5E7H         LINE#         130
  C:E5E7H         LINE#         131
  C:E5E7H         LINE#         133
  C:E5F4H         LINE#         134
  C:E5F4H         LINE#         135
  C:E5FAH         LINE#         136
  C:E614H         LINE#         138
  C:E614H         LINE#         140
  C:E61CH         LINE#         141
  C:E624H         LINE#         143
  -------         ENDPROC       API_HANDL_DIS_KEY
  -------         PROC          API_HANDL_DIS_SLEEP
  C:EBDBH         LINE#         157
  C:EBDBH         LINE#         158
  C:EBDBH         LINE#         159
  C:EBE1H         LINE#         160
  C:EBE6H         LINE#         161
  C:EC00H         LINE#         162
  -------         ENDPROC       API_HANDL_DIS_SLEEP
  -------         PROC          API_UPDATED_LCDDISPLAYPIXEL_PER_SECOND
  C:B4DDH         LINE#         179
  C:B4DDH         LINE#         180
  C:B4DDH         LINE#         181
  C:B4F1H         LINE#         182
  C:B505H         LINE#         183
  C:B519H         LINE#         184
  C:B52DH         LINE#         187
  C:B53DH         LINE#         188
  C:B53DH         LINE#         189
  C:B540H         LINE#         193
  C:B540H         LINE#         194
  C:B542H         LINE#         196
  C:B542H         LINE#         197
  C:B54AH         LINE#         198
  C:B54AH         LINE#         199
  C:B54DH         LINE#         200
  C:B550H         LINE#         201
  C:B553H         LINE#         202
  C:B55EH         LINE#         203
  C:B561H         LINE#         204
  C:B563H         LINE#         206
  C:B563H         LINE#         207
  C:B56CH         LINE#         208
  C:B56CH         LINE#         209
  C:B56FH         LINE#         210
BL51 BANKED LINKER/LOCATER V6.22                                                      03/11/2019  10:41:19  PAGE 146


  C:B56FH         LINE#         212
  C:B575H         LINE#         213
  C:B575H         LINE#         214
  C:B588H         LINE#         215
  C:B58AH         LINE#         217
  C:B58AH         LINE#         218
  C:B592H         LINE#         219
  C:B595H         LINE#         221
  C:B598H         LINE#         222
  C:B5A3H         LINE#         223
  C:B5A6H         LINE#         224
  C:B5A6H         LINE#         226
  C:B5AFH         LINE#         227
  -------         ENDPROC       API_UPDATED_LCDDISPLAYPIXEL_PER_SECOND
  -------         PROC          API_UPDATED_LED_PER_SECOND
  C:F09FH         LINE#         242
  C:F09FH         LINE#         243
  C:F09FH         LINE#         245
  C:F09FH         LINE#         246
  C:F09FH         LINE#         248
  C:F09FH         LINE#         250
  C:F09FH         LINE#         252
  C:F09FH         LINE#         253
  -------         ENDPROC       API_UPDATED_LED_PER_SECOND
  -------         PROC          API_UPDATED_LCDDISPLAYITEM_PER_SECOND
  C:B333H         LINE#         268
  C:B333H         LINE#         269
  C:B333H         LINE#         270
  C:B341H         LINE#         271
  C:B341H         LINE#         272
  C:B341H         LINE#         273
  C:B347H         LINE#         274
  C:B34DH         LINE#         275
  C:B34DH         LINE#         276
  C:B353H         LINE#         277
  C:B35BH         LINE#         278
  C:B360H         LINE#         279
  C:B36FH         LINE#         280
  C:B374H         LINE#         281
  C:B374H         LINE#         282
  C:B375H         LINE#         284
  C:B375H         LINE#         285
  C:B37DH         LINE#         286
  C:B37DH         LINE#         288
  C:B37EH         LINE#         289
  C:B387H         LINE#         290
  C:B387H         LINE#         291
  C:B38AH         LINE#         292
  C:B38AH         LINE#         293
  C:B391H         LINE#         294
  C:B391H         LINE#         295
  C:B394H         LINE#         296
  C:B396H         LINE#         298
  C:B396H         LINE#         299
  C:B39CH         LINE#         300
  C:B39CH         LINE#         302
  C:B39CH         LINE#         303
BL51 BANKED LINKER/LOCATER V6.22                                                      03/11/2019  10:41:19  PAGE 147


  C:B39CH         LINE#         304
  C:B39EH         LINE#         305
  C:B3A6H         LINE#         306
  C:B3A6H         LINE#         307
  C:B3A7H         LINE#         308
  C:B3B0H         LINE#         309
  C:B3B0H         LINE#         310
  C:B3B3H         LINE#         311
  C:B3B3H         LINE#         312
  C:B3BAH         LINE#         313
  C:B3BAH         LINE#         314
  C:B3BDH         LINE#         315
  C:B3BFH         LINE#         317
  C:B3BFH         LINE#         318
  C:B3C5H         LINE#         319
  C:B3C5H         LINE#         321
  C:B3C5H         LINE#         322
  C:B3CDH         LINE#         323
  C:B3CEH         LINE#         325
  C:B3CEH         LINE#         326
  C:B3DBH         LINE#         327
  C:B3DBH         LINE#         328
  C:B3DDH         LINE#         329
  C:B3DEH         LINE#         331
  C:B3DEH         LINE#         332
  C:B3E4H         LINE#         333
  C:B3E7H         LINE#         334
  C:B3E7H         LINE#         335
  C:B3E7H         LINE#         336
  C:B3EFH         LINE#         338
  C:B3F8H         LINE#         339
  C:B3F8H         LINE#         340
  C:B3FAH         LINE#         341
  C:B3FBH         LINE#         343
  C:B3FBH         LINE#         344
  C:B401H         LINE#         345
  C:B401H         LINE#         346
  C:B401H         LINE#         347
  C:B401H         LINE#         348
  C:B401H         LINE#         349
  C:B402H         LINE#         351
  C:B402H         LINE#         352
  C:B408H         LINE#         353
  C:B408H         LINE#         355
  C:B408H         LINE#         356
  -------         ENDPROC       API_UPDATED_LCDDISPLAYITEM_PER_SECOND
  -------         PROC          L?0185
  -------         ENDPROC       L?0185
  -------         PROC          API_GET_NEXT_DIS_ITEM
  -------         DO            
  D:0007H         SYMBOL        item
  -------         ENDDO         
  C:E3DEH         LINE#         370
  C:E3DEH         LINE#         371
  C:E3DEH         LINE#         375
  C:E3E0H         LINE#         376
  C:E3E8H         LINE#         377
BL51 BANKED LINKER/LOCATER V6.22                                                      03/11/2019  10:41:19  PAGE 148


  C:E3E8H         LINE#         378
  C:E3EEH         LINE#         379
  C:E401H         LINE#         380
  C:E401H         LINE#         381
  C:E406H         LINE#         382
  C:E406H         LINE#         384
  C:E415H         LINE#         385
  C:E41AH         LINE#         386
  C:E41AH         LINE#         387
  C:E41CH         LINE#         388
  C:E41CH         LINE#         389
  C:E41CH         LINE#         390
  C:E41CH         LINE#         391
  -------         ENDPROC       API_GET_NEXT_DIS_ITEM
  -------         PROC          _LINK_GET_DISTAB_VAR
  D:0007H         SYMBOL        u8_dis_itm
  -------         DO            
  D:0005H         SYMBOL        i
  D:0006H         SYMBOL        u8_result
  -------         ENDDO         
  C:A684H         LINE#         401
  C:A684H         LINE#         402
  C:A684H         LINE#         404
  C:A686H         LINE#         406
  C:A68CH         LINE#         407
  C:A68CH         LINE#         408
  C:A68EH         LINE#         409
  C:A68EH         LINE#         412
  C:A690H         LINE#         413
  C:A690H         LINE#         414
  C:A6A6H         LINE#         415
  C:A6A6H         LINE#         416
  C:A6ABH         LINE#         417
  C:A6C7H         LINE#         418
  C:A6E3H         LINE#         419
  C:A6FFH         LINE#         420
  C:A713H         LINE#         421
  C:A727H         LINE#         422
  C:A727H         LINE#         423
  C:A72AH         LINE#         424
  C:A72AH         LINE#         425
  C:A733H         LINE#         427
  C:A736H         LINE#         428
  C:A736H         LINE#         429
  C:A73CH         LINE#         430
  C:A74DH         LINE#         431
  C:A75EH         LINE#         432
  C:A76FH         LINE#         433
  C:A778H         LINE#         434
  C:A778H         LINE#         435
  C:A77AH         LINE#         437
  -------         ENDPROC       _LINK_GET_DISTAB_VAR
  -------         PROC          LINK_GET_DIS_OBIS_NUM_BUFF
  -------         DO            
  X:0787H         SYMBOL        u8_len
  X:0788H         SYMBOL        u8_mem_type
  X:0789H         SYMBOL        lib_len
BL51 BANKED LINKER/LOCATER V6.22                                                      03/11/2019  10:41:19  PAGE 149


  X:078AH         SYMBOL        u32_tmp
  X:078EH         SYMBOL        buffer
  -------         ENDDO         
  C:5241H         LINE#         448
  C:5241H         LINE#         449
  C:5241H         LINE#         453
  C:524DH         LINE#         455
  C:5255H         LINE#         456
  C:525AH         LINE#         458
  C:5261H         LINE#         459
  C:5261H         LINE#         460
  C:5267H         LINE#         461
  C:5270H         LINE#         462
  C:5273H         LINE#         464
  C:5273H         LINE#         466
  C:5292H         LINE#         467
  C:5292H         LINE#         468
  C:5292H         LINE#         469
  C:52B4H         LINE#         470
  C:52C5H         LINE#         471
  C:52C8H         LINE#         473
  C:52C8H         LINE#         474
  C:52EAH         LINE#         475
  C:52FBH         LINE#         476
  C:52FBH         LINE#         477
  C:52FEH         LINE#         479
  C:52FEH         LINE#         480
  C:5320H         LINE#         481
  C:5331H         LINE#         482
  C:5331H         LINE#         483
  C:5334H         LINE#         485
  C:5334H         LINE#         486
  C:5356H         LINE#         487
  C:536DH         LINE#         488
  C:5383H         LINE#         489
  C:538AH         LINE#         490
  C:538AH         LINE#         491
  C:53A2H         LINE#         492
  C:53A2H         LINE#         493
  C:53A5H         LINE#         494
  C:53A9H         LINE#         495
  C:53A9H         LINE#         496
  C:53C6H         LINE#         497
  C:53C6H         LINE#         498
  C:53C9H         LINE#         499
  C:53D1H         LINE#         500
  C:53D1H         LINE#         501
  C:53E4H         LINE#         502
  C:53E7H         LINE#         503
  C:53EEH         LINE#         504
  C:53EEH         LINE#         505
  C:5402H         LINE#         506
  C:5404H         LINE#         508
  C:5404H         LINE#         509
  C:5410H         LINE#         510
  C:5410H         LINE#         511
  C:5413H         LINE#         512
BL51 BANKED LINKER/LOCATER V6.22                                                      03/11/2019  10:41:19  PAGE 150


  C:5413H         LINE#         513
  C:5435H         LINE#         514
  C:544CH         LINE#         515
  C:5462H         LINE#         516
  C:5469H         LINE#         517
  C:5469H         LINE#         518
  C:5486H         LINE#         519
  C:548DH         LINE#         520
  C:5490H         LINE#         521
  C:5494H         LINE#         522
  C:5494H         LINE#         523
  C:54ADH         LINE#         524
  C:54B4H         LINE#         525
  C:54B6H         LINE#         526
  C:54C0H         LINE#         527
  C:54C0H         LINE#         528
  C:54D4H         LINE#         529
  C:54D6H         LINE#         531
  C:54D6H         LINE#         532
  C:54E8H         LINE#         533
  C:54E8H         LINE#         534
  C:54EAH         LINE#         537
  C:54EAH         LINE#         538
  C:5510H         LINE#         539
  C:5510H         LINE#         540
  C:5510H         LINE#         548
  C:551AH         LINE#         549
  C:551AH         LINE#         550
  C:551AH         LINE#         551
  C:552BH         LINE#         552
  C:5539H         LINE#         553
  C:5540H         LINE#         554
  C:5542H         LINE#         555
  C:5542H         LINE#         556
  C:5553H         LINE#         557
  C:5561H         LINE#         558
  C:5561H         LINE#         559
  C:5561H         LINE#         560
  C:5561H         LINE#         561
  C:5561H         LINE#         564
  -------         ENDPROC       LINK_GET_DIS_OBIS_NUM_BUFF
  -------         PROC          LINK_GET_DIS_DATA_NUM_BUFF
  -------         DO            
  X:0007H         SYMBOL        buffer
  X:000BH         SYMBOL        temp
  X:0011H         SYMBOL        t
  X:001AH         SYMBOL        rtc_data_tmp
  -------         ENDDO         
  C:45EEH         LINE#         576
  C:45EEH         LINE#         577
  C:45EEH         LINE#         584
  C:45FCH         LINE#         585
  C:45FCH         LINE#         586
  C:4605H         LINE#         588
  C:4615H         LINE#         589
  C:4620H         LINE#         590
  C:4630H         LINE#         591
BL51 BANKED LINKER/LOCATER V6.22                                                      03/11/2019  10:41:19  PAGE 151


  C:463BH         LINE#         592
  C:464BH         LINE#         593
  C:4656H         LINE#         594
  C:465CH         LINE#         595
  C:4664H         LINE#         596
  C:4665H         LINE#         598
  C:4665H         LINE#         599
  C:466EH         LINE#         600
  C:466EH         LINE#         602
  C:4686H         LINE#         604
  C:4689H         LINE#         609
  C:469AH         LINE#         610
  C:46A8H         LINE#         611
  C:46B9H         LINE#         612
  C:46C7H         LINE#         613
  C:46D9H         LINE#         614
  C:46E1H         LINE#         615
  C:46E1H         LINE#         616
  C:46EFH         LINE#         617
  C:46EFH         LINE#         620
  C:46F8H         LINE#         621
  C:4701H         LINE#         622
  C:4701H         LINE#         623
  C:470CH         LINE#         624
  C:470CH         LINE#         627
  C:4725H         LINE#         628
  C:473CH         LINE#         635
  C:474AH         LINE#         636
  C:475BH         LINE#         637
  C:4769H         LINE#         638
  C:477AH         LINE#         639
  C:4788H         LINE#         642
  C:479AH         LINE#         647
  C:47A3H         LINE#         648
  C:47ACH         LINE#         649
  C:47ACH         LINE#         650
  C:47B7H         LINE#         651
  C:47B7H         LINE#         654
  C:47CFH         LINE#         655
  C:47E6H         LINE#         661
  C:47F4H         LINE#         662
  C:4805H         LINE#         663
  C:4813H         LINE#         664
  C:4824H         LINE#         665
  C:4832H         LINE#         668
  C:4844H         LINE#         673
  C:484DH         LINE#         674
  C:4856H         LINE#         675
  C:4856H         LINE#         676
  C:4861H         LINE#         677
  C:4861H         LINE#         680
  C:4879H         LINE#         681
  C:487CH         LINE#         686
  C:488DH         LINE#         687
  C:489BH         LINE#         688
  C:48ACH         LINE#         689
  C:48BAH         LINE#         690
BL51 BANKED LINKER/LOCATER V6.22                                                      03/11/2019  10:41:19  PAGE 152


  C:48CCH         LINE#         691
  C:48D4H         LINE#         692
  C:48D4H         LINE#         693
  C:48E2H         LINE#         694
  C:48E2H         LINE#         698
  C:48EBH         LINE#         699
  C:48F4H         LINE#         700
  C:48F4H         LINE#         701
  C:48FFH         LINE#         702
  C:48FFH         LINE#         705
  C:4918H         LINE#         706
  C:492FH         LINE#         712
  C:493DH         LINE#         713
  C:494EH         LINE#         714
  C:495CH         LINE#         715
  C:496DH         LINE#         716
  C:497BH         LINE#         719
  C:498DH         LINE#         724
  C:4996H         LINE#         725
  C:4998H         LINE#         726
  C:4998H         LINE#         727
  C:49A3H         LINE#         728
  C:49A3H         LINE#         731
  C:49BBH         LINE#         732
  C:49D2H         LINE#         738
  C:49E0H         LINE#         739
  C:49F1H         LINE#         740
  C:49FFH         LINE#         741
  C:4A10H         LINE#         742
  C:4A1EH         LINE#         745
  C:4A2FH         LINE#         750
  C:4A38H         LINE#         751
  C:4A41H         LINE#         752
  C:4A41H         LINE#         753
  C:4A41H         LINE#         754
  -------         ENDPROC       LINK_GET_DIS_DATA_NUM_BUFF
  -------         PROC          LINK_GET_DIS_CHAR_BUFF
  C:B80BH         LINE#         763
  C:B80BH         LINE#         764
  C:B80BH         LINE#         769
  C:B813H         LINE#         770
  C:B813H         LINE#         771
  C:B825H         LINE#         772
  C:B825H         LINE#         773
  C:B825H         LINE#         774
  C:B82CH         LINE#         775
  C:B82EH         LINE#         776
  C:B82EH         LINE#         777
  C:B835H         LINE#         778
  C:B837H         LINE#         779
  C:B837H         LINE#         780
  C:B83EH         LINE#         781
  C:B840H         LINE#         782
  C:B840H         LINE#         783
  C:B847H         LINE#         784
  C:B847H         LINE#         785
  C:B847H         LINE#         786
BL51 BANKED LINKER/LOCATER V6.22                                                      03/11/2019  10:41:19  PAGE 153


  C:B847H         LINE#         787
  C:B84EH         LINE#         788
  C:B84EH         LINE#         789
  C:B855H         LINE#         790
  C:B858H         LINE#         791
  C:B85AH         LINE#         793
  C:B85AH         LINE#         794
  C:B863H         LINE#         795
  C:B863H         LINE#         796
  C:B86BH         LINE#         797
  C:B86BH         LINE#         798
  C:B872H         LINE#         799
  C:B872H         LINE#         800
  C:B879H         LINE#         801
  C:B87BH         LINE#         803
  C:B87BH         LINE#         808
  C:B882H         LINE#         809
  C:B887H         LINE#         810
  C:B88CH         LINE#         811
  C:B88CH         LINE#         812
  C:B88CH         LINE#         813
  C:B894H         LINE#         814
  C:B894H         LINE#         816
  C:B894H         LINE#         817
  C:B89CH         LINE#         818
  C:B89CH         LINE#         820
  C:B89CH         LINE#         824
  C:B8B1H         LINE#         825
  C:B8B1H         LINE#         826
  C:B8B1H         LINE#         827
  C:B8B8H         LINE#         828
  C:B8B9H         LINE#         829
  C:B8B9H         LINE#         830
  C:B8C0H         LINE#         831
  C:B8C1H         LINE#         832
  C:B8C1H         LINE#         833
  C:B8C8H         LINE#         834
  C:B8C9H         LINE#         835
  C:B8C9H         LINE#         836
  C:B8D0H         LINE#         837
  C:B8D0H         LINE#         838
  C:B8D0H         LINE#         839
  C:B8D0H         LINE#         840
  C:B8D0H         LINE#         843
  -------         ENDPROC       LINK_GET_DIS_CHAR_BUFF
  -------         PROC          LINK_GET_DIS_REALCHAR_BUFF
  C:ED30H         LINE#         853
  C:ED30H         LINE#         854
  C:ED30H         LINE#         856
  C:ED3EH         LINE#         857
  C:ED48H         LINE#         858
  C:ED48H         LINE#         859
  C:ED4CH         LINE#         860
  C:ED4DH         LINE#         862
  C:ED4DH         LINE#         863
  C:ED51H         LINE#         864
  C:ED51H         LINE#         865
BL51 BANKED LINKER/LOCATER V6.22                                                      03/11/2019  10:41:19  PAGE 154


  -------         ENDPROC       LINK_GET_DIS_REALCHAR_BUFF
  -------         PROC          LINK_GET_DIS_DRV_BUFF
  C:6B0EH         LINE#         876
  C:6B0EH         LINE#         877
  C:6B0EH         LINE#         878
  C:6B20H         LINE#         879
  C:6B30H         LINE#         880
  C:6B40H         LINE#         881
  C:6B50H         LINE#         882
  C:6B60H         LINE#         883
  C:6B70H         LINE#         885
  C:6B80H         LINE#         886
  C:6B90H         LINE#         887
  C:6BA0H         LINE#         891
  C:6BB3H         LINE#         892
  C:6BC1H         LINE#         893
  C:6BD6H         LINE#         894
  C:6BE4H         LINE#         895
  C:6BF2H         LINE#         896
  C:6C00H         LINE#         897
  C:6C0EH         LINE#         899
  C:6C1FH         LINE#         900
  C:6C2DH         LINE#         901
  C:6C3BH         LINE#         902
  C:6C49H         LINE#         903
  C:6C57H         LINE#         904
  C:6C65H         LINE#         906
  C:6C73H         LINE#         907
  C:6C81H         LINE#         909
  C:6C8FH         LINE#         910
  C:6C96H         LINE#         911
  C:6C96H         LINE#         912
  C:6C9DH         LINE#         913
  C:6CA0H         LINE#         914
  C:6CA5H         LINE#         915
  C:6CA8H         LINE#         916
  C:6CA8H         LINE#         917
  C:6CB9H         LINE#         918
  C:6CC0H         LINE#         919
  C:6CC0H         LINE#         920
  C:6CC7H         LINE#         921
  C:6CCEH         LINE#         922
  C:6CD1H         LINE#         923
  C:6CD1H         LINE#         924
  C:6CDFH         LINE#         925
  C:6CEDH         LINE#         926
  C:6CFBH         LINE#         927
  C:6D09H         LINE#         929
  -------         ENDPROC       LINK_GET_DIS_DRV_BUFF
  -------         PROC          L?0184
  -------         ENDPROC       L?0184
  -------         PROC          _API_GET_ENERGY_LCD
  X:00E8H         SYMBOL        temp
  X:00EBH         SYMBOL        type
  X:00ECH         SYMBOL        result
  -------         DO            
  X:00EFH         SYMBOL        u32_result
BL51 BANKED LINKER/LOCATER V6.22                                                      03/11/2019  10:41:19  PAGE 155


  X:00F3H         SYMBOL        BCD_temp
  X:00F7H         SYMBOL        ec_tmp
  -------         ENDDO         
  C:4E73H         LINE#         944
  C:4E81H         LINE#         945
  C:4E81H         LINE#         951
  C:4EA6H         LINE#         953
  C:4EB0H         LINE#         955
  C:4EB7H         LINE#         956
  C:4EB7H         LINE#         957
  C:4EF5H         LINE#         958
  C:4F0CH         LINE#         959
  C:4F0CH         LINE#         961
  C:4F17H         LINE#         962
  C:4F17H         LINE#         964
  C:4F54H         LINE#         965
  C:4F6BH         LINE#         966
  C:4F73H         LINE#         967
  C:4F7BH         LINE#         968
  C:4F83H         LINE#         971
  C:4F9AH         LINE#         972
  C:4FA9H         LINE#         974
  C:4FA9H         LINE#         975
  C:4FB0H         LINE#         976
  C:4FB0H         LINE#         977
  C:4FEEH         LINE#         978
  C:5005H         LINE#         979
  C:5005H         LINE#         981
  C:5010H         LINE#         982
  C:5010H         LINE#         984
  C:504DH         LINE#         985
  C:5064H         LINE#         986
  C:506CH         LINE#         987
  C:5074H         LINE#         988
  C:507CH         LINE#         991
  C:5093H         LINE#         992
  C:50A2H         LINE#         994
  C:50A2H         LINE#         995
  C:50ADH         LINE#         996
  C:50ADH         LINE#         998
  C:50EAH         LINE#         999
  C:5101H         LINE#         1000
  C:5106H         LINE#         1001
  C:511CH         LINE#         1002
  C:5132H         LINE#         1003
  C:5145H         LINE#         1006
  C:515CH         LINE#         1007
  C:517BH         LINE#         1008
  C:517BH         LINE#         1009
  C:5186H         LINE#         1010
  C:5186H         LINE#         1012
  C:51C3H         LINE#         1013
  C:51DAH         LINE#         1014
  C:51DFH         LINE#         1015
  C:51F5H         LINE#         1016
  C:520BH         LINE#         1017
  C:521EH         LINE#         1018
BL51 BANKED LINKER/LOCATER V6.22                                                      03/11/2019  10:41:19  PAGE 156


  C:521EH         LINE#         1020
  -------         ENDPROC       _API_GET_ENERGY_LCD
  -------         PROC          _API_CHG_LCDDISPLAY_ADJ_ITEM
  D:0007H         SYMBOL        u8_item
  C:03AEH         LINE#         1037
  C:03AEH         LINE#         1038
  C:03AEH         LINE#         1039
  C:03BAH         LINE#         1040
  C:03BAH         LINE#         1042
  C:03C0H         LINE#         1043
  C:03C7H         LINE#         1044
  C:03C7H         LINE#         1045
  C:03CAH         LINE#         1046
  C:03CCH         LINE#         1048
  C:03CCH         LINE#         1049
  C:03CFH         LINE#         1050
  C:03CFH         LINE#         1052
  C:03D4H         LINE#         1053
  C:03D9H         LINE#         1054
  C:03DBH         LINE#         1056
  C:03DBH         LINE#         1058
  C:03E1H         LINE#         1059
  C:03E9H         LINE#         1060
  C:03EEH         LINE#         1061
  C:03FDH         LINE#         1062
  C:03FDH         LINE#         1064
  -------         ENDPROC       _API_CHG_LCDDISPLAY_ADJ_ITEM
  -------         PROC          _API_LCDDISPLAY_ADJ_ITEM
  X:0007H         SYMBOL        u8_item
  -------         DO            
  X:0008H         SYMBOL        adr
  -------         ENDDO         
  C:90F1H         LINE#         1079
  C:90F6H         LINE#         1080
  C:90F6H         LINE#         1082
  C:9103H         LINE#         1083
  C:9103H         LINE#         1085
  C:9103H         LINE#         1087
  C:9117H         LINE#         1088
  C:912BH         LINE#         1089
  C:913FH         LINE#         1092
  C:9156H         LINE#         1093
  C:9156H         LINE#         1094
  C:9156H         LINE#         1095
  C:9156H         LINE#         1096
  C:9156H         LINE#         1097
  C:9156H         LINE#         1098
  C:915FH         LINE#         1099
  C:9163H         LINE#         1100
  C:916CH         LINE#         1101
  C:9170H         LINE#         1102
  C:9176H         LINE#         1103
  C:9178H         LINE#         1105
  C:9178H         LINE#         1106
  C:9178H         LINE#         1107
  C:9178H         LINE#         1108
  C:9178H         LINE#         1109
BL51 BANKED LINKER/LOCATER V6.22                                                      03/11/2019  10:41:19  PAGE 157


  C:9181H         LINE#         1110
  C:9185H         LINE#         1111
  C:918EH         LINE#         1112
  C:9192H         LINE#         1113
  C:91A0H         LINE#         1114
  C:91A1H         LINE#         1116
  C:91A1H         LINE#         1117
  C:91AAH         LINE#         1118
  C:91AEH         LINE#         1119
  C:91B2H         LINE#         1120
  C:91B3H         LINE#         1122
  C:91B3H         LINE#         1123
  C:91CDH         LINE#         1124
  C:91DBH         LINE#         1125
  C:91EDH         LINE#         1126
  C:91F8H         LINE#         1127
  C:920AH         LINE#         1128
  C:9215H         LINE#         1129
  C:9227H         LINE#         1130
  C:9232H         LINE#         1131
  C:9244H         LINE#         1132
  C:924FH         LINE#         1133
  C:9250H         LINE#         1134
  C:9250H         LINE#         1135
  C:9253H         LINE#         1136
  C:9253H         LINE#         1137
  C:9253H         LINE#         1139
  -------         ENDPROC       _API_LCDDISPLAY_ADJ_ITEM
  -------         ENDMOD        API_LCD_DISPLAY

  -------         MODULE        API_USER_COMM
  C:0000H         SYMBOL        _ICE_DUMMY_
  C:0600H         PUBLIC        _IEC_Cmd_Read_Deal
  C:A17EH         PUBLIC        _api_handl_COMM_pre_10ms
  D:00CEH         PUBLIC        wdt0
  D:0090H         PUBLIC        P1
  D:00CFH         PUBLIC        wdt1
  D:00B0H         PUBLIC        P3
  B:00A8H.7       PUBLIC        EA
  X:0563H         PUBLIC        P_IEC_BUFF
  C:25FFH         PUBLIC        IEC_ComDisTab
  D:00A8H         PUBLIC        IE
  C:1D1DH         PUBLIC        _IEC_Cmd_Write_Deal
  D:00B8H         PUBLIC        IP
  C:B183H         PUBLIC        _lnk_tx_comm_ready
  C:E569H         PUBLIC        RF_comm_deal
  X:0566H         PUBLIC        g_ch_comm
  X:0567H         PUBLIC        meter_info_IR
  X:0577H         PUBLIC        comm_data
  X:0583H         PUBLIC        Super_mima_iec
  C:8877H         PUBLIC        _get_IEC_comm_var
  X:058BH         PUBLIC        meter_info
  D:0098H         PUBLIC        SCON
  X:059BH         PUBLIC        mima_info
  D:0088H         PUBLIC        TCON
  X:05A5H         PUBLIC        clr_flag
  D:00F0H         PUBLIC        B
BL51 BANKED LINKER/LOCATER V6.22                                                      03/11/2019  10:41:19  PAGE 158


  D:00E0H         PUBLIC        ACC
  C:E625H         PUBLIC        _get_meter_id_asclen
  D:0080H         PUBLIC        SysCtrl
  C:AA4FH         PUBLIC        _IEC_Cmd_Password_Deal
  X:05A6H         PUBLIC        gs_uart_iec_app_var
  C:4196H         PUBLIC        _process_iec62056_21
  D:00C8H         PUBLIC        T2CON
  C:EAAFH         PUBLIC        _IEC_Cmd_Break_Deal
  C:F028H         PUBLIC        SecurityCK
  C:D977H         PUBLIC        _api_handl_COMM_FRAME_ERROR
  D:00D0H         PUBLIC        PSW
  -------         PROC          _GET_METER_ID_ASCLEN
  X:00E8H         SYMBOL        Addr
  D:0005H         SYMBOL        numbyte
  -------         DO            
  D:0006H         SYMBOL        i
  D:0007H         SYMBOL        asclen
  -------         ENDDO         
  C:E625H         LINE#         323
  C:E630H         LINE#         324
  C:E630H         LINE#         326
  C:E632H         LINE#         327
  C:E638H         LINE#         328
  C:E638H         LINE#         329
  C:E653H         LINE#         330
  C:E653H         LINE#         331
  C:E654H         LINE#         332
  C:E654H         LINE#         333
  C:E655H         LINE#         334
  C:E65CH         LINE#         335
  C:E65CH         LINE#         336
  C:E65DH         LINE#         337
  C:E65DH         LINE#         338
  C:E65EH         LINE#         339
  C:E661H         LINE#         340
  C:E661H         LINE#         341
  -------         ENDPROC       _GET_METER_ID_ASCLEN
  -------         PROC          L?0232
  -------         ENDPROC       L?0232
  -------         PROC          _GET_IEC_COMM_VAR
  X:00E8H         SYMBOL        id
  -------         DO            
  X:00ECH         SYMBOL        i
  -------         ENDDO         
  C:8877H         LINE#         352
  C:887DH         LINE#         353
  C:887DH         LINE#         356
  C:88B0H         LINE#         357
  C:88B0H         LINE#         358
  C:88B0H         LINE#         359
  C:88B0H         LINE#         360
  C:88B0H         LINE#         361
  C:88B0H         LINE#         362
  C:88B2H         LINE#         363
  C:88B2H         LINE#         364
  C:88E5H         LINE#         365
  C:88E5H         LINE#         366
BL51 BANKED LINKER/LOCATER V6.22                                                      03/11/2019  10:41:19  PAGE 159


  C:88EEH         LINE#         367
  C:88F7H         LINE#         368
  C:88FBH         LINE#         369
  C:88FCH         LINE#         370
  C:88FFH         LINE#         371
  C:88FFH         LINE#         372
  C:8919H         LINE#         373
  C:8919H         LINE#         374
  C:8946H         LINE#         375
  C:8946H         LINE#         376
  C:8975H         LINE#         377
  C:8996H         LINE#         378
  C:89B4H         LINE#         379
  C:89CDH         LINE#         380
  C:89D0H         LINE#         381
  C:89D0H         LINE#         382
  C:89E1H         LINE#         383
  C:89E3H         LINE#         496
  -------         ENDPROC       _GET_IEC_COMM_VAR
  -------         PROC          SECURITYCK
  -------         DO            
  X:0095H         SYMBOL        secType
  -------         ENDDO         
  C:F028H         LINE#         506
  C:F028H         LINE#         507
  C:F028H         LINE#         509
  C:F032H         LINE#         519
  C:F034H         LINE#         520
  -------         ENDPROC       SECURITYCK
  -------         PROC          _IEC_CMD_PASSWORD_DEAL
  X:0045H         SYMBOL        sptr
  -------         DO            
  X:0048H         SYMBOL        tmp_8u_01
  X:004CH         SYMBOL        tmp_8u_02
  -------         ENDDO         
  C:AA4FH         LINE#         529
  C:AA5AH         LINE#         530
  C:AA5AH         LINE#         534
  C:AA75H         LINE#         536
  C:AA8FH         LINE#         537
  C:AAAAH         LINE#         540
  C:AAD2H         LINE#         541
  C:AAD2H         LINE#         542
  C:AAD2H         LINE#         543
  C:AAD2H         LINE#         544
  C:AAD2H         LINE#         545
  C:AAD4H         LINE#         546
  C:AAD4H         LINE#         548
  C:AAD4H         LINE#         549
  C:AAFCH         LINE#         550
  C:AAFCH         LINE#         551
  C:AB11H         LINE#         552
  C:AB1FH         LINE#         553
  C:AB33H         LINE#         554
  C:AB35H         LINE#         555
  C:AB35H         LINE#         556
  C:AB35H         LINE#         557
BL51 BANKED LINKER/LOCATER V6.22                                                      03/11/2019  10:41:19  PAGE 160


  C:AB3CH         LINE#         558
  C:AB3EH         LINE#         559
  -------         ENDPROC       _IEC_CMD_PASSWORD_DEAL
  -------         PROC          _IEC_CMD_READ_DEAL
  X:0045H         SYMBOL        sptr
  -------         DO            
  X:0048H         SYMBOL        i
  D:0007H         SYMBOL        j
  X:0049H         SYMBOL        mem_type
  X:004AH         SYMBOL        data_buff
  X:00CAH         SYMBOL        ptr_adr
  D:0006H         SYMBOL        ctmp1
  X:00CDH         SYMBOL        long_tmp
  X:00D1H         SYMBOL        LPRecStart
  X:00D3H         SYMBOL        LPRecEnd
  X:00D5H         SYMBOL        t
  X:00DFH         SYMBOL        te
  -------         ENDDO         
  C:0600H         LINE#         569
  C:060BH         LINE#         570
  C:060BH         LINE#         581
  C:0626H         LINE#         583
  C:064EH         LINE#         586
  C:0656H         LINE#         587
  C:0660H         LINE#         589
  C:066DH         LINE#         591
  C:068FH         LINE#         593
  C:06A4H         LINE#         597
  C:06DDH         LINE#         598
  C:06DDH         LINE#         599
  C:06EDH         LINE#         600
  C:06FAH         LINE#         601
  C:06FAH         LINE#         602
  C:0716H         LINE#         603
  C:071AH         LINE#         604
  C:071CH         LINE#         606
  C:071CH         LINE#         610
  C:0721H         LINE#         611
  C:0721H         LINE#         616
  C:073BH         LINE#         617
  C:074BH         LINE#         618
  C:075EH         LINE#         619
  C:0783H         LINE#         620
  C:07B2H         LINE#         621
  C:07C0H         LINE#         623
  C:07C3H         LINE#         624
  C:07C3H         LINE#         627
  C:07FCH         LINE#         628
  C:07FCH         LINE#         629
  C:0829H         LINE#         630
  C:083DH         LINE#         632
  C:0843H         LINE#         633
  C:0843H         LINE#         634
  C:0852H         LINE#         635
  C:0861H         LINE#         636
  C:0861H         LINE#         638
  C:0890H         LINE#         641
BL51 BANKED LINKER/LOCATER V6.22                                                      03/11/2019  10:41:19  PAGE 161


  C:0898H         LINE#         643
  C:08B2H         LINE#         644
  C:08C0H         LINE#         645
  C:08D0H         LINE#         646
  C:08F1H         LINE#         647
  C:0908H         LINE#         648
  C:0945H         LINE#         649
  C:0997H         LINE#         650
  C:09A5H         LINE#         651
  C:09A8H         LINE#         653
  C:09A8H         LINE#         656
  C:0A2FH         LINE#         657
  C:0A2FH         LINE#         658
  C:0A2FH         LINE#         659
  C:0A2FH         LINE#         660
  C:0A46H         LINE#         661
  C:0A53H         LINE#         662
  C:0A53H         LINE#         663
  C:0A55H         LINE#         665
  C:0A55H         LINE#         666
  C:0A55H         LINE#         667
  C:0A5EH         LINE#         668
  C:0A5EH         LINE#         669
  C:0A5EH         LINE#         670
  C:0A60H         LINE#         672
  C:0A60H         LINE#         673
  C:0A69H         LINE#         674
  C:0A69H         LINE#         675
  C:0A69H         LINE#         676
  C:0A6BH         LINE#         678
  C:0A6BH         LINE#         679
  C:0A6BH         LINE#         680
  C:0A74H         LINE#         681
  C:0A74H         LINE#         682
  C:0A74H         LINE#         683
  C:0A76H         LINE#         685
  C:0A76H         LINE#         686
  C:0A8DH         LINE#         687
  C:0AA1H         LINE#         688
  C:0AA1H         LINE#         689
  C:0AA3H         LINE#         691
  C:0AA3H         LINE#         692
  C:0AA3H         LINE#         693
  C:0AB4H         LINE#         694
  C:0AC8H         LINE#         695
  C:0AC8H         LINE#         696
  C:0ACAH         LINE#         698
  C:0ACAH         LINE#         699
  C:0ADBH         LINE#         700
  C:0AF9H         LINE#         701
  C:0AF9H         LINE#         702
  C:0AFBH         LINE#         704
  C:0AFBH         LINE#         705
  C:0B26H         LINE#         706
  C:0B2EH         LINE#         707
  C:0B36H         LINE#         708
  C:0B3EH         LINE#         709
BL51 BANKED LINKER/LOCATER V6.22                                                      03/11/2019  10:41:19  PAGE 162


  C:0B46H         LINE#         710
  C:0B4EH         LINE#         711
  C:0B51H         LINE#         712
  C:0B54H         LINE#         713
  C:0B57H         LINE#         714
  C:0B7CH         LINE#         715
  C:0B7FH         LINE#         717
  C:0B7FH         LINE#         718
  C:0BA6H         LINE#         719
  C:0BB6H         LINE#         720
  C:0BBEH         LINE#         721
  C:0BDEH         LINE#         722
  C:0BE1H         LINE#         724
  C:0BE1H         LINE#         725
  C:0C1EH         LINE#         726
  C:0C21H         LINE#         728
  C:0C21H         LINE#         730
  C:0C3AH         LINE#         731
  C:0C53H         LINE#         732
  C:0C78H         LINE#         734
  C:0C90H         LINE#         735
  C:0CB5H         LINE#         736
  C:0CD3H         LINE#         737
  C:0CF4H         LINE#         738
  C:0CF7H         LINE#         740
  C:0CF7H         LINE#         741
  C:0CF7H         LINE#         742
  C:0CF7H         LINE#         743
  C:0CF7H         LINE#         744
  C:0CFFH         LINE#         745
  C:0D23H         LINE#         746
  C:0D3CH         LINE#         747
  C:0D61H         LINE#         749
  C:0D89H         LINE#         750
  C:0DA6H         LINE#         751
  C:0DC4H         LINE#         752
  C:0DF4H         LINE#         753
  C:0E22H         LINE#         754
  C:0E3EH         LINE#         755
  C:0E40H         LINE#         756
  C:0E40H         LINE#         757
  C:0E51H         LINE#         758
  C:0E51H         LINE#         759
  C:0E68H         LINE#         760
  C:0E68H         LINE#         761
  C:0E6DH         LINE#         762
  C:0E92H         LINE#         765
  C:0EBAH         LINE#         766
  C:0ED7H         LINE#         767
  C:0EF5H         LINE#         768
  C:0F25H         LINE#         769
  C:0F53H         LINE#         770
  C:0F6FH         LINE#         771
  C:0F71H         LINE#         772
  C:0F71H         LINE#         773
  C:0F82H         LINE#         774
  C:0F82H         LINE#         775
BL51 BANKED LINKER/LOCATER V6.22                                                      03/11/2019  10:41:19  PAGE 163


  C:0F99H         LINE#         776
  C:0F99H         LINE#         777
  C:0F9EH         LINE#         778
  C:0FC3H         LINE#         780
  C:0FCBH         LINE#         781
  C:0FD3H         LINE#         782
  C:0FDBH         LINE#         783
  C:0FE3H         LINE#         784
  C:0FEBH         LINE#         785
  C:1010H         LINE#         786
  C:1019H         LINE#         787
  C:1019H         LINE#         788
  C:1026H         LINE#         789
  C:1026H         LINE#         790
  C:1050H         LINE#         791
  C:1053H         LINE#         793
  C:1053H         LINE#         795
  C:1059H         LINE#         796
  C:1059H         LINE#         797
  C:105FH         LINE#         798
  C:105FH         LINE#         801
  C:1069H         LINE#         802
  C:1069H         LINE#         803
  C:1096H         LINE#         804
  C:1099H         LINE#         805
  C:10A3H         LINE#         806
  C:10A3H         LINE#         807
  C:10CCH         LINE#         808
  C:10F7H         LINE#         809
  C:10F9H         LINE#         812
  C:10F9H         LINE#         813
  C:1100H         LINE#         814
  C:1100H         LINE#         815
  C:112BH         LINE#         816
  C:112DH         LINE#         818
  C:112DH         LINE#         819
  C:1154H         LINE#         820
  C:1154H         LINE#         821
  C:1154H         LINE#         823
  C:115AH         LINE#         824
  C:115AH         LINE#         825
  C:1177H         LINE#         826
  C:1190H         LINE#         827
  C:1196H         LINE#         828
  C:1196H         LINE#         832
  C:119DH         LINE#         833
  C:119DH         LINE#         834
  C:11BBH         LINE#         835
  C:11D2H         LINE#         836
  C:11D2H         LINE#         843
  C:11DAH         LINE#         844
  C:11DAH         LINE#         845
  C:11F6H         LINE#         846
  C:120EH         LINE#         847
  C:1210H         LINE#         849
  C:1210H         LINE#         850
  C:1239H         LINE#         851
BL51 BANKED LINKER/LOCATER V6.22                                                      03/11/2019  10:41:19  PAGE 164


  C:1239H         LINE#         852
  C:1239H         LINE#         853
  C:1239H         LINE#         856
  C:1253H         LINE#         857
  C:1263H         LINE#         858
  C:1276H         LINE#         859
  C:128DH         LINE#         860
  C:12BCH         LINE#         861
  C:130EH         LINE#         863
  C:1310H         LINE#         864
  -------         ENDPROC       _IEC_CMD_READ_DEAL
  -------         PROC          _IEC_CMD_WRITE_DEAL
  X:0045H         SYMBOL        sptr
  X:0048H         SYMBOL        len
  -------         DO            
  X:0049H         SYMBOL        mem_type
  X:004AH         SYMBOL        data_buff
  D:0007H         SYMBOL        sectemp
  X:0090H         SYMBOL        i
  X:0091H         SYMBOL        MeterID_LenTmp
  X:0092H         SYMBOL        ptr_adr
  -------         ENDDO         
  C:1D1DH         LINE#         874
  C:1D2BH         LINE#         875
  C:1D2BH         LINE#         883
  C:1D46H         LINE#         885
  C:1D6EH         LINE#         887
  C:1D76H         LINE#         889
  C:1D80H         LINE#         891
  C:1D8EH         LINE#         892
  C:1D91H         LINE#         893
  C:1D98H         LINE#         896
  C:1DB0H         LINE#         897
  C:1DCCH         LINE#         898
  C:1DCCH         LINE#         899
  C:1DECH         LINE#         900
  C:1DEFH         LINE#         901
  C:1DEFH         LINE#         903
  C:1DEFH         LINE#         904
  C:1E03H         LINE#         905
  C:1E06H         LINE#         906
  C:1E06H         LINE#         908
  C:1E1BH         LINE#         911
  C:1EA2H         LINE#         912
  C:1EA2H         LINE#         914
  C:1EA2H         LINE#         915
  C:1ECEH         LINE#         916
  C:1ED6H         LINE#         917
  C:1EDEH         LINE#         918
  C:1EE6H         LINE#         919
  C:1EEEH         LINE#         920
  C:1EF6H         LINE#         921
  C:1EFEH         LINE#         922
  C:1F06H         LINE#         923
  C:1F08H         LINE#         924
  C:1F11H         LINE#         925
  C:1F13H         LINE#         926
BL51 BANKED LINKER/LOCATER V6.22                                                      03/11/2019  10:41:19  PAGE 165


  C:1F2DH         LINE#         927
  C:1F34H         LINE#         928
  C:1F37H         LINE#         930
  C:1F3AH         LINE#         932
  C:1F3DH         LINE#         936
  C:1F3DH         LINE#         937
  C:1F48H         LINE#         938
  C:1F4BH         LINE#         939
  C:1F4BH         LINE#         940
  C:1F59H         LINE#         941
  C:1F59H         LINE#         942
  C:1F89H         LINE#         943
  C:1F91H         LINE#         944
  C:1FA4H         LINE#         945
  C:1FAEH         LINE#         946
  C:1FAEH         LINE#         947
  C:1FB6H         LINE#         948
  C:1FCAH         LINE#         949
  C:1FF6H         LINE#         950
  C:1FF6H         LINE#         951
  C:1FF9H         LINE#         954
  C:1FF9H         LINE#         955
  C:2025H         LINE#         956
  C:203BH         LINE#         957
  C:203BH         LINE#         958
  C:203EH         LINE#         959
  C:203EH         LINE#         960
  C:203EH         LINE#         961
  C:2041H         LINE#         970
  C:2041H         LINE#         971
  C:206DH         LINE#         972
  C:208AH         LINE#         973
  C:208AH         LINE#         974
  C:208DH         LINE#         975
  C:208DH         LINE#         976
  C:20B4H         LINE#         977
  C:20B7H         LINE#         978
  C:20BAH         LINE#         982
  C:20BAH         LINE#         983
  C:20BAH         LINE#         984
  C:20BAH         LINE#         985
  C:20BAH         LINE#         986
  C:20BAH         LINE#         987
  C:20BAH         LINE#         988
  C:20C8H         LINE#         989
  C:20CBH         LINE#         991
  C:20CBH         LINE#         992
  C:20F7H         LINE#         993
  C:20F7H         LINE#         994
  C:2101H         LINE#         995
  C:2101H         LINE#         998
  C:210BH         LINE#         1005
  C:2119H         LINE#         1006
  C:2119H         LINE#         1007
  C:211DH         LINE#         1008
  C:211DH         LINE#         1009
  C:2127H         LINE#         1010
BL51 BANKED LINKER/LOCATER V6.22                                                      03/11/2019  10:41:19  PAGE 166


  C:2131H         LINE#         1011
  C:213BH         LINE#         1012
  C:2145H         LINE#         1013
  C:214FH         LINE#         1014
  C:215DH         LINE#         1015
  C:215DH         LINE#         1016
  C:2160H         LINE#         1017
  C:2160H         LINE#         1018
  C:2163H         LINE#         1020
  C:2163H         LINE#         1021
  C:2166H         LINE#         1022
  C:2166H         LINE#         1023
  C:2166H         LINE#         1025
  C:2166H         LINE#         1026
  C:2197H         LINE#         1027
  C:2197H         LINE#         1029
  C:219DH         LINE#         1030
  C:21B5H         LINE#         1031
  C:21B5H         LINE#         1032
  C:21B7H         LINE#         1033
  C:21E8H         LINE#         1034
  C:21E8H         LINE#         1036
  C:21EDH         LINE#         1037
  C:2204H         LINE#         1038
  C:2207H         LINE#         1039
  C:220AH         LINE#         1041
  C:220AH         LINE#         1042
  C:220DH         LINE#         1043
  C:220DH         LINE#         1044
  C:220DH         LINE#         1046
  C:220DH         LINE#         1047
  C:222AH         LINE#         1048
  C:222AH         LINE#         1049
  C:222DH         LINE#         1050
  C:222DH         LINE#         1051
  C:222FH         LINE#         1053
  C:222FH         LINE#         1054
  C:2232H         LINE#         1055
  C:2232H         LINE#         1056
  C:2232H         LINE#         1058
  C:2232H         LINE#         1059
  C:225EH         LINE#         1060
  C:2267H         LINE#         1061
  C:226AH         LINE#         1062
  C:2271H         LINE#         1063
  C:2271H         LINE#         1064
  C:2273H         LINE#         1066
  C:2273H         LINE#         1069
  C:2290H         LINE#         1070
  C:2290H         LINE#         1071
  C:2293H         LINE#         1072
  C:22A1H         LINE#         1073
  C:22A4H         LINE#         1075
  C:22A4H         LINE#         1076
  C:22A7H         LINE#         1077
  C:22A7H         LINE#         1078
  C:22A7H         LINE#         1081
BL51 BANKED LINKER/LOCATER V6.22                                                      03/11/2019  10:41:19  PAGE 167


  C:22A7H         LINE#         1082
  C:22D3H         LINE#         1083
  C:22E8H         LINE#         1084
  C:22F6H         LINE#         1085
  C:22FCH         LINE#         1086
  C:22FFH         LINE#         1088
  C:22FFH         LINE#         1089
  C:232BH         LINE#         1090
  C:2333H         LINE#         1091
  C:2336H         LINE#         1092
  C:2339H         LINE#         1094
  C:2339H         LINE#         1095
  C:2365H         LINE#         1096
  C:2373H         LINE#         1097
  C:239AH         LINE#         1098
  C:23A8H         LINE#         1099
  C:23A8H         LINE#         1100
  C:23A8H         LINE#         1101
  C:23A9H         LINE#         1102
  C:23ABH         LINE#         1103
  C:23ABH         LINE#         1104
  C:23ABH         LINE#         1107
  C:23ABH         LINE#         1108
  C:23DBH         LINE#         1109
  C:23DBH         LINE#         1110
  C:23E0H         LINE#         1112
  C:23E3H         LINE#         1114
  C:23E3H         LINE#         1115
  C:23E3H         LINE#         1116
  C:23E4H         LINE#         1117
  C:23E6H         LINE#         1118
  C:23E6H         LINE#         1119
  C:23E6H         LINE#         1120
  C:2416H         LINE#         1121
  C:2416H         LINE#         1122
  C:241BH         LINE#         1123
  C:241BH         LINE#         1124
  C:241BH         LINE#         1125
  C:241CH         LINE#         1126
  C:241EH         LINE#         1127
  C:241EH         LINE#         1128
  C:241EH         LINE#         1130
  C:241EH         LINE#         1131
  C:2421H         LINE#         1132
  C:2421H         LINE#         1133
  C:2421H         LINE#         1135
  C:2421H         LINE#         1136
  C:244DH         LINE#         1138
  C:2457H         LINE#         1139
  C:2457H         LINE#         1140
  C:247BH         LINE#         1141
  C:247DH         LINE#         1143
  C:247DH         LINE#         1144
  C:24A1H         LINE#         1145
  C:24A1H         LINE#         1147
  C:24A1H         LINE#         1149
  C:24A1H         LINE#         1153
BL51 BANKED LINKER/LOCATER V6.22                                                      03/11/2019  10:41:19  PAGE 168


  C:2506H         LINE#         1155
  C:2506H         LINE#         1157
  C:2509H         LINE#         1158
  C:2509H         LINE#         1162
  C:2525H         LINE#         1163
  C:2525H         LINE#         1164
  C:253CH         LINE#         1165
  C:253CH         LINE#         1167
  C:2558H         LINE#         1168
  C:2558H         LINE#         1169
  C:256FH         LINE#         1170
  C:256FH         LINE#         1172
  C:25B9H         LINE#         1173
  C:25B9H         LINE#         1174
  C:25D3H         LINE#         1175
  C:25D3H         LINE#         1177
  C:25DAH         LINE#         1178
  C:25EEH         LINE#         1179
  C:25FCH         LINE#         1180
  C:25FEH         LINE#         1181
  -------         ENDPROC       _IEC_CMD_WRITE_DEAL
  -------         PROC          _IEC_CMD_BREAK_DEAL
  D:0001H         SYMBOL        sptr
  C:EAAFH         LINE#         1191
  C:EAAFH         LINE#         1192
  C:EAAFH         LINE#         1194
  C:EAC5H         LINE#         1195
  C:EAD6H         LINE#         1196
  C:EAD9H         LINE#         1197
  C:EADBH         LINE#         1198
  -------         ENDPROC       _IEC_CMD_BREAK_DEAL
  -------         PROC          _LNK_TX_COMM_READY
  X:0002H         SYMBOL        ch
  X:0003H         SYMBOL        start_index
  -------         DO            
  X:0004H         SYMBOL        u16_badu
  -------         ENDDO         
  C:B183H         LINE#         1212
  C:B18DH         LINE#         1213
  C:B18DH         LINE#         1216
  C:B1ADH         LINE#         1217
  C:B1ADH         LINE#         1218
  C:B1ADH         LINE#         1219
  C:B1ADH         LINE#         1220
  C:B1AFH         LINE#         1221
  C:B1AFH         LINE#         1222
  C:B1B9H         LINE#         1223
  C:B1BBH         LINE#         1224
  C:B1BBH         LINE#         1225
  C:B1C5H         LINE#         1226
  C:B1C7H         LINE#         1227
  C:B1C7H         LINE#         1228
  C:B1D1H         LINE#         1229
  C:B1D3H         LINE#         1230
  C:B1D3H         LINE#         1231
  C:B1DDH         LINE#         1232
  C:B1DFH         LINE#         1233
BL51 BANKED LINKER/LOCATER V6.22                                                      03/11/2019  10:41:19  PAGE 169


  C:B1DFH         LINE#         1234
  C:B1E9H         LINE#         1235
  C:B1EBH         LINE#         1237
  C:B1F5H         LINE#         1239
  C:B1F5H         LINE#         1240
  C:B1F5H         LINE#         1242
  C:B217H         LINE#         1244
  -------         ENDPROC       _LNK_TX_COMM_READY
  -------         PROC          _API_HANDL_COMM_FRAME_ERROR
  X:0038H         SYMBOL        ch
  C:D977H         LINE#         1260
  C:D97CH         LINE#         1261
  C:D97CH         LINE#         1262
  C:D97EH         LINE#         1263
  C:D97EH         LINE#         1264
  C:D994H         LINE#         1265
  C:D99BH         LINE#         1266
  C:D9A3H         LINE#         1267
  C:D9B7H         LINE#         1268
  C:D9B7H         LINE#         1270
  C:D9BFH         LINE#         1271
  C:D9BFH         LINE#         1272
  C:D9D4H         LINE#         1273
  C:D9DCH         LINE#         1274
  C:D9DFH         LINE#         1275
  C:D9E2H         LINE#         1276
  C:D9E2H         LINE#         1279
  -------         ENDPROC       _API_HANDL_COMM_FRAME_ERROR
  -------         PROC          _PROCESS_IEC62056_21
  X:0002H         SYMBOL        ch
  -------         DO            
  X:0003H         SYMBOL        buff_size
  X:0004H         SYMBOL        start_index
  X:0005H         SYMBOL        meterID_len
  X:0006H         SYMBOL        tmp_8u_01
  X:0016H         SYMBOL        tmp_8u_02
  X:0036H         SYMBOL        i
  -------         ENDDO         
  C:4196H         LINE#         1288
  C:419BH         LINE#         1289
  C:419BH         LINE#         1300
  C:41A3H         LINE#         1302
  C:41BDH         LINE#         1303
  C:41BDH         LINE#         1305
  C:41BDH         LINE#         1307
  C:41CBH         LINE#         1308
  C:41D0H         LINE#         1311
  C:41E5H         LINE#         1312
  C:41E5H         LINE#         1313
  C:41F3H         LINE#         1314
  C:4201H         LINE#         1315
  C:4201H         LINE#         1319
  C:4210H         LINE#         1320
  C:4210H         LINE#         1321
  C:4232H         LINE#         1322
  C:423AH         LINE#         1324
  C:4243H         LINE#         1325
BL51 BANKED LINKER/LOCATER V6.22                                                      03/11/2019  10:41:19  PAGE 170


  C:4243H         LINE#         1327
  C:4246H         LINE#         1329
  C:4246H         LINE#         1331
  C:425AH         LINE#         1332
  C:426CH         LINE#         1333
  C:427CH         LINE#         1334
  C:4281H         LINE#         1336
  C:42B5H         LINE#         1337
  C:42B5H         LINE#         1338
  C:42C4H         LINE#         1340
  C:42E0H         LINE#         1341
  C:42E0H         LINE#         1342
  C:42E0H         LINE#         1343
  C:42F6H         LINE#         1344
  C:42F6H         LINE#         1345
  C:42F9H         LINE#         1347
  C:42F9H         LINE#         1348
  C:4313H         LINE#         1349
  C:4323H         LINE#         1350
  C:433EH         LINE#         1351
  C:437CH         LINE#         1352
  C:437CH         LINE#         1353
  C:4382H         LINE#         1354
  C:4382H         LINE#         1355
  C:43ADH         LINE#         1356
  C:43ADH         LINE#         1357
  C:43B4H         LINE#         1358
  C:43B4H         LINE#         1359
  C:43DFH         LINE#         1360
  C:43DFH         LINE#         1361
  C:43F4H         LINE#         1362
  C:4400H         LINE#         1363
  C:4403H         LINE#         1365
  C:4403H         LINE#         1367
  C:440BH         LINE#         1369
  C:440BH         LINE#         1370
  C:440BH         LINE#         1372
  C:440BH         LINE#         1373
  C:4421H         LINE#         1374
  C:4421H         LINE#         1375
  C:4424H         LINE#         1377
  C:4424H         LINE#         1378
  C:4449H         LINE#         1379
  C:4449H         LINE#         1380
  C:447CH         LINE#         1381
  C:4495H         LINE#         1382
  C:44AAH         LINE#         1383
  C:44BCH         LINE#         1384
  C:44BFH         LINE#         1386
  C:44BFH         LINE#         1387
  C:44D4H         LINE#         1388
  C:44D4H         LINE#         1389
  C:44D4H         LINE#         1390
  C:44D4H         LINE#         1392
  C:44D6H         LINE#         1394
  C:44D6H         LINE#         1395
  C:44ECH         LINE#         1396
BL51 BANKED LINKER/LOCATER V6.22                                                      03/11/2019  10:41:19  PAGE 171


  C:44ECH         LINE#         1397
  C:44EFH         LINE#         1399
  C:44EFH         LINE#         1401
  C:4514H         LINE#         1402
  C:4514H         LINE#         1405
  C:452FH         LINE#         1406
  C:4543H         LINE#         1407
  C:4543H         LINE#         1408
  C:4545H         LINE#         1410
  C:4545H         LINE#         1411
  C:4554H         LINE#         1412
  C:4556H         LINE#         1413
  C:4556H         LINE#         1415
  C:4556H         LINE#         1417
  C:4556H         LINE#         1418
  C:456BH         LINE#         1419
  C:456BH         LINE#         1421
  C:4581H         LINE#         1422
  C:4581H         LINE#         1424
  C:4584H         LINE#         1426
  C:4584H         LINE#         1428
  C:4584H         LINE#         1429
  C:4599H         LINE#         1430
  C:45ABH         LINE#         1431
  C:45BDH         LINE#         1432
  C:45BDH         LINE#         1433
  C:45D5H         LINE#         1434
  C:45D5H         LINE#         1435
  C:45EDH         LINE#         1436
  C:45EDH         LINE#         1437
  -------         ENDPROC       _PROCESS_IEC62056_21
  -------         PROC          _API_HANDL_COMM_PRE_10MS
  X:0001H         SYMBOL        ch
  C:A17EH         LINE#         1452
  C:A183H         LINE#         1453
  C:A183H         LINE#         1455
  C:A186H         LINE#         1457
  C:A1A4H         LINE#         1458
  C:A1A4H         LINE#         1460
  C:A1A7H         LINE#         1461
  C:A1A7H         LINE#         1463
  C:A1D2H         LINE#         1464
  C:A1D2H         LINE#         1466
  C:A1E5H         LINE#         1467
  C:A1F8H         LINE#         1468
  C:A1F8H         LINE#         1470
  C:A203H         LINE#         1471
  C:A203H         LINE#         1472
  C:A204H         LINE#         1473
  C:A212H         LINE#         1474
  C:A215H         LINE#         1475
  C:A223H         LINE#         1476
  C:A226H         LINE#         1477
  C:A234H         LINE#         1479
  C:A237H         LINE#         1481
  C:A24CH         LINE#         1482
  C:A24FH         LINE#         1483
BL51 BANKED LINKER/LOCATER V6.22                                                      03/11/2019  10:41:19  PAGE 172


  C:A25DH         LINE#         1484
  C:A260H         LINE#         1485
  C:A26EH         LINE#         1487
  C:A271H         LINE#         1488
  C:A27FH         LINE#         1489
  C:A284H         LINE#         1490
  C:A284H         LINE#         1492
  -------         ENDPROC       _API_HANDL_COMM_PRE_10MS
  -------         PROC          RF_COMM_DEAL
  C:E569H         LINE#         1503
  C:E569H         LINE#         1504
  C:E569H         LINE#         1506
  C:E570H         LINE#         1507
  C:E575H         LINE#         1508
  C:E57CH         LINE#         1511
  C:E585H         LINE#         1512
  C:E593H         LINE#         1513
  C:E59AH         LINE#         1514
  C:E5A0H         LINE#         1516
  C:E5A8H         LINE#         1518
  -------         ENDPROC       RF_COMM_DEAL
  -------         ENDMOD        API_USER_COMM

  -------         MODULE        IEC62056_21
  C:0000H         SYMBOL        _ICE_DUMMY_
  D:0090H         PUBLIC        P1
  C:E8E9H         PUBLIC        _Get_Bcc_Chk
  D:00B0H         PUBLIC        P3
  C:DCBBH         PUBLIC        _IEC_Comm_Acknowledgement_Cmd_Judge
  D:00A8H         PUBLIC        IE
  D:00B8H         PUBLIC        IP
  C:003EH         PUBLIC        _Get_ACK_Answer
  C:9748H         PUBLIC        _IEC_Comm_Command_Cmd_Judge
  D:0098H         PUBLIC        SCON
  D:0088H         PUBLIC        TCON
  D:00F0H         PUBLIC        B
  C:B5B0H         PUBLIC        _Get_IEC_Comm_Operand_Answer
  D:00E0H         PUBLIC        ACC
  C:9877H         PUBLIC        _IEC_Comm_Request_Cmd_Judge
  D:0080H         PUBLIC        SysCtrl
  C:CF46H         PUBLIC        _Get_IEC_Comm_Request_Cmd_Answer
  C:0016H         PUBLIC        _Get_Error_Answer
  D:00C8H         PUBLIC        T2CON
  D:00D0H         PUBLIC        PSW
  -------         PROC          _IEC_COMM_REQUEST_CMD_JUDGE
  X:0038H         SYMBOL        sptr
  D:0005H         SYMBOL        len
  X:003CH         SYMBOL        id_ptr
  X:003FH         SYMBOL        meter_id_lenth
  -------         DO            
  D:0007H         SYMBOL        i
  -------         ENDDO         
  C:9877H         LINE#         34
  C:9882H         LINE#         35
  C:9882H         LINE#         38
  C:9887H         LINE#         39
  C:9887H         LINE#         40
BL51 BANKED LINKER/LOCATER V6.22                                                      03/11/2019  10:41:19  PAGE 173


  C:989CH         LINE#         41
  C:98A9H         LINE#         42
  C:98B6H         LINE#         43
  C:98C3H         LINE#         44
  C:98D0H         LINE#         45
  C:98D3H         LINE#         46
  C:98D3H         LINE#         48
  C:98D3H         LINE#         49
  C:98E8H         LINE#         50
  C:98F5H         LINE#         51
  C:9901H         LINE#         52
  C:9901H         LINE#         53
  C:9933H         LINE#         54
  C:9933H         LINE#         55
  C:9936H         LINE#         56
  C:9936H         LINE#         57
  C:9939H         LINE#         58
  C:995CH         LINE#         59
  C:997CH         LINE#         60
  C:99A1H         LINE#         62
  -------         ENDPROC       _IEC_COMM_REQUEST_CMD_JUDGE
  -------         PROC          _IEC_COMM_ACKNOWLEDGEMENT_CMD_JUDGE
  D:0001H         SYMBOL        sptr
  D:0005H         SYMBOL        len
  C:DCBBH         LINE#         81
  C:DCBBH         LINE#         82
  C:DCBBH         LINE#         83
  C:DCC3H         LINE#         85
  C:DCCDH         LINE#         86
  C:DCDAH         LINE#         87
  C:DCEFH         LINE#         88
  C:DD02H         LINE#         89
  C:DD0FH         LINE#         90
  C:DD1CH         LINE#         92
  C:DD1EH         LINE#         94
  -------         ENDPROC       _IEC_COMM_ACKNOWLEDGEMENT_CMD_JUDGE
  -------         PROC          _IEC_COMM_COMMAND_CMD_JUDGE
  X:0038H         SYMBOL        sptr
  X:003BH         SYMBOL        len
  -------         DO            
  X:003CH         SYMBOL        u8_a
  -------         ENDDO         
  C:9748H         LINE#         107
  C:9758H         LINE#         108
  C:9758H         LINE#         111
  C:9762H         LINE#         112
  C:9786H         LINE#         114
  C:97B9H         LINE#         117
  C:97CFH         LINE#         118
  C:97D9H         LINE#         119
  C:97E3H         LINE#         120
  C:97EDH         LINE#         121
  C:97F7H         LINE#         122
  C:9801H         LINE#         123
  C:980BH         LINE#         124
  C:9815H         LINE#         125
  C:981FH         LINE#         127
BL51 BANKED LINKER/LOCATER V6.22                                                      03/11/2019  10:41:19  PAGE 174


  C:9830H         LINE#         128
  C:9830H         LINE#         129
  C:9830H         LINE#         130
  C:983EH         LINE#         131
  C:983EH         LINE#         133
  C:983EH         LINE#         135
  C:984CH         LINE#         136
  C:984CH         LINE#         138
  C:984CH         LINE#         139
  C:985DH         LINE#         140
  C:985DH         LINE#         143
  C:985DH         LINE#         145
  C:985DH         LINE#         146
  C:985FH         LINE#         147
  C:985FH         LINE#         153
  C:985FH         LINE#         154
  C:9874H         LINE#         155
  -------         ENDPROC       _IEC_COMM_COMMAND_CMD_JUDGE
  -------         PROC          _GET_IEC_COMM_REQUEST_CMD_ANSWER
  X:0038H         SYMBOL        sptr
  X:003BH         SYMBOL        len
  X:003CH         SYMBOL        info_ptr
  -------         DO            
  D:0007H         SYMBOL        i
  -------         ENDDO         
  C:CF46H         LINE#         176
  C:CF56H         LINE#         177
  C:CF56H         LINE#         180
  C:CF5BH         LINE#         182
  C:CF67H         LINE#         183
  C:CF67H         LINE#         184
  C:CF95H         LINE#         185
  C:CF98H         LINE#         187
  C:CFB7H         LINE#         188
  -------         ENDPROC       _GET_IEC_COMM_REQUEST_CMD_ANSWER
  -------         PROC          _GET_IEC_COMM_OPERAND_ANSWER
  X:0038H         SYMBOL        sptr
  X:003BH         SYMBOL        len
  X:003CH         SYMBOL        info_ptr
  -------         DO            
  D:0007H         SYMBOL        i
  -------         ENDDO         
  C:B5B0H         LINE#         203
  C:B5BEH         LINE#         204
  C:B5BEH         LINE#         207
  C:B5CEH         LINE#         208
  C:B5E1H         LINE#         209
  C:B5E9H         LINE#         210
  C:B5F1H         LINE#         212
  C:B5FDH         LINE#         213
  C:B5FDH         LINE#         214
  C:B62BH         LINE#         215
  C:B62EH         LINE#         217
  C:B64DH         LINE#         218
  -------         ENDPROC       _GET_IEC_COMM_OPERAND_ANSWER
  -------         PROC          _GET_ERROR_ANSWER
  D:0001H         SYMBOL        sptr
BL51 BANKED LINKER/LOCATER V6.22                                                      03/11/2019  10:41:19  PAGE 175


  C:0016H         LINE#         233
  C:0016H         LINE#         234
  C:0016H         LINE#         235
  -------         ENDPROC       _GET_ERROR_ANSWER
  -------         PROC          _GET_ACK_ANSWER
  D:0001H         SYMBOL        sptr
  C:003EH         LINE#         250
  C:003EH         LINE#         251
  C:003EH         LINE#         252
  -------         ENDPROC       _GET_ACK_ANSWER
  -------         PROC          L?0052
  -------         ENDPROC       L?0052
  -------         PROC          _GET_BCC_CHK
  X:00E8H         SYMBOL        yourBuf
  D:0005H         SYMBOL        StartID
  X:00ECH         SYMBOL        EndID
  -------         DO            
  D:0006H         SYMBOL        i
  D:0007H         SYMBOL        tmp
  -------         ENDDO         
  C:E8E9H         LINE#         266
  C:E8F4H         LINE#         267
  C:E8F4H         LINE#         271
  C:E8F6H         LINE#         272
  C:E902H         LINE#         273
  C:E902H         LINE#         274
  C:E917H         LINE#         275
  C:E91AH         LINE#         276
  C:E91AH         LINE#         277
  -------         ENDPROC       _GET_BCC_CHK
  -------         ENDMOD        IEC62056_21

  -------         MODULE        ?C?FPADD
  C:1318H         PUBLIC        ?C?FPADD
  C:1314H         PUBLIC        ?C?FPSUB
  -------         ENDMOD        ?C?FPADD

  -------         MODULE        ?C?FPMUL
  C:1409H         PUBLIC        ?C?FPMUL
  -------         ENDMOD        ?C?FPMUL

  -------         MODULE        ?C?FPDIV
  C:1512H         PUBLIC        ?C?FPDIV
  -------         ENDMOD        ?C?FPDIV

  -------         MODULE        ?C?FPCMP
  C:15B1H         PUBLIC        ?C?FPCMP
  C:15AFH         PUBLIC        ?C?FPCMP3
  -------         ENDMOD        ?C?FPCMP

  -------         MODULE        ?C?FCAST
  C:1626H         PUBLIC        ?C?FCASTC
  C:1621H         PUBLIC        ?C?FCASTI
  C:161CH         PUBLIC        ?C?FCASTL
  -------         ENDMOD        ?C?FCAST

  -------         MODULE        ?C?CASTF
BL51 BANKED LINKER/LOCATER V6.22                                                      03/11/2019  10:41:19  PAGE 176


  C:165AH         PUBLIC        ?C?CASTF
  -------         ENDMOD        ?C?CASTF

  -------         MODULE        ATOF
  C:E2FEH         PUBLIC        _ATOF
  -------         ENDMOD        ATOF

  -------         MODULE        SQRT
  C:C159H         PUBLIC        _SQRT
  -------         ENDMOD        SQRT

  -------         MODULE        FLOOR
  C:AB3FH         PUBLIC        _floor
  -------         ENDMOD        FLOOR

  -------         MODULE        ?C?FPNEG
  C:16DBH         PUBLIC        ?C?FPNEG
  -------         ENDMOD        ?C?FPNEG

  -------         MODULE        ?C?FTNPWR
  C:171CH         PUBLIC        ?C?FTNPWR
  -------         ENDMOD        ?C?FTNPWR

  -------         MODULE        ?C?COPY
  C:182CH         PUBLIC        ?C?COPY
  -------         ENDMOD        ?C?COPY

  -------         MODULE        ?C?CLDPTR
  C:1852H         PUBLIC        ?C?CLDPTR
  -------         ENDMOD        ?C?CLDPTR

  -------         MODULE        ?C?CLDOPTR
  C:186BH         PUBLIC        ?C?CLDOPTR
  -------         ENDMOD        ?C?CLDOPTR

  -------         MODULE        ?C?CILDPTR
  C:1898H         PUBLIC        ?C?CILDPTR
  -------         ENDMOD        ?C?CILDPTR

  -------         MODULE        ?C?CSTPTR
  C:18BAH         PUBLIC        ?C?CSTPTR
  -------         ENDMOD        ?C?CSTPTR

  -------         MODULE        ?C?CSTOPTR
  C:18CCH         PUBLIC        ?C?CSTOPTR
  -------         ENDMOD        ?C?CSTOPTR

  -------         MODULE        ?C?IMUL
  C:18EEH         PUBLIC        ?C?IMUL
  -------         ENDMOD        ?C?IMUL

  -------         MODULE        ?C?UIDIV
  C:1900H         PUBLIC        ?C?UIDIV
  -------         ENDMOD        ?C?UIDIV

  -------         MODULE        ?C?SIDIV
  C:1955H         PUBLIC        ?C?SIDIV
BL51 BANKED LINKER/LOCATER V6.22                                                      03/11/2019  10:41:19  PAGE 177


  -------         ENDMOD        ?C?SIDIV

  -------         MODULE        ?C?IILDX
  C:198BH         PUBLIC        ?C?IILDX
  -------         ENDMOD        ?C?IILDX

  -------         MODULE        ?C?ILDIX
  C:19A1H         PUBLIC        ?C?ILDIX
  -------         ENDMOD        ?C?ILDIX

  -------         MODULE        ?C?ISTPTR
  C:19B7H         PUBLIC        ?C?ISTPTR
  -------         ENDMOD        ?C?ISTPTR

  -------         MODULE        ?C?LMUL
  C:19D6H         PUBLIC        ?C?LMUL
  -------         ENDMOD        ?C?LMUL

  -------         MODULE        ?C?ULDIV
  C:1A61H         PUBLIC        ?C?ULDIV
  -------         ENDMOD        ?C?ULDIV

  -------         MODULE        ?C?SLDIV
  C:E41DH         PUBLIC        ?C?SLDIV
  -------         ENDMOD        ?C?SLDIV

  -------         MODULE        ?C?LNOT
  C:1AF3H         PUBLIC        ?C?LNOT
  -------         ENDMOD        ?C?LNOT

  -------         MODULE        ?C?LNEG
  C:1B00H         PUBLIC        ?C?LNEG
  -------         ENDMOD        ?C?LNEG

  -------         MODULE        ?C?SLCMP
  C:1B0EH         PUBLIC        ?C?SLCMP
  -------         ENDMOD        ?C?SLCMP

  -------         MODULE        ?C?ULCMP
  C:1B24H         PUBLIC        ?C?ULCMP
  -------         ENDMOD        ?C?ULCMP

  -------         MODULE        ?C?ULSHR
  C:1B35H         PUBLIC        ?C?ULSHR
  -------         ENDMOD        ?C?ULSHR

  -------         MODULE        ?C?LSHL
  C:1B48H         PUBLIC        ?C?LSHL
  -------         ENDMOD        ?C?LSHL

  -------         MODULE        ?C?LLDPTR
  C:1B5BH         PUBLIC        ?C?LLDPTR
  -------         ENDMOD        ?C?LLDPTR

  -------         MODULE        ?C?LLDXDATA
  C:1B7BH         PUBLIC        ?C?LLDXDATA
  -------         ENDMOD        ?C?LLDXDATA
BL51 BANKED LINKER/LOCATER V6.22                                                      03/11/2019  10:41:19  PAGE 178



  -------         MODULE        ?C?LLDCODE
  C:1B87H         PUBLIC        ?C?LLDCODE
  -------         ENDMOD        ?C?LLDCODE

  -------         MODULE        ?C?LLDCODE0
  C:1B97H         PUBLIC        ?C?LLDCODE0
  -------         ENDMOD        ?C?LLDCODE0

  -------         MODULE        ?C?LSTXDATA
  C:1BA7H         PUBLIC        ?C?LSTXDATA
  -------         ENDMOD        ?C?LSTXDATA

  -------         MODULE        ?C?LSTKXDATA
  C:1BB3H         PUBLIC        ?C?LSTKXDATA
  -------         ENDMOD        ?C?LSTKXDATA

  -------         MODULE        ?C?OFFXADD
  C:1BE4H         PUBLIC        ?C?OFFXADD
  -------         ENDMOD        ?C?OFFXADD

  -------         MODULE        ?C?PLDIXDATA
  C:1BF0H         PUBLIC        ?C?PLDIXDATA
  -------         ENDMOD        ?C?PLDIXDATA

  -------         MODULE        ?C?PSTXDATA
  C:1C07H         PUBLIC        ?C?PSTXDATA
  -------         ENDMOD        ?C?PSTXDATA

  -------         MODULE        ?C?PSTPTR
  C:1C10H         PUBLIC        ?C?PSTPTR
  -------         ENDMOD        ?C?PSTPTR

  -------         MODULE        ?C?ICASE
  C:1C5FH         PUBLIC        ?C?ICASE
  -------         ENDMOD        ?C?ICASE

  -------         MODULE        ?C?LCASE
  C:1C8CH         PUBLIC        ?C?LCASE
  -------         ENDMOD        ?C?LCASE

  -------         MODULE        ?C?LIMUL
  C:1CC6H         PUBLIC        ?C?LIMUL
  -------         ENDMOD        ?C?LIMUL

  -------         MODULE        ISSPACE
  C:EFC4H         PUBLIC        _isspace
  -------         ENDMOD        ISSPACE

  -------         MODULE        ?C?LLDIDATA
  C:1CF3H         PUBLIC        ?C?LLDIDATA
  -------         ENDMOD        ?C?LLDIDATA

  -------         MODULE        ?C?LLDPDATA
  C:1CFFH         PUBLIC        ?C?LLDPDATA
  -------         ENDMOD        ?C?LLDPDATA

BL51 BANKED LINKER/LOCATER V6.22                                                      03/11/2019  10:41:19  PAGE 179


  -------         MODULE        ?C?PSTIDATA
  C:1D0BH         PUBLIC        ?C?PSTIDATA
  -------         ENDMOD        ?C?PSTIDATA

  -------         MODULE        ?C?PSTPDATA
  C:1D14H         PUBLIC        ?C?PSTPDATA
  -------         ENDMOD        ?C?PSTPDATA

*** WARNING L1: UNRESOLVED EXTERNAL SYMBOL
    SYMBOL:  _READRACCOON
    MODULE:  .\Lnk_EMU_Adj.obj (LNK_EMU_ADJ)

*** WARNING L1: UNRESOLVED EXTERNAL SYMBOL
    SYMBOL:  _WRITERACCOON
    MODULE:  .\Lnk_EMU_Adj.obj (LNK_EMU_ADJ)

*** WARNING L1: UNRESOLVED EXTERNAL SYMBOL
    SYMBOL:  ?_WRITERACCOON?BYTE
    MODULE:  .\Lnk_EMU_Adj.obj (LNK_EMU_ADJ)

*** WARNING L1: UNRESOLVED EXTERNAL SYMBOL
    SYMBOL:  GS_RACCTRL
    MODULE:  .\Lnk_EMU_Adj.obj (LNK_EMU_ADJ)

*** WARNING L2: REFERENCE MADE TO UNRESOLVED EXTERNAL
    SYMBOL:  _READRACCOON
    MODULE:  .\Lnk_EMU_Adj.obj (LNK_EMU_ADJ)
    ADDRESS: 8BC8H

*** WARNING L2: REFERENCE MADE TO UNRESOLVED EXTERNAL
    SYMBOL:  GS_RACCTRL
    MODULE:  .\Lnk_EMU_Adj.obj (LNK_EMU_ADJ)
    ADDRESS: 8BD6H

*** WARNING L2: REFERENCE MADE TO UNRESOLVED EXTERNAL
    SYMBOL:  GS_RACCTRL
    MODULE:  .\Lnk_EMU_Adj.obj (LNK_EMU_ADJ)
    ADDRESS: 8BD8H

*** WARNING L2: REFERENCE MADE TO UNRESOLVED EXTERNAL
    SYMBOL:  _READRACCOON
    MODULE:  .\Lnk_EMU_Adj.obj (LNK_EMU_ADJ)
    ADDRESS: 8D31H

*** WARNING L2: REFERENCE MADE TO UNRESOLVED EXTERNAL
    SYMBOL:  GS_RACCTRL
    MODULE:  .\Lnk_EMU_Adj.obj (LNK_EMU_ADJ)
    ADDRESS: 8D3FH

*** WARNING L2: REFERENCE MADE TO UNRESOLVED EXTERNAL
    SYMBOL:  GS_RACCTRL
    MODULE:  .\Lnk_EMU_Adj.obj (LNK_EMU_ADJ)
    ADDRESS: 8D41H

*** WARNING L2: REFERENCE MADE TO UNRESOLVED EXTERNAL
    SYMBOL:  ?_WRITERACCOON?BYTE
    MODULE:  .\Lnk_EMU_Adj.obj (LNK_EMU_ADJ)
BL51 BANKED LINKER/LOCATER V6.22                                                      03/11/2019  10:41:19  PAGE 180


    ADDRESS: 9FD0H

*** WARNING L2: REFERENCE MADE TO UNRESOLVED EXTERNAL
    SYMBOL:  _WRITERACCOON
    MODULE:  .\Lnk_EMU_Adj.obj (LNK_EMU_ADJ)
    ADDRESS: 9FDDH

*** WARNING L2: REFERENCE MADE TO UNRESOLVED EXTERNAL
    SYMBOL:  ?_WRITERACCOON?BYTE
    MODULE:  .\Lnk_EMU_Adj.obj (LNK_EMU_ADJ)
    ADDRESS: 9FEEH

*** WARNING L2: REFERENCE MADE TO UNRESOLVED EXTERNAL
    SYMBOL:  _WRITERACCOON
    MODULE:  .\Lnk_EMU_Adj.obj (LNK_EMU_ADJ)
    ADDRESS: 9FFBH

*** WARNING L2: REFERENCE MADE TO UNRESOLVED EXTERNAL
    SYMBOL:  ?_WRITERACCOON?BYTE
    MODULE:  .\Lnk_EMU_Adj.obj (LNK_EMU_ADJ)
    ADDRESS: B459H

*** WARNING L2: REFERENCE MADE TO UNRESOLVED EXTERNAL
    SYMBOL:  _WRITERACCOON
    MODULE:  .\Lnk_EMU_Adj.obj (LNK_EMU_ADJ)
    ADDRESS: B466H

*** WARNING L2: REFERENCE MADE TO UNRESOLVED EXTERNAL
    SYMBOL:  ?_WRITERACCOON?BYTE
    MODULE:  .\Lnk_EMU_Adj.obj (LNK_EMU_ADJ)
    ADDRESS: 74D0H

*** WARNING L2: REFERENCE MADE TO UNRESOLVED EXTERNAL
    SYMBOL:  _WRITERACCOON
    MODULE:  .\Lnk_EMU_Adj.obj (LNK_EMU_ADJ)
    ADDRESS: 74E3H

*** WARNING L2: REFERENCE MADE TO UNRESOLVED EXTERNAL
    SYMBOL:  _READRACCOON
    MODULE:  .\Lnk_EMU_Adj.obj (LNK_EMU_ADJ)
    ADDRESS: 328CH

*** WARNING L2: REFERENCE MADE TO UNRESOLVED EXTERNAL
    SYMBOL:  GS_RACCTRL
    MODULE:  .\Lnk_EMU_Adj.obj (LNK_EMU_ADJ)
    ADDRESS: 329AH

*** WARNING L2: REFERENCE MADE TO UNRESOLVED EXTERNAL
    SYMBOL:  GS_RACCTRL
    MODULE:  .\Lnk_EMU_Adj.obj (LNK_EMU_ADJ)
    ADDRESS: 329CH

*** WARNING L2: REFERENCE MADE TO UNRESOLVED EXTERNAL
    SYMBOL:  _READRACCOON
    MODULE:  .\Lnk_EMU_Adj.obj (LNK_EMU_ADJ)
    ADDRESS: 33BDH

BL51 BANKED LINKER/LOCATER V6.22                                                      03/11/2019  10:41:19  PAGE 181


*** WARNING L2: REFERENCE MADE TO UNRESOLVED EXTERNAL
    SYMBOL:  GS_RACCTRL
    MODULE:  .\Lnk_EMU_Adj.obj (LNK_EMU_ADJ)
    ADDRESS: 33CBH

*** WARNING L2: REFERENCE MADE TO UNRESOLVED EXTERNAL
    SYMBOL:  GS_RACCTRL
    MODULE:  .\Lnk_EMU_Adj.obj (LNK_EMU_ADJ)
    ADDRESS: 33CDH

*** WARNING L1: UNRESOLVED EXTERNAL SYMBOL
    SYMBOL:  _READRACCOON
    MODULE:  .\Lnk_EMU_handl.obj (LNK_EMU_HANDL)

*** WARNING L1: UNRESOLVED EXTERNAL SYMBOL
    SYMBOL:  GS_RACCTRL
    MODULE:  .\Lnk_EMU_handl.obj (LNK_EMU_HANDL)

*** WARNING L2: REFERENCE MADE TO UNRESOLVED EXTERNAL
    SYMBOL:  _READRACCOON
    MODULE:  .\Lnk_EMU_handl.obj (LNK_EMU_HANDL)
    ADDRESS: 8FF4H

*** WARNING L2: REFERENCE MADE TO UNRESOLVED EXTERNAL
    SYMBOL:  GS_RACCTRL
    MODULE:  .\Lnk_EMU_handl.obj (LNK_EMU_HANDL)
    ADDRESS: 9002H

*** WARNING L2: REFERENCE MADE TO UNRESOLVED EXTERNAL
    SYMBOL:  GS_RACCTRL
    MODULE:  .\Lnk_EMU_handl.obj (LNK_EMU_HANDL)
    ADDRESS: 9004H

*** WARNING L2: REFERENCE MADE TO UNRESOLVED EXTERNAL
    SYMBOL:  _READRACCOON
    MODULE:  .\Lnk_EMU_handl.obj (LNK_EMU_HANDL)
    ADDRESS: 6D2AH

*** WARNING L2: REFERENCE MADE TO UNRESOLVED EXTERNAL
    SYMBOL:  GS_RACCTRL
    MODULE:  .\Lnk_EMU_handl.obj (LNK_EMU_HANDL)
    ADDRESS: 6D38H

*** WARNING L2: REFERENCE MADE TO UNRESOLVED EXTERNAL
    SYMBOL:  GS_RACCTRL
    MODULE:  .\Lnk_EMU_handl.obj (LNK_EMU_HANDL)
    ADDRESS: 6D3AH

*** WARNING L2: REFERENCE MADE TO UNRESOLVED EXTERNAL
    SYMBOL:  _READRACCOON
    MODULE:  .\Lnk_EMU_handl.obj (LNK_EMU_HANDL)
    ADDRESS: 6DDCH

*** WARNING L2: REFERENCE MADE TO UNRESOLVED EXTERNAL
    SYMBOL:  GS_RACCTRL
    MODULE:  .\Lnk_EMU_handl.obj (LNK_EMU_HANDL)
    ADDRESS: 6DEAH
BL51 BANKED LINKER/LOCATER V6.22                                                      03/11/2019  10:41:19  PAGE 182



*** WARNING L2: REFERENCE MADE TO UNRESOLVED EXTERNAL
    SYMBOL:  GS_RACCTRL
    MODULE:  .\Lnk_EMU_handl.obj (LNK_EMU_HANDL)
    ADDRESS: 6DECH

*** WARNING L2: REFERENCE MADE TO UNRESOLVED EXTERNAL
    SYMBOL:  _READRACCOON
    MODULE:  .\Lnk_EMU_handl.obj (LNK_EMU_HANDL)
    ADDRESS: B0E3H

*** WARNING L2: REFERENCE MADE TO UNRESOLVED EXTERNAL
    SYMBOL:  GS_RACCTRL
    MODULE:  .\Lnk_EMU_handl.obj (LNK_EMU_HANDL)
    ADDRESS: B0F3H

*** WARNING L2: REFERENCE MADE TO UNRESOLVED EXTERNAL
    SYMBOL:  GS_RACCTRL
    MODULE:  .\Lnk_EMU_handl.obj (LNK_EMU_HANDL)
    ADDRESS: B0F5H

*** WARNING L2: REFERENCE MADE TO UNRESOLVED EXTERNAL
    SYMBOL:  _READRACCOON
    MODULE:  .\Lnk_EMU_handl.obj (LNK_EMU_HANDL)
    ADDRESS: 3C19H

*** WARNING L2: REFERENCE MADE TO UNRESOLVED EXTERNAL
    SYMBOL:  GS_RACCTRL
    MODULE:  .\Lnk_EMU_handl.obj (LNK_EMU_HANDL)
    ADDRESS: 3C29H

*** WARNING L2: REFERENCE MADE TO UNRESOLVED EXTERNAL
    SYMBOL:  GS_RACCTRL
    MODULE:  .\Lnk_EMU_handl.obj (LNK_EMU_HANDL)
    ADDRESS: 3C2BH

*** WARNING L2: REFERENCE MADE TO UNRESOLVED EXTERNAL
    SYMBOL:  _READRACCOON
    MODULE:  .\Lnk_EMU_handl.obj (LNK_EMU_HANDL)
    ADDRESS: 7BF5H

*** WARNING L2: REFERENCE MADE TO UNRESOLVED EXTERNAL
    SYMBOL:  GS_RACCTRL
    MODULE:  .\Lnk_EMU_handl.obj (LNK_EMU_HANDL)
    ADDRESS: 7C03H

*** WARNING L2: REFERENCE MADE TO UNRESOLVED EXTERNAL
    SYMBOL:  GS_RACCTRL
    MODULE:  .\Lnk_EMU_handl.obj (LNK_EMU_HANDL)
    ADDRESS: 7C05H

*** WARNING L1: UNRESOLVED EXTERNAL SYMBOL
    SYMBOL:  _SX1276_TXPACKET
    MODULE:  .\Drv_UART.obj (DRV_UART)

*** WARNING L1: UNRESOLVED EXTERNAL SYMBOL
    SYMBOL:  RX_MODE
BL51 BANKED LINKER/LOCATER V6.22                                                      03/11/2019  10:41:19  PAGE 183


    MODULE:  .\Drv_UART.obj (DRV_UART)

*** WARNING L1: UNRESOLVED EXTERNAL SYMBOL
    SYMBOL:  GS_RACCTRL
    MODULE:  .\Drv_UART.obj (DRV_UART)

*** WARNING L1: UNRESOLVED EXTERNAL SYMBOL
    SYMBOL:  G_LORACONFIG
    MODULE:  .\Drv_UART.obj (DRV_UART)

*** WARNING L2: REFERENCE MADE TO UNRESOLVED EXTERNAL
    SYMBOL:  G_LORACONFIG
    MODULE:  .\Drv_UART.obj (DRV_UART)
    ADDRESS: 7B62H

*** WARNING L2: REFERENCE MADE TO UNRESOLVED EXTERNAL
    SYMBOL:  _SX1276_TXPACKET
    MODULE:  .\Drv_UART.obj (DRV_UART)
    ADDRESS: 7B79H

*** WARNING L2: REFERENCE MADE TO UNRESOLVED EXTERNAL
    SYMBOL:  RX_MODE
    MODULE:  .\Drv_UART.obj (DRV_UART)
    ADDRESS: 7B7CH

*** WARNING L2: REFERENCE MADE TO UNRESOLVED EXTERNAL
    SYMBOL:  GS_RACCTRL
    MODULE:  .\Drv_UART.obj (DRV_UART)
    ADDRESS: E0A1H

*** WARNING L2: REFERENCE MADE TO UNRESOLVED EXTERNAL
    SYMBOL:  GS_RACCTRL
    MODULE:  .\Drv_UART.obj (DRV_UART)
    ADDRESS: E0B3H

*** WARNING L2: REFERENCE MADE TO UNRESOLVED EXTERNAL
    SYMBOL:  GS_RACCTRL
    MODULE:  .\Drv_UART.obj (DRV_UART)
    ADDRESS: E0B9H

*** WARNING L2: REFERENCE MADE TO UNRESOLVED EXTERNAL
    SYMBOL:  GS_RACCTRL
    MODULE:  .\Drv_UART.obj (DRV_UART)
    ADDRESS: E0D2H

*** WARNING L2: REFERENCE MADE TO UNRESOLVED EXTERNAL
    SYMBOL:  GS_RACCTRL
    MODULE:  .\Drv_UART.obj (DRV_UART)
    ADDRESS: E0D9H

*** WARNING L2: REFERENCE MADE TO UNRESOLVED EXTERNAL
    SYMBOL:  GS_RACCTRL
    MODULE:  .\Drv_UART.obj (DRV_UART)
    ADDRESS: E0DFH

*** WARNING L2: REFERENCE MADE TO UNRESOLVED EXTERNAL
    SYMBOL:  GS_RACCTRL
BL51 BANKED LINKER/LOCATER V6.22                                                      03/11/2019  10:41:19  PAGE 184


    MODULE:  .\Drv_UART.obj (DRV_UART)
    ADDRESS: E0E9H

*** WARNING L1: UNRESOLVED EXTERNAL SYMBOL
    SYMBOL:  RX_MODE
    MODULE:  .\Api_User_Comm.obj (API_USER_COMM)

*** WARNING L1: UNRESOLVED EXTERNAL SYMBOL
    SYMBOL:  SX127X_INIT
    MODULE:  .\Api_User_Comm.obj (API_USER_COMM)

*** WARNING L1: UNRESOLVED EXTERNAL SYMBOL
    SYMBOL:  _LSD_RF_RXPACKET
    MODULE:  .\Api_User_Comm.obj (API_USER_COMM)

*** WARNING L1: UNRESOLVED EXTERNAL SYMBOL
    SYMBOL:  G_LORACONFIG
    MODULE:  .\Api_User_Comm.obj (API_USER_COMM)

*** WARNING L2: REFERENCE MADE TO UNRESOLVED EXTERNAL
    SYMBOL:  SX127X_INIT
    MODULE:  .\Api_User_Comm.obj (API_USER_COMM)
    ADDRESS: D9DDH

*** WARNING L2: REFERENCE MADE TO UNRESOLVED EXTERNAL
    SYMBOL:  RX_MODE
    MODULE:  .\Api_User_Comm.obj (API_USER_COMM)
    ADDRESS: D9E0H

*** WARNING L2: REFERENCE MADE TO UNRESOLVED EXTERNAL
    SYMBOL:  _LSD_RF_RXPACKET
    MODULE:  .\Api_User_Comm.obj (API_USER_COMM)
    ADDRESS: E583H

*** WARNING L2: REFERENCE MADE TO UNRESOLVED EXTERNAL
    SYMBOL:  G_LORACONFIG
    MODULE:  .\Api_User_Comm.obj (API_USER_COMM)
    ADDRESS: E5A1H

Program Size: data=19.6 xdata=2054 code=61600
LINK/LOCATE RUN COMPLETE.  66 WARNING(S),  0 ERROR(S)
