BL51 BANKED LINKER/LOCATER V6.22                                                        03/12/2019  13:46:20  PAGE 1


BL51 BANKED LINKER/LOCATER V6.22, INVOKED BY:
C:\KEIL\C51\BIN\BL51.EXE .\STARTUP.obj, .\main.obj, .\Proc_Data.obj, .\Proc_EXmem.obj, .\Proc_System_Check.obj, .\Proc_S
>> ystem_Initialize.obj, .\Proc_System_Interrupt.obj, .\Proc_System_Tou.obj, .\Drv_E2P_24CXXX.obj, .\Drv_E2P_i2cSoft.obj
>> , .\Drv_EMU_hard.obj, .\Lnk_EMU_Adj.obj, .\Lnk_EMU_handl.obj, .\Drv_ADC.obj, .\Drv_core.obj, .\Drv_GPIO.obj, .\Drv_KE
>> Y_IO.obj, .\Drv_LCD.obj, .\Drv_RTC.obj, .\Drv_TMR.obj, .\Drv_UART.obj, .\Lib_myMath.obj, .\Lib_mySpring.obj, .\Lib_my
>> Timer.obj, .\Api_AdjErr.obj, .\Api_Bill_Record.obj, .\Api_Demand.obj, .\Api_Energy.obj, .\Api_Event.obj, .\Api_LoadPr
>> ofile.obj, .\Api_Measure.obj, .\Api_Triff.obj, .\API_Relay.obj, .\Api_Lcd_Display.obj, .\Api_User_Comm.obj, .\IEC6205
>> 6_21.obj TO DI03B_9811A_V10 RAMSIZE (256) DISABLEWARNING (16) CODE (0X0000-0XFFFE) XDATA (0X0000-0X0F7E)


MEMORY MODEL: LARGE WITH FLOATING POINT ARITHMETIC


INPUT MODULES INCLUDED:
  .\STARTUP.obj (?C_STARTUP)
  .\main.obj (MAIN)
  .\Proc_Data.obj (PROC_DATA)
  .\Proc_EXmem.obj (PROC_EXMEM)
  .\Proc_System_Check.obj (PROC_SYSTEM_CHECK)
  .\Proc_System_Initialize.obj (PROC_SYSTEM_INITIALIZE)
  .\Proc_System_Interrupt.obj (PROC_SYSTEM_INTERRUPT)
  .\Proc_System_Tou.obj (PROC_SYSTEM_TOU)
  .\Drv_E2P_24CXXX.obj (DRV_E2P_24CXXX)
  .\Drv_E2P_i2cSoft.obj (DRV_E2P_I2CSOFT)
  .\Drv_EMU_hard.obj (DRV_EMU_HARD)
  .\Lnk_EMU_Adj.obj (LNK_EMU_ADJ)
  .\Lnk_EMU_handl.obj (LNK_EMU_HANDL)
  .\Drv_ADC.obj (DRV_ADC)
  .\Drv_core.obj (DRV_CORE)
  .\Drv_GPIO.obj (DRV_GPIO)
  .\Drv_KEY_IO.obj (DRV_KEY_IO)
  .\Drv_LCD.obj (DRV_LCD)
  .\Drv_RTC.obj (DRV_RTC)
  .\Drv_TMR.obj (DRV_TMR)
  .\Drv_UART.obj (DRV_UART)
  .\Lib_myMath.obj (LIB_MYMATH)
  .\Lib_mySpring.obj (LIB_MYSPRING)
  .\Lib_myTimer.obj (LIB_MYTIMER)
  .\Api_AdjErr.obj (API_ADJERR)
  .\Api_Bill_Record.obj (API_BILL_RECORD)
  .\Api_Demand.obj (API_DEMAND)
  .\Api_Energy.obj (API_ENERGY)
  .\Api_Event.obj (API_EVENT)
  .\Api_LoadProfile.obj (API_LOADPROFILE)
  .\Api_Measure.obj (API_MEASURE)
  .\Api_Triff.obj (API_TRIFF)
  .\API_Relay.obj (API_RELAY)
  .\Api_Lcd_Display.obj (API_LCD_DISPLAY)
  .\Api_User_Comm.obj (API_USER_COMM)
  .\IEC62056_21.obj (IEC62056_21)
  C:\KEIL\C51\LIB\C51FPL.LIB (?C?FPADD)
  C:\KEIL\C51\LIB\C51FPL.LIB (?C?FPMUL)
  C:\KEIL\C51\LIB\C51FPL.LIB (?C?FPDIV)
  C:\KEIL\C51\LIB\C51FPL.LIB (?C?FPCMP)
  C:\KEIL\C51\LIB\C51FPL.LIB (?C?FCAST)
  C:\KEIL\C51\LIB\C51FPL.LIB (?C?CASTF)
  C:\KEIL\C51\LIB\C51FPL.LIB (ATOF)
  C:\KEIL\C51\LIB\C51FPL.LIB (SQRT)
BL51 BANKED LINKER/LOCATER V6.22                                                      03/12/2019  13:46:20  PAGE 2


  C:\KEIL\C51\LIB\C51FPL.LIB (FLOOR)
  C:\KEIL\C51\LIB\C51FPL.LIB (?C?FPGETOPN)
  C:\KEIL\C51\LIB\C51FPL.LIB (?C?ATOF)
  C:\KEIL\C51\LIB\C51FPL.LIB (?C?FPNEG)
  C:\KEIL\C51\LIB\C51FPL.LIB (?C?FTNPWR)
  C:\KEIL\C51\LIB\C51L.LIB (?C_INIT)
  C:\KEIL\C51\LIB\C51L.LIB (?C?COPY)
  C:\KEIL\C51\LIB\C51L.LIB (?C?CLDPTR)
  C:\KEIL\C51\LIB\C51L.LIB (?C?CLDOPTR)
  C:\KEIL\C51\LIB\C51L.LIB (?C?CILDPTR)
  C:\KEIL\C51\LIB\C51L.LIB (?C?CSTPTR)
  C:\KEIL\C51\LIB\C51L.LIB (?C?CSTOPTR)
  C:\KEIL\C51\LIB\C51L.LIB (?C?IMUL)
  C:\KEIL\C51\LIB\C51L.LIB (?C?UIDIV)
  C:\KEIL\C51\LIB\C51L.LIB (?C?SIDIV)
  C:\KEIL\C51\LIB\C51L.LIB (?C?IILDX)
  C:\KEIL\C51\LIB\C51L.LIB (?C?ILDIX)
  C:\KEIL\C51\LIB\C51L.LIB (?C?ISTPTR)
  C:\KEIL\C51\LIB\C51L.LIB (?C?LMUL)
  C:\KEIL\C51\LIB\C51L.LIB (?C?ULDIV)
  C:\KEIL\C51\LIB\C51L.LIB (?C?SLDIV)
  C:\KEIL\C51\LIB\C51L.LIB (?C?LNOT)
  C:\KEIL\C51\LIB\C51L.LIB (?C?LNEG)
  C:\KEIL\C51\LIB\C51L.LIB (?C?SLCMP)
  C:\KEIL\C51\LIB\C51L.LIB (?C?ULCMP)
  C:\KEIL\C51\LIB\C51L.LIB (?C?ULSHR)
  C:\KEIL\C51\LIB\C51L.LIB (?C?LSHL)
  C:\KEIL\C51\LIB\C51L.LIB (?C?LLDPTR)
  C:\KEIL\C51\LIB\C51L.LIB (?C?LLDXDATA)
  C:\KEIL\C51\LIB\C51L.LIB (?C?LLDCODE)
  C:\KEIL\C51\LIB\C51L.LIB (?C?LLDCODE0)
  C:\KEIL\C51\LIB\C51L.LIB (?C?LSTXDATA)
  C:\KEIL\C51\LIB\C51L.LIB (?C?LSTKXDATA)
  C:\KEIL\C51\LIB\C51L.LIB (?C?OFFXADD)
  C:\KEIL\C51\LIB\C51L.LIB (?C?PLDIXDATA)
  C:\KEIL\C51\LIB\C51L.LIB (?C?PSTXDATA)
  C:\KEIL\C51\LIB\C51L.LIB (?C?PSTPTR)
  C:\KEIL\C51\LIB\C51L.LIB (?C?ICASE)
  C:\KEIL\C51\LIB\C51L.LIB (?C?LCASE)
  C:\KEIL\C51\LIB\C51L.LIB (?C?LIMUL)
  C:\KEIL\C51\LIB\C51L.LIB (ISSPACE)
  C:\KEIL\C51\LIB\C51L.LIB (?C?LLDIDATA)
  C:\KEIL\C51\LIB\C51L.LIB (?C?LLDPDATA)
  C:\KEIL\C51\LIB\C51L.LIB (?C?PSTIDATA)
  C:\KEIL\C51\LIB\C51L.LIB (?C?PSTPDATA)


LINK MAP OF MODULE:  DI03B_9811A_V10 (?C_STARTUP)


            TYPE    BASE      LENGTH    RELOCATION   SEGMENT NAME
            -----------------------------------------------------

            * * * * * * *   D A T A   M E M O R Y   * * * * * * *
            REG     0000H     0008H     ABSOLUTE     "REG BANK 0"
            DATA    0008H     0002H     UNIT         _DATA_GROUP_
                    000AH     0006H                  *** GAP ***
BL51 BANKED LINKER/LOCATER V6.22                                                      03/12/2019  13:46:20  PAGE 3


            REG     0010H     0008H     ABSOLUTE     "REG BANK 2"
                    0018H     0008H                  *** GAP ***
            BIT     0020H.0   0000H.5   UNIT         _BIT_GROUP_
            BIT     0020H.5   0000H.1   UNIT         ?BI?_SOFTADJUST_IB5_PROCESS?LNK_EMU_ADJ
                    0020H.6   0000H.2                *** GAP ***
            IDATA   0021H     0001H     UNIT         ?STACK

            * * * * * * *  X D A T A   M E M O R Y  * * * * * * *
            XDATA   0000H     0236H     UNIT         _XDATA_GROUP_
            XDATA   0236H     0102H     UNIT         ?XD?DRV_UART
            XDATA   0338H     009CH     UNIT         ?XD?_API_PWL_COVER_EVEN_CLASS_RECODE?API_EVENT
            XDATA   03D4H     008FH     UNIT         ?XD?API_DEMAND
            XDATA   0463H     0080H     UNIT         ?XD?API_BILL_RECORD
            XDATA   04E3H     007EH     UNIT         ?XD?API_ENERGY
            XDATA   0561H     004DH     UNIT         ?XD?API_USER_COMM
            XDATA   05AEH     0040H     UNIT         ?XD?LNK_EMU_ADJ
            XDATA   05EEH     003EH     UNIT         ?XD?API_LCD_DISPLAY
            XDATA   062CH     002EH     UNIT         ?XD?LIB_MYMATH
            XDATA   065AH     002BH     UNIT         ?XD?HARDWARE_ADJUSTDIV_SUB?LNK_EMU_ADJ
            XDATA   0685H     0026H     UNIT         ?XD?API_MEASURE
            XDATA   06ABH     001DH     UNIT         ?XD?PROC_SYSTEM_TOU
            XDATA   06C8H     001CH     UNIT         ?XD?LNK_GET_EMU_RACTIVE_CONST?LNK_EMU_HANDL
            XDATA   06E4H     0019H     UNIT         ?XD?API_LOADPROFILE
            XDATA   06FDH     0018H     UNIT         ?XD?PROC_DATA
            XDATA   0715H     0015H     UNIT         ?XD?_LNK_GET_EMU_ACTIVEPOWER?LNK_EMU_HANDL
            XDATA   072AH     0014H     UNIT         ?XD?API_HANDL_SETTLE_WHEN_POWERUP?API_BILL_RECORD
            XDATA   073EH     0013H     UNIT         ?XD?_GET_ORIGINAL_POWER?LNK_EMU_ADJ
            XDATA   0751H     0013H     UNIT         ?XD?_GET_ORIGINAL_IRMS?LNK_EMU_ADJ
            XDATA   0764H     0011H     UNIT         ?XD?_LNK_GET_EMU_RACTIVEPOWER?LNK_EMU_HANDL
            XDATA   0775H     000CH     UNIT         ?XD?API_EVENT
            XDATA   0781H     000BH     UNIT         ?XD?LINK_GET_DIS_OBIS_NUM_BUFF?API_LCD_DISPLAY
            XDATA   078CH     000AH     UNIT         ?XD?_SETRTCNORMAL?DRV_RTC
            XDATA   0796H     000AH     UNIT         ?XD?_LIB_ASC_BCD?LIB_MYMATH
            XDATA   07A0H     000AH     UNIT         ?XD?_LIB_BCD_ASC?LIB_MYMATH
            XDATA   07AAH     0009H     UNIT         ?XD?_SOFTADJUST_IB_PROCESS?LNK_EMU_ADJ
            XDATA   07B3H     0009H     UNIT         ?XD?_SOFTADJUST_IB5_PROCESS?LNK_EMU_ADJ
            XDATA   07BCH     0009H     UNIT         ?XD?_SOFTADJUST_PHASE_PROCESS?LNK_EMU_ADJ
            XDATA   07C5H     0007H     UNIT         ?XD?_SETMETERCFGI?DRV_EMU_HARD
            XDATA   07CCH     0007H     UNIT         ?XD?_LIB_GET_DATA_0XFF_ASCLEN?LIB_MYSPRING
            XDATA   07D3H     0006H     UNIT         ?XD?_SETMETERCFGACKPM800K?DRV_EMU_HARD
            XDATA   07D9H     0005H     UNIT         ?XD?PROC_SYSTEM_CHECK
            XDATA   07DEH     0005H     UNIT         ?XD?_LIB_ENOB_GET?LIB_MYMATH
            XDATA   07E3H     0005H     UNIT         ?XD?_LIB_MATH_GET_BCC_CHK?LIB_MYMATH
            XDATA   07E8H     0004H     UNIT         ?XD?API_TRIFF
            XDATA   07ECH     0003H     UNIT         ?XD?LNK_EMU_HANDL
            XDATA   07EFH     0003H     UNIT         ?XD?_LIB_BCD_INC?LIB_MYMATH
            XDATA   07F2H     0003H     UNIT         ?XD?_LIB_BCD_ARRY_ADD1?LIB_MYMATH
            XDATA   07F5H     0003H     UNIT         ?XD?_LIB_MVHALFBYTE_R?LIB_MYSPRING
            XDATA   07F8H     0003H     UNIT         ?XD?_LIB_MVHALFBYTE_L?LIB_MYSPRING
            XDATA   07FBH     0003H     UNIT         ?XD?API_RELAY
            XDATA   07FEH     0001H     UNIT         ?XD?MAIN
            XDATA   07FFH     0001H     UNIT         ?XD?API_ADJERR

            * * * * * * *   C O D E   M E M O R Y   * * * * * * *
            CODE    0000H     0003H     ABSOLUTE     
            CODE    0003H     0003H     ABSOLUTE     
            CODE    0006H     0005H     UNIT         ?PR?START_TIMER?DRV_TMR
BL51 BANKED LINKER/LOCATER V6.22                                                      03/12/2019  13:46:20  PAGE 4


            CODE    000BH     0003H     ABSOLUTE     
            CODE    000EH     0005H     UNIT         ?PR?START_TIMER1?DRV_TMR
            CODE    0013H     0003H     ABSOLUTE     
            CODE    0016H     0005H     UNIT         ?PR?STOP_TIMER?DRV_TMR
            CODE    001BH     0003H     ABSOLUTE     
            CODE    001EH     000DH     UNIT         ?PR?API_EVEN_DETECT_L2REVERSE?API_EVENT
            CODE    002BH     0003H     ABSOLUTE     
            CODE    002EH     000DH     UNIT         ?PR?API_EVEN_DETECT_L1REVERSE?API_EVENT
            CODE    003BH     0003H     ABSOLUTE     
            CODE    003EH     0005H     UNIT         ?PR?_GET_ERROR_ANSWER?IEC62056_21
            CODE    0043H     0003H     ABSOLUTE     
            CODE    0046H     0005H     UNIT         ?PR?_GET_ACK_ANSWER?IEC62056_21
            CODE    004BH     0003H     ABSOLUTE     
            CODE    004EH     0004H     UNIT         ?PR?INTERRUPT_INT0?PROC_SYSTEM_INTERRUPT
            CODE    0052H     0001H     UNIT         ?PR?PROC_CHECK_SYSTEM_PRE_CYCLE?PROC_SYSTEM_CHECK
            CODE    0053H     0003H     ABSOLUTE     
            CODE    0056H     0358H     UNIT         ?PR?CAL_TEMPERATURE_DATA?DRV_ADC
            CODE    03AEH     0052H     UNIT         ?PR?_API_CHG_LCDDISPLAY_ADJ_ITEM?API_LCD_DISPLAY
            CODE    0400H     0001H     ABSOLUTE     
            CODE    0401H     01FFH     ABSOLUTE     
            CODE    0600H     0D11H     UNIT         ?PR?_IEC_CMD_READ_DEAL?API_USER_COMM
            CODE    1311H     0A0CH     UNIT         ?C?LIB_CODE
            CODE    1D1DH     08E2H     UNIT         ?PR?_IEC_CMD_WRITE_DEAL?API_USER_COMM
            CODE    25FFH     07F3H     UNIT         ?CO?API_USER_COMM
            CODE    2DF2H     07DDH     UNIT         ?PR?HARDWARE_ADJUSTDIV_SUB?LNK_EMU_ADJ
            CODE    35CFH     0609H     UNIT         ?PR?_LNK_SAVE_EVEN_CLASS1_RECODE?API_EVENT
            CODE    3BD8H     05BEH     UNIT         ?PR?LNK_GET_EMU_RACTIVE_CONST?LNK_EMU_HANDL
            CODE    4196H     0458H     UNIT         ?PR?_PROCESS_IEC62056_21?API_USER_COMM
            CODE    45EEH     0454H     UNIT         ?PR?LINK_GET_DIS_DATA_NUM_BUFF?API_LCD_DISPLAY
            CODE    4A42H     0418H     UNIT         ?PR?_API_PWL_COVER_EVEN_CLASS_RECODE?API_EVENT
            CODE    4E5AH     03E7H     UNIT         ?PR?_API_GET_ENERGY_LCD?API_LCD_DISPLAY
            CODE    5241H     0321H     UNIT         ?PR?LINK_GET_DIS_OBIS_NUM_BUFF?API_LCD_DISPLAY
            CODE    5562H     02DCH     UNIT         ?PR?_MEASURE_ELECTRIC_ERR_GAIN?LNK_EMU_ADJ
            CODE    583EH     0283H     UNIT         ?PR?_LOAD_REC?API_LOADPROFILE
            CODE    5AC1H     0279H     UNIT         ?PR?_INIT_EMU?LNK_EMU_HANDL
            CODE    5D3AH     026EH     UNIT         ?PR?_CALIBRATION_CURRENT?LNK_EMU_ADJ
            CODE    5FA8H     0269H     UNIT         ?PR?API_ACCUM_CURRENT_ENERGY_DATA_PRE_SECOND?API_ENERGY
            CODE    6211H     025EH     UNIT         ?PR?_LPREC_READ_BLOCK?API_LOADPROFILE
            CODE    646FH     0256H     UNIT         ?PR?API_UPDATA_MD_VAR_SLID_PER_MINUTE?API_DEMAND
            CODE    66C5H     0237H     UNIT         ?PR?CHECK_EMU_ADJPARAM?LNK_EMU_ADJ
            CODE    68FCH     0212H     UNIT         ?PR?API_INIT_CURRENT_ENERGY_DATA_RAM?API_ENERGY
            CODE    6B0EH     01FCH     UNIT         ?PR?LINK_GET_DIS_DRV_BUFF?API_LCD_DISPLAY
            CODE    6D0AH     01F5H     UNIT         ?PR?_LNK_GET_EMU_ACTIVEPOWER?LNK_EMU_HANDL
            CODE    6EFFH     01E1H     UNIT         ?PR?API_FREEZE_ENERGY_RAM_PRE_DAY?API_BILL_RECORD
            CODE    70E0H     01D8H     UNIT         ?PR?MEM_DB_CHECK?PROC_EXMEM
            CODE    72B8H     01D8H     UNIT         ?PR?_API_GET_BILL_RECORD_ADDR?API_BILL_RECORD
            CODE    7490H     01D5H     UNIT         ?PR?_SOFTADJUST_PHASE_PROCESS?LNK_EMU_ADJ
            CODE    7665H     01C2H     UNIT         ?PR?PROC_INITIALIZE_INRAM?PROC_SYSTEM_INITIALIZE
            CODE    7827H     01B5H     UNIT         ?PR?_API_CMP_SAVE_MD_DATA?API_DEMAND
            CODE    79DCH     01B3H     UNIT         ?PR?_TX_UART_FRIST?DRV_UART
            CODE    7B8FH     01AFH     UNIT         ?PR?_LNK_GET_EMU_RACTIVEPOWER?LNK_EMU_HANDL
            CODE    7D3EH     01A7H     UNIT         ?PR?_CALIBRATION_SMALL_SIGNAL?LNK_EMU_ADJ
            CODE    7EE5H     01A7H     UNIT         ?PR?LNK_CAL_EMU_CONSTSUM_PER_SECOND?LNK_EMU_HANDL
            CODE    808CH     01A2H     UNIT         ?PR?_API_GET_TRIFF_NO?API_TRIFF
            CODE    822EH     019DH     UNIT         ?PR?_CALCULATESCHZ?LNK_EMU_ADJ
            CODE    83CBH     0193H     UNIT         ?PR?_API_WRITE_BILL_DATA?API_BILL_RECORD
            CODE    855EH     018EH     UNIT         ?PR?API_HANDL_SETTLE_WHEN_POWERUP?API_BILL_RECORD
BL51 BANKED LINKER/LOCATER V6.22                                                      03/12/2019  13:46:20  PAGE 5


            CODE    86ECH     017DH     UNIT         ?PR?_SETRTCNORMAL?DRV_RTC
            CODE    8869H     017BH     UNIT         ?PR?_GET_IEC_COMM_VAR?API_USER_COMM
            CODE    89E4H     016CH     UNIT         ?PR?PROC_JUDGE_POWER_DOWN_PROCESS?PROC_SYSTEM_INITIALIZE
            CODE    8B50H     0169H     UNIT         ?PR?_GET_ORIGINAL_POWER?LNK_EMU_ADJ
            CODE    8CB9H     0169H     UNIT         ?PR?_GET_ORIGINAL_IRMS?LNK_EMU_ADJ
            CODE    8E22H     0168H     UNIT         ?PR?API_MEASURE_DEAL_PRE_SECOND?API_MEASURE
            CODE    8F8AH     0167H     UNIT         ?PR?_LNK_GET_EMU_VOLTAGE?LNK_EMU_HANDL
            CODE    90F1H     0163H     UNIT         ?PR?_API_LCDDISPLAY_ADJ_ITEM?API_LCD_DISPLAY
            CODE    9254H     014BH     UNIT         ?PR?_READMETERPARAACK?DRV_EMU_HARD
            CODE    939FH     0147H     UNIT         ?PR?PROC_HANDL_TOU_1S?PROC_SYSTEM_TOU
            CODE    94E6H     0142H     UNIT         ?PR?INTERRUPT_EXINT2?PROC_SYSTEM_INTERRUPT
            CODE    9628H     0141H     UNIT         ?C_INITSEG
            CODE    9769H     012FH     UNIT         ?PR?API_GET_SEASONTAB_NO?API_TRIFF
            CODE    9898H     012FH     UNIT         ?PR?_IEC_COMM_COMMAND_CMD_JUDGE?IEC62056_21
            CODE    99C7H     012DH     UNIT         ?PR?_IEC_COMM_REQUEST_CMD_JUDGE?IEC62056_21
            CODE    9AF4H     012CH     UNIT         ?PR?_MEM_DB_WRITE?PROC_EXMEM
            CODE    9C20H     012BH     UNIT         ?PR?_LNK_GET_EMU_CURRENT?LNK_EMU_HANDL
            CODE    9D4BH     0129H     UNIT         ?PR?API_CLR_EVEN_BY_COMM?API_EVENT
            CODE    9E74H     0124H     UNIT         ?PR?_CALIBRATION_ANGULAR?LNK_EMU_ADJ
            CODE    9F98H     0111H     UNIT         ?PR?_SOFTADJUST_IB_PROCESS?LNK_EMU_ADJ
            CODE    A0A9H     0110H     UNIT         ?PR?API_CLR_BILL_DATA?API_BILL_RECORD
            CODE    A1B9H     0107H     UNIT         ?PR?_API_HANDL_COMM_PRE_10MS?API_USER_COMM
            CODE    A2C0H     0103H     UNIT         ?PR?_CALCULATEAC?LNK_EMU_ADJ
            CODE    A3C3H     0101H     UNIT         ?PR?_GET_DEFAULT_MEM_DATA?PROC_EXMEM
            CODE    A4C4H     00FEH     UNIT         ?PR?_GETTOTALTIME?API_EVENT
            CODE    A5C2H     00FDH     UNIT         ?PR?TIMEEVENTPROC?LNK_EMU_ADJ
            CODE    A6BFH     00F7H     UNIT         ?PR?_LINK_GET_DISTAB_VAR?API_LCD_DISPLAY
            CODE    A7B6H     00F5H     UNIT         ?PR?PROC_SLEEP_WHEN_RESET?PROC_SYSTEM_INITIALIZE
            CODE    A8ABH     00F2H     UNIT         ?PR?_CALCULATESC?LNK_EMU_ADJ
            CODE    A99DH     00F2H     UNIT         ?PR?_GET_UART_RX_BUFF?DRV_UART
            CODE    AA8FH     00F0H     UNIT         ?PR?_LIB_CHECK_RTC_DATA_FORM?LIB_MYMATH
            CODE    AB7FH     00F0H     UNIT         ?PR?_IEC_CMD_PASSWORD_DEAL?API_USER_COMM
            CODE    AC6FH     00F0H     UNIT         ?PR?_FLOOR?FLOOR
            CODE    AD5FH     00EFH     UNIT         ?PR?_MEM_TO_MEM?PROC_EXMEM
            CODE    AE4EH     00E6H     UNIT         ?PR??C?ATOF??C?ATOF
            CODE    AF34H     00E5H     UNIT         ?PR?_SET_MCUCLOCK?DRV_CORE
            CODE    B019H     00E0H     UNIT         ?PR?_WRITE_LCD?DRV_LCD
            CODE    B0F9H     00DEH     UNIT         ?PR?_HDL_UART_10MS_RUN?DRV_UART
            CODE    B1D7H     00DCH     UNIT         ?PR?_LNK_GET_EMU_FREQ?LNK_EMU_HANDL
            CODE    B2B3H     00D9H     UNIT         ?PR?_LNK_TX_COMM_READY?API_USER_COMM
            CODE    B38CH     00D7H     UNIT         ?PR?API_CLR_CURRENT_MD_DATA?API_DEMAND
            CODE    B463H     00D6H     UNIT         ?PR?API_UPDATED_LCDDISPLAYITEM_PER_SECOND?API_LCD_DISPLAY
            CODE    B539H     00D4H     UNIT         ?PR?_SOFTADJUST_IB5_PROCESS?LNK_EMU_ADJ
            CODE    B60DH     00D3H     UNIT         ?PR?API_UPDATED_LCDDISPLAYPIXEL_PER_SECOND?API_LCD_DISPLAY
            CODE    B6E0H     00CBH     UNIT         ?PR?_GET_IEC_COMM_OPERAND_ANSWER?IEC62056_21
            CODE    B7ABH     00C9H     UNIT         ?PR?_LIB_BCD4_LONG?LIB_MYMATH
            CODE    B874H     00C7H     UNIT         ?PR?_GET_MEM_CK_DATA?PROC_EXMEM
            CODE    B93BH     00C6H     UNIT         ?PR?LINK_GET_DIS_CHAR_BUFF?API_LCD_DISPLAY
            CODE    BA01H     00C4H     UNIT         ?PR?_CALIBRATION_POWER?LNK_EMU_ADJ
            CODE    BAC5H     00C3H     UNIT         ?PR?_API_DEAL_EVEN_CLASS_RECODE?API_EVENT
            CODE    BB88H     00C0H     UNIT         ?PR?_MEM_DB_CLR?PROC_EXMEM
            CODE    BC48H     00B9H     UNIT         ?CO?LNK_EMU_ADJ
            CODE    BD01H     00B7H     UNIT         ?PR?_LIB_LONG_BCD4?LIB_MYMATH
            CODE    BDB8H     00B4H     UNIT         ?PR?_READ_EEPROM_PAGE_SUB?DRV_E2P_24CXXX
            CODE    BE6CH     00B0H     UNIT         ?PR?_SET_EMUCLOCK?DRV_CORE
            CODE    BF1CH     00AFH     UNIT         ?PR?MAIN?MAIN
            CODE    BFCBH     00AFH     UNIT         ?PR?PROC_CHECK_PROKEY_PRE_SEC?PROC_SYSTEM_CHECK
BL51 BANKED LINKER/LOCATER V6.22                                                      03/12/2019  13:46:20  PAGE 6


            CODE    C07AH     00AFH     UNIT         ?PR?_SETMETERCFGI?DRV_EMU_HARD
            CODE    C129H     00AFH     UNIT         ?PR?API_CHECK_CURRENT_ENERGY_DATA?API_ENERGY
            CODE    C1D8H     00ADH     UNIT         ?PR?_LIB_REV_COPY_ARRY?LIB_MYSPRING
            CODE    C285H     00ACH     UNIT         ?PR?SQRT?SQRT
            CODE    C331H     00ABH     UNIT         ?PR?_WRITE_EEPROM_PAGE_SUB?DRV_E2P_24CXXX
            CODE    C3DCH     00ABH     UNIT         ?PR?_LPREC_READ_1?API_LOADPROFILE
            CODE    C487H     00A8H     UNIT         ?PR?_INIT_UART_SOFT?DRV_UART
            CODE    C52FH     00A0H     UNIT         ?PR?_READ_EEPROM?DRV_E2P_24CXXX
            CODE    C5CFH     00A0H     UNIT         ?PR?_API_GET_DAYTAB_NO?API_TRIFF
            CODE    C66FH     009EH     UNIT         ?PR?_MEM_FILL?PROC_EXMEM
            CODE    C70DH     009EH     UNIT         ?PR?_SETMETERCFGACKPM800K?DRV_EMU_HARD
            CODE    C7ABH     009EH     UNIT         ?PR?_SETMETERCFGACK?DRV_EMU_HARD
            CODE    C849H     009DH     UNIT         ?PR?_WRITE_EEPROM?DRV_E2P_24CXXX
            CODE    C8E6H     009DH     UNIT         ?PR?_E2P_TXBYTE_I2C?DRV_E2P_I2CSOFT
            CODE    C983H     009BH     UNIT         ?PR?_MEM_WRITE?PROC_EXMEM
            CODE    CA1EH     009AH     UNIT         ?PR?API_HANDL_SETTLE_PER_MINUTE?API_BILL_RECORD
            CODE    CAB8H     009AH     UNIT         ?CO?API_TRIFF
            CODE    CB52H     0097H     UNIT         ?PR?PROC_GET_CLOCK?PROC_SYSTEM_TOU
            CODE    CBE9H     0097H     UNIT         ?PR?_LIB_GETGMDAY?LIB_MYMATH
            CODE    CC80H     0096H     UNIT         ?PR?DRV_RELAY_POWERUP_CHECK?API_RELAY
            CODE    CD16H     0094H     UNIT         ?PR?_MEM_READ?PROC_EXMEM
            CODE    CDAAH     0094H     UNIT         ?PR?LOADPRO_REC?API_LOADPROFILE
            CODE    CE3EH     0091H     UNIT         ?PR?_GET_MEM_TABLE_INDEX?PROC_EXMEM
            CODE    CECFH     008EH     UNIT         ?PR?_E2P_RXBYTE_I2C?DRV_E2P_I2CSOFT
            CODE    CF5DH     008DH     UNIT         ?PR?_WRITE_EEPROM_PAGE?DRV_E2P_24CXXX
            CODE    CFEAH     008CH     UNIT         ?PR?INIT_GPIO_RUN?DRV_GPIO
            CODE    D076H     008BH     UNIT         ?PR?API_HANDL_BUTTON_PRE_10MS?PROC_SYSTEM_TOU
            CODE    D101H     0088H     UNIT         ?PR?_GET_IEC_COMM_REQUEST_CMD_ANSWER?IEC62056_21
            CODE    D189H     0086H     UNIT         ?C_C51STARTUP
            CODE    D20FH     0085H     UNIT         ?PR?API_FREEZE_ENERGY_PRE_DAY?API_BILL_RECORD
            CODE    D294H     007BH     UNIT         ?PR?_READ_EEPROM_PAGE?DRV_E2P_24CXXX
            CODE    D30FH     007AH     UNIT         ?PR?PROC_INITIALIZE_SYSTERM_NORMAL_MODE?PROC_SYSTEM_INITIALIZE
            CODE    D389H     0079H     UNIT         ?PR?_LIB_CMP_TWOARRY?LIB_MYSPRING
            CODE    D402H     0079H     UNIT         ?PR?_LIB_MVHALFBYTE_L?LIB_MYSPRING
            CODE    D47BH     0078H     UNIT         ?PR?_LIB_BCD_ASC?LIB_MYMATH
            CODE    D4F3H     0077H     UNIT         ?PR?_LIB_WORD_BCD2?LIB_MYMATH
            CODE    D56AH     0076H     UNIT         ?PR?SET_SLEEP_OUT?DRV_CORE
            CODE    D5E0H     0076H     UNIT         ?PR?_SET_UART2_BADU?DRV_UART
            CODE    D656H     0076H     UNIT         ?PR?_SET_UART4_BADU?DRV_UART
            CODE    D6CCH     0076H     UNIT         ?PR?_LIB_GET_DATA_0XFF_ASCLEN?LIB_MYSPRING
            CODE    D742H     0074H     UNIT         ?PR?API_UPDATA_MD_VAR_MIN_PER_SECOND?API_DEMAND
            CODE    D7B6H     0074H     UNIT         ?PR?API_CLR_FREEZE_ENERGY?API_DEMAND
            CODE    D82AH     0073H     UNIT         ?PR?PROC_SYS_DATA_INIT?PROC_DATA
            CODE    D89DH     0071H     UNIT         ?PR?_LIB_ASC_BCDA?LIB_MYMATH
            CODE    D90EH     0071H     UNIT         ?PR?_LIB_BCD_ASCA?LIB_MYMATH
            CODE    D97FH     006EH     UNIT         ?PR?_LIB_ASC_BCD?LIB_MYMATH
            CODE    D9EDH     006DH     UNIT         ?PR?INIT_LCD?DRV_LCD
            CODE    DA5AH     006CH     UNIT         ?CO?PROC_EXMEM
            CODE    DAC6H     006CH     UNIT         ?PR?INIT_LOADPRO_PARAM?API_LOADPROFILE
            CODE    DB32H     006CH     UNIT         ?PR?_API_HANDL_COMM_FRAME_ERROR?API_USER_COMM
            CODE    DB9EH     006AH     UNIT         ?PR?API_CLR_CURRENT_ENERGY_DATA?API_ENERGY
            CODE    DC08H     0069H     UNIT         ?PR?_SET_RTCTIME?DRV_RTC
            CODE    DC71H     0069H     UNIT         ?PR?API_EVEN_EE_ERR?API_EVENT
            CODE    DCDAH     0068H     UNIT         ?PR?LNK_ADD_FAC_ENERGY_PLUSE?API_ENERGY
            CODE    DD42H     0066H     UNIT         ?PR?INTERRUPT_EXINT3?PROC_SYSTEM_INTERRUPT
            CODE    DDA8H     0066H     UNIT         ?CO?API_LCD_DISPLAY
            CODE    DE0EH     0064H     UNIT         ?PR?_IEC_COMM_ACKNOWLEDGEMENT_CMD_JUDGE?IEC62056_21
BL51 BANKED LINKER/LOCATER V6.22                                                      03/12/2019  13:46:20  PAGE 7


            CODE    DE72H     0061H     UNIT         ?CO?PROC_DATA
            CODE    DED3H     005FH     UNIT         ?PR?_GET_RTCTIME?DRV_RTC
            CODE    DF32H     005DH     UNIT         ?PR?_LIB_COPY_STR_TWOARRY?LIB_MYSPRING
            CODE    DF8FH     005DH     UNIT         ?PR?_LIB_MVHALFBYTE_R?LIB_MYSPRING
            CODE    DFECH     005CH     UNIT         ?PR?API_UPDATE_TRIFFNO_PRE_MINUTE?API_TRIFF
            CODE    E048H     005AH     UNIT         ?PR?INTERRUPT_TIMER0?PROC_SYSTEM_INTERRUPT
            CODE    E0A2H     0057H     UNIT         ?PR?INIT_GPIO_SLEEP?DRV_GPIO
            CODE    E0F9H     0055H     UNIT         ?PR?PROC_CHECK_COVER_PRE_SEC?PROC_SYSTEM_CHECK
            CODE    E14EH     0055H     UNIT         ?PR?SET_MCUSLEEP?DRV_CORE
            CODE    E1A3H     0050H     UNIT         ?PR?PROC_HANDLE_WHEN_SYSTERM_RESET?PROC_SYSTEM_INITIALIZE
            CODE    E1F3H     004FH     UNIT         ?PR?UART4_TRANSMIT?DRV_UART
            CODE    E242H     004DH     UNIT         ?PR?PROC_DISPLAY_POWER_DOWN_PROCESS?PROC_SYSTEM_INITIALIZE
            CODE    E28FH     004CH     UNIT         ?PR?_LIB_BCD_INC?LIB_MYMATH
            CODE    E2DBH     004CH     UNIT         ?PR?_LIB_GETGMMIN?LIB_MYMATH
            CODE    E327H     004CH     UNIT         ?PR?_LIB_GETGMSEC?LIB_MYMATH
            CODE    E373H     004BH     UNIT         ?PR?LNK_UPDATA_MD_VAR_POWER_PER_SECOND?API_DEMAND
            CODE    E3BEH     004AH     UNIT         ?PR?_LIB_GETGMHOUR?LIB_MYMATH
            CODE    E408H     0049H     UNIT         ?PR?EN_UART2_RX?DRV_UART
            CODE    E451H     0049H     UNIT         ?PR?ATOF?ATOF
            CODE    E49AH     0047H     UNIT         ?PR?_DRV_RELAY_COMM_CMD_OPERATING?API_RELAY
            CODE    E4E1H     0047H     UNIT         ?PR?API_GET_NEXT_DIS_ITEM?API_LCD_DISPLAY
            CODE    E528H     0044H     UNIT         ?C?LDIV
            CODE    E56CH     0043H     UNIT         ?PR?EN_UART4_RX?DRV_UART
            CODE    E5AFH     0043H     UNIT         ?PR?_LIB_BCD_ARRY_ADD1?LIB_MYMATH
            CODE    E5F2H     0042H     UNIT         ?PR?LOADPRORST?API_LOADPROFILE
            CODE    E634H     0040H     UNIT         ?CO?DRV_ADC
            CODE    E674H     0040H     UNIT         ?PR?RF_COMM_DEAL?API_USER_COMM
            CODE    E6B4H     003EH     UNIT         ?PR?GET_EMU_ADJPARAM?LNK_EMU_ADJ
            CODE    E6F2H     003EH     UNIT         ?PR?API_HANDL_DIS_KEY?API_LCD_DISPLAY
            CODE    E730H     003DH     UNIT         ?PR?_GET_METER_ID_ASCLEN?API_USER_COMM
            CODE    E76DH     003CH     UNIT         ?PR?_ENABLE_M_ADC?DRV_ADC
            CODE    E7A9H     003CH     UNIT         ?PR?SAMLPE_BATADC?DRV_ADC
            CODE    E7E5H     003BH     UNIT         ?PR?E2P_STOP_I2C?DRV_E2P_I2CSOFT
            CODE    E820H     003BH     UNIT         ?PR?_SETEXTRTC?DRV_RTC
            CODE    E85BH     003BH     UNIT         ?PR?_LIB_ATOB?LIB_MYMATH
            CODE    E896H     003BH     UNIT         ?CO?API_EVENT
            CODE    E8D1H     003AH     UNIT         ?PR?_LIB_FCPYTMEM?LIB_MYSPRING
            CODE    E90BH     003AH     UNIT         ?PR?API_INIT_MD_DATA_RAM?API_DEMAND
            CODE    E945H     0039H     UNIT         ?PR?SAVE_EMU_ADJPARAM?LNK_EMU_ADJ
            CODE    E97EH     0038H     UNIT         ?PR?_LIB_ENOB_GET?LIB_MYMATH
            CODE    E9B6H     0038H     UNIT         ?PR?_API_CHECK_DEMAND_PARA?API_DEMAND
            CODE    E9EEH     0038H     UNIT         ?PR?_GET_BCC_CHK?IEC62056_21
            CODE    EA26H     0037H     UNIT         ?PR?E2P_START_I2C?DRV_E2P_I2CSOFT
            CODE    EA5DH     0036H     UNIT         ?PR?API_MEASURE_VBAT_PRE_MIN?API_MEASURE
            CODE    EA93H     0034H     UNIT         ?PR?API_INIT_DISPLAY?API_LCD_DISPLAY
            CODE    EAC7H     0032H     UNIT         ?PR?_LIB_MATH_GET_BCC_CHK?LIB_MYMATH
            CODE    EAF9H     0031H     UNIT         ?PR?PROC_INITIALIZE_SYSTERM_RESET?PROC_SYSTEM_INITIALIZE
            CODE    EB2AH     0031H     UNIT         ?PR?SAMLPE_TEMPERATUREADC?DRV_ADC
            CODE    EB5BH     0031H     UNIT         ?PR?_LIB_GET_CSCK_INT16U_NUM?LIB_MYMATH
            CODE    EB8CH     002EH     UNIT         ?PR?API_EVEN_DETECT_SEC?API_EVENT
            CODE    EBBAH     002DH     UNIT         ?PR?_IEC_CMD_BREAK_DEAL?API_USER_COMM
            CODE    EBE7H     002CH     UNIT         ?PR?INTERRUPT_EXINT4?PROC_SYSTEM_INTERRUPT
            CODE    EC13H     002CH     UNIT         ?PR?DISABLE_M_ADC?DRV_ADC
            CODE    EC3FH     002BH     UNIT         ?PR?_LIB_BTOA?LIB_MYMATH
            CODE    EC6AH     002BH     UNIT         ?PR?_LIB_SET_STRING?LIB_MYSPRING
            CODE    EC95H     0029H     UNIT         ?PR?_LIB_SYSTEMDELAY?LIB_MYTIMER
            CODE    ECBEH     0028H     UNIT         ?PR?API_MEASURE_RAM_INIT?API_MEASURE
BL51 BANKED LINKER/LOCATER V6.22                                                      03/12/2019  13:46:20  PAGE 8


            CODE    ECE6H     0028H     UNIT         ?PR?API_HANDL_DIS_SLEEP?API_LCD_DISPLAY
            CODE    ED0EH     0027H     UNIT         ?PR?CLOSE_CF?DRV_EMU_HARD
            CODE    ED35H     0027H     UNIT         ?PR?_FULL_SEG?DRV_LCD
            CODE    ED5CH     0027H     UNIT         ?PR?_LIB_GET_CSCK_INT8U_NUM?LIB_MYMATH
            CODE    ED83H     0027H     UNIT         ?PR?_LIB_BCDCHK?LIB_MYMATH
            CODE    EDAAH     0025H     UNIT         ?PR?PROC_HANDL_TOU_10MS?PROC_SYSTEM_TOU
            CODE    EDCFH     0025H     UNIT         ?PR?_LIB_BCD2_WORD?LIB_MYMATH
            CODE    EDF4H     0025H     UNIT         ?PR?_JUDAGE_MONTH?API_BILL_RECORD
            CODE    EE19H     0022H     UNIT         ?PR?_LIB_DELAY_SEC?LIB_MYTIMER
            CODE    EE3BH     0022H     UNIT         ?PR?LINK_GET_DIS_REALCHAR_BUFF?API_LCD_DISPLAY
            CODE    EE5DH     0021H     UNIT         ?PR?_JUDAGE_YEAR?API_BILL_RECORD
            CODE    EE7EH     0021H     UNIT         ?PR?API_EVEN_DETECT_NOL2?API_EVENT
            CODE    EE9FH     0021H     UNIT         ?PR?API_EVEN_DETECT_NOL1?API_EVENT
            CODE    EEC0H     001EH     UNIT         ?PR?E2P_IIC_INITAIL?DRV_E2P_I2CSOFT
            CODE    EEDEH     001EH     UNIT         ?PR?_LIB_CLR_STRING_U16?LIB_MYSPRING
            CODE    EEFCH     001CH     UNIT         ?PR?CLR_ALL_LCD?DRV_LCD
            CODE    EF18H     001CH     UNIT         ?PR?_LIB_BYTE_BCD?LIB_MYMATH
            CODE    EF34H     001BH     UNIT         ?PR?CLR_RTC_ADJPARAM?DRV_RTC
            CODE    EF4FH     001BH     UNIT         ?PR?_LIB_BCD_BYTE?LIB_MYMATH
            CODE    EF6AH     001BH     UNIT         ?PR?_LIB_CLR_STRING?LIB_MYSPRING
            CODE    EF85H     001AH     UNIT         ?PR?JUDGE_ERR_ADJ_KEY?DRV_KEY_IO
            CODE    EF9FH     001AH     UNIT         ?PR?JUDGE_PG_DN_KEY?DRV_KEY_IO
            CODE    EFB9H     001AH     UNIT         ?PR?JUDGE_MAGN_CHK_KEY?DRV_KEY_IO
            CODE    EFD3H     001AH     UNIT         ?PR?API_MEASURE_TEMPERATURE_PRE_MIN?API_MEASURE
            CODE    EFEDH     0019H     UNIT         ?PR?_LIB_DELAY_MS?LIB_MYTIMER
            CODE    F006H     0018H     UNIT         ?PR?CHECKPOWERUP?PROC_SYSTEM_CHECK
            CODE    F01EH     0018H     UNIT         ?PR?JUDGE_MD_CLEAR_KEY?DRV_KEY_IO
            CODE    F036H     0018H     UNIT         ?PR?JUDGE_ERR_COVER_KEY?DRV_KEY_IO
            CODE    F04EH     0018H     UNIT         ?PR?INIT_TIMER?DRV_TMR
            CODE    F066H     0017H     UNIT         ?PR?INTERRUPT_UART1?PROC_SYSTEM_INTERRUPT
            CODE    F07DH     0016H     UNIT         ?PR?EN_UART2_TX?DRV_UART
            CODE    F093H     0016H     UNIT         ?PR?EN_UART4_TX?DRV_UART
            CODE    F0A9H     0016H     UNIT         ?PR?_LIB_CHECK_BITNUM?LIB_MYMATH
            CODE    F0BFH     0014H     UNIT         ?PR?PROC_INIT_CHECK_VAR?PROC_SYSTEM_CHECK
            CODE    F0D3H     0014H     UNIT         ?PR?OPENCF?DRV_EMU_HARD
            CODE    F0E7H     0014H     UNIT         ?PR?_ISSPACE?ISSPACE
            CODE    F0FBH     0013H     UNIT         ?PR?SYS_ERR?PROC_SYSTEM_INITIALIZE
            CODE    F10EH     0013H     UNIT         ?PR?OPEN_SECOUT?DRV_RTC
            CODE    F121H     000EH     UNIT         ?PR?LCD_ON?DRV_LCD
            CODE    F12FH     000DH     UNIT         ?PR?API_EVEN_DETECT_LOWBATTERY?API_EVENT
            CODE    F13CH     000DH     UNIT         ?PR?SECURITYCK?API_USER_COMM
            CODE    F149H     000BH     UNIT         ?PR?INIT_RTC?DRV_RTC
            CODE    F154H     000BH     UNIT         ?PR?_LIB_DELAY_2US?LIB_MYTIMER
            CODE    F15FH     000AH     UNIT         ?PR?INITLIZE_AUTO_CLRMETER_VAR?PROC_SYSTEM_TOU
            CODE    F169H     000AH     UNIT         ?PR?_LIB_DELAY_NOP?LIB_MYTIMER
            CODE    F173H     0008H     UNIT         ?PR?DIS_UART2_RX?DRV_UART
            CODE    F17BH     0008H     UNIT         ?PR?DIS_UART4_RX?DRV_UART
            CODE    F183H     0008H     UNIT         ?CO?API_BILL_RECORD
            CODE    F18BH     0006H     UNIT         ?PR?_INIT_UART2_HARD?DRV_UART
            CODE    F191H     0006H     UNIT         ?PR?_INIT_UART4_HARD?DRV_UART
            CODE    F197H     0004H     UNIT         ?PR?INTERRUPT_INT1?PROC_SYSTEM_INTERRUPT
            CODE    F19BH     0004H     UNIT         ?PR?INTERRUPT_TIMER1?PROC_SYSTEM_INTERRUPT
            CODE    F19FH     0004H     UNIT         ?PR?INTERRUPT_TIMER2?PROC_SYSTEM_INTERRUPT
            CODE    F1A3H     0003H     UNIT         ?PR?PROC_INIT_TOU_VAR?PROC_SYSTEM_TOU
            CODE    F1A6H     0003H     UNIT         ?PR?INIT_EMU_RAM?LNK_EMU_HANDL
            CODE    F1A9H     0003H     UNIT         ?PR?LCD_OFF?DRV_LCD
            CODE    F1ACH     0003H     UNIT         ?PR?LNK_ADD_RAC_ENERGY_PLUSE?API_ENERGY
BL51 BANKED LINKER/LOCATER V6.22                                                      03/12/2019  13:46:20  PAGE 9


            CODE    F1AFH     0003H     UNIT         ?PR?READLPRUNPA?API_LOADPROFILE
            CODE    F1B2H     0002H     UNIT         ?PR?API_EVEN_INT?API_EVENT
            CODE    F1B4H     0001H     UNIT         ?PR?PROC_AUTO_CLRMETER_PRE_SEC?PROC_SYSTEM_TOU
            CODE    F1B5H     0001H     UNIT         ?PR?CLOSE_EMUPWR?DRV_EMU_HARD
            CODE    F1B6H     0001H     UNIT         ?PR?HANDL_RTC_ADJ_PER_MINU?DRV_RTC
            CODE    F1B7H     0001H     UNIT         ?PR?DRV_RELAY_RUN_CHECK?API_RELAY
            CODE    F1B8H     0001H     UNIT         ?PR?API_UPDATED_LED_PER_SECOND?API_LCD_DISPLAY



OVERLAY MAP OF MODULE:   DI03B_9811A_V10 (?C_STARTUP)


SEGMENT                                             BIT_GROUP          DATA_GROUP          XDATA_GROUP
  +--> CALLED SEGMENT                            START    LENGTH     START    LENGTH     START    LENGTH
--------------------------------------------------------------------------------------------------------
?C_C51STARTUP                                    -----    -----      -----    -----      -----    -----
  +--> ?PR?MAIN?MAIN
  +--> ?C_INITSEG

?PR?MAIN?MAIN                                    -----    -----      -----    -----      -----    -----
  +--> ?PR?PROC_INITIALIZE_SYSTERM_RESET?PRO...
  +--> ?PR?CHECKPOWERUP?PROC_SYSTEM_CHECK
  +--> ?PR?PROC_HANDL_TOU_10MS?PROC_SYSTEM_TOU
  +--> ?PR?PROC_JUDGE_POWER_DOWN_PROCESS?PRO...
  +--> ?PR?PROC_HANDL_TOU_1S?PROC_SYSTEM_TOU
  +--> ?PR?API_UPDATED_LCDDISPLAYITEM_PER_SE...
  +--> ?PR?API_CLR_CURRENT_MD_DATA?API_DEMAND
  +--> ?PR?_API_DEAL_EVEN_CLASS_RECODE?API_E...
  +--> ?PR?_FULL_SEG?DRV_LCD

?PR?PROC_INITIALIZE_SYSTERM_RESET?PRO...         -----    -----      -----    -----      -----    -----
  +--> ?PR?PROC_HANDLE_WHEN_SYSTERM_RESET?PR...
  +--> ?PR?CHECKPOWERUP?PROC_SYSTEM_CHECK
  +--> ?PR?_LIB_DELAY_MS?LIB_MYTIMER
  +--> ?PR?PROC_SLEEP_WHEN_RESET?PROC_SYSTEM...
  +--> ?PR?PROC_INITIALIZE_SYSTERM_NORMAL_MO...

?PR?PROC_HANDLE_WHEN_SYSTERM_RESET?PR...         -----    -----      -----    -----      -----    -----
  +--> ?PR?_SET_MCUCLOCK?DRV_CORE
  +--> ?PR?INIT_GPIO_SLEEP?DRV_GPIO
  +--> ?PR?E2P_IIC_INITAIL?DRV_E2P_I2CSOFT
  +--> ?PR?E2P_STOP_I2C?DRV_E2P_I2CSOFT

?PR?_SET_MCUCLOCK?DRV_CORE                       -----    -----      -----    -----      0009H    0005H
  +--> ?PR?SYS_ERR?PROC_SYSTEM_INITIALIZE

?PR?PROC_SLEEP_WHEN_RESET?PROC_SYSTEM...         -----    -----      -----    -----      0000H    0009H
  +--> ?PR?API_MEASURE_RAM_INIT?API_MEASURE
  +--> ?PR?API_INIT_CURRENT_ENERGY_DATA_RAM?...
  +--> ?PR?INIT_LCD?DRV_LCD
  +--> ?PR?API_HANDL_DIS_SLEEP?API_LCD_DISPLAY
  +--> ?PR?INIT_GPIO_SLEEP?DRV_GPIO
  +--> ?PR?_SETEXTRTC?DRV_RTC
  +--> ?PR?SET_MCUSLEEP?DRV_CORE
  +--> ?PR?_SET_MCUCLOCK?DRV_CORE
  +--> ?PR?_GET_RTCTIME?DRV_RTC
BL51 BANKED LINKER/LOCATER V6.22                                                      03/12/2019  13:46:20  PAGE 10


  +--> ?PR?_LIB_COPY_STR_TWOARRY?LIB_MYSPRING
  +--> ?PR?INIT_GPIO_RUN?DRV_GPIO
  +--> ?PR?E2P_IIC_INITAIL?DRV_E2P_I2CSOFT
  +--> ?PR?E2P_START_I2C?DRV_E2P_I2CSOFT
  +--> ?PR?_MEM_WRITE?PROC_EXMEM
  +--> ?PR?API_FREEZE_ENERGY_PRE_DAY?API_BIL...
  +--> ?PR?SYS_ERR?PROC_SYSTEM_INITIALIZE
  +--> ?PR?API_FREEZE_ENERGY_RAM_PRE_DAY?API...
  +--> ?PR?PROC_DISPLAY_POWER_DOWN_PROCESS?P...

?PR?API_MEASURE_RAM_INIT?API_MEASURE             -----    -----      -----    -----      -----    -----
  +--> ?PR?_LIB_SET_STRING?LIB_MYSPRING

?PR?_LIB_SET_STRING?LIB_MYSPRING                 -----    -----      -----    -----      0177H    0006H

?PR?API_INIT_CURRENT_ENERGY_DATA_RAM?...         -----    -----      -----    -----      000DH    000CH
  +--> ?PR?_LIB_SET_STRING?LIB_MYSPRING
  +--> ?PR?API_CHECK_CURRENT_ENERGY_DATA?API...
  +--> ?PR?_MEM_READ?PROC_EXMEM
  +--> ?PR?_LIB_BCD_BYTE?LIB_MYMATH
  +--> ?PR?_JUDAGE_MONTH?API_BILL_RECORD
  +--> ?PR?_API_WRITE_BILL_DATA?API_BILL_RECORD
  +--> ?PR?API_CLR_CURRENT_MD_DATA?API_DEMAND

?PR?API_CHECK_CURRENT_ENERGY_DATA?API...         -----    -----      -----    -----      -----    -----
  +--> ?PR?_LIB_GET_CSCK_INT16U_NUM?LIB_MYMATH
  +--> ?PR?_MEM_READ?PROC_EXMEM
  +--> ?PR?_LIB_COPY_STR_TWOARRY?LIB_MYSPRING

?PR?_LIB_GET_CSCK_INT16U_NUM?LIB_MYMATH          -----    -----      -----    -----      01D1H    0007H

?PR?_MEM_READ?PROC_EXMEM                         -----    -----      -----    -----      01D1H    000BH
  +--> ?PR?_LIB_COPY_STR_TWOARRY?LIB_MYSPRING
  +--> ?PR?_READ_EEPROM?DRV_E2P_24CXXX
  +--> ?PR?SYS_ERR?PROC_SYSTEM_INITIALIZE

?PR?_LIB_COPY_STR_TWOARRY?LIB_MYSPRING           -----    -----      -----    -----      01DCH    0008H

?PR?_READ_EEPROM?DRV_E2P_24CXXX                  -----    -----      -----    -----      01DCH    0008H
  +--> ?PR?_READ_EEPROM_PAGE?DRV_E2P_24CXXX

?PR?_READ_EEPROM_PAGE?DRV_E2P_24CXXX             -----    -----      -----    -----      01E4H    0047H
  +--> ?PR?_READ_EEPROM_PAGE_SUB?DRV_E2P_24CXXX
  +--> ?PR?_LIB_CMP_TWOARRY?LIB_MYSPRING

?PR?_READ_EEPROM_PAGE_SUB?DRV_E2P_24CXXX         -----    -----      -----    -----      022BH    0009H
  +--> ?PR?E2P_STOP_I2C?DRV_E2P_I2CSOFT
  +--> ?PR?E2P_START_I2C?DRV_E2P_I2CSOFT
  +--> ?PR?_E2P_TXBYTE_I2C?DRV_E2P_I2CSOFT
  +--> ?PR?_E2P_RXBYTE_I2C?DRV_E2P_I2CSOFT

?PR?_E2P_TXBYTE_I2C?DRV_E2P_I2CSOFT              -----    -----      0008H    0001H      -----    -----
  +--> ?PR?E2P_STOP_I2C?DRV_E2P_I2CSOFT

?PR?_E2P_RXBYTE_I2C?DRV_E2P_I2CSOFT              -----    -----      0008H    0002H      -----    -----

?PR?_LIB_CMP_TWOARRY?LIB_MYSPRING                -----    -----      -----    -----      022BH    0007H
BL51 BANKED LINKER/LOCATER V6.22                                                      03/12/2019  13:46:20  PAGE 11



?PR?_JUDAGE_MONTH?API_BILL_RECORD                -----    -----      -----    -----      -----    -----
  +--> ?PR?_JUDAGE_YEAR?API_BILL_RECORD

?PR?_API_WRITE_BILL_DATA?API_BILL_RECORD         -----    -----      -----    -----      0019H    0073H
  +--> ?PR?_LIB_CLR_STRING?LIB_MYSPRING
  +--> ?CO?API_BILL_RECORD
  +--> ?PR?_MEM_READ?PROC_EXMEM
  +--> ?PR?_MEM_DB_WRITE?PROC_EXMEM
  +--> ?PR?_LIB_COPY_STR_TWOARRY?LIB_MYSPRING
  +--> ?PR?SYS_ERR?PROC_SYSTEM_INITIALIZE

?PR?_MEM_DB_WRITE?PROC_EXMEM                     -----    -----      -----    -----      0177H    0012H
  +--> ?PR?_GET_MEM_TABLE_INDEX?PROC_EXMEM
  +--> ?PR?SYS_ERR?PROC_SYSTEM_INITIALIZE
  +--> ?CO?PROC_EXMEM
  +--> ?PR?_MEM_WRITE?PROC_EXMEM
  +--> ?PR?_GET_MEM_CK_DATA?PROC_EXMEM

?PR?_GET_MEM_TABLE_INDEX?PROC_EXMEM              -----    -----      -----    -----      0189H    0004H
  +--> ?CO?PROC_EXMEM

?PR?_MEM_WRITE?PROC_EXMEM                        -----    -----      -----    -----      0189H    0008H
  +--> ?PR?_LIB_COPY_STR_TWOARRY?LIB_MYSPRING
  +--> ?PR?_WRITE_EEPROM?DRV_E2P_24CXXX
  +--> ?PR?SYS_ERR?PROC_SYSTEM_INITIALIZE

?PR?_WRITE_EEPROM?DRV_E2P_24CXXX                 -----    -----      -----    -----      0191H    0008H
  +--> ?PR?_WRITE_EEPROM_PAGE?DRV_E2P_24CXXX

?PR?_WRITE_EEPROM_PAGE?DRV_E2P_24CXXX            -----    -----      -----    -----      0199H    0047H
  +--> ?PR?SYS_ERR?PROC_SYSTEM_INITIALIZE
  +--> ?PR?_WRITE_EEPROM_PAGE_SUB?DRV_E2P_24...
  +--> ?PR?_READ_EEPROM_PAGE_SUB?DRV_E2P_24CXXX
  +--> ?PR?_LIB_CMP_TWOARRY?LIB_MYSPRING

?PR?_WRITE_EEPROM_PAGE_SUB?DRV_E2P_24...         -----    -----      -----    -----      01E0H    0009H
  +--> ?PR?E2P_STOP_I2C?DRV_E2P_I2CSOFT
  +--> ?PR?E2P_START_I2C?DRV_E2P_I2CSOFT
  +--> ?PR?_E2P_TXBYTE_I2C?DRV_E2P_I2CSOFT
  +--> ?PR?_LIB_DELAY_MS?LIB_MYTIMER

?PR?_GET_MEM_CK_DATA?PROC_EXMEM                  -----    -----      -----    -----      0189H    0048H
  +--> ?PR?_MEM_READ?PROC_EXMEM
  +--> ?PR?_LIB_GET_CSCK_INT16U_NUM?LIB_MYMATH

?PR?API_CLR_CURRENT_MD_DATA?API_DEMAND           -----    -----      -----    -----      0093H    0038H
  +--> ?PR?_MEM_READ?PROC_EXMEM
  +--> ?PR?_MEM_WRITE?PROC_EXMEM
  +--> ?PR?_LIB_CLR_STRING?LIB_MYSPRING
  +--> ?PR?_MEM_DB_WRITE?PROC_EXMEM
  +--> ?PR?_LIB_SET_STRING?LIB_MYSPRING

?PR?INIT_LCD?DRV_LCD                             -----    -----      -----    -----      -----    -----
  +--> ?PR?LCD_ON?DRV_LCD

?PR?API_HANDL_DIS_SLEEP?API_LCD_DISPLAY          -----    -----      -----    -----      -----    -----
BL51 BANKED LINKER/LOCATER V6.22                                                      03/12/2019  13:46:20  PAGE 12


  +--> ?PR?_MEM_READ?PROC_EXMEM
  +--> ?PR?API_UPDATED_LCDDISPLAYPIXEL_PER_S...

?PR?API_UPDATED_LCDDISPLAYPIXEL_PER_S...         -----    -----      -----    -----      -----    -----
  +--> ?PR?_LIB_SET_STRING?LIB_MYSPRING
  +--> ?PR?_API_LCDDISPLAY_ADJ_ITEM?API_LCD_...
  +--> ?PR?LINK_GET_DIS_DATA_NUM_BUFF?API_LC...
  +--> ?PR?LINK_GET_DIS_CHAR_BUFF?API_LCD_DI...
  +--> ?PR?LINK_GET_DIS_REALCHAR_BUFF?API_LC...
  +--> ?PR?LINK_GET_DIS_DRV_BUFF?API_LCD_DIS...
  +--> ?PR?_LINK_GET_DISTAB_VAR?API_LCD_DISPLAY
  +--> ?PR?_WRITE_LCD?DRV_LCD

?PR?_API_LCDDISPLAY_ADJ_ITEM?API_LCD_...         -----    -----      -----    -----      0009H    0007H
  +--> ?PR?_LIB_SET_STRING?LIB_MYSPRING
  +--> ?CO?API_LCD_DISPLAY
  +--> ?PR?_MEM_READ?PROC_EXMEM
  +--> ?PR?SYS_ERR?PROC_SYSTEM_INITIALIZE

?PR?LINK_GET_DIS_DATA_NUM_BUFF?API_LC...         -----    -----      -----    -----      0009H    001AH
  +--> ?PR?_GET_RTCTIME?DRV_RTC
  +--> ?CO?API_LCD_DISPLAY
  +--> ?PR?_MEM_READ?PROC_EXMEM
  +--> ?PR?_API_GET_ENERGY_LCD?API_LCD_DISPLAY
  +--> ?PR?_LIB_LONG_BCD4?LIB_MYMATH

?PR?_GET_RTCTIME?DRV_RTC                         -----    -----      -----    -----      0023H    0004H
  +--> ?PR?_LIB_DELAY_2US?LIB_MYTIMER

?PR?_API_GET_ENERGY_LCD?API_LCD_DISPLAY          -----    -----      -----    -----      00E6H    0015H
  +--> ?PR?_LIB_COPY_STR_TWOARRY?LIB_MYSPRING
  +--> ?PR?_LIB_LONG_BCD4?LIB_MYMATH
  +--> ?PR?_LIB_BYTE_BCD?LIB_MYMATH

?PR?_LIB_LONG_BCD4?LIB_MYMATH                    -----    -----      -----    -----      00FBH    0007H
  +--> ?PR?_LIB_WORD_BCD2?LIB_MYMATH

?PR?_LIB_WORD_BCD2?LIB_MYMATH                    -----    -----      -----    -----      0102H    0005H
  +--> ?PR?_LIB_BYTE_BCD?LIB_MYMATH

?PR?_LINK_GET_DISTAB_VAR?API_LCD_DISPLAY         -----    -----      -----    -----      -----    -----
  +--> ?CO?API_LCD_DISPLAY

?PR?_SETEXTRTC?DRV_RTC                           -----    -----      -----    -----      0009H    0002H
  +--> ?PR?_LIB_DELAY_2US?LIB_MYTIMER

?PR?SET_MCUSLEEP?DRV_CORE                        -----    -----      -----    -----      0009H    0001H
  +--> ?PR?SYS_ERR?PROC_SYSTEM_INITIALIZE
  +--> ?PR?_LIB_DELAY_2US?LIB_MYTIMER

?PR?API_FREEZE_ENERGY_PRE_DAY?API_BIL...         -----    -----      -----    -----      -----    -----
  +--> ?PR?_MEM_WRITE?PROC_EXMEM
  +--> ?PR?_API_WRITE_BILL_DATA?API_BILL_RECORD
  +--> ?PR?API_CLR_CURRENT_MD_DATA?API_DEMAND

?PR?API_FREEZE_ENERGY_RAM_PRE_DAY?API...         -----    -----      -----    -----      0009H    0001H
  +--> ?PR?_MEM_READ?PROC_EXMEM
BL51 BANKED LINKER/LOCATER V6.22                                                      03/12/2019  13:46:20  PAGE 13


  +--> ?PR?_MEM_WRITE?PROC_EXMEM
  +--> ?PR?_LIB_GET_CSCK_INT16U_NUM?LIB_MYMATH

?PR?PROC_DISPLAY_POWER_DOWN_PROCESS?P...         -----    -----      -----    -----      -----    -----
  +--> ?PR?JUDGE_PG_DN_KEY?DRV_KEY_IO
  +--> ?PR?API_UPDATED_LCDDISPLAYPIXEL_PER_S...

?PR?PROC_INITIALIZE_SYSTERM_NORMAL_MO...         -----    -----      -----    -----      -----    -----
  +--> ?PR?_SET_MCUCLOCK?DRV_CORE
  +--> ?PR?INIT_GPIO_RUN?DRV_GPIO
  +--> ?PR?INIT_LCD?DRV_LCD
  +--> ?PR?_FULL_SEG?DRV_LCD
  +--> ?PR?PROC_INITIALIZE_INRAM?PROC_SYSTEM...
  +--> ?PR?INIT_TIMER?DRV_TMR
  +--> ?PR?_API_HANDL_COMM_FRAME_ERROR?API_U...
  +--> ?PR?INIT_RTC?DRV_RTC
  +--> ?PR?_INIT_EMU?LNK_EMU_HANDL
  +--> ?PR?CHECK_EMU_ADJPARAM?LNK_EMU_ADJ
  +--> ?PR?_LIB_SET_STRING?LIB_MYSPRING
  +--> ?PR?_API_DEAL_EVEN_CLASS_RECODE?API_E...

?PR?PROC_INITIALIZE_INRAM?PROC_SYSTEM...         -----    -----      -----    -----      0000H    000DH
  +--> ?PR?_MEM_READ?PROC_EXMEM
  +--> ?PR?API_FREEZE_ENERGY_PRE_DAY?API_BIL...
  +--> ?PR?_MEM_FILL?PROC_EXMEM
  +--> ?PR?_MEM_DB_CLR?PROC_EXMEM
  +--> ?PR?MEM_DB_CHECK?PROC_EXMEM
  +--> ?PR?PROC_SYS_DATA_INIT?PROC_DATA
  +--> ?PR?PROC_INIT_CHECK_VAR?PROC_SYSTEM_C...
  +--> ?PR?INIT_EMU_RAM?LNK_EMU_HANDL
  +--> ?PR?PROC_INIT_TOU_VAR?PROC_SYSTEM_TOU
  +--> ?PR?INIT_LOADPRO_PARAM?API_LOADPROFILE
  +--> ?PR?API_INIT_MD_DATA_RAM?API_DEMAND
  +--> ?PR?API_INIT_CURRENT_ENERGY_DATA_RAM?...
  +--> ?PR?API_MEASURE_RAM_INIT?API_MEASURE
  +--> ?PR?API_MEASURE_VBAT_PRE_MIN?API_MEASURE
  +--> ?PR?API_MEASURE_TEMPERATURE_PRE_MIN?A...
  +--> ?PR?API_UPDATE_TRIFFNO_PRE_MINUTE?API...
  +--> ?PR?_API_WRITE_BILL_DATA?API_BILL_RECORD
  +--> ?PR?API_CLR_CURRENT_MD_DATA?API_DEMAND
  +--> ?PR?API_INIT_DISPLAY?API_LCD_DISPLAY

?PR?_MEM_FILL?PROC_EXMEM                         -----    -----      -----    -----      007AH    0047H
  +--> ?PR?_LIB_SET_STRING?LIB_MYSPRING
  +--> ?PR?_MEM_WRITE?PROC_EXMEM

?PR?_MEM_DB_CLR?PROC_EXMEM                       -----    -----      -----    -----      0093H    0007H
  +--> ?CO?PROC_EXMEM
  +--> ?PR?_MEM_WRITE?PROC_EXMEM

?PR?MEM_DB_CHECK?PROC_EXMEM                      -----    -----      -----    -----      000DH    000DH
  +--> ?CO?PROC_EXMEM
  +--> ?PR?_GET_MEM_CK_DATA?PROC_EXMEM
  +--> ?PR?_MEM_READ?PROC_EXMEM
  +--> ?PR?_MEM_TO_MEM?PROC_EXMEM
  +--> ?PR?_GET_DEFAULT_MEM_DATA?PROC_EXMEM
  +--> ?PR?_MEM_WRITE?PROC_EXMEM
BL51 BANKED LINKER/LOCATER V6.22                                                      03/12/2019  13:46:20  PAGE 14


  +--> ?PR?SYS_ERR?PROC_SYSTEM_INITIALIZE

?PR?_MEM_TO_MEM?PROC_EXMEM                       -----    -----      -----    -----      001AH    0048H
  +--> ?PR?_MEM_READ?PROC_EXMEM
  +--> ?PR?_MEM_WRITE?PROC_EXMEM

?PR?_GET_DEFAULT_MEM_DATA?PROC_EXMEM             -----    -----      -----    -----      001AH    0004H
  +--> ?CO?PROC_EXMEM
  +--> ?CO?PROC_DATA
  +--> ?CO?API_LCD_DISPLAY
  +--> ?CO?LNK_EMU_ADJ
  +--> ?CO?API_TRIFF
  +--> ?PR?_MEM_WRITE?PROC_EXMEM
  +--> ?PR?_MEM_FILL?PROC_EXMEM

?PR?PROC_SYS_DATA_INIT?PROC_DATA                 -----    -----      -----    -----      -----    -----
  +--> ?PR?_MEM_READ?PROC_EXMEM

?PR?PROC_INIT_CHECK_VAR?PROC_SYSTEM_C...         -----    -----      -----    -----      -----    -----
  +--> ?PR?_LIB_SET_STRING?LIB_MYSPRING

?PR?INIT_EMU_RAM?LNK_EMU_HANDL                   -----    -----      -----    -----      -----    -----
  +--> ?PR?GET_EMU_ADJPARAM?LNK_EMU_ADJ

?PR?GET_EMU_ADJPARAM?LNK_EMU_ADJ                 -----    -----      -----    -----      -----    -----
  +--> ?PR?_LIB_GET_CSCK_INT16U_NUM?LIB_MYMATH
  +--> ?PR?_MEM_READ?PROC_EXMEM

?PR?PROC_INIT_TOU_VAR?PROC_SYSTEM_TOU            -----    -----      -----    -----      -----    -----
  +--> ?PR?PROC_GET_CLOCK?PROC_SYSTEM_TOU

?PR?PROC_GET_CLOCK?PROC_SYSTEM_TOU               -----    -----      -----    -----      000DH    0007H
  +--> ?PR?_GET_RTCTIME?DRV_RTC
  +--> ?PR?_LIB_CHECK_RTC_DATA_FORM?LIB_MYMATH
  +--> ?PR?_MEM_READ?PROC_EXMEM
  +--> ?PR?_MEM_DB_WRITE?PROC_EXMEM
  +--> ?PR?_SET_RTCTIME?DRV_RTC
  +--> ?PR?_LIB_COPY_STR_TWOARRY?LIB_MYSPRING

?PR?_LIB_CHECK_RTC_DATA_FORM?LIB_MYMATH          -----    -----      -----    -----      -----    -----
  +--> ?PR?_LIB_BCD_BYTE?LIB_MYMATH
  +--> ?PR?_LIB_BYTE_BCD?LIB_MYMATH

?PR?_SET_RTCTIME?DRV_RTC                         -----    -----      -----    -----      0093H    0003H
  +--> ?PR?_LIB_DELAY_2US?LIB_MYTIMER

?PR?INIT_LOADPRO_PARAM?API_LOADPROFILE           -----    -----      -----    -----      -----    -----
  +--> ?PR?_MEM_READ?PROC_EXMEM

?PR?API_INIT_MD_DATA_RAM?API_DEMAND              -----    -----      -----    -----      -----    -----
  +--> ?PR?_MEM_READ?PROC_EXMEM
  +--> ?PR?_API_CHECK_DEMAND_PARA?API_DEMAND
  +--> ?PR?_LIB_SET_STRING?LIB_MYSPRING

?PR?API_MEASURE_VBAT_PRE_MIN?API_MEASURE         -----    -----      -----    -----      -----    -----
  +--> ?PR?SAMLPE_BATADC?DRV_ADC

BL51 BANKED LINKER/LOCATER V6.22                                                      03/12/2019  13:46:20  PAGE 15


?PR?SAMLPE_BATADC?DRV_ADC                        -----    -----      -----    -----      -----    -----
  +--> ?PR?_ENABLE_M_ADC?DRV_ADC
  +--> ?PR?_LIB_DELAY_MS?LIB_MYTIMER
  +--> ?PR?_READMETERPARAACK?DRV_EMU_HARD

?PR?_ENABLE_M_ADC?DRV_ADC                        -----    -----      -----    -----      -----    -----
  +--> ?PR?_READMETERPARAACK?DRV_EMU_HARD
  +--> ?PR?_SETMETERCFGACK?DRV_EMU_HARD

?PR?_READMETERPARAACK?DRV_EMU_HARD               -----    -----      0008H    0001H      00C6H    0008H

?PR?_SETMETERCFGACK?DRV_EMU_HARD                 -----    -----      -----    -----      00C6H    0006H

?PR?API_MEASURE_TEMPERATURE_PRE_MIN?A...         -----    -----      -----    -----      -----    -----
  +--> ?PR?_ENABLE_M_ADC?DRV_ADC
  +--> ?PR?_LIB_DELAY_MS?LIB_MYTIMER
  +--> ?PR?SAMLPE_TEMPERATUREADC?DRV_ADC
  +--> ?PR?DISABLE_M_ADC?DRV_ADC

?PR?SAMLPE_TEMPERATUREADC?DRV_ADC                -----    -----      -----    -----      000DH    0004H
  +--> ?PR?_ENABLE_M_ADC?DRV_ADC
  +--> ?PR?_LIB_DELAY_MS?LIB_MYTIMER
  +--> ?PR?CAL_TEMPERATURE_DATA?DRV_ADC

?PR?CAL_TEMPERATURE_DATA?DRV_ADC                 -----    -----      -----    -----      0011H    0027H
  +--> ?PR?_LIB_FCPYTMEM?LIB_MYSPRING
  +--> ?PR?_LIB_GET_CSCK_INT8U_NUM?LIB_MYMATH
  +--> ?PR?_LIB_REV_COPY_ARRY?LIB_MYSPRING
  +--> ?PR?_READMETERPARAACK?DRV_EMU_HARD
  +--> ?CO?DRV_ADC
  +--> ?PR?SQRT?SQRT

?PR?_LIB_FCPYTMEM?LIB_MYSPRING                   -----    -----      -----    -----      0038H    0004H

?PR?_LIB_GET_CSCK_INT8U_NUM?LIB_MYMATH           -----    -----      -----    -----      0038H    0006H

?PR?_LIB_REV_COPY_ARRY?LIB_MYSPRING              -----    -----      -----    -----      0038H    0006H

?PR?SQRT?SQRT                                    -----    -----      -----    -----      0038H    0004H

?PR?DISABLE_M_ADC?DRV_ADC                        -----    -----      -----    -----      -----    -----
  +--> ?PR?_READMETERPARAACK?DRV_EMU_HARD
  +--> ?PR?_SETMETERCFGACK?DRV_EMU_HARD

?PR?API_UPDATE_TRIFFNO_PRE_MINUTE?API...         -----    -----      -----    -----      0093H    0001H
  +--> ?PR?API_GET_SEASONTAB_NO?API_TRIFF
  +--> ?PR?_API_GET_DAYTAB_NO?API_TRIFF
  +--> ?PR?_API_GET_TRIFF_NO?API_TRIFF

?PR?API_GET_SEASONTAB_NO?API_TRIFF               -----    -----      -----    -----      0094H    0018H
  +--> ?PR?_MEM_READ?PROC_EXMEM

?PR?_API_GET_DAYTAB_NO?API_TRIFF                 -----    -----      -----    -----      0094H    0008H
  +--> ?PR?_MEM_READ?PROC_EXMEM
  +--> ?PR?SYS_ERR?PROC_SYSTEM_INITIALIZE

?PR?_API_GET_TRIFF_NO?API_TRIFF                  -----    -----      -----    -----      0094H    001BH
BL51 BANKED LINKER/LOCATER V6.22                                                      03/12/2019  13:46:20  PAGE 16


  +--> ?PR?_MEM_READ?PROC_EXMEM
  +--> ?PR?_LIB_BCDCHK?LIB_MYMATH

?PR?API_INIT_DISPLAY?API_LCD_DISPLAY             -----    -----      -----    -----      -----    -----
  +--> ?PR?_MEM_READ?PROC_EXMEM

?PR?INIT_TIMER?DRV_TMR                           -----    -----      -----    -----      -----    -----
  +--> ?PR?START_TIMER?DRV_TMR

?PR?_API_HANDL_COMM_FRAME_ERROR?API_U...         -----    -----      -----    -----      0036H    0001H
  +--> ?PR?_LIB_CLR_STRING?LIB_MYSPRING
  +--> ?PR?_INIT_UART4_HARD?DRV_UART
  +--> ?PR?_INIT_UART_SOFT?DRV_UART
  +--> ?PR?_LIB_SET_STRING?LIB_MYSPRING

?PR?_INIT_UART4_HARD?DRV_UART                    -----    -----      -----    -----      -----    -----
  +--> ?PR?_SET_UART4_BADU?DRV_UART
  +--> ?PR?EN_UART4_RX?DRV_UART

?PR?_INIT_EMU?LNK_EMU_HANDL                      -----    -----      -----    -----      0000H    0001H
  +--> ?PR?_SETMETERCFGACK?DRV_EMU_HARD
  +--> ?PR?_SET_EMUCLOCK?DRV_CORE
  +--> ?PR?SYS_ERR?PROC_SYSTEM_INITIALIZE

?PR?_SET_EMUCLOCK?DRV_CORE                       -----    -----      -----    -----      0001H    0005H
  +--> ?PR?SYS_ERR?PROC_SYSTEM_INITIALIZE

?PR?CHECK_EMU_ADJPARAM?LNK_EMU_ADJ               -----    -----      -----    -----      00B1H    0015H
  +--> ?PR?GET_EMU_ADJPARAM?LNK_EMU_ADJ
  +--> ?PR?_MEM_READ?PROC_EXMEM
  +--> ?PR?_SETMETERCFGACK?DRV_EMU_HARD
  +--> ?CO?LNK_EMU_ADJ
  +--> ?PR?_READMETERPARAACK?DRV_EMU_HARD

?PR?_API_DEAL_EVEN_CLASS_RECODE?API_E...         -----    -----      -----    -----      0093H    0005H
  +--> ?CO?API_EVENT
  +--> ?PR?_LNK_SAVE_EVEN_CLASS1_RECODE?API_...

?PR?_LNK_SAVE_EVEN_CLASS1_RECODE?API_...         -----    -----      -----    -----      0098H    00DFH
  +--> ?PR?_MEM_READ?PROC_EXMEM
  +--> ?PR?_LIB_COPY_STR_TWOARRY?LIB_MYSPRING
  +--> ?PR?_LIB_GET_CSCK_INT16U_NUM?LIB_MYMATH
  +--> ?CO?API_EVENT
  +--> ?PR?_MEM_DB_WRITE?PROC_EXMEM
  +--> ?PR?_LIB_SET_STRING?LIB_MYSPRING
  +--> ?PR?_GETTOTALTIME?API_EVENT
  +--> ?PR?_MEM_WRITE?PROC_EXMEM

?PR?_GETTOTALTIME?API_EVENT                      -----    -----      -----    -----      0177H    000BH
  +--> ?PR?_LIB_GETGMSEC?LIB_MYMATH
  +--> ?PR?_LIB_COPY_STR_TWOARRY?LIB_MYSPRING

?PR?_LIB_GETGMSEC?LIB_MYMATH                     -----    -----      -----    -----      0182H    0003H
  +--> ?PR?_LIB_GETGMMIN?LIB_MYMATH
  +--> ?PR?_LIB_BCD_BYTE?LIB_MYMATH

?PR?_LIB_GETGMMIN?LIB_MYMATH                     -----    -----      -----    -----      0185H    0003H
BL51 BANKED LINKER/LOCATER V6.22                                                      03/12/2019  13:46:20  PAGE 17


  +--> ?PR?_LIB_GETGMHOUR?LIB_MYMATH
  +--> ?PR?_LIB_BCD_BYTE?LIB_MYMATH

?PR?_LIB_GETGMHOUR?LIB_MYMATH                    -----    -----      -----    -----      0188H    0003H
  +--> ?PR?_LIB_GETGMDAY?LIB_MYMATH
  +--> ?PR?_LIB_BCD_BYTE?LIB_MYMATH

?PR?_LIB_GETGMDAY?LIB_MYMATH                     -----    -----      -----    -----      018BH    0004H
  +--> ?PR?_LIB_BCD_BYTE?LIB_MYMATH

?PR?PROC_HANDL_TOU_10MS?PROC_SYSTEM_TOU          -----    -----      -----    -----      0000H    0001H
  +--> ?PR?_HDL_UART_10MS_RUN?DRV_UART
  +--> ?PR?_API_HANDL_COMM_PRE_10MS?API_USER...
  +--> ?PR?API_HANDL_BUTTON_PRE_10MS?PROC_SY...

?PR?_HDL_UART_10MS_RUN?DRV_UART                  -----    -----      -----    -----      -----    -----
  +--> ?PR?EN_UART4_RX?DRV_UART
  +--> ?PR?_INIT_UART_SOFT?DRV_UART

?PR?_API_HANDL_COMM_PRE_10MS?API_USER...         -----    -----      -----    -----      0001H    0001H
  +--> ?PR?_PROCESS_IEC62056_21?API_USER_COMM
  +--> ?PR?_API_HANDL_COMM_FRAME_ERROR?API_U...
  +--> ?PR?_LNK_TX_COMM_READY?API_USER_COMM
  +--> ?PR?API_CLR_CURRENT_ENERGY_DATA?API_E...
  +--> ?PR?API_CLR_CURRENT_MD_DATA?API_DEMAND
  +--> ?PR?API_CLR_BILL_DATA?API_BILL_RECORD
  +--> ?PR?LOADPRORST?API_LOADPROFILE
  +--> ?PR?API_CLR_EVEN_BY_COMM?API_EVENT
  +--> ?PR?API_CLR_FREEZE_ENERGY?API_DEMAND
  +--> ?PR?_API_CHG_LCDDISPLAY_ADJ_ITEM?API_...

?PR?_PROCESS_IEC62056_21?API_USER_COMM           -----    -----      -----    -----      0002H    0034H
  +--> ?PR?_GET_UART_RX_BUFF?DRV_UART
  +--> ?PR?_MEM_READ?PROC_EXMEM
  +--> ?PR?_GET_METER_ID_ASCLEN?API_USER_COMM
  +--> ?PR?_LIB_BCD_ASCA?LIB_MYMATH
  +--> ?PR?_IEC_COMM_REQUEST_CMD_JUDGE?IEC62...
  +--> ?PR?_GET_IEC_COMM_REQUEST_CMD_ANSWER?...
  +--> ?PR?_IEC_COMM_ACKNOWLEDGEMENT_CMD_JUD...
  +--> ?PR?_GET_IEC_COMM_OPERAND_ANSWER?IEC6...
  +--> ?PR?_IEC_COMM_COMMAND_CMD_JUDGE?IEC62...
  +--> ?PR?_GET_ERROR_ANSWER?IEC62056_21
  +--> ?PR?_API_HANDL_COMM_FRAME_ERROR?API_U...

?PR?_GET_UART_RX_BUFF?DRV_UART                   -----    -----      -----    -----      0036H    0004H
  +--> ?PR?DIS_UART4_RX?DRV_UART

?PR?_GET_METER_ID_ASCLEN?API_USER_COMM           -----    -----      -----    -----      00E6H    0003H

?PR?_LIB_BCD_ASCA?LIB_MYMATH                     -----    -----      -----    -----      01C9H    000AH
  +--> ?PR?_LIB_BTOA?LIB_MYMATH

?PR?_IEC_COMM_REQUEST_CMD_JUDGE?IEC62...         -----    -----      -----    -----      0036H    0008H

?PR?_GET_IEC_COMM_REQUEST_CMD_ANSWER?...         -----    -----      -----    -----      0036H    0007H

?PR?_GET_IEC_COMM_OPERAND_ANSWER?IEC6...         -----    -----      -----    -----      0036H    0007H
BL51 BANKED LINKER/LOCATER V6.22                                                      03/12/2019  13:46:20  PAGE 18


  +--> ?PR?_GET_BCC_CHK?IEC62056_21

?PR?_GET_BCC_CHK?IEC62056_21                     -----    -----      -----    -----      00E6H    0005H

?PR?_IEC_COMM_COMMAND_CMD_JUDGE?IEC62...         -----    -----      -----    -----      0036H    000DH
  +--> ?PR?_GET_BCC_CHK?IEC62056_21
  +--> ?PR?_IEC_CMD_PASSWORD_DEAL?API_USER_COMM
  +--> ?PR?_IEC_CMD_READ_DEAL?API_USER_COMM
  +--> ?PR?_IEC_CMD_WRITE_DEAL?API_USER_COMM

?PR?_IEC_CMD_PASSWORD_DEAL?API_USER_COMM         -----    -----      -----    -----      0043H    000FH
  +--> ?PR?_MEM_READ?PROC_EXMEM
  +--> ?PR?_LIB_BCD_ASCA?LIB_MYMATH
  +--> ?PR?_LIB_CMP_TWOARRY?LIB_MYSPRING
  +--> ?PR?_GET_ACK_ANSWER?IEC62056_21
  +--> ?PR?_API_DEAL_EVEN_CLASS_RECODE?API_E...

?PR?_IEC_CMD_READ_DEAL?API_USER_COMM             -----    -----      -----    -----      0043H    00A3H
  +--> ?PR?_LIB_ASC_BCDA?LIB_MYMATH
  +--> ?PR?_GET_IEC_COMM_VAR?API_USER_COMM
  +--> ?PR?_LIB_SET_STRING?LIB_MYSPRING
  +--> ?PR?_LPREC_READ_1?API_LOADPROFILE
  +--> ?PR?_LPREC_READ_BLOCK?API_LOADPROFILE
  +--> ?PR?_GET_BCC_CHK?IEC62056_21
  +--> ?PR?_LIB_LONG_BCD4?LIB_MYMATH
  +--> ?PR?_LIB_WORD_BCD2?LIB_MYMATH
  +--> ?PR?_LIB_COPY_STR_TWOARRY?LIB_MYSPRING
  +--> ?PR?_MEM_READ?PROC_EXMEM
  +--> ?PR?_GET_METER_ID_ASCLEN?API_USER_COMM
  +--> ?PR?_API_GET_ENERGY_LCD?API_LCD_DISPLAY
  +--> ?PR?_LIB_BCD_ASCA?LIB_MYMATH
  +--> ?PR?_API_GET_BILL_RECORD_ADDR?API_BIL...
  +--> ?PR?_LIB_BTOA?LIB_MYMATH

?PR?_LIB_ASC_BCDA?LIB_MYMATH                     -----    -----      -----    -----      00E6H    000AH
  +--> ?PR?_LIB_ATOB?LIB_MYMATH

?PR?_GET_IEC_COMM_VAR?API_USER_COMM              -----    -----      -----    -----      00E6H    0006H
  +--> ?CO?API_USER_COMM

?CO?API_USER_COMM                                -----    -----      -----    -----      -----    -----
  +--> ?CO?PROC_DATA

?PR?_LPREC_READ_1?API_LOADPROFILE                -----    -----      -----    -----      00E6H    001AH
  +--> ?PR?_MEM_READ?PROC_EXMEM
  +--> ?PR?_LIB_BCD_ASCA?LIB_MYMATH

?PR?_LPREC_READ_BLOCK?API_LOADPROFILE            -----    -----      -----    -----      00E6H    00E3H
  +--> ?PR?_MEM_READ?PROC_EXMEM
  +--> ?PR?_LIB_BCD_ASCA?LIB_MYMATH

?PR?_API_GET_BILL_RECORD_ADDR?API_BIL...         -----    -----      -----    -----      00E6H    0006H
  +--> ?CO?API_BILL_RECORD
  +--> ?PR?_MEM_READ?PROC_EXMEM

?PR?_IEC_CMD_WRITE_DEAL?API_USER_COMM            -----    -----      -----    -----      0043H    0050H
  +--> ?PR?_LIB_ASC_BCDA?LIB_MYMATH
BL51 BANKED LINKER/LOCATER V6.22                                                      03/12/2019  13:46:20  PAGE 19


  +--> ?PR?_GET_IEC_COMM_VAR?API_USER_COMM
  +--> ?PR?SECURITYCK?API_USER_COMM
  +--> ?PR?_LIB_SET_STRING?LIB_MYSPRING
  +--> ?PR?_SET_RTCTIME?DRV_RTC
  +--> ?PR?_MEM_DB_WRITE?PROC_EXMEM
  +--> ?PR?_API_DEAL_EVEN_CLASS_RECODE?API_E...
  +--> ?PR?API_INIT_MD_DATA_RAM?API_DEMAND
  +--> ?PR?API_UPDATE_TRIFFNO_PRE_MINUTE?API...
  +--> ?PR?_MEASURE_ELECTRIC_ERR_GAIN?LNK_EM...
  +--> ?PR?SAVE_EMU_ADJPARAM?LNK_EMU_ADJ
  +--> ?PR?CHECK_EMU_ADJPARAM?LNK_EMU_ADJ
  +--> ?PR?API_CLR_EVEN_BY_COMM?API_EVENT
  +--> ?PR?API_CLR_CURRENT_MD_DATA?API_DEMAND
  +--> ?PR?LOADPRORST?API_LOADPROFILE
  +--> ?PR?_MEM_DB_CLR?PROC_EXMEM
  +--> ?PR?API_CLR_FREEZE_ENERGY?API_DEMAND
  +--> ?PR?_MEM_WRITE?PROC_EXMEM
  +--> ?PR?_MEM_READ?PROC_EXMEM
  +--> ?PR?_GET_ACK_ANSWER?IEC62056_21

?PR?SECURITYCK?API_USER_COMM                     -----    -----      -----    -----      0093H    0001H

?PR?_MEASURE_ELECTRIC_ERR_GAIN?LNK_EM...         -----    -----      -----    -----      0093H    001EH
  +--> ?PR?_LIB_ATOB?LIB_MYMATH
  +--> ?PR?_LIB_BCD4_LONG?LIB_MYMATH
  +--> ?PR?_LIB_COPY_STR_TWOARRY?LIB_MYSPRING
  +--> ?PR?ATOF?ATOF
  +--> ?PR?_CALIBRATION_POWER?LNK_EMU_ADJ
  +--> ?PR?_CALIBRATION_CURRENT?LNK_EMU_ADJ
  +--> ?PR?_CALIBRATION_ANGULAR?LNK_EMU_ADJ
  +--> ?PR?_CALIBRATION_SMALL_SIGNAL?LNK_EMU...
  +--> ?PR?SAVE_EMU_ADJPARAM?LNK_EMU_ADJ
  +--> ?PR?CHECK_EMU_ADJPARAM?LNK_EMU_ADJ

?PR?_LIB_BCD4_LONG?LIB_MYMATH                    -----    -----      -----    -----      00B1H    0003H
  +--> ?PR?_LIB_BCD_BYTE?LIB_MYMATH

?PR?ATOF?ATOF                                    -----    -----      -----    -----      00B1H    0003H
  +--> ?PR?_ISSPACE?ISSPACE
  +--> ?PR??C?ATOF??C?ATOF

?PR??C?ATOF??C?ATOF                              0020H.0  0000H.5    0008H    0002H      -----    -----

?PR?_CALIBRATION_POWER?LNK_EMU_ADJ               -----    -----      -----    -----      00B1H    000CH
  +--> ?PR?_READMETERPARAACK?DRV_EMU_HARD
  +--> ?PR?_CALCULATESC?LNK_EMU_ADJ
  +--> ?PR?_SETMETERCFGACK?DRV_EMU_HARD

?PR?_CALCULATESC?LNK_EMU_ADJ                     -----    -----      -----    -----      00C5H    001CH
  +--> ?PR?_FLOOR?FLOOR

?PR?_FLOOR?FLOOR                                 -----    -----      -----    -----      00E1H    0008H

?PR?_CALIBRATION_CURRENT?LNK_EMU_ADJ             -----    -----      -----    -----      00B1H    0014H
  +--> ?PR?_READMETERPARAACK?DRV_EMU_HARD
  +--> ?PR?_CALCULATESC?LNK_EMU_ADJ
  +--> ?PR?_SETMETERCFGACK?DRV_EMU_HARD
BL51 BANKED LINKER/LOCATER V6.22                                                      03/12/2019  13:46:20  PAGE 20



?PR?_CALIBRATION_ANGULAR?LNK_EMU_ADJ             -----    -----      -----    -----      00B1H    0014H
  +--> ?PR?_CALCULATEAC?LNK_EMU_ADJ
  +--> ?PR?_LIB_LONG_BCD4?LIB_MYMATH
  +--> ?PR?_SETMETERCFGACK?DRV_EMU_HARD

?PR?_CALCULATEAC?LNK_EMU_ADJ                     -----    -----      -----    -----      00C5H    000BH

?PR?_CALIBRATION_SMALL_SIGNAL?LNK_EMU...         -----    -----      -----    -----      00B1H    0011H
  +--> ?PR?_READMETERPARAACK?DRV_EMU_HARD
  +--> ?PR?_SETMETERCFGACK?DRV_EMU_HARD

?PR?SAVE_EMU_ADJPARAM?LNK_EMU_ADJ                -----    -----      -----    -----      -----    -----
  +--> ?PR?_LIB_GET_CSCK_INT16U_NUM?LIB_MYMATH
  +--> ?PR?_MEM_DB_WRITE?PROC_EXMEM

?PR?API_CLR_EVEN_BY_COMM?API_EVENT               -----    -----      -----    -----      0093H    00C1H
  +--> ?PR?_LIB_SET_STRING?LIB_MYSPRING
  +--> ?PR?_MEM_DB_WRITE?PROC_EXMEM
  +--> ?PR?_LIB_GET_CSCK_INT16U_NUM?LIB_MYMATH
  +--> ?CO?API_EVENT
  +--> ?PR?_MEM_WRITE?PROC_EXMEM

?PR?LOADPRORST?API_LOADPROFILE                   -----    -----      -----    -----      -----    -----
  +--> ?PR?_LIB_SET_STRING?LIB_MYSPRING
  +--> ?PR?_MEM_DB_WRITE?PROC_EXMEM

?PR?API_CLR_FREEZE_ENERGY?API_DEMAND             -----    -----      -----    -----      -----    -----
  +--> ?PR?_LIB_CLR_STRING?LIB_MYSPRING
  +--> ?PR?_MEM_WRITE?PROC_EXMEM

?PR?_LNK_TX_COMM_READY?API_USER_COMM             -----    -----      -----    -----      0002H    0004H
  +--> ?PR?_TX_UART_FRIST?DRV_UART

?PR?_TX_UART_FRIST?DRV_UART                      -----    -----      -----    -----      0006H    0008H
  +--> ?PR?_SET_UART4_BADU?DRV_UART
  +--> ?PR?DIS_UART4_RX?DRV_UART
  +--> ?PR?EN_UART4_TX?DRV_UART

?PR?API_CLR_CURRENT_ENERGY_DATA?API_E...         -----    -----      -----    -----      -----    -----
  +--> ?PR?_LIB_SET_STRING?LIB_MYSPRING
  +--> ?PR?_LIB_GET_CSCK_INT16U_NUM?LIB_MYMATH
  +--> ?PR?_LIB_COPY_STR_TWOARRY?LIB_MYSPRING
  +--> ?PR?_MEM_DB_WRITE?PROC_EXMEM

?PR?API_CLR_BILL_DATA?API_BILL_RECORD            -----    -----      -----    -----      0002H    0078H
  +--> ?PR?_LIB_CLR_STRING?LIB_MYSPRING
  +--> ?PR?_MEM_DB_WRITE?PROC_EXMEM
  +--> ?PR?_MEM_FILL?PROC_EXMEM

?PR?_API_CHG_LCDDISPLAY_ADJ_ITEM?API_...         -----    -----      -----    -----      -----    -----
  +--> ?PR?API_UPDATED_LCDDISPLAYPIXEL_PER_S...

?PR?API_HANDL_BUTTON_PRE_10MS?PROC_SY...         -----    -----      -----    -----      -----    -----
  +--> ?PR?JUDGE_ERR_COVER_KEY?DRV_KEY_IO
  +--> ?PR?JUDGE_PG_DN_KEY?DRV_KEY_IO
  +--> ?PR?JUDGE_MD_CLEAR_KEY?DRV_KEY_IO
BL51 BANKED LINKER/LOCATER V6.22                                                      03/12/2019  13:46:20  PAGE 21


  +--> ?PR?JUDGE_MAGN_CHK_KEY?DRV_KEY_IO

?PR?PROC_JUDGE_POWER_DOWN_PROCESS?PRO...         -----    -----      -----    -----      0000H    0007H
  +--> ?PR?CHECKPOWERUP?PROC_SYSTEM_CHECK
  +--> ?PR?API_ACCUM_CURRENT_ENERGY_DATA_PRE...
  +--> ?PR?_MEM_DB_WRITE?PROC_EXMEM
  +--> ?PR?_API_DEAL_EVEN_CLASS_RECODE?API_E...
  +--> ?PR?_MEM_READ?PROC_EXMEM
  +--> ?PR?API_CHECK_CURRENT_ENERGY_DATA?API...
  +--> ?PR?API_HANDL_DIS_SLEEP?API_LCD_DISPLAY
  +--> ?PR?INIT_GPIO_SLEEP?DRV_GPIO
  +--> ?PR?E2P_IIC_INITAIL?DRV_E2P_I2CSOFT
  +--> ?PR?E2P_STOP_I2C?DRV_E2P_I2CSOFT
  +--> ?PR?API_MEASURE_RAM_INIT?API_MEASURE
  +--> ?PR?_SETEXTRTC?DRV_RTC
  +--> ?PR?INIT_RTC?DRV_RTC
  +--> ?PR?SET_MCUSLEEP?DRV_CORE
  +--> ?PR?_SET_MCUCLOCK?DRV_CORE
  +--> ?PR?_GET_RTCTIME?DRV_RTC
  +--> ?PR?_LIB_COPY_STR_TWOARRY?LIB_MYSPRING
  +--> ?PR?INIT_GPIO_RUN?DRV_GPIO
  +--> ?PR?E2P_START_I2C?DRV_E2P_I2CSOFT
  +--> ?PR?_MEM_WRITE?PROC_EXMEM
  +--> ?PR?SYS_ERR?PROC_SYSTEM_INITIALIZE
  +--> ?PR?API_FREEZE_ENERGY_RAM_PRE_DAY?API...
  +--> ?PR?PROC_DISPLAY_POWER_DOWN_PROCESS?P...

?PR?API_ACCUM_CURRENT_ENERGY_DATA_PRE...         -----    -----      -----    -----      0007H    0002H
  +--> ?PR?API_CHECK_CURRENT_ENERGY_DATA?API...
  +--> ?PR?LNK_ADD_FAC_ENERGY_PLUSE?API_ENERGY
  +--> ?PR?_LIB_GET_CSCK_INT16U_NUM?LIB_MYMATH
  +--> ?PR?_LIB_COPY_STR_TWOARRY?LIB_MYSPRING
  +--> ?PR?_MEM_DB_WRITE?PROC_EXMEM

?PR?PROC_HANDL_TOU_1S?PROC_SYSTEM_TOU            -----    -----      -----    -----      -----    -----
  +--> ?PR?PROC_GET_CLOCK?PROC_SYSTEM_TOU
  +--> ?PR?API_MEASURE_RAM_INIT?API_MEASURE
  +--> ?PR?API_MEASURE_DEAL_PRE_SECOND?API_M...
  +--> ?PR?API_ACCUM_CURRENT_ENERGY_DATA_PRE...
  +--> ?PR?API_EVEN_DETECT_SEC?API_EVENT
  +--> ?PR?API_UPDATA_MD_VAR_MIN_PER_SECOND?...
  +--> ?PR?PROC_CHECK_PROKEY_PRE_SEC?PROC_SY...
  +--> ?PR?API_UPDATED_LED_PER_SECOND?API_LC...
  +--> ?PR?API_MEASURE_VBAT_PRE_MIN?API_MEASURE
  +--> ?PR?JUDGE_ERR_COVER_KEY?DRV_KEY_IO
  +--> ?PR?API_UPDATED_LCDDISPLAYITEM_PER_SE...
  +--> ?PR?API_UPDATED_LCDDISPLAYPIXEL_PER_S...
  +--> ?PR?TIMEEVENTPROC?LNK_EMU_ADJ
  +--> ?PR?CHECK_EMU_ADJPARAM?LNK_EMU_ADJ
  +--> ?PR?API_UPDATA_MD_VAR_SLID_PER_MINUTE...
  +--> ?PR?API_FREEZE_ENERGY_RAM_PRE_DAY?API...
  +--> ?PR?API_FREEZE_ENERGY_PRE_DAY?API_BIL...
  +--> ?PR?API_HANDL_SETTLE_PER_MINUTE?API_B...
  +--> ?PR?LOADPRO_REC?API_LOADPROFILE
  +--> ?PR?API_UPDATE_TRIFFNO_PRE_MINUTE?API...
  +--> ?PR?HANDL_RTC_ADJ_PER_MINU?DRV_RTC
  +--> ?PR?API_MEASURE_TEMPERATURE_PRE_MIN?A...
BL51 BANKED LINKER/LOCATER V6.22                                                      03/12/2019  13:46:20  PAGE 22



?PR?API_MEASURE_DEAL_PRE_SECOND?API_M...         -----    -----      -----    -----      0000H    000CH
  +--> ?PR?LNK_CAL_EMU_CONSTSUM_PER_SECOND?L...
  +--> ?PR?_LNK_GET_EMU_VOLTAGE?LNK_EMU_HANDL
  +--> ?PR?_LNK_GET_EMU_CURRENT?LNK_EMU_HANDL
  +--> ?PR?_LNK_GET_EMU_FREQ?LNK_EMU_HANDL

?PR?LNK_CAL_EMU_CONSTSUM_PER_SECOND?L...         -----    -----      -----    -----      000CH    0008H
  +--> ?PR?_READMETERPARAACK?DRV_EMU_HARD
  +--> ?PR?_SETMETERCFGACK?DRV_EMU_HARD
  +--> ?CO?LNK_EMU_ADJ

?PR?_LNK_GET_EMU_VOLTAGE?LNK_EMU_HANDL           -----    -----      -----    -----      000CH    0011H
  +--> ?PR?_READMETERPARAACK?DRV_EMU_HARD
  +--> ?PR?_LIB_REV_COPY_ARRY?LIB_MYSPRING

?PR?_LNK_GET_EMU_CURRENT?LNK_EMU_HANDL           -----    -----      -----    -----      000CH    000DH
  +--> ?PR?_READMETERPARAACK?DRV_EMU_HARD

?PR?_LNK_GET_EMU_FREQ?LNK_EMU_HANDL              -----    -----      -----    -----      000CH    000DH
  +--> ?PR?_READMETERPARAACK?DRV_EMU_HARD
  +--> ?PR?_LIB_REV_COPY_ARRY?LIB_MYSPRING

?PR?API_EVEN_DETECT_SEC?API_EVENT                -----    -----      -----    -----      -----    -----
  +--> ?PR?CHECKPOWERUP?PROC_SYSTEM_CHECK
  +--> ?PR?API_EVEN_EE_ERR?API_EVENT
  +--> ?PR?API_EVEN_DETECT_LOWBATTERY?API_EVENT
  +--> ?PR?_API_DEAL_EVEN_CLASS_RECODE?API_E...
  +--> ?PR?API_EVEN_DETECT_L1REVERSE?API_EVENT

?PR?API_EVEN_EE_ERR?API_EVENT                    -----    -----      -----    -----      -----    -----
  +--> ?PR?_MEM_READ?PROC_EXMEM
  +--> ?PR?_API_DEAL_EVEN_CLASS_RECODE?API_E...

?PR?API_UPDATA_MD_VAR_MIN_PER_SECOND?...         -----    -----      -----    -----      0000H    0001H
  +--> ?PR?LNK_UPDATA_MD_VAR_POWER_PER_SECON...

?PR?LNK_UPDATA_MD_VAR_POWER_PER_SECON...         -----    -----      -----    -----      0001H    0001H
  +--> ?PR?SYS_ERR?PROC_SYSTEM_INITIALIZE

?PR?PROC_CHECK_PROKEY_PRE_SEC?PROC_SY...         -----    -----      -----    -----      -----    -----
  +--> ?PR?JUDGE_ERR_ADJ_KEY?DRV_KEY_IO
  +--> ?PR?API_CLR_CURRENT_ENERGY_DATA?API_E...
  +--> ?PR?API_CLR_CURRENT_MD_DATA?API_DEMAND
  +--> ?PR?API_CLR_FREEZE_ENERGY?API_DEMAND
  +--> ?PR?API_CLR_BILL_DATA?API_BILL_RECORD
  +--> ?PR?LOADPRORST?API_LOADPROFILE
  +--> ?PR?API_CLR_EVEN_BY_COMM?API_EVENT
  +--> ?PR?_API_CHG_LCDDISPLAY_ADJ_ITEM?API_...

?PR?API_UPDATED_LCDDISPLAYITEM_PER_SE...         -----    -----      -----    -----      -----    -----
  +--> ?PR?API_GET_NEXT_DIS_ITEM?API_LCD_DIS...

?PR?TIMEEVENTPROC?LNK_EMU_ADJ                    -----    -----      -----    -----      0000H    0002H
  +--> ?PR?_READMETERPARAACK?DRV_EMU_HARD
  +--> ?PR?_CALCULATESCHZ?LNK_EMU_ADJ
  +--> ?PR?_SETMETERCFGACK?DRV_EMU_HARD
BL51 BANKED LINKER/LOCATER V6.22                                                      03/12/2019  13:46:20  PAGE 23



?PR?_CALCULATESCHZ?LNK_EMU_ADJ                   -----    -----      -----    -----      0002H    0018H

?PR?API_UPDATA_MD_VAR_SLID_PER_MINUTE...         -----    -----      -----    -----      0000H    0006H
  +--> ?PR?_API_CHECK_DEMAND_PARA?API_DEMAND
  +--> ?PR?_API_CMP_SAVE_MD_DATA?API_DEMAND

?PR?_API_CMP_SAVE_MD_DATA?API_DEMAND             -----    -----      -----    -----      0006H    0010H
  +--> ?PR?_MEM_READ?PROC_EXMEM
  +--> ?PR?_MEM_DB_WRITE?PROC_EXMEM
  +--> ?PR?_MEM_WRITE?PROC_EXMEM

?PR?API_HANDL_SETTLE_PER_MINUTE?API_B...         -----    -----      -----    -----      0000H    0006H
  +--> ?PR?_MEM_READ?PROC_EXMEM
  +--> ?PR?_LIB_BCD_BYTE?LIB_MYMATH
  +--> ?PR?_API_WRITE_BILL_DATA?API_BILL_RECORD
  +--> ?PR?API_CLR_CURRENT_MD_DATA?API_DEMAND

?PR?LOADPRO_REC?API_LOADPROFILE                  -----    -----      -----    -----      0000H    0006H
  +--> ?PR?_MEM_READ?PROC_EXMEM
  +--> ?PR?_LIB_BCD2_WORD?LIB_MYMATH
  +--> ?PR?_LIB_BCD_BYTE?LIB_MYMATH
  +--> ?PR?_LOAD_REC?API_LOADPROFILE

?PR?_LIB_BCD2_WORD?LIB_MYMATH                    -----    -----      -----    -----      -----    -----
  +--> ?PR?_LIB_BCD_BYTE?LIB_MYMATH

?PR?_LOAD_REC?API_LOADPROFILE                    -----    -----      -----    -----      0006H    001AH
  +--> ?PR?_LIB_SET_STRING?LIB_MYSPRING
  +--> ?PR?_LIB_COPY_STR_TWOARRY?LIB_MYSPRING
  +--> ?PR?_API_GET_ENERGY_LCD?API_LCD_DISPLAY
  +--> ?PR?_LIB_LONG_BCD4?LIB_MYMATH
  +--> ?PR?_MEM_READ?PROC_EXMEM
  +--> ?PR?_MEM_DB_WRITE?PROC_EXMEM
  +--> ?PR?_MEM_WRITE?PROC_EXMEM

?PR?HANDL_RTC_ADJ_PER_MINU?DRV_RTC               -----    -----      -----    -----      0000H    0012H

*** NEW ROOT ***************************************************

?PR?INTERRUPT_EXINT2?PROC_SYSTEM_INTE...         -----    -----      -----    -----      0234H    0002H
  +--> ?PR?EN_UART4_RX?DRV_UART
  +--> ?PR?_INIT_UART_SOFT?DRV_UART



UNRESOLVED EXTERNAL SYMBOLS:
   ?_WRITERACCOON?BYTE
   GS_RACCTRL
   G_LORACONFIG
   RX_MODE
   SX127X_INIT
   _LSD_RF_RXPACKET
   _READRACCOON
   _SX1276_TXPACKET
   _WRITERACCOON

BL51 BANKED LINKER/LOCATER V6.22                                                      03/12/2019  13:46:20  PAGE 24




SYMBOL TABLE OF MODULE:  DI03B_9811A_V10 (?C_STARTUP)

  VALUE           TYPE          NAME
  ----------------------------------

  -------         MODULE        ?C_STARTUP
  C:D189H         SEGMENT       ?C_C51STARTUP
  I:0021H         SEGMENT       ?STACK
  C:0000H         PUBLIC        ?C_STARTUP
  D:00E0H         SYMBOL        ACC
  D:00F0H         SYMBOL        B
  D:0083H         SYMBOL        DPH
  D:0082H         SYMBOL        DPL
  N:0000H         SYMBOL        IBPSTACK
  N:0100H         SYMBOL        IBPSTACKTOP
  N:0080H         SYMBOL        IDATALEN
  N:0000H         SYMBOL        PBPSTACK
  N:0000H         SYMBOL        PBPSTACKTOP
  N:0000H         SYMBOL        PDATALEN
  N:0000H         SYMBOL        PDATASTART
  N:0000H         SYMBOL        PPAGE
  N:0000H         SYMBOL        PPAGEENABLE
  D:00A0H         SYMBOL        PPAGE_SFR
  D:0081H         SYMBOL        SP
  C:D189H         SYMBOL        STARTUP1
  N:0000H         SYMBOL        XBPSTACK
  N:0000H         SYMBOL        XBPSTACKTOP
  N:0000H         SYMBOL        XDATALEN
  N:0000H         SYMBOL        XDATASTART
  C:0400H         LINE#         82
  C:0000H         LINE#         105
  C:D189H         LINE#         163
  C:D18CH         LINE#         167
  -------         ENDMOD        ?C_STARTUP

  -------         MODULE        MAIN
  C:0000H         SYMBOL        _ICE_DUMMY_
  D:00CEH         PUBLIC        wdt0
  D:0090H         PUBLIC        P1
  D:00CFH         PUBLIC        wdt1
  D:00B0H         PUBLIC        P3
  B:00A8H.7       PUBLIC        EA
  D:00A8H         PUBLIC        IE
  D:00B8H         PUBLIC        IP
  C:BF1CH         PUBLIC        main
  D:0098H         PUBLIC        SCON
  D:0088H         PUBLIC        TCON
  D:00F0H         PUBLIC        B
  D:00E0H         PUBLIC        ACC
  D:0080H         PUBLIC        SysCtrl
  D:00C8H         PUBLIC        T2CON
  X:07FEH         PUBLIC        debug_tmp1
  D:00D0H         PUBLIC        PSW
  -------         PROC          MAIN
  C:BF1CH         LINE#         30
BL51 BANKED LINKER/LOCATER V6.22                                                      03/12/2019  13:46:20  PAGE 25


  C:BF1CH         LINE#         31
  C:BF1CH         LINE#         33
  C:BF1DH         LINE#         34
  C:BF2BH         LINE#         35
  C:BF2DH         LINE#         36
  C:BF30H         LINE#         37
  C:BF32H         LINE#         38
  C:BF33H         LINE#         39
  C:BF33H         LINE#         40
  C:BF33H         LINE#         41
  C:BF41H         LINE#         42
  C:BF49H         LINE#         43
  C:BF49H         LINE#         44
  C:BF57H         LINE#         45
  C:BF5FH         LINE#         46
  C:BF5FH         LINE#         47
  C:BF62H         LINE#         48
  C:BF65H         LINE#         49
  C:BF65H         LINE#         51
  C:BF68H         LINE#         52
  C:BF70H         LINE#         53
  C:BF70H         LINE#         54
  C:BF73H         LINE#         55
  C:BF76H         LINE#         56
  C:BF76H         LINE#         57
  C:BF85H         LINE#         58
  C:BF85H         LINE#         59
  C:BF88H         LINE#         60
  C:BF88H         LINE#         61
  C:BF90H         LINE#         62
  C:BF90H         LINE#         63
  C:BF91H         LINE#         64
  C:BF94H         LINE#         65
  C:BFA2H         LINE#         66
  C:BFA9H         LINE#         67
  C:BFAEH         LINE#         68
  C:BFB4H         LINE#         69
  C:BFB4H         LINE#         71
  C:BFB7H         LINE#         73
  C:BFC5H         LINE#         74
  C:BFC5H         LINE#         76
  C:BFC8H         LINE#         77
  -------         ENDPROC       MAIN
  -------         ENDMOD        MAIN

  -------         MODULE        PROC_DATA
  C:0000H         SYMBOL        _ICE_DUMMY_
  D:0090H         PUBLIC        P1
  D:00B0H         PUBLIC        P3
  D:00A8H         PUBLIC        IE
  D:00B8H         PUBLIC        IP
  D:0098H         PUBLIC        SCON
  D:0088H         PUBLIC        TCON
  D:00F0H         PUBLIC        B
  D:00E0H         PUBLIC        ACC
  C:DE81H         PUBLIC        default_meter_parm1_tab
  X:06FDH         PUBLIC        gs_sys_run
BL51 BANKED LINKER/LOCATER V6.22                                                      03/12/2019  13:46:20  PAGE 26


  D:0080H         PUBLIC        SysCtrl
  D:00C8H         PUBLIC        T2CON
  C:D82AH         PUBLIC        Proc_sys_data_init
  C:DE72H         PUBLIC        sys_parm
  D:00D0H         PUBLIC        PSW
  X:06FFH         PUBLIC        gs_sys_globaL_var
  -------         PROC          PROC_SYS_DATA_INIT
  C:D82AH         LINE#         82
  C:D82AH         LINE#         83
  C:D82AH         LINE#         84
  C:D82FH         LINE#         85
  C:D831H         LINE#         86
  C:D837H         LINE#         87
  C:D83CH         LINE#         88
  C:D853H         LINE#         89
  C:D86BH         LINE#         90
  C:D883H         LINE#         92
  -------         ENDPROC       PROC_SYS_DATA_INIT
  -------         ENDMOD        PROC_DATA

  -------         MODULE        PROC_EXMEM
  C:0000H         SYMBOL        _ICE_DUMMY_
  D:00CEH         PUBLIC        wdt0
  D:0090H         PUBLIC        P1
  D:00CFH         PUBLIC        wdt1
  D:00B0H         PUBLIC        P3
  C:BB88H         PUBLIC        _mem_db_clr
  D:00A8H         PUBLIC        IE
  C:B886H         PUBLIC        _get_mem_ck_data
  D:00B8H         PUBLIC        IP
  C:AD82H         PUBLIC        _mem_to_mem
  C:A3C3H         PUBLIC        _get_default_mem_data
  C:CE3EH         PUBLIC        _get_mem_table_Index
  C:DA5AH         PUBLIC        mem_table
  D:0098H         PUBLIC        SCON
  D:0088H         PUBLIC        TCON
  C:CD21H         PUBLIC        _mem_read
  D:00F0H         PUBLIC        B
  D:00E0H         PUBLIC        ACC
  C:70E0H         PUBLIC        mem_db_check
  C:C66FH         PUBLIC        _mem_fill
  C:C9A4H         PUBLIC        _mem_write
  D:0080H         PUBLIC        SysCtrl
  D:00C8H         PUBLIC        T2CON
  C:9AF4H         PUBLIC        _mem_db_write
  D:00D0H         PUBLIC        PSW
  C:B87CH         SYMBOL        L?0090
  C:B87FH         SYMBOL        L?0091
  -------         PROC          L?0089
  -------         ENDPROC       L?0089
  C:B87CH         SYMBOL        L?0090
  C:B87FH         SYMBOL        L?0091
  -------         PROC          _GET_MEM_CK_DATA
  X:0189H         SYMBOL        src
  X:018BH         SYMBOL        lenth
  X:018DH         SYMBOL        memType
  -------         DO            
BL51 BANKED LINKER/LOCATER V6.22                                                      03/12/2019  13:46:20  PAGE 27


  X:018EH         SYMBOL        size
  X:018FH         SYMBOL        tmpBuf
  X:01CFH         SYMBOL        sum
  -------         ENDDO         
  C:B886H         LINE#         77
  C:B897H         LINE#         78
  C:B897H         LINE#         81
  C:B8A1H         LINE#         83
  C:B8B4H         LINE#         84
  C:B8B4H         LINE#         85
  C:B8BFH         LINE#         86
  C:B8BFH         LINE#         87
  C:B8C2H         LINE#         88
  C:B8C4H         LINE#         90
  C:B8C4H         LINE#         91
  C:B8C6H         LINE#         92
  C:B8C6H         LINE#         93
  C:B8ECH         LINE#         94
  C:B90FH         LINE#         95
  C:B922H         LINE#         96
  C:B92FH         LINE#         97
  C:B932H         LINE#         99
  C:B93AH         LINE#         100
  -------         ENDPROC       _GET_MEM_CK_DATA
  -------         PROC          _GET_MEM_TABLE_INDEX
  X:0189H         SYMBOL        adr
  D:0005H         SYMBOL        memType
  -------         DO            
  D:0007H         SYMBOL        i
  D:0001H         SYMBOL        len
  X:018BH         SYMBOL        blkAddr
  -------         ENDDO         
  C:CE3EH         LINE#         109
  C:CE46H         LINE#         110
  C:CE46H         LINE#         115
  C:CE48H         LINE#         116
  C:CE48H         LINE#         117
  C:CE5BH         LINE#         118
  C:CE5BH         LINE#         119
  C:CE60H         LINE#         120
  C:CE60H         LINE#         121
  C:CE63H         LINE#         122
  C:CE63H         LINE#         124
  C:CE63H         LINE#         125
  C:CE7FH         LINE#         126
  C:CE7FH         LINE#         127
  C:CE91H         LINE#         129
  C:CEC2H         LINE#         130
  C:CEC2H         LINE#         131
  C:CEC3H         LINE#         132
  C:CEC3H         LINE#         133
  C:CEC3H         LINE#         134
  C:CECCH         LINE#         135
  C:CECEH         LINE#         136
  -------         ENDPROC       _GET_MEM_TABLE_INDEX
  C:AD6EH         SYMBOL        L?0088
  -------         PROC          L?0087
BL51 BANKED LINKER/LOCATER V6.22                                                      03/12/2019  13:46:20  PAGE 28


  -------         ENDPROC       L?0087
  C:AD6EH         SYMBOL        L?0088
  -------         PROC          _MEM_TO_MEM
  X:001AH         SYMBOL        dst
  X:001CH         SYMBOL        src
  X:001EH         SYMBOL        lenth
  X:0020H         SYMBOL        mode
  -------         DO            
  X:0021H         SYMBOL        tmp_Buffer
  X:0061H         SYMBOL        size
  -------         ENDDO         
  C:AD82H         LINE#         142
  C:AD96H         LINE#         143
  C:AD96H         LINE#         147
  C:ADA9H         LINE#         148
  C:ADA9H         LINE#         149
  C:ADB5H         LINE#         150
  C:ADB5H         LINE#         151
  C:ADB8H         LINE#         152
  C:ADBAH         LINE#         154
  C:ADBAH         LINE#         155
  C:ADBCH         LINE#         156
  C:ADBCH         LINE#         157
  C:ADE6H         LINE#         158
  C:ADF4H         LINE#         159
  C:AE1CH         LINE#         160
  C:AE30H         LINE#         161
  C:AE3CH         LINE#         162
  C:AE4AH         LINE#         163
  C:AE4DH         LINE#         164
  -------         ENDPROC       _MEM_TO_MEM
  -------         PROC          _MEM_FILL
  X:007AH         SYMBOL        dst
  X:007CH         SYMBOL        lenth
  D:0007H         SYMBOL        xx
  X:007FH         SYMBOL        memType
  -------         DO            
  X:0080H         SYMBOL        tmp_Buffer
  X:00C0H         SYMBOL        size
  -------         ENDDO         
  C:C66FH         LINE#         170
  C:C67FH         LINE#         171
  C:C67FH         LINE#         175
  C:C693H         LINE#         177
  C:C6A3H         LINE#         178
  C:C6A3H         LINE#         179
  C:C6AFH         LINE#         180
  C:C6AFH         LINE#         181
  C:C6B2H         LINE#         182
  C:C6B4H         LINE#         184
  C:C6B4H         LINE#         185
  C:C6B6H         LINE#         186
  C:C6B6H         LINE#         187
  C:C6DCH         LINE#         188
  C:C6EAH         LINE#         189
  C:C6FDH         LINE#         190
  C:C70AH         LINE#         191
BL51 BANKED LINKER/LOCATER V6.22                                                      03/12/2019  13:46:20  PAGE 29


  C:C70CH         LINE#         192
  -------         ENDPROC       _MEM_FILL
  -------         PROC          L?0092
  -------         ENDPROC       L?0092
  -------         PROC          _MEM_READ
  X:01D1H         SYMBOL        dst
  X:01D4H         SYMBOL        src
  X:01D6H         SYMBOL        lenth
  X:01D8H         SYMBOL        memType
  -------         DO            
  X:01D9H         SYMBOL        ptr_adr
  -------         ENDDO         
  C:CD21H         LINE#         197
  C:CD32H         LINE#         198
  C:CD32H         LINE#         201
  C:CD3DH         LINE#         202
  C:CD3DH         LINE#         203
  C:CD3DH         LINE#         204
  C:CD53H         LINE#         205
  C:CD85H         LINE#         207
  C:CD85H         LINE#         209
  C:CD85H         LINE#         210
  C:CDA6H         LINE#         211
  C:CDA6H         LINE#         213
  C:CDA6H         LINE#         214
  C:CDA9H         LINE#         215
  C:CDA9H         LINE#         216
  C:CDA9H         LINE#         217
  -------         ENDPROC       _MEM_READ
  C:C992H         SYMBOL        L?0085
  C:C999H         SYMBOL        L?0086
  -------         PROC          L?0084
  -------         ENDPROC       L?0084
  C:C992H         SYMBOL        L?0085
  C:C999H         SYMBOL        L?0086
  -------         PROC          _MEM_WRITE
  X:0189H         SYMBOL        dst
  X:018BH         SYMBOL        src
  X:018EH         SYMBOL        lenth
  X:0190H         SYMBOL        memType
  -------         DO            
  D:0001H         SYMBOL        ptr_adr
  -------         ENDDO         
  C:C9A4H         LINE#         222
  C:C9B5H         LINE#         223
  C:C9B5H         LINE#         226
  C:C9C0H         LINE#         227
  C:C9C0H         LINE#         228
  C:C9C0H         LINE#         229
  C:C9CCH         LINE#         230
  C:C9F9H         LINE#         231
  C:C9F9H         LINE#         233
  C:C9F9H         LINE#         234
  C:CA1AH         LINE#         235
  C:CA1AH         LINE#         237
  C:CA1AH         LINE#         238
  C:CA1DH         LINE#         240
BL51 BANKED LINKER/LOCATER V6.22                                                      03/12/2019  13:46:20  PAGE 30


  C:CA1DH         LINE#         241
  C:CA1DH         LINE#         242
  -------         ENDPROC       _MEM_WRITE
  -------         PROC          _MEM_DB_WRITE
  X:0177H         SYMBOL        dst
  X:0179H         SYMBOL        src
  X:017CH         SYMBOL        len
  X:017EH         SYMBOL        memType
  -------         DO            
  X:017FH         SYMBOL        index
  X:0180H         SYMBOL        checkNum
  X:0182H         SYMBOL        adr_dst
  X:0184H         SYMBOL        adr_csck
  X:0186H         SYMBOL        lenth
  X:0188H         SYMBOL        id_No
  -------         ENDDO         
  C:9AF4H         LINE#         258
  C:9B07H         LINE#         259
  C:9B07H         LINE#         268
  C:9B14H         LINE#         270
  C:9B19H         LINE#         271
  C:9B19H         LINE#         272
  C:9B1CH         LINE#         273
  C:9B1CH         LINE#         274
  C:9B3CH         LINE#         275
  C:9B5CH         LINE#         276
  C:9B6EH         LINE#         277
  C:9B85H         LINE#         279
  C:9BAEH         LINE#         280
  C:9BC4H         LINE#         281
  C:9BCEH         LINE#         282
  C:9BD7H         LINE#         283
  C:9BD7H         LINE#         284
  C:9C08H         LINE#         285
  C:9C1FH         LINE#         286
  C:9C1FH         LINE#         288
  -------         ENDPROC       _MEM_DB_WRITE
  -------         PROC          _GET_DEFAULT_MEM_DATA
  D:0007H         SYMBOL        index
  -------         DO            
  X:001AH         SYMBOL        adrAry
  X:001CH         SYMBOL        lenth
  D:0006H         SYMBOL        i
  -------         ENDDO         
  C:A3C3H         LINE#         299
  C:A3C3H         LINE#         300
  C:A3C3H         LINE#         305
  C:A3C5H         LINE#         306
  C:A3C5H         LINE#         307
  C:A3D8H         LINE#         308
  C:A3DDH         LINE#         310
  C:A3E6H         LINE#         313
  C:A402H         LINE#         314
  C:A421H         LINE#         316
  C:A438H         LINE#         317
  C:A438H         LINE#         318
  C:A438H         LINE#         319
BL51 BANKED LINKER/LOCATER V6.22                                                      03/12/2019  13:46:20  PAGE 31


  C:A446H         LINE#         320
  C:A448H         LINE#         322
  C:A448H         LINE#         323
  C:A456H         LINE#         324
  C:A458H         LINE#         327
  C:A458H         LINE#         328
  C:A466H         LINE#         329
  C:A468H         LINE#         336
  C:A468H         LINE#         337
  C:A476H         LINE#         338
  C:A478H         LINE#         340
  C:A478H         LINE#         341
  C:A486H         LINE#         342
  C:A488H         LINE#         344
  C:A488H         LINE#         345
  C:A4AAH         LINE#         346
  C:A4AAH         LINE#         352
  C:A4AAH         LINE#         353
  C:A4C3H         LINE#         354
  C:A4C3H         LINE#         355
  C:A4C3H         LINE#         356
  -------         ENDPROC       _GET_DEFAULT_MEM_DATA
  -------         PROC          MEM_DB_CHECK
  -------         DO            
  X:000DH         SYMBOL        i
  X:000EH         SYMBOL        checkNum0
  X:0010H         SYMBOL        checkNum1
  X:0012H         SYMBOL        adr_dst
  X:0014H         SYMBOL        adr_csck
  X:0016H         SYMBOL        lenth
  X:0018H         SYMBOL        staus
  X:0019H         SYMBOL        u8_No
  -------         ENDDO         
  C:70E0H         LINE#         371
  C:70E0H         LINE#         372
  C:70E0H         LINE#         382
  C:70F2H         LINE#         383
  C:70F2H         LINE#         384
  C:70F7H         LINE#         385
  C:7117H         LINE#         386
  C:7136H         LINE#         387
  C:714FH         LINE#         388
  C:7163H         LINE#         390
  C:7171H         LINE#         392
  C:7186H         LINE#         393
  C:7197H         LINE#         394
  C:71B2H         LINE#         396
  C:71BBH         LINE#         397
  C:71BBH         LINE#         399
  C:71D4H         LINE#         400
  C:71EBH         LINE#         401
  C:7206H         LINE#         402
  C:7206H         LINE#         408
  C:7214H         LINE#         409
  C:7228H         LINE#         410
  C:7228H         LINE#         411
  C:7228H         LINE#         413
BL51 BANKED LINKER/LOCATER V6.22                                                      03/12/2019  13:46:20  PAGE 32


  C:7228H         LINE#         415
  C:7228H         LINE#         416
  C:7231H         LINE#         417
  C:7231H         LINE#         418
  C:7243H         LINE#         419
  C:7246H         LINE#         421
  C:7246H         LINE#         422
  C:724EH         LINE#         423
  C:7251H         LINE#         424
  C:7254H         LINE#         425
  C:7254H         LINE#         426
  C:7254H         LINE#         427
  C:7257H         LINE#         429
  C:7257H         LINE#         430
  C:7260H         LINE#         431
  C:7260H         LINE#         432
  C:7263H         LINE#         433
  C:7263H         LINE#         434
  C:7263H         LINE#         436
  C:7265H         LINE#         438
  C:7265H         LINE#         439
  C:726DH         LINE#         440
  C:7270H         LINE#         441
  C:7273H         LINE#         442
  C:7281H         LINE#         443
  C:728AH         LINE#         444
  C:728AH         LINE#         445
  C:728DH         LINE#         446
  C:729BH         LINE#         447
  C:729BH         LINE#         448
  C:729DH         LINE#         450
  C:729DH         LINE#         451
  C:72A0H         LINE#         452
  C:72A0H         LINE#         453
  C:72A0H         LINE#         454
  C:72AEH         LINE#         456
  C:72B7H         LINE#         458
  -------         ENDPROC       MEM_DB_CHECK
  -------         PROC          _MEM_DB_CLR
  X:0093H         SYMBOL        type
  -------         DO            
  X:0094H         SYMBOL        i
  X:0095H         SYMBOL        checkNum0
  D:0004H         SYMBOL        adr_dst
  X:0097H         SYMBOL        adr_csck
  D:0006H         SYMBOL        lenth
  X:0099H         SYMBOL        u8_No
  -------         ENDDO         
  C:BB88H         LINE#         474
  C:BB8DH         LINE#         475
  C:BB8DH         LINE#         483
  C:BB9DH         LINE#         484
  C:BB9DH         LINE#         485
  C:BBB3H         LINE#         486
  C:BBC6H         LINE#         487
  C:BBD1H         LINE#         488
  C:BBE6H         LINE#         490
BL51 BANKED LINKER/LOCATER V6.22                                                      03/12/2019  13:46:20  PAGE 33


  C:BBF1H         LINE#         491
  C:BBF1H         LINE#         492
  C:BBFFH         LINE#         494
  C:BC06H         LINE#         495
  C:BC17H         LINE#         497
  C:BC20H         LINE#         498
  C:BC20H         LINE#         500
  C:BC27H         LINE#         501
  C:BC3EH         LINE#         502
  C:BC3EH         LINE#         503
  C:BC3EH         LINE#         505
  C:BC47H         LINE#         507
  -------         ENDPROC       _MEM_DB_CLR
  -------         ENDMOD        PROC_EXMEM

  -------         MODULE        PROC_SYSTEM_CHECK
  C:0000H         SYMBOL        _ICE_DUMMY_
  D:00CEH         PUBLIC        wdt0
  D:0090H         PUBLIC        P1
  D:00CFH         PUBLIC        wdt1
  D:00B0H         PUBLIC        P3
  D:00A8H         PUBLIC        IE
  C:F006H         PUBLIC        CheckPOWERUP
  D:00B8H         PUBLIC        IP
  C:F0BFH         PUBLIC        Proc_init_Check_var
  C:0052H         PUBLIC        Proc_Check_System_Pre_Cycle
  X:07D9H         PUBLIC        gs_sys_check_var
  D:0098H         PUBLIC        SCON
  D:0088H         PUBLIC        TCON
  C:BFCBH         PUBLIC        Proc_Check_PROKEY_Pre_sec
  D:00F0H         PUBLIC        B
  D:00E0H         PUBLIC        ACC
  D:0080H         PUBLIC        SysCtrl
  C:E0F9H         PUBLIC        Proc_Check_COVER_Pre_sec
  D:00C8H         PUBLIC        T2CON
  D:00A1H         PUBLIC        Systate
  D:00D0H         PUBLIC        PSW
  -------         PROC          PROC_CHECK_PROKEY_PRE_SEC
  C:BFCBH         LINE#         31
  C:BFCBH         LINE#         32
  C:BFCBH         LINE#         33
  C:BFD6H         LINE#         34
  C:BFD6H         LINE#         35
  C:BFE2H         LINE#         36
  C:BFE2H         LINE#         37
  C:BFE5H         LINE#         38
  C:BFEEH         LINE#         39
  C:BFEEH         LINE#         40
  C:BFF9H         LINE#         41
  C:BFF9H         LINE#         42
  C:C001H         LINE#         43
  C:C001H         LINE#         46
  C:C004H         LINE#         47
  C:C012H         LINE#         48
  C:C015H         LINE#         49
  C:C023H         LINE#         50
  C:C026H         LINE#         51
BL51 BANKED LINKER/LOCATER V6.22                                                      03/12/2019  13:46:20  PAGE 34


  C:C034H         LINE#         53
  C:C037H         LINE#         55
  C:C03AH         LINE#         56
  C:C048H         LINE#         57
  C:C04BH         LINE#         58
  C:C059H         LINE#         59
  C:C05EH         LINE#         60
  C:C064H         LINE#         61
  C:C064H         LINE#         62
  C:C064H         LINE#         63
  C:C064H         LINE#         64
  C:C064H         LINE#         65
  C:C065H         LINE#         67
  C:C065H         LINE#         68
  C:C071H         LINE#         69
  C:C079H         LINE#         70
  C:C079H         LINE#         71
  -------         ENDPROC       PROC_CHECK_PROKEY_PRE_SEC
  -------         PROC          PROC_CHECK_COVER_PRE_SEC
  C:E0F9H         LINE#         73
  C:E0F9H         LINE#         74
  C:E0F9H         LINE#         75
  C:E101H         LINE#         76
  C:E101H         LINE#         77
  C:E10AH         LINE#         78
  C:E10AH         LINE#         79
  C:E10DH         LINE#         80
  C:E113H         LINE#         81
  C:E113H         LINE#         83
  C:E113H         LINE#         84
  C:E119H         LINE#         85
  C:E119H         LINE#         86
  C:E120H         LINE#         87
  C:E126H         LINE#         89
  C:E126H         LINE#         90
  C:E126H         LINE#         91
  C:E126H         LINE#         92
  C:E126H         LINE#         93
  C:E127H         LINE#         95
  C:E127H         LINE#         96
  C:E136H         LINE#         97
  C:E13CH         LINE#         98
  C:E13CH         LINE#         99
  C:E141H         LINE#         100
  C:E141H         LINE#         101
  C:E148H         LINE#         102
  C:E14DH         LINE#         103
  C:E14DH         LINE#         105
  C:E14DH         LINE#         106
  C:E14DH         LINE#         107
  -------         ENDPROC       PROC_CHECK_COVER_PRE_SEC
  -------         PROC          PROC_INIT_CHECK_VAR
  C:F0BFH         LINE#         121
  C:F0BFH         LINE#         122
  C:F0BFH         LINE#         123
  -------         ENDPROC       PROC_INIT_CHECK_VAR
  -------         PROC          PROC_CHECK_SYSTEM_PRE_CYCLE
BL51 BANKED LINKER/LOCATER V6.22                                                      03/12/2019  13:46:20  PAGE 35


  C:0052H         LINE#         135
  C:0052H         LINE#         136
  C:0052H         LINE#         140
  -------         ENDPROC       PROC_CHECK_SYSTEM_PRE_CYCLE
  -------         PROC          CHECKPOWERUP
  -------         DO            
  D:0007H         SYMBOL        i
  -------         ENDDO         
  C:F006H         LINE#         151
  C:F006H         LINE#         152
  C:F006H         LINE#         155
  C:F008H         LINE#         156
  C:F008H         LINE#         163
  C:F00DH         LINE#         166
  C:F00DH         LINE#         167
  C:F012H         LINE#         168
  C:F018H         LINE#         169
  C:F01BH         LINE#         171
  C:F01DH         LINE#         173
  -------         ENDPROC       CHECKPOWERUP
  -------         ENDMOD        PROC_SYSTEM_CHECK

  -------         MODULE        PROC_SYSTEM_INITIALIZE
  C:0000H         SYMBOL        _ICE_DUMMY_
  C:E1A3H         PUBLIC        Proc_handle_when_systerm_reset
  D:00CEH         PUBLIC        wdt0
  D:0090H         PUBLIC        P1
  D:00CFH         PUBLIC        wdt1
  C:D30FH         PUBLIC        Proc_Initialize_systerm_normal_mode
  D:00B0H         PUBLIC        P3
  B:00A8H.7       PUBLIC        EA
  C:F0FBH         PUBLIC        sys_err
  D:00A8H         PUBLIC        IE
  C:EAF9H         PUBLIC        Proc_Initialize_systerm_reset
  D:00A5H         PUBLIC        P9IE
  D:00B8H         PUBLIC        IP
  D:00A4H         PUBLIC        P9OE
  C:7665H         PUBLIC        Proc_Initialize_INRam
  C:A7B6H         PUBLIC        Proc_sleep_when_reset
  D:0098H         PUBLIC        SCON
  D:0088H         PUBLIC        TCON
  D:00C9H         PUBLIC        IOWK
  D:008FH         PUBLIC        SPCFNC
  D:00F0H         PUBLIC        B
  D:00E0H         PUBLIC        ACC
  D:0090H         PUBLIC        RTCPEN
  D:0097H         PUBLIC        RTCPWD
  D:0080H         PUBLIC        SysCtrl
  D:00A0H         PUBLIC        CBANK
  C:E242H         PUBLIC        Proc_display_Power_down_process
  B:0080H.4       PUBLIC        PMG
  D:00C8H         PUBLIC        T2CON
  D:00A1H         PUBLIC        Systate
  D:0094H         PUBLIC        RTCCH
  C:89E4H         PUBLIC        Proc_judge_Power_down_process
  D:0095H         PUBLIC        RTCCL
  D:00D0H         PUBLIC        PSW
BL51 BANKED LINKER/LOCATER V6.22                                                      03/12/2019  13:46:20  PAGE 36


  -------         PROC          PROC_HANDLE_WHEN_SYSTERM_RESET
  C:E1A3H         LINE#         30
  C:E1A3H         LINE#         31
  C:E1A3H         LINE#         40
  C:E1A9H         LINE#         42
  C:E1C1H         LINE#         43
  C:E1C1H         LINE#         44
  C:E1C4H         LINE#         45
  C:E1C7H         LINE#         46
  C:E1CAH         LINE#         47
  C:E1CCH         LINE#         48
  C:E1CFH         LINE#         49
  C:E1D2H         LINE#         50
  C:E1D2H         LINE#         51
  C:E1D3H         LINE#         54
  C:E1D6H         LINE#         55
  C:E1DCH         LINE#         56
  C:E1DFH         LINE#         57
  C:E1E2H         LINE#         58
  C:E1EAH         LINE#         62
  C:E1EDH         LINE#         63
  C:E1F0H         LINE#         64
  -------         ENDPROC       PROC_HANDLE_WHEN_SYSTERM_RESET
  -------         PROC          PROC_INITIALIZE_INRAM
  -------         DO            
  X:0000H         SYMBOL        i
  X:0001H         SYMBOL        j
  X:0002H         SYMBOL        last_rec_dateTime
  X:0008H         SYMBOL        param_settel
  X:000AH         SYMBOL        eeprom_flg
  -------         ENDDO         
  C:7665H         LINE#         77
  C:7665H         LINE#         78
  C:7665H         LINE#         94
  C:767EH         LINE#         95
  C:7690H         LINE#         96
  C:7690H         LINE#         97
  C:7696H         LINE#         98
  C:7699H         LINE#         99
  C:76AAH         LINE#         100
  C:76AFH         LINE#         101
  C:76BDH         LINE#         102
  C:76BDH         LINE#         107
  C:76C3H         LINE#         108
  C:76C3H         LINE#         109
  C:76C6H         LINE#         110
  C:76D4H         LINE#         111
  C:76D4H         LINE#         115
  C:76D7H         LINE#         116
  C:76DAH         LINE#         117
  C:76E8H         LINE#         121
  C:7702H         LINE#         122
  C:7705H         LINE#         123
  C:7708H         LINE#         128
  C:770BH         LINE#         129
  C:7719H         LINE#         130
  C:771CH         LINE#         131
BL51 BANKED LINKER/LOCATER V6.22                                                      03/12/2019  13:46:20  PAGE 37


  C:771FH         LINE#         132
  C:7722H         LINE#         133
  C:7725H         LINE#         134
  C:7728H         LINE#         135
  C:7736H         LINE#         141
  C:7739H         LINE#         142
  C:7747H         LINE#         146
  C:7752H         LINE#         147
  C:7752H         LINE#         148
  C:7760H         LINE#         149
  C:7764H         LINE#         151
  C:777DH         LINE#         152
  C:7795H         LINE#         153
  C:77A2H         LINE#         154
  C:77A2H         LINE#         155
  C:77A8H         LINE#         156
  C:77AAH         LINE#         157
  C:77AFH         LINE#         158
  C:77AFH         LINE#         159
  C:77C6H         LINE#         160
  C:77CBH         LINE#         161
  C:77CBH         LINE#         162
  C:77CEH         LINE#         163
  C:77D0H         LINE#         164
  C:77D5H         LINE#         165
  C:77D5H         LINE#         166
  C:77DEH         LINE#         167
  C:77E1H         LINE#         168
  C:77EAH         LINE#         169
  C:77EAH         LINE#         170
  C:77F8H         LINE#         171
  C:77F8H         LINE#         172
  C:77FDH         LINE#         173
  C:780BH         LINE#         174
  C:7813H         LINE#         175
  C:7821H         LINE#         176
  C:7824H         LINE#         177
  C:7824H         LINE#         178
  C:7824H         LINE#         184
  -------         ENDPROC       PROC_INITIALIZE_INRAM
  -------         PROC          PROC_SLEEP_WHEN_RESET
  -------         DO            
  X:0000H         SYMBOL        check_cnt
  X:0001H         SYMBOL        check_cnt2
  X:0002H         SYMBOL        rtc_data_tmp
  -------         ENDDO         
  C:A7B6H         LINE#         196
  C:A7B6H         LINE#         197
  C:A7B6H         LINE#         202
  C:A7BBH         LINE#         203
  C:A7BDH         LINE#         205
  C:A7CBH         LINE#         289
  C:A7D9H         LINE#         290
  C:A7DCH         LINE#         291
  C:A7DFH         LINE#         294
  C:A7E2H         LINE#         295
  C:A7E5H         LINE#         296
BL51 BANKED LINKER/LOCATER V6.22                                                      03/12/2019  13:46:20  PAGE 38


  C:A7E8H         LINE#         298
  C:A7EDH         LINE#         299
  C:A7F4H         LINE#         300
  C:A7F4H         LINE#         301
  C:A7F4H         LINE#         302
  C:A7FBH         LINE#         304
  C:A7FEH         LINE#         305
  C:A801H         LINE#         307
  C:A80FH         LINE#         308
  C:A81AH         LINE#         311
  C:A823H         LINE#         312
  C:A841H         LINE#         314
  C:A846H         LINE#         315
  C:A846H         LINE#         316
  C:A849H         LINE#         317
  C:A84CH         LINE#         318
  C:A84FH         LINE#         320
  C:A869H         LINE#         321
  C:A883H         LINE#         322
  C:A89CH         LINE#         324
  C:A89FH         LINE#         325
  C:A8A2H         LINE#         326
  C:A8A2H         LINE#         327
  C:A8A5H         LINE#         328
  C:A8A8H         LINE#         329
  -------         ENDPROC       PROC_SLEEP_WHEN_RESET
  -------         PROC          PROC_INITIALIZE_SYSTERM_NORMAL_MODE
  C:D30FH         LINE#         346
  C:D30FH         LINE#         347
  C:D30FH         LINE#         348
  C:D31AH         LINE#         349
  C:D31DH         LINE#         350
  C:D320H         LINE#         351
  C:D325H         LINE#         352
  C:D333H         LINE#         353
  C:D336H         LINE#         356
  C:D339H         LINE#         357
  C:D33EH         LINE#         358
  C:D341H         LINE#         359
  C:D346H         LINE#         360
  C:D349H         LINE#         361
  C:D35DH         LINE#         362
  C:D363H         LINE#         363
  C:D367H         LINE#         364
  C:D36EH         LINE#         365
  C:D382H         LINE#         366
  C:D388H         LINE#         367
  -------         ENDPROC       PROC_INITIALIZE_SYSTERM_NORMAL_MODE
  -------         PROC          PROC_INITIALIZE_SYSTERM_RESET
  C:EAF9H         LINE#         379
  C:EAF9H         LINE#         380
  C:EAF9H         LINE#         382
  C:EAFCH         LINE#         383
  C:EB02H         LINE#         384
  C:EB02H         LINE#         385
  C:EB09H         LINE#         386
  C:EB09H         LINE#         387
BL51 BANKED LINKER/LOCATER V6.22                                                      03/12/2019  13:46:20  PAGE 39


  C:EB0FH         LINE#         388
  C:EB0FH         LINE#         389
  C:EB15H         LINE#         390
  C:EB17H         LINE#         392
  C:EB17H         LINE#         393
  C:EB1CH         LINE#         394
  C:EB1CH         LINE#         396
  C:EB23H         LINE#         397
  C:EB23H         LINE#         398
  C:EB26H         LINE#         399
  C:EB26H         LINE#         401
  C:EB26H         LINE#         402
  C:EB29H         LINE#         403
  C:EB29H         LINE#         404
  -------         ENDPROC       PROC_INITIALIZE_SYSTERM_RESET
  -------         PROC          PROC_DISPLAY_POWER_DOWN_PROCESS
  C:E242H         LINE#         406
  C:E242H         LINE#         407
  C:E242H         LINE#         413
  C:E24BH         LINE#         414
  C:E24BH         LINE#         415
  C:E250H         LINE#         418
  C:E250H         LINE#         425
  C:E257H         LINE#         426
  C:E257H         LINE#         427
  C:E259H         LINE#         428
  C:E260H         LINE#         429
  C:E260H         LINE#         430
  C:E262H         LINE#         431
  C:E264H         LINE#         433
  C:E264H         LINE#         434
  C:E26AH         LINE#         435
  C:E26AH         LINE#         436
  C:E26DH         LINE#         437
  C:E273H         LINE#         438
  C:E275H         LINE#         440
  C:E275H         LINE#         441
  C:E27EH         LINE#         442
  C:E281H         LINE#         443
  C:E281H         LINE#         444
  C:E287H         LINE#         445
  C:E287H         LINE#         446
  C:E28BH         LINE#         447
  C:E28EH         LINE#         448
  C:E28EH         LINE#         450
  -------         ENDPROC       PROC_DISPLAY_POWER_DOWN_PROCESS
  -------         PROC          PROC_JUDGE_POWER_DOWN_PROCESS
  -------         DO            
  X:0000H         SYMBOL        rtc_data_tmp
  -------         ENDDO         
  C:89E4H         LINE#         460
  C:89E4H         LINE#         461
  C:89E4H         LINE#         464
  C:89EDH         LINE#         465
  C:89EDH         LINE#         466
  C:89EFH         LINE#         467
  C:89F1H         LINE#         468
BL51 BANKED LINKER/LOCATER V6.22                                                      03/12/2019  13:46:20  PAGE 40


  C:89F4H         LINE#         469
  C:8A0DH         LINE#         473
  C:8A13H         LINE#         475
  C:8A2DH         LINE#         477
  C:8A33H         LINE#         478
  C:8A3AH         LINE#         486
  C:8A40H         LINE#         487
  C:8A44H         LINE#         488
  C:8A4BH         LINE#         493
  C:8A63H         LINE#         495
  C:8A66H         LINE#         496
  C:8A69H         LINE#         498
  C:8A6CH         LINE#         501
  C:8A71H         LINE#         502
  C:8A78H         LINE#         504
  C:8A7BH         LINE#         505
  C:8A7EH         LINE#         506
  C:8A81H         LINE#         512
  C:8A86H         LINE#         513
  C:8A8AH         LINE#         514
  C:8A8AH         LINE#         515
  C:8A8AH         LINE#         516
  C:8A98H         LINE#         517
  C:8A9FH         LINE#         518
  C:8AA2H         LINE#         519
  C:8AA5H         LINE#         520
  C:8AA8H         LINE#         523
  C:8AB6H         LINE#         524
  C:8AC1H         LINE#         528
  C:8ACAH         LINE#         529
  C:8AE8H         LINE#         535
  C:8AEDH         LINE#         536
  C:8AEDH         LINE#         537
  C:8AF0H         LINE#         538
  C:8AF3H         LINE#         539
  C:8AF6H         LINE#         541
  C:8B10H         LINE#         542
  C:8B2AH         LINE#         543
  C:8B43H         LINE#         548
  C:8B46H         LINE#         549
  C:8B46H         LINE#         550
  C:8B49H         LINE#         552
  C:8B4CH         LINE#         553
  C:8B4FH         LINE#         554
  C:8B4FH         LINE#         556
  C:8B4FH         LINE#         558
  C:8B4FH         LINE#         559
  -------         ENDPROC       PROC_JUDGE_POWER_DOWN_PROCESS
  -------         PROC          SYS_ERR
  C:F0FBH         LINE#         570
  C:F0FBH         LINE#         571
  C:F0FBH         LINE#         572
  C:F109H         LINE#         574
  C:F109H         LINE#         575
  C:F109H         LINE#         576
  C:F10AH         LINE#         577
  C:F10BH         LINE#         578
BL51 BANKED LINKER/LOCATER V6.22                                                      03/12/2019  13:46:20  PAGE 41


  C:F10CH         LINE#         579
  -------         ENDPROC       SYS_ERR
  -------         ENDMOD        PROC_SYSTEM_INITIALIZE

  -------         MODULE        PROC_SYSTEM_INTERRUPT
  C:0000H         SYMBOL        _ICE_DUMMY_
  D:0090H         PUBLIC        P1
  D:00B0H         PUBLIC        P3
  C:F066H         PUBLIC        Interrupt_Uart1
  D:00A8H         PUBLIC        IE
  C:004EH         PUBLIC        Interrupt_Int0
  C:F197H         PUBLIC        Interrupt_Int1
  D:00B8H         PUBLIC        IP
  D:0091H         PUBLIC        EXIF
  D:0098H         PUBLIC        SCON
  D:0088H         PUBLIC        TCON
  D:00F0H         PUBLIC        B
  D:00E0H         PUBLIC        ACC
  D:008CH         PUBLIC        TH0
  B:00D0H.0       PUBLIC        P
  D:008AH         PUBLIC        TL0
  C:94E6H         PUBLIC        Interrupt_ExInt2
  C:DD42H         PUBLIC        Interrupt_ExInt3
  C:EBE7H         PUBLIC        Interrupt_ExInt4
  D:0080H         PUBLIC        SysCtrl
  D:00C0H         PUBLIC        SCON1
  D:00C8H         PUBLIC        T2CON
  C:E048H         PUBLIC        Interrupt_Timer0
  C:F19BH         PUBLIC        Interrupt_Timer1
  C:F19FH         PUBLIC        Interrupt_Timer2
  D:00D0H         PUBLIC        PSW
  -------         PROC          INTERRUPT_INT0
  C:004EH         LINE#         27
  C:004EH         LINE#         29
  C:0051H         LINE#         32
  -------         ENDPROC       INTERRUPT_INT0
  -------         PROC          INTERRUPT_TIMER0
  C:E048H         LINE#         38
  C:E050H         LINE#         41
  C:E053H         LINE#         42
  C:E056H         LINE#         45
  C:E05DH         LINE#         47
  C:E071H         LINE#         48
  C:E078H         LINE#         49
  C:E078H         LINE#         50
  C:E093H         LINE#         51
  C:E093H         LINE#         66
  C:E099H         LINE#         81
  -------         ENDPROC       INTERRUPT_TIMER0
  -------         PROC          INTERRUPT_INT1
  C:F197H         LINE#         87
  C:F197H         LINE#         89
  C:F19AH         LINE#         90
  -------         ENDPROC       INTERRUPT_INT1
  -------         PROC          INTERRUPT_TIMER1
  C:F19BH         LINE#         95
  C:F19BH         LINE#         97
BL51 BANKED LINKER/LOCATER V6.22                                                      03/12/2019  13:46:20  PAGE 42


  C:F19EH         LINE#         101
  -------         ENDPROC       INTERRUPT_TIMER1
  -------         PROC          INTERRUPT_TIMER2
  C:F19FH         LINE#         107
  C:F19FH         LINE#         109
  C:F1A2H         LINE#         112
  -------         ENDPROC       INTERRUPT_TIMER2
  -------         PROC          INTERRUPT_UART1
  C:F066H         LINE#         118
  C:F068H         LINE#         120
  C:F06DH         LINE#         121
  C:F06DH         LINE#         122
  C:F070H         LINE#         124
  C:F072H         LINE#         125
  C:F077H         LINE#         126
  C:F077H         LINE#         127
  C:F07AH         LINE#         129
  C:F07AH         LINE#         130
  -------         ENDPROC       INTERRUPT_UART1
  -------         PROC          INTERRUPT_EXINT2
  -------         DO            
  X:0234H         SYMBOL        buf
  X:0235H         SYMBOL        temp_ifg
  -------         ENDDO         
  C:94E6H         LINE#         138
  C:94F3H         LINE#         143
  C:9501H         LINE#         222
  C:9508H         LINE#         223
  C:9508H         LINE#         224
  C:950FH         LINE#         225
  C:9516H         LINE#         226
  C:951FH         LINE#         227
  C:951FH         LINE#         228
  C:9530H         LINE#         229
  C:9537H         LINE#         230
  C:9537H         LINE#         232
  C:953FH         LINE#         233
  C:9542H         LINE#         234
  C:9542H         LINE#         235
  C:9546H         LINE#         236
  C:9548H         LINE#         238
  C:9548H         LINE#         239
  C:954DH         LINE#         240
  C:954DH         LINE#         241
  C:954DH         LINE#         242
  C:9555H         LINE#         243
  C:955CH         LINE#         244
  C:9568H         LINE#         245
  C:956EH         LINE#         246
  C:9574H         LINE#         247
  C:9576H         LINE#         249
  C:9576H         LINE#         251
  C:957BH         LINE#         252
  C:9581H         LINE#         253
  C:9584H         LINE#         254
  C:9589H         LINE#         255
  C:9589H         LINE#         278
BL51 BANKED LINKER/LOCATER V6.22                                                      03/12/2019  13:46:20  PAGE 43


  C:9589H         LINE#         287
  C:9591H         LINE#         288
  C:9591H         LINE#         290
  C:9598H         LINE#         291
  C:959FH         LINE#         292
  C:95A5H         LINE#         293
  C:95B8H         LINE#         294
  C:95BFH         LINE#         295
  C:95C5H         LINE#         296
  C:95CCH         LINE#         297
  C:95CCH         LINE#         298
  C:95CDH         LINE#         299
  C:95CEH         LINE#         300
  C:95CEH         LINE#         301
  C:95DAH         LINE#         302
  C:95DFH         LINE#         303
  C:95DFH         LINE#         304
  C:95E0H         LINE#         305
  C:95E1H         LINE#         306
  C:95E1H         LINE#         323
  C:95E1H         LINE#         329
  C:95E5H         LINE#         330
  C:95E5H         LINE#         331
  C:95ECH         LINE#         333
  C:95ECH         LINE#         334
  C:95F3H         LINE#         335
  C:95F3H         LINE#         336
  C:95FAH         LINE#         338
  C:95FAH         LINE#         339
  C:9602H         LINE#         340
  C:9602H         LINE#         341
  C:9609H         LINE#         343
  C:9609H         LINE#         348
  C:960DH         LINE#         349
  C:960DH         LINE#         350
  C:9614H         LINE#         352
  C:961AH         LINE#         354
  C:961AH         LINE#         360
  C:961DH         LINE#         361
  -------         ENDPROC       INTERRUPT_EXINT2
  -------         PROC          INTERRUPT_EXINT3
  -------         DO            
  D:0015H         SYMBOL        temp_ifg
  -------         ENDDO         
  C:DD42H         LINE#         368
  C:DD4DH         LINE#         372
  C:DD58H         LINE#         373
  C:DD5BH         LINE#         374
  C:DD5BH         LINE#         375
  C:DD62H         LINE#         377
  C:DD62H         LINE#         378
  C:DD68H         LINE#         379
  C:DD68H         LINE#         380
  C:DD6FH         LINE#         382
  C:DD6FH         LINE#         383
  C:DD75H         LINE#         384
  C:DD75H         LINE#         385
BL51 BANKED LINKER/LOCATER V6.22                                                      03/12/2019  13:46:20  PAGE 44


  C:DD7CH         LINE#         387
  C:DD83H         LINE#         388
  C:DD89H         LINE#         390
  C:DD89H         LINE#         393
  C:DD8FH         LINE#         394
  C:DD8FH         LINE#         395
  C:DD96H         LINE#         396
  C:DD9CH         LINE#         401
  C:DD9CH         LINE#         402
  C:DD9FH         LINE#         403
  -------         ENDPROC       INTERRUPT_EXINT3
  -------         PROC          INTERRUPT_EXINT4
  -------         DO            
  D:0017H         SYMBOL        temp_ifg
  -------         ENDDO         
  C:EBE7H         LINE#         409
  C:EBF2H         LINE#         414
  C:EBFDH         LINE#         430
  C:EC00H         LINE#         431
  C:EC00H         LINE#         441
  C:EC07H         LINE#         443
  C:EC07H         LINE#         455
  C:EC0AH         LINE#         456
  -------         ENDPROC       INTERRUPT_EXINT4
  -------         ENDMOD        PROC_SYSTEM_INTERRUPT

  -------         MODULE        PROC_SYSTEM_TOU
  C:0000H         SYMBOL        _ICE_DUMMY_
  D:00CEH         PUBLIC        wdt0
  D:0090H         PUBLIC        P1
  D:00CFH         PUBLIC        wdt1
  D:00B0H         PUBLIC        P3
  X:06ABH         PUBLIC        MD_delay
  X:06ACH         PUBLIC        MD_flag
  D:00A8H         PUBLIC        IE
  X:06ADH         PUBLIC        button_delay
  C:F1A3H         PUBLIC        Proc_init_tou_var
  X:06AEH         PUBLIC        TestDelay
  X:06AFH         PUBLIC        MAGN_delay
  D:00B8H         PUBLIC        IP
  X:06B0H         PUBLIC        button_flag
  X:06B1H         PUBLIC        MAGN_flag
  X:06B2H         PUBLIC        MD_dis_delay
  C:CB52H         PUBLIC        Proc_get_clock
  D:0098H         PUBLIC        SCON
  D:0088H         PUBLIC        TCON
  X:06B3H         PUBLIC        KEY_READ_DELAY
  C:F1B4H         PUBLIC        Proc_Auto_ClrMeter_Pre_sec
  C:939FH         PUBLIC        Proc_handl_tou_1s
  X:06B4H         PUBLIC        gs_tou_var
  D:00F0H         PUBLIC        B
  X:06BCH         PUBLIC        gs_auto_clrMeter_var
  D:00E0H         PUBLIC        ACC
  C:F15FH         PUBLIC        Initlize_Auto_ClrMeter_Var
  D:0080H         PUBLIC        SysCtrl
  C:EDAAH         PUBLIC        Proc_handl_tou_10ms
  X:06BEH         PUBLIC        Bill_Data
BL51 BANKED LINKER/LOCATER V6.22                                                      03/12/2019  13:46:20  PAGE 45


  X:06BFH         PUBLIC        KEY_READ_FLAG
  X:06C0H         PUBLIC        IsModeTest
  D:00C8H         PUBLIC        T2CON
  C:D076H         PUBLIC        api_handl_button_pre_10ms
  X:06C1H         PUBLIC        gs_CurDateTime
  D:00D0H         PUBLIC        PSW
  -------         PROC          PROC_GET_CLOCK
  -------         DO            
  X:000DH         SYMBOL        rtc_data_tmp
  -------         ENDDO         
  C:CB52H         LINE#         52
  C:CB52H         LINE#         53
  C:CB52H         LINE#         57
  C:CB5BH         LINE#         58
  C:CB67H         LINE#         59
  C:CB67H         LINE#         60
  C:CB80H         LINE#         61
  C:CB8CH         LINE#         62
  C:CB8CH         LINE#         64
  C:CB92H         LINE#         65
  C:CB96H         LINE#         66
  C:CB9AH         LINE#         67
  C:CB9EH         LINE#         68
  C:CBA2H         LINE#         69
  C:CBA6H         LINE#         70
  C:CBA8H         LINE#         71
  C:CBC2H         LINE#         72
  C:CBC2H         LINE#         73
  C:CBCBH         LINE#         74
  C:CBCBH         LINE#         75
  -------         ENDPROC       PROC_GET_CLOCK
  -------         PROC          PROC_INIT_TOU_VAR
  C:F1A3H         LINE#         91
  C:F1A3H         LINE#         92
  C:F1A3H         LINE#         93
  -------         ENDPROC       PROC_INIT_TOU_VAR
  -------         PROC          API_HANDL_BUTTON_PRE_10MS
  C:D076H         LINE#         96
  C:D076H         LINE#         97
  C:D076H         LINE#         98
  C:D082H         LINE#         99
  C:D082H         LINE#         100
  C:D084H         LINE#         101
  C:D08AH         LINE#         102
  C:D08AH         LINE#         103
  C:D090H         LINE#         104
  C:D090H         LINE#         105
  C:D095H         LINE#         106
  C:D099H         LINE#         107
  C:D099H         LINE#         108
  C:D0A8H         LINE#         109
  C:D0A8H         LINE#         110
  C:D0ADH         LINE#         111
  C:D0B1H         LINE#         113
  C:D0B1H         LINE#         114
  C:D0B8H         LINE#         115
  C:D0B8H         LINE#         116
BL51 BANKED LINKER/LOCATER V6.22                                                      03/12/2019  13:46:20  PAGE 46


  C:D0BCH         LINE#         117
  C:D0BCH         LINE#         118
  C:D0CBH         LINE#         119
  C:D0CBH         LINE#         120
  C:D0CEH         LINE#         121
  C:D0D2H         LINE#         122
  C:D0D2H         LINE#         123
  C:D0D9H         LINE#         124
  C:D0D9H         LINE#         125
  C:D0DDH         LINE#         126
  C:D0DDH         LINE#         127
  C:D0ECH         LINE#         128
  C:D0ECH         LINE#         129
  C:D0F1H         LINE#         130
  C:D0F5H         LINE#         132
  C:D0F5H         LINE#         133
  C:D0FCH         LINE#         134
  C:D0FCH         LINE#         135
  C:D100H         LINE#         136
  C:D100H         LINE#         137
  -------         ENDPROC       API_HANDL_BUTTON_PRE_10MS
  -------         PROC          PROC_HANDL_TOU_10MS
  -------         DO            
  X:0000H         SYMBOL        i
  -------         ENDDO         
  C:EDAAH         LINE#         152
  C:EDAAH         LINE#         153
  C:EDAAH         LINE#         157
  C:EDB9H         LINE#         158
  C:EDB9H         LINE#         159
  C:EDBCH         LINE#         160
  C:EDC4H         LINE#         161
  C:EDCCH         LINE#         162
  -------         ENDPROC       PROC_HANDL_TOU_10MS
  -------         PROC          PROC_HANDL_TOU_1S
  C:939FH         LINE#         180
  C:939FH         LINE#         181
  C:939FH         LINE#         186
  C:93A2H         LINE#         188
  C:93B0H         LINE#         189
  C:93B9H         LINE#         190
  C:93B9H         LINE#         191
  C:93BCH         LINE#         192
  C:93BFH         LINE#         193
  C:93BFH         LINE#         195
  C:93C5H         LINE#         196
  C:93C5H         LINE#         199
  C:93C8H         LINE#         200
  C:93D6H         LINE#         202
  C:93D9H         LINE#         203
  C:93E7H         LINE#         204
  C:93EAH         LINE#         206
  C:93EDH         LINE#         207
  C:93FBH         LINE#         209
  C:93FEH         LINE#         211
  C:9401H         LINE#         212
  C:9404H         LINE#         213
BL51 BANKED LINKER/LOCATER V6.22                                                      03/12/2019  13:46:20  PAGE 47


  C:9404H         LINE#         214
  C:940AH         LINE#         215
  C:940AH         LINE#         216
  C:9413H         LINE#         217
  C:9413H         LINE#         218
  C:9413H         LINE#         219
  C:9415H         LINE#         220
  C:941BH         LINE#         221
  C:9421H         LINE#         223
  C:9421H         LINE#         224
  C:9423H         LINE#         225
  C:942CH         LINE#         226
  C:942CH         LINE#         227
  C:942FH         LINE#         228
  C:9431H         LINE#         229
  C:9436H         LINE#         230
  C:9436H         LINE#         231
  C:9436H         LINE#         232
  C:943CH         LINE#         233
  C:943CH         LINE#         235
  C:943FH         LINE#         237
  C:9442H         LINE#         238
  C:9444H         LINE#         240
  C:9444H         LINE#         241
  C:944AH         LINE#         242
  C:944AH         LINE#         247
  C:944DH         LINE#         249
  C:9453H         LINE#         250
  C:9453H         LINE#         251
  C:9456H         LINE#         252
  C:9464H         LINE#         253
  C:9467H         LINE#         254
  C:9475H         LINE#         256
  C:9478H         LINE#         257
  C:947BH         LINE#         260
  C:9482H         LINE#         261
  C:9482H         LINE#         262
  C:9490H         LINE#         263
  C:9493H         LINE#         264
  C:9493H         LINE#         265
  C:94A1H         LINE#         267
  C:94A4H         LINE#         268
  C:94B2H         LINE#         270
  C:94B5H         LINE#         273
  C:94B5H         LINE#         275
  C:94BCH         LINE#         276
  C:94BCH         LINE#         277
  C:94BFH         LINE#         278
  C:94CDH         LINE#         279
  C:94CDH         LINE#         282
  C:94D4H         LINE#         283
  C:94D4H         LINE#         284
  C:94D7H         LINE#         285
  C:94E5H         LINE#         286
  C:94E5H         LINE#         288
  -------         ENDPROC       PROC_HANDL_TOU_1S
  -------         PROC          PROC_AUTO_CLRMETER_PRE_SEC
BL51 BANKED LINKER/LOCATER V6.22                                                      03/12/2019  13:46:20  PAGE 48


  C:F1B4H         LINE#         298
  C:F1B4H         LINE#         299
  C:F1B4H         LINE#         302
  -------         ENDPROC       PROC_AUTO_CLRMETER_PRE_SEC
  -------         PROC          INITLIZE_AUTO_CLRMETER_VAR
  C:F15FH         LINE#         313
  C:F15FH         LINE#         314
  C:F15FH         LINE#         316
  C:F164H         LINE#         317
  C:F168H         LINE#         319
  -------         ENDPROC       INITLIZE_AUTO_CLRMETER_VAR
  -------         ENDMOD        PROC_SYSTEM_TOU

  -------         MODULE        DRV_E2P_24CXXX
  C:0000H         SYMBOL        _ICE_DUMMY_
  D:0090H         PUBLIC        P1
  D:00B0H         PUBLIC        P3
  C:D294H         PUBLIC        _Read_EEPROM_Page
  D:00A8H         PUBLIC        IE
  C:BDC3H         PUBLIC        _Read_EEPROM_Page_Sub
  C:CF5DH         PUBLIC        _Write_EEPROM_Page
  D:00B8H         PUBLIC        IP
  C:C331H         PUBLIC        _Write_EEPROM_Page_Sub
  C:C52FH         PUBLIC        _Read_EEPROM
  D:0098H         PUBLIC        SCON
  D:0088H         PUBLIC        TCON
  C:C849H         PUBLIC        _Write_EEPROM
  D:00F0H         PUBLIC        B
  D:00E0H         PUBLIC        ACC
  D:0080H         PUBLIC        SysCtrl
  D:00C8H         PUBLIC        T2CON
  D:00D0H         PUBLIC        PSW
  C:BDBDH         SYMBOL        L?0054
  -------         PROC          L?0053
  -------         ENDPROC       L?0053
  C:BDBDH         SYMBOL        L?0054
  -------         PROC          _READ_EEPROM_PAGE_SUB
  X:022BH         SYMBOL        Buf
  X:022EH         SYMBOL        Addr
  X:0230H         SYMBOL        Len
  -------         DO            
  X:0231H         SYMBOL        NewWrCmd
  X:0232H         SYMBOL        NewRdCmd
  X:0233H         SYMBOL        err_cnt
  -------         ENDDO         
  C:BDC3H         LINE#         30
  C:BDD4H         LINE#         31
  C:BDD4H         LINE#         36
  C:BDD9H         LINE#         47
  C:BDDFH         LINE#         48
  C:BDE2H         LINE#         52
  C:BDE2H         LINE#         53
  C:BDE5H         LINE#         54
  C:BDEBH         LINE#         55
  C:BDF4H         LINE#         56
  C:BDF7H         LINE#         57
  C:BE02H         LINE#         62
BL51 BANKED LINKER/LOCATER V6.22                                                      03/12/2019  13:46:20  PAGE 49


  C:BE12H         LINE#         63
  C:BE23H         LINE#         66
  C:BE26H         LINE#         68
  C:BE36H         LINE#         70
  C:BE40H         LINE#         71
  C:BE40H         LINE#         72
  C:BE5AH         LINE#         73
  C:BE64H         LINE#         74
  C:BE66H         LINE#         75
  C:BE69H         LINE#         76
  C:BE6BH         LINE#         77
  -------         ENDPROC       _READ_EEPROM_PAGE_SUB
  -------         PROC          _WRITE_EEPROM_PAGE_SUB
  X:01E0H         SYMBOL        Addr
  X:01E2H         SYMBOL        Buf
  X:01E5H         SYMBOL        Len
  -------         DO            
  X:01E6H         SYMBOL        NewWrCmd
  X:01E7H         SYMBOL        NewRdCmd
  X:01E8H         SYMBOL        err_cnt
  -------         ENDDO         
  C:C331H         LINE#         88
  C:C342H         LINE#         89
  C:C342H         LINE#         95
  C:C347H         LINE#         104
  C:C34DH         LINE#         105
  C:C350H         LINE#         108
  C:C351H         LINE#         110
  C:C351H         LINE#         111
  C:C354H         LINE#         112
  C:C35AH         LINE#         113
  C:C363H         LINE#         114
  C:C366H         LINE#         115
  C:C371H         LINE#         120
  C:C381H         LINE#         121
  C:C392H         LINE#         125
  C:C392H         LINE#         126
  C:C3A9H         LINE#         127
  C:C3A9H         LINE#         128
  C:C3AAH         LINE#         129
  C:C3ADH         LINE#         130
  C:C3ADH         LINE#         131
  C:C3B7H         LINE#         132
  C:C3C5H         LINE#         133
  C:C3CBH         LINE#         134
  C:C3CEH         LINE#         136
  C:C3D1H         LINE#         138
  C:C3D8H         LINE#         140
  C:C3D9H         LINE#         142
  C:C3DBH         LINE#         143
  -------         ENDPROC       _WRITE_EEPROM_PAGE_SUB
  -------         PROC          _READ_EEPROM_PAGE
  X:01E4H         SYMBOL        u8p_dst
  X:01E7H         SYMBOL        u16_src
  X:01E9H         SYMBOL        u8_len
  -------         DO            
  X:01EAH         SYMBOL        data00
BL51 BANKED LINKER/LOCATER V6.22                                                      03/12/2019  13:46:20  PAGE 50


  X:022AH         SYMBOL        i
  -------         ENDDO         
  C:D294H         LINE#         157
  C:D2A5H         LINE#         158
  C:D2A5H         LINE#         162
  C:D2B3H         LINE#         163
  C:D2B3H         LINE#         164
  C:D2B6H         LINE#         165
  C:D2B6H         LINE#         166
  C:D2BBH         LINE#         167
  C:D2BBH         LINE#         168
  C:D2C7H         LINE#         169
  C:D2D6H         LINE#         170
  C:D300H         LINE#         171
  C:D30CH         LINE#         172
  C:D30EH         LINE#         173
  -------         ENDPROC       _READ_EEPROM_PAGE
  -------         PROC          _WRITE_EEPROM_PAGE
  X:0199H         SYMBOL        u16_dst
  X:019BH         SYMBOL        u8p_src
  X:019EH         SYMBOL        u8_len
  -------         DO            
  X:019FH         SYMBOL        data00
  X:01DFH         SYMBOL        i
  -------         ENDDO         
  C:CF5DH         LINE#         186
  C:CF6EH         LINE#         187
  C:CF6EH         LINE#         191
  C:CF7CH         LINE#         192
  C:CF7CH         LINE#         193
  C:CF7FH         LINE#         194
  C:CF7FH         LINE#         195
  C:CF84H         LINE#         196
  C:CF84H         LINE#         197
  C:CF9EH         LINE#         198
  C:CFB1H         LINE#         199
  C:CFDBH         LINE#         200
  C:CFE7H         LINE#         201
  C:CFE9H         LINE#         202
  -------         ENDPROC       _WRITE_EEPROM_PAGE
  -------         PROC          _READ_EEPROM
  X:01DCH         SYMBOL        u8p_dst
  X:01DFH         SYMBOL        u16_src
  X:01E1H         SYMBOL        u16_len
  -------         DO            
  D:0005H         SYMBOL        tmp
  X:01E3H         SYMBOL        u8_lenth
  -------         ENDDO         
  C:C52FH         LINE#         216
  C:C540H         LINE#         217
  C:C540H         LINE#         221
  C:C550H         LINE#         222
  C:C550H         LINE#         223
  C:C558H         LINE#         224
  C:C55AH         LINE#         225
  C:C55AH         LINE#         226
  C:C561H         LINE#         227
BL51 BANKED LINKER/LOCATER V6.22                                                      03/12/2019  13:46:20  PAGE 51


  C:C563H         LINE#         229
  C:C563H         LINE#         230
  C:C569H         LINE#         231
  C:C569H         LINE#         232
  C:C57DH         LINE#         234
  C:C59EH         LINE#         235
  C:C5AFH         LINE#         236
  C:C5BBH         LINE#         237
  C:C5C9H         LINE#         238
  C:C5CCH         LINE#         239
  C:C5CEH         LINE#         240
  -------         ENDPROC       _READ_EEPROM
  -------         PROC          _WRITE_EEPROM
  X:0191H         SYMBOL        u16_dst
  X:0193H         SYMBOL        u8p_src
  X:0196H         SYMBOL        u16_len
  -------         DO            
  D:0003H         SYMBOL        tmp
  X:0198H         SYMBOL        u8_lenth
  -------         ENDDO         
  C:C849H         LINE#         253
  C:C85AH         LINE#         254
  C:C85AH         LINE#         258
  C:C86AH         LINE#         259
  C:C86AH         LINE#         260
  C:C875H         LINE#         261
  C:C877H         LINE#         262
  C:C877H         LINE#         263
  C:C87EH         LINE#         264
  C:C880H         LINE#         266
  C:C880H         LINE#         267
  C:C886H         LINE#         268
  C:C886H         LINE#         269
  C:C89AH         LINE#         272
  C:C8B5H         LINE#         273
  C:C8C9H         LINE#         274
  C:C8D2H         LINE#         275
  C:C8E0H         LINE#         276
  C:C8E3H         LINE#         277
  C:C8E5H         LINE#         278
  -------         ENDPROC       _WRITE_EEPROM
  -------         ENDMOD        DRV_E2P_24CXXX

  -------         MODULE        DRV_E2P_I2CSOFT
  C:0000H         SYMBOL        _ICE_DUMMY_
  D:0090H         PUBLIC        P1
  D:00B0H         PUBLIC        P3
  C:CECFH         PUBLIC        _E2p_RxByte_i2c
  C:C8E6H         PUBLIC        _E2p_TxByte_i2c
  D:00A8H         PUBLIC        IE
  D:00B8H         PUBLIC        IP
  D:0098H         PUBLIC        SCON
  D:0088H         PUBLIC        TCON
  C:EA26H         PUBLIC        E2p_Start_i2c
  D:00F0H         PUBLIC        B
  D:00E0H         PUBLIC        ACC
  C:EEC0H         PUBLIC        E2p_IIC_Initail
BL51 BANKED LINKER/LOCATER V6.22                                                      03/12/2019  13:46:20  PAGE 52


  C:E7E5H         PUBLIC        E2p_Stop_i2c
  D:0080H         PUBLIC        SysCtrl
  D:00C8H         PUBLIC        T2CON
  D:00D0H         PUBLIC        PSW
  -------         PROC          E2P_IIC_INITAIL
  C:EEC0H         LINE#         28
  C:EEC0H         LINE#         29
  C:EEC0H         LINE#         30
  C:EECCH         LINE#         31
  C:EED1H         LINE#         32
  C:EEDDH         LINE#         33
  -------         ENDPROC       E2P_IIC_INITAIL
  -------         PROC          E2P_START_I2C
  C:EA26H         LINE#         43
  C:EA26H         LINE#         44
  C:EA26H         LINE#         45
  C:EA32H         LINE#         46
  C:EA37H         LINE#         47
  C:EA3DH         LINE#         48
  C:EA4FH         LINE#         49
  C:EA55H         LINE#         50
  C:EA5CH         LINE#         51
  -------         ENDPROC       E2P_START_I2C
  -------         PROC          E2P_STOP_I2C
  C:E7E5H         LINE#         61
  C:E7E5H         LINE#         62
  C:E7E5H         LINE#         82
  C:E7FAH         LINE#         83
  C:E800H         LINE#         84
  C:E807H         LINE#         85
  C:E80DH         LINE#         86
  C:E819H         LINE#         87
  C:E81FH         LINE#         88
  -------         ENDPROC       E2P_STOP_I2C
  -------         PROC          _E2P_TXBYTE_I2C
  D:0007H         SYMBOL        txData
  -------         DO            
  D:0008H         SYMBOL        i
  -------         ENDDO         
  C:C8E6H         LINE#         99
  C:C8E6H         LINE#         100
  C:C8E6H         LINE#         101
  C:C8E9H         LINE#         104
  C:C8EBH         LINE#         105
  C:C8EBH         LINE#         106
  C:C8F2H         LINE#         107
  C:C8F6H         LINE#         108
  C:C8F6H         LINE#         109
  C:C902H         LINE#         110
  C:C904H         LINE#         112
  C:C904H         LINE#         113
  C:C919H         LINE#         114
  C:C919H         LINE#         115
  C:C91DH         LINE#         116
  C:C924H         LINE#         117
  C:C92AH         LINE#         118
  C:C931H         LINE#         121
BL51 BANKED LINKER/LOCATER V6.22                                                      03/12/2019  13:46:20  PAGE 53


  C:C938H         LINE#         122
  C:C944H         LINE#         123
  C:C947H         LINE#         124
  C:C94AH         LINE#         125
  C:C94AH         LINE#         126
  C:C951H         LINE#         127
  C:C951H         LINE#         128
  C:C958H         LINE#         129
  C:C95EH         LINE#         130
  C:C962H         LINE#         131
  C:C965H         LINE#         132
  C:C965H         LINE#         133
  C:C96CH         LINE#         136
  C:C973H         LINE#         137
  C:C979H         LINE#         138
  C:C97DH         LINE#         139
  C:C980H         LINE#         141
  C:C982H         LINE#         142
  -------         ENDPROC       _E2P_TXBYTE_I2C
  -------         PROC          _E2P_RXBYTE_I2C
  D:0007H         SYMBOL        u8_ack
  -------         DO            
  D:0008H         SYMBOL        i
  D:0009H         SYMBOL        rxData
  -------         ENDDO         
  C:CECFH         LINE#         153
  C:CECFH         LINE#         154
  C:CECFH         LINE#         155
  C:CED2H         LINE#         156
  C:CED4H         LINE#         158
  C:CEE0H         LINE#         159
  C:CEE5H         LINE#         162
  C:CEE8H         LINE#         163
  C:CEE8H         LINE#         164
  C:CEEEH         LINE#         165
  C:CEF5H         LINE#         166
  C:CEFBH         LINE#         167
  C:CF00H         LINE#         168
  C:CF00H         LINE#         169
  C:CF03H         LINE#         170
  C:CF03H         LINE#         171
  C:CF0AH         LINE#         172
  C:CF10H         LINE#         173
  C:CF17H         LINE#         176
  C:CF1AH         LINE#         177
  C:CF1AH         LINE#         178
  C:CF2FH         LINE#         179
  C:CF31H         LINE#         181
  C:CF31H         LINE#         182
  C:CF3DH         LINE#         183
  C:CF3DH         LINE#         185
  C:CF44H         LINE#         186
  C:CF4AH         LINE#         187
  C:CF4EH         LINE#         188
  C:CF5AH         LINE#         190
  C:CF5CH         LINE#         191
  -------         ENDPROC       _E2P_RXBYTE_I2C
BL51 BANKED LINKER/LOCATER V6.22                                                      03/12/2019  13:46:20  PAGE 54


  -------         ENDMOD        DRV_E2P_I2CSOFT

  -------         MODULE        DRV_EMU_HARD
  C:0000H         SYMBOL        _ICE_DUMMY_
  D:0090H         PUBLIC        P1
  C:ED0EH         PUBLIC        Close_Cf
  D:00B0H         PUBLIC        P3
  C:C07AH         PUBLIC        _SetMeterCfgI
  D:00A8H         PUBLIC        IE
  C:C7ABH         PUBLIC        _SetMeterCfgACK
  C:C70DH         PUBLIC        _SetMeterCfgACKPM800K
  D:00B8H         PUBLIC        IP
  C:F0D3H         PUBLIC        OpenCF
  D:0098H         PUBLIC        SCON
  D:0088H         PUBLIC        TCON
  C:F1B5H         PUBLIC        Close_EmuPwr
  B:0080H.7       PUBLIC        MEAFRQ
  D:00F0H         PUBLIC        B
  D:00E0H         PUBLIC        ACC
  D:00E8H         PUBLIC        EIE
  C:9254H         PUBLIC        _ReadMeterParaACK
  D:0080H         PUBLIC        SysCtrl
  D:00C8H         PUBLIC        T2CON
  D:00D0H         PUBLIC        PSW
  -------         PROC          CLOSE_EMUPWR
  C:F1B5H         LINE#         91
  C:F1B5H         LINE#         92
  C:F1B5H         LINE#         94
  -------         ENDPROC       CLOSE_EMUPWR
  -------         PROC          OPENCF
  C:F0D3H         LINE#         103
  C:F0D3H         LINE#         104
  C:F0D3H         LINE#         105
  C:F0DBH         LINE#         106
  C:F0E6H         LINE#         108
  -------         ENDPROC       OPENCF
  -------         PROC          CLOSE_CF
  -------         DO            
  D:0004H         SYMBOL        PmPara
  -------         ENDDO         
  C:ED0EH         LINE#         118
  C:ED0EH         LINE#         119
  C:ED0EH         LINE#         122
  C:ED15H         LINE#         123
  C:ED19H         LINE#         124
  C:ED26H         LINE#         126
  C:ED2DH         LINE#         128
  C:ED34H         LINE#         129
  -------         ENDPROC       CLOSE_CF
  -------         PROC          _SETMETERCFGACKPM800K
  X:07D3H         SYMBOL        u32PMdatal
  X:07D7H         SYMBOL        addr
  -------         DO            
  D:0007H         SYMBOL        index
  -------         ENDDO         
  C:C70DH         LINE#         140
  C:C713H         LINE#         141
BL51 BANKED LINKER/LOCATER V6.22                                                      03/12/2019  13:46:20  PAGE 55


  C:C713H         LINE#         143
  C:C715H         LINE#         145
  C:C71BH         LINE#         146
  C:C71DH         LINE#         147
  C:C723H         LINE#         148
  C:C723H         LINE#         149
  C:C724H         LINE#         150
  C:C72AH         LINE#         151
  C:C72AH         LINE#         152
  C:C72DH         LINE#         153
  C:C72DH         LINE#         154
  C:C72DH         LINE#         155
  C:C73AH         LINE#         156
  C:C752H         LINE#         157
  C:C76AH         LINE#         158
  C:C782H         LINE#         159
  C:C78FH         LINE#         160
  C:C790H         LINE#         161
  C:C796H         LINE#         162
  C:C798H         LINE#         163
  C:C79EH         LINE#         164
  C:C79EH         LINE#         165
  C:C79FH         LINE#         166
  C:C7A5H         LINE#         167
  C:C7A8H         LINE#         168
  C:C7A8H         LINE#         169
  C:C7AAH         LINE#         171
  -------         ENDPROC       _SETMETERCFGACKPM800K
  -------         PROC          _SETMETERCFGI
  X:07C5H         SYMBOL        u32PMdatal
  X:07C9H         SYMBOL        addr
  -------         DO            
  D:0003H         SYMBOL        index
  X:07CBH         SYMBOL        i
  -------         ENDDO         
  C:C07AH         LINE#         184
  C:C080H         LINE#         185
  C:C080H         LINE#         187
  C:C082H         LINE#         189
  C:C088H         LINE#         190
  C:C08AH         LINE#         191
  C:C090H         LINE#         192
  C:C090H         LINE#         193
  C:C091H         LINE#         194
  C:C097H         LINE#         195
  C:C097H         LINE#         196
  C:C09AH         LINE#         197
  C:C09AH         LINE#         198
  C:C09AH         LINE#         199
  C:C0A7H         LINE#         200
  C:C0BFH         LINE#         201
  C:C0D7H         LINE#         202
  C:C0EFH         LINE#         204
  C:C0F1H         LINE#         205
  C:C0F4H         LINE#         206
  C:C0F4H         LINE#         207
  C:C0FAH         LINE#         208
BL51 BANKED LINKER/LOCATER V6.22                                                      03/12/2019  13:46:20  PAGE 56


  C:C100H         LINE#         209
  C:C100H         LINE#         210
  C:C100H         LINE#         211
  C:C100H         LINE#         213
  C:C10DH         LINE#         214
  C:C10EH         LINE#         215
  C:C114H         LINE#         216
  C:C116H         LINE#         217
  C:C11CH         LINE#         218
  C:C11CH         LINE#         219
  C:C11DH         LINE#         220
  C:C123H         LINE#         221
  C:C126H         LINE#         222
  C:C126H         LINE#         224
  C:C128H         LINE#         226
  -------         ENDPROC       _SETMETERCFGI
  -------         PROC          _SETMETERCFGACK
  X:00C6H         SYMBOL        u32PMdatal
  X:00CAH         SYMBOL        addr
  -------         DO            
  D:0007H         SYMBOL        index
  -------         ENDDO         
  C:C7ABH         LINE#         237
  C:C7B1H         LINE#         238
  C:C7B1H         LINE#         240
  C:C7B3H         LINE#         242
  C:C7B9H         LINE#         243
  C:C7BBH         LINE#         244
  C:C7C1H         LINE#         245
  C:C7C1H         LINE#         246
  C:C7C2H         LINE#         247
  C:C7C8H         LINE#         248
  C:C7C8H         LINE#         249
  C:C7CBH         LINE#         250
  C:C7CBH         LINE#         251
  C:C7CBH         LINE#         252
  C:C7D8H         LINE#         253
  C:C7F0H         LINE#         254
  C:C808H         LINE#         255
  C:C820H         LINE#         256
  C:C82DH         LINE#         257
  C:C82EH         LINE#         258
  C:C834H         LINE#         259
  C:C836H         LINE#         260
  C:C83CH         LINE#         261
  C:C83CH         LINE#         262
  C:C83DH         LINE#         263
  C:C843H         LINE#         264
  C:C846H         LINE#         265
  C:C846H         LINE#         267
  C:C848H         LINE#         268
  -------         ENDPROC       _SETMETERCFGACK
  -------         PROC          _READMETERPARAACK
  D:0006H         SYMBOL        addr
  -------         DO            
  D:0008H         SYMBOL        index
  X:00C6H         SYMBOL        u32PMdatal
BL51 BANKED LINKER/LOCATER V6.22                                                      03/12/2019  13:46:20  PAGE 57


  X:00CAH         SYMBOL        temp
  -------         ENDDO         
  C:9254H         LINE#         279
  C:9254H         LINE#         280
  C:9254H         LINE#         284
  C:925AH         LINE#         285
  C:925CH         LINE#         286
  C:925EH         LINE#         287
  C:9264H         LINE#         288
  C:9264H         LINE#         289
  C:9266H         LINE#         290
  C:926DH         LINE#         291
  C:926DH         LINE#         292
  C:926FH         LINE#         293
  C:926FH         LINE#         294
  C:926FH         LINE#         296
  C:9276H         LINE#         297
  C:9279H         LINE#         298
  C:9281H         LINE#         299
  C:9284H         LINE#         300
  C:928AH         LINE#         301
  C:928AH         LINE#         302
  C:928CH         LINE#         303
  C:9293H         LINE#         304
  C:9293H         LINE#         305
  C:9299H         LINE#         306
  C:9299H         LINE#         307
  C:9299H         LINE#         308
  C:92A8H         LINE#         309
  C:92BCH         LINE#         310
  C:92E8H         LINE#         311
  C:92F7H         LINE#         312
  C:9310H         LINE#         313
  C:933CH         LINE#         314
  C:934BH         LINE#         315
  C:9364H         LINE#         316
  C:9390H         LINE#         317
  C:939EH         LINE#         319
  -------         ENDPROC       _READMETERPARAACK
  -------         ENDMOD        DRV_EMU_HARD

  -------         MODULE        LNK_EMU_ADJ
  C:0000H         SYMBOL        _ICE_DUMMY_
  D:00CEH         PUBLIC        wdt0
  D:0090H         PUBLIC        P1
  D:00CFH         PUBLIC        wdt1
  D:00B0H         PUBLIC        P3
  B:00A8H.7       PUBLIC        EA
  X:05B2H         PUBLIC        gs_adj_emu_param
  D:00A8H         PUBLIC        IE
  C:822EH         PUBLIC        _CalculateSChz
  C:66C5H         PUBLIC        Check_EMU_AdjParam
  C:A2C0H         PUBLIC        _CalculateAC
  D:00B8H         PUBLIC        IP
  C:9E74H         PUBLIC        _Calibration_Angular
  C:7490H         PUBLIC        _SoftAdjust_Phase_Process
  C:A8CDH         PUBLIC        _CalculateSC
BL51 BANKED LINKER/LOCATER V6.22                                                      03/12/2019  13:46:20  PAGE 58


  C:8B50H         PUBLIC        _Get_Original_Power
  C:A5C2H         PUBLIC        TimeEventProc
  C:BC48H         PUBLIC        default_adj_emu_param_tab
  C:2DF2H         PUBLIC        Hardware_AdjustDiv_Sub
  D:0098H         PUBLIC        SCON
  C:BCCBH         PUBLIC        cst_emu_constchck_tab
  D:0088H         PUBLIC        TCON
  C:BC9EH         PUBLIC        cst_emu_selfchck_tab
  C:5D3AH         PUBLIC        _Calibration_Current
  C:8CB9H         PUBLIC        _Get_Original_Irms
  C:9F98H         PUBLIC        _SoftAdjust_IB_Process
  C:E945H         PUBLIC        Save_EMU_AdjParam
  X:05ECH         PUBLIC        gs_emu_adj_var
  D:00F0H         PUBLIC        B
  D:00E0H         PUBLIC        ACC
  C:BCD7H         PUBLIC        cst_emu_constchck_tab_9260f
  C:7D3EH         PUBLIC        _Calibration_small_signal
  C:E6B4H         PUBLIC        Get_EMU_AdjParam
  C:5562H         PUBLIC        _Measure_Electric_Err_Gain
  D:0080H         PUBLIC        SysCtrl
  C:BA01H         PUBLIC        _Calibration_Power
  C:BC82H         PUBLIC        cst_adj_const
  D:00C8H         PUBLIC        T2CON
  C:B539H         PUBLIC        _SoftAdjust_IB5_Process
  D:00D0H         PUBLIC        PSW
  -------         PROC          SAVE_EMU_ADJPARAM
  C:E945H         LINE#         100
  C:E945H         LINE#         101
  C:E945H         LINE#         102
  C:E964H         LINE#         103
  -------         ENDPROC       SAVE_EMU_ADJPARAM
  -------         PROC          GET_EMU_ADJPARAM
  -------         DO            
  D:0006H         SYMBOL        csck_u16
  -------         ENDDO         
  C:E6B4H         LINE#         114
  C:E6B4H         LINE#         115
  C:E6B4H         LINE#         119
  C:E6CBH         LINE#         120
  C:E6D7H         LINE#         121
  C:E6D7H         LINE#         122
  C:E6F1H         LINE#         123
  C:E6F1H         LINE#         124
  -------         ENDPROC       GET_EMU_ADJPARAM
  -------         PROC          CHECK_EMU_ADJPARAM
  -------         DO            
  X:00B1H         SYMBOL        regval
  X:00B5H         SYMBOL        i
  X:00B6H         SYMBOL        tmp_tab
  X:00BBH         SYMBOL        tmp_const_tab
  X:00C1H         SYMBOL        ucSum
  X:00C5H         SYMBOL        u8_tmp
  -------         ENDDO         
  C:66C5H         LINE#         133
  C:66C5H         LINE#         134
  C:66C5H         LINE#         139
  C:66CFH         LINE#         143
BL51 BANKED LINKER/LOCATER V6.22                                                      03/12/2019  13:46:20  PAGE 59


  C:66D2H         LINE#         146
  C:66EAH         LINE#         147
  C:66F4H         LINE#         148
  C:66F4H         LINE#         150
  C:6706H         LINE#         151
  C:6718H         LINE#         152
  C:671AH         LINE#         154
  C:671AH         LINE#         155
  C:672CH         LINE#         156
  C:6741H         LINE#         157
  C:6741H         LINE#         161
  C:6746H         LINE#         162
  C:6746H         LINE#         163
  C:6766H         LINE#         164
  C:677DH         LINE#         165
  C:6787H         LINE#         166
  C:6798H         LINE#         167
  C:67BAH         LINE#         168
  C:67BAH         LINE#         169
  C:67CEH         LINE#         170
  C:67EEH         LINE#         171
  C:67EEH         LINE#         172
  C:67FDH         LINE#         174
  C:6802H         LINE#         175
  C:6802H         LINE#         176
  C:6822H         LINE#         177
  C:6845H         LINE#         178
  C:684FH         LINE#         179
  C:6860H         LINE#         180
  C:687BH         LINE#         181
  C:687BH         LINE#         182
  C:6890H         LINE#         183
  C:6890H         LINE#         184
  C:6894H         LINE#         185
  C:6894H         LINE#         186
  C:6894H         LINE#         187
  C:6896H         LINE#         189
  C:6896H         LINE#         190
  C:68B8H         LINE#         191
  C:68B8H         LINE#         192
  C:68CCH         LINE#         193
  C:68ECH         LINE#         194
  C:68ECH         LINE#         195
  C:68ECH         LINE#         196
  C:68FBH         LINE#         198
  -------         ENDPROC       CHECK_EMU_ADJPARAM
  -------         PROC          _GET_ORIGINAL_POWER
  X:073EH         SYMBOL        avr_times
  X:073FH         SYMBOL        ch
  -------         DO            
  X:0740H         SYMBOL        val
  X:0744H         SYMBOL        i
  X:0745H         SYMBOL        aery_old
  D:0004H         SYMBOL        aery_val
  X:0749H         SYMBOL        avr_aery
  X:074DH         SYMBOL        TempValue
  -------         ENDDO         
BL51 BANKED LINKER/LOCATER V6.22                                                      03/12/2019  13:46:20  PAGE 60


  C:8B50H         LINE#         206
  C:8B58H         LINE#         207
  C:8B58H         LINE#         208
  C:8B58H         LINE#         214
  C:8B66H         LINE#         216
  C:8B70H         LINE#         217
  C:8B75H         LINE#         218
  C:8B89H         LINE#         219
  C:8B89H         LINE#         220
  C:8B97H         LINE#         221
  C:8B9DH         LINE#         222
  C:8BA2H         LINE#         223
  C:8BB0H         LINE#         224
  C:8BB6H         LINE#         225
  C:8BB6H         LINE#         226
  C:8BBDH         LINE#         227
  C:8BBFH         LINE#         229
  C:8BBFH         LINE#         231
  C:8BCDH         LINE#         232
  C:8BCDH         LINE#         233
  C:8BE0H         LINE#         234
  C:8BEBH         LINE#         235
  C:8BFFH         LINE#         236
  C:8C01H         LINE#         238
  C:8C01H         LINE#         239
  C:8C08H         LINE#         240
  C:8C08H         LINE#         241
  C:8C08H         LINE#         243
  C:8C22H         LINE#         244
  C:8C22H         LINE#         245
  C:8C46H         LINE#         246
  C:8C46H         LINE#         248
  C:8C5AH         LINE#         249
  C:8C86H         LINE#         250
  C:8C8FH         LINE#         252
  C:8CA9H         LINE#         253
  C:8CB7H         LINE#         254
  C:8CB8H         LINE#         255
  C:8CB8H         LINE#         256
  -------         ENDPROC       _GET_ORIGINAL_POWER
  -------         PROC          _GET_ORIGINAL_IRMS
  X:0751H         SYMBOL        avr_times
  X:0752H         SYMBOL        ch
  -------         DO            
  X:0753H         SYMBOL        val
  X:0757H         SYMBOL        i
  X:0758H         SYMBOL        aery_old
  D:0004H         SYMBOL        aery_val
  X:075CH         SYMBOL        avr_aery
  X:0760H         SYMBOL        TempValue
  -------         ENDDO         
  C:8CB9H         LINE#         266
  C:8CC1H         LINE#         267
  C:8CC1H         LINE#         268
  C:8CC1H         LINE#         274
  C:8CCFH         LINE#         276
  C:8CD9H         LINE#         277
BL51 BANKED LINKER/LOCATER V6.22                                                      03/12/2019  13:46:20  PAGE 61


  C:8CDEH         LINE#         278
  C:8CF2H         LINE#         279
  C:8CF2H         LINE#         280
  C:8D00H         LINE#         281
  C:8D06H         LINE#         282
  C:8D0BH         LINE#         283
  C:8D19H         LINE#         284
  C:8D1FH         LINE#         285
  C:8D1FH         LINE#         286
  C:8D26H         LINE#         287
  C:8D28H         LINE#         289
  C:8D28H         LINE#         291
  C:8D36H         LINE#         292
  C:8D36H         LINE#         293
  C:8D49H         LINE#         294
  C:8D54H         LINE#         295
  C:8D68H         LINE#         296
  C:8D6AH         LINE#         298
  C:8D6AH         LINE#         299
  C:8D71H         LINE#         300
  C:8D71H         LINE#         301
  C:8D71H         LINE#         303
  C:8D8BH         LINE#         304
  C:8D8BH         LINE#         305
  C:8DAFH         LINE#         306
  C:8DAFH         LINE#         308
  C:8DC3H         LINE#         309
  C:8DEFH         LINE#         310
  C:8DF8H         LINE#         312
  C:8E12H         LINE#         313
  C:8E20H         LINE#         314
  C:8E21H         LINE#         315
  C:8E21H         LINE#         316
  -------         ENDPROC       _GET_ORIGINAL_IRMS
  C:A8AEH         SYMBOL        L?0165
  C:A8C2H         SYMBOL        L?0166
  -------         PROC          L?0164
  -------         ENDPROC       L?0164
  C:A8AEH         SYMBOL        L?0165
  C:A8C2H         SYMBOL        L?0166
  -------         PROC          _CALCULATESC
  D:0004H         SYMBOL        CurValue
  X:00C9H         SYMBOL        TarValue
  -------         DO            
  D:0004H         SYMBOL        s32_tmp0
  X:00CDH         SYMBOL        f_CurValue
  X:00D1H         SYMBOL        f_TarValue
  X:00D5H         SYMBOL        f_Error
  X:00D9H         SYMBOL        f_s32_tmp0
  X:00DDH         SYMBOL        f_s32_tmp1
  D:0004H         SYMBOL        f_s32_tmp2
  D:0004H         SYMBOL        f_s32_tmp3
  -------         ENDDO         
  C:A8CDH         LINE#         337
  C:A8CDH         LINE#         338
  C:A8CDH         LINE#         345
  C:A8D7H         LINE#         346
BL51 BANKED LINKER/LOCATER V6.22                                                      03/12/2019  13:46:20  PAGE 62


  C:A8EFH         LINE#         347
  C:A931H         LINE#         349
  C:A961H         LINE#         351
  C:A97FH         LINE#         353
  C:A996H         LINE#         355
  C:A999H         LINE#         356
  C:A99CH         LINE#         357
  C:A99CH         LINE#         358
  -------         ENDPROC       _CALCULATESC
  -------         PROC          _CALCULATEAC
  X:00C5H         SYMBOL        CurValue
  X:00C9H         SYMBOL        TarValue
  -------         DO            
  X:00CDH         SYMBOL        Error
  D:0007H         SYMBOL        Result
  X:00CFH         SYMBOL        JCFH
  -------         ENDDO         
  C:A2C0H         LINE#         378
  C:A2C6H         LINE#         379
  C:A2C6H         LINE#         385
  C:A2CBH         LINE#         386
  C:A2E7H         LINE#         388
  C:A307H         LINE#         389
  C:A307H         LINE#         391
  C:A34EH         LINE#         392
  C:A352H         LINE#         393
  C:A354H         LINE#         395
  C:A354H         LINE#         397
  C:A39EH         LINE#         398
  C:A39EH         LINE#         399
  C:A3B7H         LINE#         400
  C:A3BEH         LINE#         401
  C:A3BEH         LINE#         402
  C:A3C2H         LINE#         403
  C:A3C2H         LINE#         404
  C:A3C2H         LINE#         405
  -------         ENDPROC       _CALCULATEAC
  -------         PROC          _SOFTADJUST_IB_PROCESS
  X:07AAH         SYMBOL        jzval
  X:07AEH         SYMBOL        channel
  -------         DO            
  X:07AFH         SYMBOL        val
  D:0004H         SYMBOL        adjust_wcval
  -------         ENDDO         
  C:9F98H         LINE#         414
  C:9F9EH         LINE#         415
  C:9F9EH         LINE#         416
  C:9F9EH         LINE#         419
  C:9FACH         LINE#         420
  C:9FB2H         LINE#         421
  C:9FB2H         LINE#         422
  C:9FBAH         LINE#         423
  C:9FD5H         LINE#         424
  C:9FF0H         LINE#         425
  C:9FF2H         LINE#         427
  C:9FF2H         LINE#         428
  C:9FFCH         LINE#         429
BL51 BANKED LINKER/LOCATER V6.22                                                      03/12/2019  13:46:20  PAGE 63


  C:A01AH         LINE#         431
  C:A038H         LINE#         432
  C:A038H         LINE#         433
  C:A042H         LINE#         434
  C:A06FH         LINE#         436
  C:A07DH         LINE#         437
  C:A083H         LINE#         438
  C:A083H         LINE#         439
  C:A092H         LINE#         440
  C:A094H         LINE#         442
  C:A094H         LINE#         443
  C:A0A8H         LINE#         444
  C:A0A8H         LINE#         445
  -------         ENDPROC       _SOFTADJUST_IB_PROCESS
  -------         PROC          _SOFTADJUST_IB5_PROCESS
  X:07B3H         SYMBOL        jzval
  X:07B7H         SYMBOL        channel
  -------         DO            
  B:0020H.5       SYMBOL        Flag_fu
  X:07B8H         SYMBOL        val
  D:0004H         SYMBOL        adjust_wcval
  -------         ENDDO         
  C:B539H         LINE#         454
  C:B53FH         LINE#         455
  C:B53FH         LINE#         456
  C:B541H         LINE#         462
  C:B54FH         LINE#         463
  C:B559H         LINE#         464
  C:B55FH         LINE#         465
  C:B55FH         LINE#         466
  C:B578H         LINE#         467
  C:B57AH         LINE#         469
  C:B57AH         LINE#         471
  C:B598H         LINE#         472
  C:B598H         LINE#         473
  C:B5A2H         LINE#         474
  C:B5D3H         LINE#         476
  C:B5E1H         LINE#         477
  C:B5E7H         LINE#         478
  C:B5E7H         LINE#         479
  C:B5F6H         LINE#         480
  C:B5F8H         LINE#         482
  C:B5F8H         LINE#         483
  C:B60CH         LINE#         484
  C:B60CH         LINE#         486
  -------         ENDPROC       _SOFTADJUST_IB5_PROCESS
  -------         PROC          _SOFTADJUST_PHASE_PROCESS
  X:07BCH         SYMBOL        jzval
  X:07C0H         SYMBOL        channel
  -------         DO            
  X:07C1H         SYMBOL        val
  D:0004H         SYMBOL        adjust_wcval
  -------         ENDDO         
  C:7490H         LINE#         495
  C:7496H         LINE#         496
  C:7496H         LINE#         497
  C:7496H         LINE#         502
BL51 BANKED LINKER/LOCATER V6.22                                                      03/12/2019  13:46:20  PAGE 64


  C:74A4H         LINE#         503
  C:74AEH         LINE#         504
  C:74B4H         LINE#         505
  C:74B4H         LINE#         506
  C:74CDH         LINE#         507
  C:74CFH         LINE#         509
  C:74CFH         LINE#         510
  C:74E5H         LINE#         511
  C:74E5H         LINE#         512
  C:74F3H         LINE#         514
  C:74F8H         LINE#         515
  C:74FEH         LINE#         516
  C:7503H         LINE#         518
  C:750DH         LINE#         519
  C:753EH         LINE#         521
  C:754CH         LINE#         522
  C:7552H         LINE#         523
  C:7552H         LINE#         524
  C:755EH         LINE#         525
  C:7561H         LINE#         527
  C:7561H         LINE#         528
  C:7571H         LINE#         529
  C:7571H         LINE#         530
  C:7585H         LINE#         531
  C:75ABH         LINE#         532
  C:75C4H         LINE#         533
  C:75D5H         LINE#         534
  C:75D7H         LINE#         536
  C:75D7H         LINE#         537
  C:75FAH         LINE#         538
  C:7613H         LINE#         539
  C:762CH         LINE#         540
  C:762CH         LINE#         541
  C:7636H         LINE#         542
  C:7664H         LINE#         543
  C:7664H         LINE#         545
  -------         ENDPROC       _SOFTADJUST_PHASE_PROCESS
  -------         PROC          _CALCULATESCHZ
  D:0006H         SYMBOL        error
  X:0004H         SYMBOL        LastSC
  -------         DO            
  X:0008H         SYMBOL        Error
  X:000AH         SYMBOL        Stemp0remd
  X:000CH         SYMBOL        Stemp2remd
  X:000EH         SYMBOL        Stemp0
  X:0012H         SYMBOL        Stemp1
  X:0016H         SYMBOL        Stemp2
  D:0004H         SYMBOL        Stemp3
  D:0004H         SYMBOL        Result
  -------         ENDDO         
  C:822EH         LINE#         593
  C:822EH         LINE#         594
  C:822EH         LINE#         603
  C:8236H         LINE#         604
  C:8257H         LINE#         605
  C:827FH         LINE#         606
  C:82A6H         LINE#         607
BL51 BANKED LINKER/LOCATER V6.22                                                      03/12/2019  13:46:20  PAGE 65


  C:82FAH         LINE#         609
  C:8326H         LINE#         610
  C:8358H         LINE#         611
  C:8378H         LINE#         612
  C:83AFH         LINE#         614
  C:83CAH         LINE#         615
  C:83CAH         LINE#         617
  -------         ENDPROC       _CALCULATESCHZ
  -------         PROC          TIMEEVENTPROC
  -------         DO            
  X:05AEH         SYMBOL        temp
  X:0000H         SYMBOL        HZ
  -------         ENDDO         
  C:A5C2H         LINE#         618
  C:A5C2H         LINE#         619
  C:A5C2H         LINE#         623
  C:A5E2H         LINE#         624
  C:A5FCH         LINE#         625
  C:A5FCH         LINE#         626
  C:A610H         LINE#         627
  C:A619H         LINE#         628
  C:A619H         LINE#         629
  C:A626H         LINE#         630
  C:A626H         LINE#         631
  C:A628H         LINE#         632
  C:A638H         LINE#         633
  C:A638H         LINE#         634
  C:A674H         LINE#         635
  C:A68FH         LINE#         636
  C:A68FH         LINE#         638
  C:A68FH         LINE#         639
  C:A6AAH         LINE#         640
  C:A6BEH         LINE#         641
  C:A6BEH         LINE#         642
  C:A6BEH         LINE#         644
  -------         ENDPROC       TIMEEVENTPROC
  -------         PROC          HARDWARE_ADJUSTDIV_SUB
  -------         DO            
  X:065AH         SYMBOL        i
  X:065BH         SYMBOL        val
  X:065FH         SYMBOL        tmpval
  X:0663H         SYMBOL        tmpval1
  X:0667H         SYMBOL        jzwcval
  X:066BH         SYMBOL        ajust1_type
  X:066CH         SYMBOL        ajust2_type
  X:066DH         SYMBOL        cmp_val
  X:067DH         SYMBOL        adjust1_wcval
  X:0681H         SYMBOL        TempValue
  -------         ENDDO         
  C:2DF2H         LINE#         651
  C:2DF2H         LINE#         652
  C:2DF2H         LINE#         656
  C:2DFCH         LINE#         665
  C:2E02H         LINE#         668
  C:2E08H         LINE#         670
  C:2E14H         LINE#         671
  C:2E3AH         LINE#         672
BL51 BANKED LINKER/LOCATER V6.22                                                      03/12/2019  13:46:20  PAGE 66


  C:2E60H         LINE#         673
  C:2E86H         LINE#         674
  C:2EACH         LINE#         676
  C:2EBAH         LINE#         679
  C:2EC7H         LINE#         680
  C:2EE9H         LINE#         681
  C:2EE9H         LINE#         682
  C:2EEEH         LINE#         683
  C:2EF1H         LINE#         684
  C:2F13H         LINE#         685
  C:2F13H         LINE#         686
  C:2F19H         LINE#         687
  C:2F1BH         LINE#         688
  C:2F3DH         LINE#         689
  C:2F3DH         LINE#         690
  C:2F43H         LINE#         691
  C:2F45H         LINE#         692
  C:2F68H         LINE#         693
  C:2F68H         LINE#         694
  C:2F6BH         LINE#         695
  C:2F6DH         LINE#         697
  C:2F6DH         LINE#         698
  C:2F70H         LINE#         699
  C:2F70H         LINE#         730
  C:2F76H         LINE#         731
  C:2F76H         LINE#         732
  C:2F80H         LINE#         733
  C:2F8AH         LINE#         734
  C:2F8FH         LINE#         735
  C:2F8FH         LINE#         738
  C:2F9AH         LINE#         739
  C:2F9AH         LINE#         741
  C:2FB0H         LINE#         744
  C:2FBAH         LINE#         745
  C:2FBFH         LINE#         746
  C:2FBFH         LINE#         747
  C:2FC6H         LINE#         748
  C:2FD3H         LINE#         749
  C:2FEDH         LINE#         750
  C:2FEDH         LINE#         751
  C:3011H         LINE#         752
  C:3011H         LINE#         753
  C:303DH         LINE#         754
  C:304BH         LINE#         755
  C:305AH         LINE#         756
  C:3077H         LINE#         758
  C:30ACH         LINE#         760
  C:30B6H         LINE#         761
  C:30BBH         LINE#         762
  C:30BBH         LINE#         763
  C:30C2H         LINE#         764
  C:30CFH         LINE#         765
  C:30E9H         LINE#         766
  C:30E9H         LINE#         767
  C:310DH         LINE#         768
  C:310DH         LINE#         769
  C:3139H         LINE#         770
BL51 BANKED LINKER/LOCATER V6.22                                                      03/12/2019  13:46:20  PAGE 67


  C:3147H         LINE#         771
  C:3156H         LINE#         772
  C:3173H         LINE#         774
  C:31A8H         LINE#         775
  C:31ADH         LINE#         777
  C:31BBH         LINE#         778
  C:31BBH         LINE#         781
  C:31C2H         LINE#         782
  C:31C2H         LINE#         783
  C:31DFH         LINE#         784
  C:31F5H         LINE#         785
  C:31FAH         LINE#         787
  C:31FAH         LINE#         789
  C:3201H         LINE#         790
  C:3201H         LINE#         791
  C:321EH         LINE#         792
  C:3234H         LINE#         793
  C:3239H         LINE#         795
  C:3239H         LINE#         801
  C:3240H         LINE#         802
  C:3240H         LINE#         803
  C:324AH         LINE#         804
  C:3254H         LINE#         805
  C:3259H         LINE#         806
  C:3259H         LINE#         809
  C:3264H         LINE#         810
  C:3264H         LINE#         812
  C:3274H         LINE#         813
  C:327EH         LINE#         814
  C:3283H         LINE#         815
  C:3283H         LINE#         816
  C:3291H         LINE#         817
  C:3291H         LINE#         818
  C:32A4H         LINE#         819
  C:32AFH         LINE#         820
  C:32C3H         LINE#         821
  C:32C5H         LINE#         823
  C:32C5H         LINE#         824
  C:32CCH         LINE#         825
  C:32CCH         LINE#         826
  C:32E6H         LINE#         827
  C:32E6H         LINE#         828
  C:330AH         LINE#         829
  C:330AH         LINE#         830
  C:3336H         LINE#         831
  C:3344H         LINE#         832
  C:3353H         LINE#         833
  C:3370H         LINE#         835
  C:33A5H         LINE#         838
  C:33AFH         LINE#         839
  C:33B4H         LINE#         840
  C:33B4H         LINE#         841
  C:33C2H         LINE#         842
  C:33C2H         LINE#         843
  C:33D5H         LINE#         844
  C:33E0H         LINE#         845
  C:33F4H         LINE#         846
BL51 BANKED LINKER/LOCATER V6.22                                                      03/12/2019  13:46:20  PAGE 68


  C:33F6H         LINE#         848
  C:33F6H         LINE#         849
  C:33FDH         LINE#         850
  C:33FDH         LINE#         851
  C:3417H         LINE#         852
  C:3417H         LINE#         853
  C:343BH         LINE#         854
  C:343BH         LINE#         855
  C:3467H         LINE#         856
  C:3475H         LINE#         857
  C:3484H         LINE#         858
  C:34A1H         LINE#         860
  C:34D6H         LINE#         861
  C:34DBH         LINE#         862
  C:34DBH         LINE#         864
  C:34E2H         LINE#         865
  C:34E2H         LINE#         866
  C:34FFH         LINE#         867
  C:3516H         LINE#         868
  C:351BH         LINE#         869
  C:351BH         LINE#         871
  C:3522H         LINE#         872
  C:3522H         LINE#         873
  C:353FH         LINE#         874
  C:3556H         LINE#         875
  C:355BH         LINE#         876
  C:355BH         LINE#         878
  C:356BH         LINE#         879
  C:356BH         LINE#         880
  C:356EH         LINE#         881
  C:357CH         LINE#         883
  C:358AH         LINE#         886
  C:358DH         LINE#         888
  C:35A2H         LINE#         889
  C:35B0H         LINE#         891
  C:35B5H         LINE#         892
  C:35B5H         LINE#         894
  C:35B8H         LINE#         895
  C:35BBH         LINE#         896
  C:35C9H         LINE#         897
  C:35CEH         LINE#         899
  -------         ENDPROC       HARDWARE_ADJUSTDIV_SUB
  -------         PROC          _MEASURE_ELECTRIC_ERR_GAIN
  X:0093H         SYMBOL        sptr
  -------         DO            
  X:0096H         SYMBOL        u32_tmp_U
  X:009AH         SYMBOL        u32_tmp_A
  X:009EH         SYMBOL        u32_tmp_P
  X:00A2H         SYMBOL        u32_tmp
  X:00A6H         SYMBOL        errbuf
  X:00ADH         SYMBOL        Err_Data
  -------         ENDDO         
  C:5562H         LINE#         908
  C:556DH         LINE#         909
  C:556DH         LINE#         915
  C:5572H         LINE#         916
  C:558CH         LINE#         917
BL51 BANKED LINKER/LOCATER V6.22                                                      03/12/2019  13:46:20  PAGE 69


  C:55C4H         LINE#         918
  C:55FCH         LINE#         919
  C:560BH         LINE#         921
  C:5610H         LINE#         922
  C:562AH         LINE#         923
  C:5662H         LINE#         924
  C:569AH         LINE#         925
  C:56A9H         LINE#         927
  C:56AEH         LINE#         928
  C:56C8H         LINE#         929
  C:5700H         LINE#         930
  C:5738H         LINE#         931
  C:5747H         LINE#         934
  C:5772H         LINE#         935
  C:5777H         LINE#         936
  C:5786H         LINE#         938
  C:57BFH         LINE#         939
  C:57BFH         LINE#         940
  C:57BFH         LINE#         941
  C:57BFH         LINE#         942
  C:57D0H         LINE#         943
  C:57DEH         LINE#         944
  C:5803H         LINE#         945
  C:5805H         LINE#         946
  C:5805H         LINE#         947
  C:5805H         LINE#         948
  C:5816H         LINE#         949
  C:5818H         LINE#         950
  C:5818H         LINE#         951
  C:5818H         LINE#         952
  C:5829H         LINE#         953
  C:5829H         LINE#         954
  C:5829H         LINE#         956
  C:5829H         LINE#         957
  C:582CH         LINE#         958
  C:582FH         LINE#         959
  C:583DH         LINE#         960
  -------         ENDPROC       _MEASURE_ELECTRIC_ERR_GAIN
  -------         PROC          _CALIBRATION_POWER
  X:00B1H         SYMBOL        f_err_data
  -------         DO            
  X:00B5H         SYMBOL        u32_tmp
  X:00B9H         SYMBOL        u32_PMdataltemp
  -------         ENDDO         
  C:BA01H         LINE#         966
  C:BA07H         LINE#         967
  C:BA07H         LINE#         969
  C:BA07H         LINE#         974
  C:BA15H         LINE#         976
  C:BA2BH         LINE#         977
  C:BA2BH         LINE#         978
  C:BA2BH         LINE#         979
  C:BA2BH         LINE#         981
  C:BA2BH         LINE#         982
  C:BA57H         LINE#         983
  C:BA57H         LINE#         1004
  C:BA72H         LINE#         1005
BL51 BANKED LINKER/LOCATER V6.22                                                      03/12/2019  13:46:20  PAGE 70


  C:BA72H         LINE#         1007
  C:BA7FH         LINE#         1008
  C:BA95H         LINE#         1009
  C:BAB0H         LINE#         1010
  C:BAC4H         LINE#         1012
  C:BAC4H         LINE#         1015
  -------         ENDPROC       _CALIBRATION_POWER
  -------         PROC          _CALIBRATION_CURRENT
  X:00B1H         SYMBOL        Current
  X:00B5H         SYMBOL        Voltage
  -------         DO            
  X:00B9H         SYMBOL        u32_tmp
  X:00BDH         SYMBOL        u32_PMdataltemp
  X:00C1H         SYMBOL        u32_PMdataltempSII1
  -------         ENDDO         
  C:5D3AH         LINE#         1024
  C:5D40H         LINE#         1025
  C:5D40H         LINE#         1028
  C:5D5EH         LINE#         1029
  C:5D5EH         LINE#         1031
  C:5D6BH         LINE#         1032
  C:5D97H         LINE#         1033
  C:5DA4H         LINE#         1034
  C:5DBDH         LINE#         1035
  C:5DBDH         LINE#         1037
  C:5DC6H         LINE#         1038
  C:5DDAH         LINE#         1039
  C:5DDAH         LINE#         1042
  C:5DE7H         LINE#         1043
  C:5E2DH         LINE#         1044
  C:5E3AH         LINE#         1045
  C:5E56H         LINE#         1046
  C:5E56H         LINE#         1048
  C:5E56H         LINE#         1049
  C:5E56H         LINE#         1050
  C:5E56H         LINE#         1051
  C:5E56H         LINE#         1052
  C:5E59H         LINE#         1053
  C:5E77H         LINE#         1054
  C:5E77H         LINE#         1056
  C:5E84H         LINE#         1057
  C:5EB0H         LINE#         1058
  C:5EBDH         LINE#         1059
  C:5ED6H         LINE#         1060
  C:5ED6H         LINE#         1062
  C:5EDFH         LINE#         1063
  C:5EF3H         LINE#         1064
  C:5EF3H         LINE#         1067
  C:5F00H         LINE#         1068
  C:5F46H         LINE#         1069
  C:5F53H         LINE#         1070
  C:5F6CH         LINE#         1071
  C:5F6CH         LINE#         1073
  C:5F78H         LINE#         1074
  C:5F8CH         LINE#         1075
  C:5FA7H         LINE#         1076
  C:5FA7H         LINE#         1077
BL51 BANKED LINKER/LOCATER V6.22                                                      03/12/2019  13:46:20  PAGE 71


  C:5FA7H         LINE#         1081
  -------         ENDPROC       _CALIBRATION_CURRENT
  -------         PROC          _CALIBRATION_ANGULAR
  X:00B1H         SYMBOL        f_err_data
  -------         DO            
  X:00B5H         SYMBOL        u32_tmp
  X:00B9H         SYMBOL        u32_PMdataltemp
  X:00BDH         SYMBOL        PHCCTRL1_adj_val
  X:00C1H         SYMBOL        PHCCTRL2_adj_val
  -------         ENDDO         
  C:9E74H         LINE#         1088
  C:9E7AH         LINE#         1089
  C:9E7AH         LINE#         1094
  C:9E90H         LINE#         1095
  C:9E90H         LINE#         1096
  C:9E90H         LINE#         1097
  C:9E90H         LINE#         1099
  C:9E90H         LINE#         1100
  C:9EBCH         LINE#         1101
  C:9EBCH         LINE#         1103
  C:9EE1H         LINE#         1140
  C:9EFCH         LINE#         1141
  C:9EFCH         LINE#         1142
  C:9F10H         LINE#         1143
  C:9F27H         LINE#         1144
  C:9F39H         LINE#         1145
  C:9F3BH         LINE#         1146
  C:9F56H         LINE#         1147
  C:9F56H         LINE#         1148
  C:9F6AH         LINE#         1149
  C:9F81H         LINE#         1150
  C:9F97H         LINE#         1152
  C:9F97H         LINE#         1155
  -------         ENDPROC       _CALIBRATION_ANGULAR
  -------         PROC          _CALIBRATION_SMALL_SIGNAL
  X:00B1H         SYMBOL        f_err_data
  -------         DO            
  X:00B5H         SYMBOL        u32_PMdataltemp
  X:00B9H         SYMBOL        offset
  X:00BAH         SYMBOL        s32_tmp
  X:00BEH         SYMBOL        s32_PMdataltemp
  -------         ENDDO         
  C:7D3EH         LINE#         1162
  C:7D44H         LINE#         1163
  C:7D44H         LINE#         1200
  C:7D62H         LINE#         1201
  C:7D62H         LINE#         1202
  C:7D6FH         LINE#         1204
  C:7DA5H         LINE#         1206
  C:7DAAH         LINE#         1207
  C:7DD0H         LINE#         1208
  C:7DE5H         LINE#         1211
  C:7E00H         LINE#         1212
  C:7E11H         LINE#         1213
  C:7E14H         LINE#         1215
  C:7E32H         LINE#         1216
  C:7E32H         LINE#         1217
BL51 BANKED LINKER/LOCATER V6.22                                                      03/12/2019  13:46:20  PAGE 72


  C:7E3FH         LINE#         1219
  C:7E75H         LINE#         1221
  C:7E7AH         LINE#         1222
  C:7EA0H         LINE#         1223
  C:7EB5H         LINE#         1226
  C:7ED0H         LINE#         1227
  C:7EE4H         LINE#         1228
  C:7EE4H         LINE#         1231
  -------         ENDPROC       _CALIBRATION_SMALL_SIGNAL
  -------         ENDMOD        LNK_EMU_ADJ

  -------         MODULE        LNK_EMU_HANDL
  C:0000H         SYMBOL        _ICE_DUMMY_
  D:0090H         PUBLIC        P1
  C:6D0AH         PUBLIC        _Lnk_get_EMU_activePower
  D:00B0H         PUBLIC        P3
  C:7EE5H         PUBLIC        lnk_CAL_EMU_constSum_per_second
  D:00A8H         PUBLIC        IE
  D:00ADH         PUBLIC        P9FC
  D:00B8H         PUBLIC        IP
  D:00A4H         PUBLIC        P9OE
  C:F1A6H         PUBLIC        Init_EMU_RAM
  C:B1D7H         PUBLIC        _Lnk_get_EMU_freq
  D:0098H         PUBLIC        SCON
  D:0088H         PUBLIC        TCON
  D:00F0H         PUBLIC        B
  D:00E0H         PUBLIC        ACC
  D:00E8H         PUBLIC        EIE
  D:0080H         PUBLIC        SysCtrl
  C:5AC1H         PUBLIC        _Init_EMU
  B:0080H.4       PUBLIC        PMG
  X:07ECH         PUBLIC        gs_emu_run_var
  D:00C8H         PUBLIC        T2CON
  C:8F8AH         PUBLIC        _Lnk_get_EMU_voltage
  C:3BD8H         PUBLIC        Lnk_get_EMU_ractive_const
  C:7B8FH         PUBLIC        _Lnk_get_EMU_ractivePower
  C:9C20H         PUBLIC        _Lnk_get_EMU_current
  D:00D0H         PUBLIC        PSW
  -------         PROC          INIT_EMU_RAM
  C:F1A6H         LINE#         31
  C:F1A6H         LINE#         32
  C:F1A6H         LINE#         33
  -------         ENDPROC       INIT_EMU_RAM
  -------         PROC          _INIT_EMU
  X:0000H         SYMBOL        u8_mode
  C:5AC1H         LINE#         43
  C:5AC6H         LINE#         44
  C:5AC6H         LINE#         157
  C:5AC9H         LINE#         158
  C:5AC9H         LINE#         159
  C:5ACFH         LINE#         160
  C:5AD2H         LINE#         161
  C:5AD5H         LINE#         163
  C:5AD5H         LINE#         165
  C:5AD7H         LINE#         167
  C:5AECH         LINE#         168
  C:5B01H         LINE#         170
BL51 BANKED LINKER/LOCATER V6.22                                                      03/12/2019  13:46:20  PAGE 73


  C:5B07H         LINE#         171
  C:5B0AH         LINE#         172
  C:5B10H         LINE#         173
  C:5B10H         LINE#         174
  C:5B18H         LINE#         175
  C:5B1FH         LINE#         176
  C:5B31H         LINE#         177
  C:5B33H         LINE#         178
  C:5B40H         LINE#         179
  C:5B40H         LINE#         180
  C:5B4BH         LINE#         181
  C:5B52H         LINE#         182
  C:5B67H         LINE#         183
  C:5B69H         LINE#         185
  C:5B69H         LINE#         186
  C:5B6CH         LINE#         187
  C:5B6CH         LINE#         188
  C:5B72H         LINE#         191
  C:5B87H         LINE#         192
  C:5B9CH         LINE#         196
  C:5BB1H         LINE#         197
  C:5BC6H         LINE#         201
  C:5BDBH         LINE#         206
  C:5BF0H         LINE#         208
  C:5C05H         LINE#         211
  C:5C1AH         LINE#         212
  C:5C2FH         LINE#         213
  C:5C44H         LINE#         214
  C:5C59H         LINE#         215
  C:5C6EH         LINE#         216
  C:5C83H         LINE#         217
  C:5C98H         LINE#         218
  C:5CADH         LINE#         220
  C:5CC2H         LINE#         225
  C:5CD7H         LINE#         226
  C:5CECH         LINE#         228
  C:5D01H         LINE#         231
  C:5D16H         LINE#         232
  C:5D19H         LINE#         233
  C:5D1CH         LINE#         234
  C:5D1FH         LINE#         235
  C:5D22H         LINE#         236
  C:5D25H         LINE#         237
  C:5D2CH         LINE#         238
  C:5D33H         LINE#         240
  C:5D39H         LINE#         244
  -------         ENDPROC       _INIT_EMU
  -------         PROC          _LNK_GET_EMU_VOLTAGE
  X:000CH         SYMBOL        ch
  -------         DO            
  X:000DH         SYMBOL        val
  X:0011H         SYMBOL        tmpval
  X:0015H         SYMBOL        f32_tmp
  X:0019H         SYMBOL        TempValue
  -------         ENDDO         
  C:8F8AH         LINE#         252
  C:8F8FH         LINE#         253
BL51 BANKED LINKER/LOCATER V6.22                                                      03/12/2019  13:46:20  PAGE 74


  C:8F8FH         LINE#         257
  C:8F93H         LINE#         258
  C:8F93H         LINE#         259
  C:8FA0H         LINE#         260
  C:8FBAH         LINE#         261
  C:8FBAH         LINE#         262
  C:8FDEH         LINE#         263
  C:8FDEH         LINE#         264
  C:8FDEH         LINE#         265
  C:8FDEH         LINE#         266
  C:8FE1H         LINE#         267
  C:8FECH         LINE#         268
  C:8FECH         LINE#         269
  C:8FF9H         LINE#         270
  C:8FF9H         LINE#         271
  C:900CH         LINE#         272
  C:9017H         LINE#         273
  C:902BH         LINE#         274
  C:902DH         LINE#         276
  C:902DH         LINE#         277
  C:9034H         LINE#         278
  C:9034H         LINE#         280
  C:904EH         LINE#         281
  C:904EH         LINE#         282
  C:9072H         LINE#         283
  C:9072H         LINE#         284
  C:909BH         LINE#         285
  C:90B2H         LINE#         286
  C:90B4H         LINE#         288
  C:90B4H         LINE#         289
  C:90BEH         LINE#         290
  C:90BEH         LINE#         293
  C:90E2H         LINE#         295
  C:90F0H         LINE#         298
  -------         ENDPROC       _LNK_GET_EMU_VOLTAGE
  -------         PROC          _LNK_GET_EMU_CURRENT
  X:000CH         SYMBOL        ch
  -------         DO            
  X:000DH         SYMBOL        val
  X:0011H         SYMBOL        tmpval
  X:0015H         SYMBOL        f32_tmp
  -------         ENDDO         
  C:9C20H         LINE#         306
  C:9C25H         LINE#         307
  C:9C25H         LINE#         312
  C:9C29H         LINE#         313
  C:9C29H         LINE#         314
  C:9C36H         LINE#         315
  C:9C50H         LINE#         316
  C:9C50H         LINE#         317
  C:9C74H         LINE#         318
  C:9C74H         LINE#         319
  C:9C74H         LINE#         320
  C:9C74H         LINE#         321
  C:9C76H         LINE#         322
  C:9C81H         LINE#         323
  C:9C81H         LINE#         324
BL51 BANKED LINKER/LOCATER V6.22                                                      03/12/2019  13:46:20  PAGE 75


  C:9C8EH         LINE#         325
  C:9CA8H         LINE#         326
  C:9CA8H         LINE#         327
  C:9CCCH         LINE#         328
  C:9CCCH         LINE#         329
  C:9CF5H         LINE#         330
  C:9D0CH         LINE#         332
  C:9D0EH         LINE#         334
  C:9D0EH         LINE#         335
  C:9D18H         LINE#         336
  C:9D18H         LINE#         338
  C:9D3CH         LINE#         340
  C:9D4AH         LINE#         342
  -------         ENDPROC       _LNK_GET_EMU_CURRENT
  -------         PROC          _LNK_GET_EMU_ACTIVEPOWER
  X:0715H         SYMBOL        ch
  -------         DO            
  X:0716H         SYMBOL        val
  X:071AH         SYMBOL        val2
  X:071EH         SYMBOL        tmpval
  X:0722H         SYMBOL        f32_tmp
  X:0726H         SYMBOL        TempValue
  -------         ENDDO         
  C:6D0AH         LINE#         350
  C:6D0FH         LINE#         351
  C:6D0FH         LINE#         356
  C:6D14H         LINE#         357
  C:6D14H         LINE#         358
  C:6D21H         LINE#         359
  C:6D2FH         LINE#         360
  C:6D2FH         LINE#         361
  C:6D42H         LINE#         362
  C:6D4DH         LINE#         363
  C:6D61H         LINE#         364
  C:6D63H         LINE#         366
  C:6D63H         LINE#         367
  C:6D6AH         LINE#         368
  C:6D6AH         LINE#         370
  C:6D96H         LINE#         371
  C:6D96H         LINE#         372
  C:6D9DH         LINE#         373
  C:6D9DH         LINE#         375
  C:6DAAH         LINE#         376
  C:6DC7H         LINE#         377
  C:6DC7H         LINE#         378
  C:6DC7H         LINE#         380
  C:6DC7H         LINE#         382
  C:6DC9H         LINE#         383
  C:6DD4H         LINE#         384
  C:6DD4H         LINE#         386
  C:6DE1H         LINE#         387
  C:6DE1H         LINE#         388
  C:6DF4H         LINE#         389
  C:6DFFH         LINE#         390
  C:6E13H         LINE#         391
  C:6E15H         LINE#         393
  C:6E15H         LINE#         394
BL51 BANKED LINKER/LOCATER V6.22                                                      03/12/2019  13:46:20  PAGE 76


  C:6E1CH         LINE#         395
  C:6E1CH         LINE#         397
  C:6E36H         LINE#         398
  C:6E36H         LINE#         399
  C:6E5AH         LINE#         401
  C:6E5AH         LINE#         402
  C:6E5CH         LINE#         404
  C:6E5CH         LINE#         405
  C:6E66H         LINE#         406
  C:6E66H         LINE#         408
  C:6E81H         LINE#         409
  C:6E81H         LINE#         410
  C:6E8BH         LINE#         413
  C:6E8DH         LINE#         415
  C:6E8DH         LINE#         416
  C:6EB3H         LINE#         417
  C:6ED9H         LINE#         418
  C:6EF0H         LINE#         419
  C:6EF0H         LINE#         422
  C:6EF0H         LINE#         423
  C:6EF0H         LINE#         425
  C:6EF0H         LINE#         427
  C:6EF0H         LINE#         429
  C:6EF0H         LINE#         432
  C:6EFEH         LINE#         433
  -------         ENDPROC       _LNK_GET_EMU_ACTIVEPOWER
  -------         PROC          _LNK_GET_EMU_FREQ
  X:000CH         SYMBOL        ch
  -------         DO            
  X:000DH         SYMBOL        val
  X:0011H         SYMBOL        tmpval
  X:0015H         SYMBOL        TempValue
  -------         ENDDO         
  C:B1D7H         LINE#         441
  C:B1DCH         LINE#         442
  C:B1DCH         LINE#         445
  C:B1DFH         LINE#         446
  C:B1DFH         LINE#         447
  C:B1ECH         LINE#         448
  C:B201H         LINE#         449
  C:B203H         LINE#         450
  C:B20BH         LINE#         451
  C:B20BH         LINE#         452
  C:B21AH         LINE#         453
  C:B21AH         LINE#         454
  C:B22CH         LINE#         455
  C:B237H         LINE#         456
  C:B24BH         LINE#         457
  C:B269H         LINE#         458
  C:B26BH         LINE#         460
  C:B26BH         LINE#         461
  C:B272H         LINE#         462
  C:B272H         LINE#         463
  C:B274H         LINE#         465
  C:B274H         LINE#         466
  C:B27EH         LINE#         467
  C:B27EH         LINE#         469
BL51 BANKED LINKER/LOCATER V6.22                                                      03/12/2019  13:46:20  PAGE 77


  C:B2A4H         LINE#         473
  C:B2B2H         LINE#         474
  -------         ENDPROC       _LNK_GET_EMU_FREQ
  -------         PROC          LNK_CAL_EMU_CONSTSUM_PER_SECOND
  -------         DO            
  X:000CH         SYMBOL        sumval0
  X:0010H         SYMBOL        val1
  -------         ENDDO         
  C:7EE5H         LINE#         483
  C:7EE5H         LINE#         484
  C:7EE5H         LINE#         499
  C:7EEFH         LINE#         529
  C:7EFCH         LINE#         530
  C:7F1AH         LINE#         531
  C:7F1AH         LINE#         532
  C:7F1DH         LINE#         533
  C:7F41H         LINE#         535
  C:7F43H         LINE#         537
  C:7F46H         LINE#         539
  C:7F5AH         LINE#         540
  C:7F75H         LINE#         541
  C:7F75H         LINE#         542
  C:7F7FH         LINE#         543
  C:7F89H         LINE#         544
  C:7F90H         LINE#         545
  C:7F90H         LINE#         546
  C:7FABH         LINE#         547
  C:7FCFH         LINE#         549
  C:7FDCH         LINE#         550
  C:7FF6H         LINE#         551
  C:7FF6H         LINE#         552
  C:801AH         LINE#         553
  C:801AH         LINE#         557
  C:802EH         LINE#         558
  C:8049H         LINE#         559
  C:8049H         LINE#         560
  C:8053H         LINE#         561
  C:805DH         LINE#         562
  C:805DH         LINE#         563
  -------         ENDPROC       LNK_CAL_EMU_CONSTSUM_PER_SECOND
  -------         PROC          LNK_GET_EMU_RACTIVE_CONST
  -------         DO            
  X:06C8H         SYMBOL        Temp_paraqc
  X:06CCH         SYMBOL        val1
  X:06D0H         SYMBOL        sumval1
  X:06D4H         SYMBOL        val2
  X:06D8H         SYMBOL        sumval2
  X:06DCH         SYMBOL        TempValue
  X:06E0H         SYMBOL        err_ec
  -------         ENDDO         
  C:3BD8H         LINE#         577
  C:3BD8H         LINE#         578
  C:3BD8H         LINE#         585
  C:3BE2H         LINE#         586
  C:3BECH         LINE#         587
  C:3BF6H         LINE#         589
  C:3C03H         LINE#         591
BL51 BANKED LINKER/LOCATER V6.22                                                      03/12/2019  13:46:20  PAGE 78


  C:3C10H         LINE#         594
  C:3C20H         LINE#         595
  C:3C20H         LINE#         596
  C:3C32H         LINE#         597
  C:3C3DH         LINE#         598
  C:3C63H         LINE#         599
  C:3C65H         LINE#         601
  C:3C65H         LINE#         602
  C:3C6DH         LINE#         604
  C:3C6DH         LINE#         606
  C:3CA3H         LINE#         607
  C:3CA3H         LINE#         608
  C:3CADH         LINE#         609
  C:3CADH         LINE#         611
  C:3CE3H         LINE#         612
  C:3CE3H         LINE#         613
  C:3CEDH         LINE#         614
  C:3CEDH         LINE#         618
  C:3CF0H         LINE#         619
  C:3CF0H         LINE#         621
  C:3CF0H         LINE#         623
  C:3CF0H         LINE#         625
  C:3CF0H         LINE#         627
  C:3CF3H         LINE#         628
  C:3CF3H         LINE#         630
  C:3CF3H         LINE#         632
  C:3CF3H         LINE#         634
  C:3CF3H         LINE#         700
  C:3CFDH         LINE#         701
  C:3CFDH         LINE#         702
  C:3D00H         LINE#         703
  C:3D00H         LINE#         704
  C:3D24H         LINE#         708
  C:3D4DH         LINE#         712
  C:3D50H         LINE#         714
  C:3D50H         LINE#         715
  C:3D72H         LINE#         716
  C:3D72H         LINE#         717
  C:3D9EH         LINE#         719
  C:3DBFH         LINE#         720
  C:3DC2H         LINE#         722
  C:3DC2H         LINE#         724
  C:3DEFH         LINE#         725
  C:3DFAH         LINE#         726
  C:3DFAH         LINE#         727
  C:3E1BH         LINE#         728
  C:3E1BH         LINE#         729
  C:3E1BH         LINE#         730
  C:3E1BH         LINE#         731
  C:3E1EH         LINE#         733
  C:3E1EH         LINE#         734
  C:3E28H         LINE#         735
  C:3E28H         LINE#         736
  C:3E4AH         LINE#         737
  C:3E4AH         LINE#         738
  C:3E76H         LINE#         740
  C:3E81H         LINE#         741
BL51 BANKED LINKER/LOCATER V6.22                                                      03/12/2019  13:46:20  PAGE 79


  C:3E81H         LINE#         742
  C:3E8CH         LINE#         743
  C:3E8EH         LINE#         745
  C:3E8EH         LINE#         746
  C:3EACH         LINE#         747
  C:3EACH         LINE#         748
  C:3EAFH         LINE#         750
  C:3EAFH         LINE#         752
  C:3EDCH         LINE#         753
  C:3EFDH         LINE#         754
  C:3EFDH         LINE#         755
  C:3EFFH         LINE#         757
  C:3EFFH         LINE#         758
  C:3F2BH         LINE#         760
  C:3F36H         LINE#         761
  C:3F36H         LINE#         762
  C:3F41H         LINE#         763
  C:3F43H         LINE#         765
  C:3F43H         LINE#         766
  C:3F64H         LINE#         767
  C:3F64H         LINE#         768
  C:3F64H         LINE#         769
  C:3F64H         LINE#         772
  C:3F99H         LINE#         774
  C:3FB8H         LINE#         775
  C:3FB8H         LINE#         776
  C:3FD7H         LINE#         777
  C:4003H         LINE#         778
  C:4021H         LINE#         779
  C:4023H         LINE#         780
  C:404AH         LINE#         782
  C:4065H         LINE#         786
  C:407FH         LINE#         787
  C:407FH         LINE#         788
  C:40A3H         LINE#         789
  C:40A3H         LINE#         791
  C:40BDH         LINE#         792
  C:40BDH         LINE#         793
  C:40E1H         LINE#         794
  C:40E1H         LINE#         795
  C:40FBH         LINE#         796
  C:40FBH         LINE#         797
  C:411FH         LINE#         798
  C:411FH         LINE#         799
  C:4143H         LINE#         800
  C:4167H         LINE#         801
  C:418BH         LINE#         802
  C:4195H         LINE#         804
  -------         ENDPROC       LNK_GET_EMU_RACTIVE_CONST
  -------         PROC          _LNK_GET_EMU_RACTIVEPOWER
  X:0764H         SYMBOL        ch
  -------         DO            
  X:0765H         SYMBOL        val
  X:0769H         SYMBOL        tmpval
  X:076DH         SYMBOL        f32_tmp
  X:0771H         SYMBOL        TempValue
  -------         ENDDO         
BL51 BANKED LINKER/LOCATER V6.22                                                      03/12/2019  13:46:20  PAGE 80


  C:7B8FH         LINE#         814
  C:7B94H         LINE#         815
  C:7B94H         LINE#         820
  C:7B97H         LINE#         821
  C:7B97H         LINE#         823
  C:7BA4H         LINE#         824
  C:7BC1H         LINE#         825
  C:7BC1H         LINE#         826
  C:7BDFH         LINE#         828
  C:7BDFH         LINE#         829
  C:7BE2H         LINE#         831
  C:7BEDH         LINE#         832
  C:7BEDH         LINE#         833
  C:7BFAH         LINE#         834
  C:7BFAH         LINE#         835
  C:7C0DH         LINE#         836
  C:7C18H         LINE#         837
  C:7C2CH         LINE#         838
  C:7C2EH         LINE#         840
  C:7C2EH         LINE#         841
  C:7C35H         LINE#         842
  C:7C35H         LINE#         845
  C:7C4FH         LINE#         846
  C:7C4FH         LINE#         847
  C:7C73H         LINE#         849
  C:7C73H         LINE#         851
  C:7C99H         LINE#         852
  C:7C9BH         LINE#         854
  C:7C9BH         LINE#         855
  C:7CA5H         LINE#         856
  C:7CA5H         LINE#         858
  C:7CC0H         LINE#         859
  C:7CC0H         LINE#         860
  C:7CCAH         LINE#         863
  C:7CCCH         LINE#         865
  C:7CCCH         LINE#         867
  C:7CF2H         LINE#         868
  C:7D18H         LINE#         869
  C:7D2FH         LINE#         870
  C:7D2FH         LINE#         872
  C:7D3DH         LINE#         873
  -------         ENDPROC       _LNK_GET_EMU_RACTIVEPOWER
  -------         ENDMOD        LNK_EMU_HANDL

  -------         MODULE        DRV_ADC
  C:0000H         SYMBOL        _ICE_DUMMY_
  D:0090H         PUBLIC        P1
  D:00B0H         PUBLIC        P3
  C:EB2AH         PUBLIC        Samlpe_temperatureAdc
  C:E634H         PUBLIC        InitParaRTC
  D:00A8H         PUBLIC        IE
  C:EC13H         PUBLIC        Disable_M_ADC
  D:00B8H         PUBLIC        IP
  C:E76DH         PUBLIC        _Enable_M_ADC
  C:0056H         PUBLIC        Cal_temperature_data
  D:0098H         PUBLIC        SCON
  D:0088H         PUBLIC        TCON
BL51 BANKED LINKER/LOCATER V6.22                                                      03/12/2019  13:46:20  PAGE 81


  D:00F0H         PUBLIC        B
  D:00E0H         PUBLIC        ACC
  D:0080H         PUBLIC        SysCtrl
  D:00C8H         PUBLIC        T2CON
  C:E7A9H         PUBLIC        Samlpe_BatAdc
  D:00D0H         PUBLIC        PSW
  -------         PROC          _ENABLE_M_ADC
  D:0007H         SYMBOL        m_ch
  -------         DO            
  D:0004H         SYMBOL        ctmp
  -------         ENDDO         
  C:E76DH         LINE#         65
  C:E76DH         LINE#         66
  C:E76DH         LINE#         70
  C:E771H         LINE#         71
  C:E771H         LINE#         72
  C:E777H         LINE#         73
  C:E779H         LINE#         74
  C:E77EH         LINE#         75
  C:E77EH         LINE#         77
  C:E784H         LINE#         78
  C:E784H         LINE#         80
  C:E784H         LINE#         82
  C:E784H         LINE#         84
  C:E78BH         LINE#         85
  C:E790H         LINE#         87
  C:E797H         LINE#         88
  C:E79BH         LINE#         89
  C:E7A8H         LINE#         91
  -------         ENDPROC       _ENABLE_M_ADC
  -------         PROC          DISABLE_M_ADC
  -------         DO            
  D:0004H         SYMBOL        ctmp
  -------         ENDDO         
  C:EC13H         LINE#         100
  C:EC13H         LINE#         101
  C:EC13H         LINE#         104
  C:EC1AH         LINE#         105
  C:EC20H         LINE#         107
  C:EC27H         LINE#         108
  C:EC2EH         LINE#         109
  C:EC32H         LINE#         110
  -------         ENDPROC       DISABLE_M_ADC
  -------         PROC          SAMLPE_BATADC
  -------         DO            
  D:0006H         SYMBOL        nVBAT
  D:0004H         SYMBOL        u32_PMdataltemp
  -------         ENDDO         
  C:E7A9H         LINE#         121
  C:E7A9H         LINE#         122
  C:E7A9H         LINE#         126
  C:E7AEH         LINE#         127
  C:E7B5H         LINE#         129
  C:E7BCH         LINE#         130
  C:E7C1H         LINE#         131
  C:E7C5H         LINE#         132
  C:E7C5H         LINE#         134
BL51 BANKED LINKER/LOCATER V6.22                                                      03/12/2019  13:46:20  PAGE 82


  C:E7D2H         LINE#         135
  C:E7D4H         LINE#         137
  C:E7D4H         LINE#         138
  C:E7E3H         LINE#         139
  C:E7E3H         LINE#         141
  C:E7E4H         LINE#         143
  C:E7E4H         LINE#         144
  -------         ENDPROC       SAMLPE_BATADC
  -------         PROC          SAMLPE_TEMPERATUREADC
  -------         DO            
  X:000DH         SYMBOL        temperature
  -------         ENDDO         
  C:EB2AH         LINE#         154
  C:EB2AH         LINE#         155
  C:EB2AH         LINE#         158
  C:EB2FH         LINE#         159
  C:EB36H         LINE#         160
  C:EB3FH         LINE#         161
  C:EB5AH         LINE#         162
  -------         ENDPROC       SAMLPE_TEMPERATUREADC
  -------         PROC          CAL_TEMPERATURE_DATA
  -------         DO            
  X:0011H         SYMBOL        i
  X:0012H         SYMBOL        p
  X:0014H         SYMBOL        s_TempPara
  D:0004H         SYMBOL        MAdcValue
  X:0029H         SYMBOL        Kpara
  X:002BH         SYMBOL        temp1
  X:002FH         SYMBOL        temperature
  X:0033H         SYMBOL        TempParaSum
  X:0034H         SYMBOL        temp
  -------         ENDDO         
  C:0056H         LINE#         172
  C:0056H         LINE#         173
  C:0056H         LINE#         187
  C:0060H         LINE#         188
  C:006FH         LINE#         189
  C:006FH         LINE#         190
  C:008BH         LINE#         191
  C:00A3H         LINE#         192
  C:00AAH         LINE#         193
  C:00AAH         LINE#         194
  C:00AAH         LINE#         195
  C:00AAH         LINE#         196
  C:00B2H         LINE#         197
  C:00BDH         LINE#         198
  C:00C8H         LINE#         199
  C:00D3H         LINE#         200
  C:00DEH         LINE#         201
  C:00E9H         LINE#         203
  C:00F0H         LINE#         205
  C:00FBH         LINE#         206
  C:0114H         LINE#         207
  C:0140H         LINE#         209
  C:014CH         LINE#         210
  C:014CH         LINE#         211
  C:0156H         LINE#         212
BL51 BANKED LINKER/LOCATER V6.22                                                      03/12/2019  13:46:20  PAGE 83


  C:0160H         LINE#         213
  C:016AH         LINE#         214
  C:0174H         LINE#         215
  C:017EH         LINE#         216
  C:017EH         LINE#         217
  C:0241H         LINE#         220
  C:024BH         LINE#         221
  C:025AH         LINE#         222
  C:025AH         LINE#         223
  C:0276H         LINE#         224
  C:028EH         LINE#         225
  C:0298H         LINE#         226
  C:0298H         LINE#         227
  C:0298H         LINE#         228
  C:0298H         LINE#         229
  C:02A0H         LINE#         231
  C:02ACH         LINE#         232
  C:02ACH         LINE#         233
  C:02B3H         LINE#         234
  C:02B3H         LINE#         236
  C:02BAH         LINE#         237
  C:02BAH         LINE#         238
  C:02D3H         LINE#         239
  C:0313H         LINE#         240
  C:0315H         LINE#         242
  C:0315H         LINE#         243
  C:0353H         LINE#         244
  C:0353H         LINE#         246
  C:036FH         LINE#         247
  C:036FH         LINE#         248
  C:0379H         LINE#         249
  C:0395H         LINE#         250
  C:0395H         LINE#         251
  C:039FH         LINE#         252
  C:039FH         LINE#         254
  C:03ADH         LINE#         256
  -------         ENDPROC       CAL_TEMPERATURE_DATA
  -------         ENDMOD        DRV_ADC

  -------         MODULE        DRV_CORE
  C:0000H         SYMBOL        _ICE_DUMMY_
  D:0090H         PUBLIC        P1
  D:00B0H         PUBLIC        P3
  D:00A8H         PUBLIC        IE
  D:00B8H         PUBLIC        IP
  C:AF34H         PUBLIC        _Set_McuClock
  C:BE6CH         PUBLIC        _Set_EmuClock
  B:0080H.1       PUBLIC        SLEEP0
  C:E14EH         PUBLIC        Set_McuSleep
  D:0098H         PUBLIC        SCON
  D:0088H         PUBLIC        TCON
  B:0080H.7       PUBLIC        MEAFRQ
  D:00F0H         PUBLIC        B
  C:D56AH         PUBLIC        Set_Sleep_out
  D:00A3H         PUBLIC        PLLLCK
  D:00E0H         PUBLIC        ACC
  B:0080H.0       PUBLIC        MCUFRQ
BL51 BANKED LINKER/LOCATER V6.22                                                      03/12/2019  13:46:20  PAGE 84


  D:0080H         PUBLIC        SysCtrl
  B:0080H.5       PUBLIC        FSC
  B:0080H.6       PUBLIC        FWC
  B:0080H.4       PUBLIC        PMG
  D:00C8H         PUBLIC        T2CON
  D:00A1H         PUBLIC        Systate
  D:00D0H         PUBLIC        PSW
  -------         PROC          _SET_MCUCLOCK
  X:0009H         SYMBOL        u32_freq
  -------         DO            
  X:000DH         SYMBOL        i
  -------         ENDDO         
  C:AF34H         LINE#         30
  C:AF3AH         LINE#         31
  C:AF3AH         LINE#         32
  C:AF3FH         LINE#         34
  C:AF41H         LINE#         35
  C:AF43H         LINE#         36
  C:AF4AH         LINE#         38
  C:AF4EH         LINE#         43
  C:AF87H         LINE#         44
  C:AF87H         LINE#         45
  C:AF87H         LINE#         46
  C:AF8DH         LINE#         47
  C:AF8DH         LINE#         48
  C:AF8FH         LINE#         50
  C:AF8FH         LINE#         51
  C:AF96H         LINE#         52
  C:AF9AH         LINE#         53
  C:AF9DH         LINE#         54
  C:AF9FH         LINE#         56
  C:AF9FH         LINE#         57
  C:AFA5H         LINE#         58
  C:AFA5H         LINE#         59
  C:AFA7H         LINE#         61
  C:AFA7H         LINE#         62
  C:AFAEH         LINE#         63
  C:AFB2H         LINE#         64
  C:AFB4H         LINE#         66
  C:AFB4H         LINE#         67
  C:AFBBH         LINE#         68
  C:AFBFH         LINE#         69
  C:AFC4H         LINE#         70
  C:AFC6H         LINE#         72
  C:AFC6H         LINE#         73
  C:AFCDH         LINE#         74
  C:AFD1H         LINE#         75
  C:AFD6H         LINE#         76
  C:AFD8H         LINE#         78
  C:AFD8H         LINE#         79
  C:AFDBH         LINE#         80
  C:AFDBH         LINE#         81
  C:AFDBH         LINE#         83
  C:AFE0H         LINE#         84
  C:AFE0H         LINE#         85
  C:AFE6H         LINE#         86
  C:AFECH         LINE#         87
BL51 BANKED LINKER/LOCATER V6.22                                                      03/12/2019  13:46:20  PAGE 85


  C:AFECH         LINE#         88
  C:AFEFH         LINE#         89
  C:AFEFH         LINE#         90
  C:AFEFH         LINE#         91
  C:AFF1H         LINE#         92
  C:AFF6H         LINE#         94
  C:AFF9H         LINE#         95
  C:AFF9H         LINE#         96
  C:AFFFH         LINE#         97
  C:B005H         LINE#         98
  C:B005H         LINE#         99
  C:B008H         LINE#         100
  C:B008H         LINE#         101
  C:B008H         LINE#         103
  C:B00DH         LINE#         104
  C:B011H         LINE#         105
  C:B016H         LINE#         107
  C:B018H         LINE#         108
  -------         ENDPROC       _SET_MCUCLOCK
  -------         PROC          _SET_EMUCLOCK
  X:0001H         SYMBOL        u32_freq
  -------         DO            
  X:0005H         SYMBOL        i
  -------         ENDDO         
  C:BE6CH         LINE#         118
  C:BE72H         LINE#         119
  C:BE72H         LINE#         120
  C:BE77H         LINE#         122
  C:BE79H         LINE#         123
  C:BE80H         LINE#         125
  C:BEADH         LINE#         126
  C:BEADH         LINE#         127
  C:BEADH         LINE#         128
  C:BEAFH         LINE#         129
  C:BEB2H         LINE#         131
  C:BEB2H         LINE#         132
  C:BEB9H         LINE#         133
  C:BEBDH         LINE#         134
  C:BEBFH         LINE#         136
  C:BEBFH         LINE#         137
  C:BEC6H         LINE#         138
  C:BECAH         LINE#         140
  C:BECEH         LINE#         141
  C:BED2H         LINE#         142
  C:BED4H         LINE#         144
  C:BED4H         LINE#         145
  C:BEDBH         LINE#         146
  C:BEDFH         LINE#         148
  C:BEE3H         LINE#         149
  C:BEE7H         LINE#         150
  C:BEE9H         LINE#         152
  C:BEE9H         LINE#         153
  C:BEECH         LINE#         154
  C:BEECH         LINE#         155
  C:BEECH         LINE#         157
  C:BEF1H         LINE#         158
  C:BEF1H         LINE#         159
BL51 BANKED LINKER/LOCATER V6.22                                                      03/12/2019  13:46:20  PAGE 86


  C:BEF7H         LINE#         160
  C:BEFDH         LINE#         161
  C:BEFDH         LINE#         162
  C:BF00H         LINE#         163
  C:BF00H         LINE#         164
  C:BF00H         LINE#         166
  C:BF02H         LINE#         167
  C:BF07H         LINE#         168
  C:BF0AH         LINE#         169
  C:BF0AH         LINE#         170
  C:BF10H         LINE#         171
  C:BF16H         LINE#         172
  C:BF16H         LINE#         173
  C:BF19H         LINE#         174
  C:BF19H         LINE#         175
  C:BF19H         LINE#         177
  C:BF1BH         LINE#         178
  -------         ENDPROC       _SET_EMUCLOCK
  -------         PROC          SET_MCUSLEEP
  -------         DO            
  X:0009H         SYMBOL        i
  -------         ENDDO         
  C:E14EH         LINE#         187
  C:E14EH         LINE#         188
  C:E14EH         LINE#         190
  C:E150H         LINE#         191
  C:E152H         LINE#         193
  C:E157H         LINE#         194
  C:E15BH         LINE#         196
  C:E169H         LINE#         197
  C:E16BH         LINE#         200
  C:E170H         LINE#         201
  C:E170H         LINE#         202
  C:E173H         LINE#         203
  C:E173H         LINE#         205
  C:E175H         LINE#         206
  C:E178H         LINE#         208
  C:E17DH         LINE#         209
  C:E17DH         LINE#         210
  C:E180H         LINE#         211
  C:E180H         LINE#         213
  C:E18FH         LINE#         214
  C:E194H         LINE#         215
  C:E19AH         LINE#         217
  C:E19CH         LINE#         218
  C:E1A1H         LINE#         219
  C:E1A2H         LINE#         224
  -------         ENDPROC       SET_MCUSLEEP
  -------         PROC          SET_SLEEP_OUT
  -------         DO            
  D:0007H         SYMBOL        i
  -------         ENDDO         
  C:D56AH         LINE#         234
  C:D56AH         LINE#         235
  C:D56AH         LINE#         240
  C:D578H         LINE#         241
  C:D57FH         LINE#         242
BL51 BANKED LINKER/LOCATER V6.22                                                      03/12/2019  13:46:20  PAGE 87


  C:D58BH         LINE#         243
  C:D590H         LINE#         246
  C:D595H         LINE#         247
  C:D599H         LINE#         248
  C:D59DH         LINE#         249
  C:D5A1H         LINE#         251
  C:D5A5H         LINE#         252
  C:D5ACH         LINE#         254
  C:D5C1H         LINE#         255
  C:D5D6H         LINE#         257
  C:D5DDH         LINE#         259
  C:D5DFH         LINE#         262
  -------         ENDPROC       SET_SLEEP_OUT
  -------         ENDMOD        DRV_CORE

  -------         MODULE        DRV_GPIO
  C:0000H         SYMBOL        _ICE_DUMMY_
  D:0090H         PUBLIC        P1
  D:00B0H         PUBLIC        P3
  D:00A8H         PUBLIC        IE
  D:00ADH         PUBLIC        P9FC
  D:00A5H         PUBLIC        P9IE
  D:00B8H         PUBLIC        IP
  D:00A6H         PUBLIC        P9DO
  D:00A4H         PUBLIC        P9OE
  C:E0A2H         PUBLIC        Init_GPIO_sleep
  D:0098H         PUBLIC        SCON
  D:0088H         PUBLIC        TCON
  D:00F0H         PUBLIC        B
  D:00E0H         PUBLIC        ACC
  D:0080H         PUBLIC        SysCtrl
  C:CFEAH         PUBLIC        Init_GPIO_run
  D:00C8H         PUBLIC        T2CON
  D:00D0H         PUBLIC        PSW
  -------         PROC          INIT_GPIO_RUN
  C:CFEAH         LINE#         29
  C:CFEAH         LINE#         30
  C:CFEAH         LINE#         32
  C:CFF1H         LINE#         33
  C:CFF8H         LINE#         35
  C:CFFBH         LINE#         36
  C:CFFEH         LINE#         37
  C:D001H         LINE#         38
  C:D004H         LINE#         39
  C:D02BH         LINE#         40
  C:D03EH         LINE#         42
  C:D047H         LINE#         44
  C:D049H         LINE#         45
  C:D050H         LINE#         46
  C:D057H         LINE#         48
  C:D05CH         LINE#         49
  C:D063H         LINE#         51
  C:D068H         LINE#         52
  C:D06FH         LINE#         54
  C:D072H         LINE#         55
  C:D075H         LINE#         57
  -------         ENDPROC       INIT_GPIO_RUN
BL51 BANKED LINKER/LOCATER V6.22                                                      03/12/2019  13:46:20  PAGE 88


  -------         PROC          INIT_GPIO_SLEEP
  C:E0A2H         LINE#         66
  C:E0A2H         LINE#         67
  C:E0A2H         LINE#         68
  C:E0A8H         LINE#         69
  C:E0ABH         LINE#         70
  C:E0B1H         LINE#         71
  C:E0B4H         LINE#         72
  C:E0BAH         LINE#         73
  C:E0BDH         LINE#         74
  C:E0C3H         LINE#         75
  C:E0C6H         LINE#         76
  C:E0CCH         LINE#         77
  C:E0CFH         LINE#         78
  C:E0D5H         LINE#         79
  C:E0D8H         LINE#         80
  C:E0DEH         LINE#         81
  C:E0E1H         LINE#         82
  C:E0E7H         LINE#         83
  C:E0EAH         LINE#         84
  C:E0F0H         LINE#         85
  C:E0F3H         LINE#         86
  C:E0F6H         LINE#         87
  C:E0F8H         LINE#         88
  -------         ENDPROC       INIT_GPIO_SLEEP
  -------         ENDMOD        DRV_GPIO

  -------         MODULE        DRV_KEY_IO
  C:0000H         SYMBOL        _ICE_DUMMY_
  D:0090H         PUBLIC        P1
  D:00B0H         PUBLIC        P3
  C:EF9FH         PUBLIC        Judge_PG_DN_key
  D:00A8H         PUBLIC        IE
  D:00A7H         PUBLIC        P9DI
  C:EF85H         PUBLIC        Judge_ERR_ADJ_key
  D:00B8H         PUBLIC        IP
  D:0098H         PUBLIC        SCON
  D:0088H         PUBLIC        TCON
  D:00F0H         PUBLIC        B
  D:00E0H         PUBLIC        ACC
  C:F036H         PUBLIC        Judge_ERR_COVER_key
  C:F01EH         PUBLIC        Judge_MD_CLEAR_key
  D:0080H         PUBLIC        SysCtrl
  C:EFB9H         PUBLIC        Judge_MAGN_CHK_key
  D:00C8H         PUBLIC        T2CON
  D:00D0H         PUBLIC        PSW
  -------         PROC          JUDGE_ERR_ADJ_KEY
  -------         DO            
  D:0007H         SYMBOL        i
  -------         ENDDO         
  C:EF85H         LINE#         31
  C:EF85H         LINE#         32
  C:EF85H         LINE#         36
  C:EF87H         LINE#         37
  C:EF87H         LINE#         38
  C:EF8EH         LINE#         39
  C:EF93H         LINE#         41
BL51 BANKED LINKER/LOCATER V6.22                                                      03/12/2019  13:46:20  PAGE 89


  C:EF99H         LINE#         42
  C:EF99H         LINE#         43
  C:EF9CH         LINE#         44
  C:EF9CH         LINE#         46
  C:EF9CH         LINE#         47
  C:EF9EH         LINE#         48
  C:EF9EH         LINE#         50
  -------         ENDPROC       JUDGE_ERR_ADJ_KEY
  -------         PROC          JUDGE_PG_DN_KEY
  -------         DO            
  D:0007H         SYMBOL        i
  -------         ENDDO         
  C:EF9FH         LINE#         58
  C:EF9FH         LINE#         59
  C:EF9FH         LINE#         63
  C:EFA1H         LINE#         64
  C:EFA1H         LINE#         65
  C:EFA8H         LINE#         66
  C:EFADH         LINE#         68
  C:EFB3H         LINE#         69
  C:EFB3H         LINE#         70
  C:EFB6H         LINE#         71
  C:EFB6H         LINE#         73
  C:EFB6H         LINE#         74
  C:EFB8H         LINE#         75
  C:EFB8H         LINE#         77
  -------         ENDPROC       JUDGE_PG_DN_KEY
  -------         PROC          JUDGE_MD_CLEAR_KEY
  -------         DO            
  D:0007H         SYMBOL        i
  -------         ENDDO         
  C:F01EH         LINE#         85
  C:F01EH         LINE#         86
  C:F01EH         LINE#         90
  C:F020H         LINE#         91
  C:F020H         LINE#         92
  C:F025H         LINE#         93
  C:F02AH         LINE#         95
  C:F030H         LINE#         96
  C:F030H         LINE#         97
  C:F033H         LINE#         98
  C:F033H         LINE#         100
  C:F033H         LINE#         101
  C:F035H         LINE#         102
  C:F035H         LINE#         104
  -------         ENDPROC       JUDGE_MD_CLEAR_KEY
  -------         PROC          JUDGE_MAGN_CHK_KEY
  -------         DO            
  D:0007H         SYMBOL        i
  -------         ENDDO         
  C:EFB9H         LINE#         113
  C:EFB9H         LINE#         114
  C:EFB9H         LINE#         118
  C:EFBBH         LINE#         119
  C:EFBBH         LINE#         120
  C:EFC2H         LINE#         121
  C:EFC7H         LINE#         123
BL51 BANKED LINKER/LOCATER V6.22                                                      03/12/2019  13:46:20  PAGE 90


  C:EFCDH         LINE#         124
  C:EFCDH         LINE#         125
  C:EFD0H         LINE#         126
  C:EFD0H         LINE#         128
  C:EFD0H         LINE#         129
  C:EFD2H         LINE#         130
  C:EFD2H         LINE#         132
  -------         ENDPROC       JUDGE_MAGN_CHK_KEY
  -------         PROC          JUDGE_ERR_COVER_KEY
  -------         DO            
  D:0007H         SYMBOL        i
  -------         ENDDO         
  C:F036H         LINE#         142
  C:F036H         LINE#         143
  C:F036H         LINE#         147
  C:F038H         LINE#         148
  C:F038H         LINE#         149
  C:F03DH         LINE#         150
  C:F042H         LINE#         152
  C:F048H         LINE#         153
  C:F048H         LINE#         154
  C:F04BH         LINE#         155
  C:F04BH         LINE#         157
  C:F04BH         LINE#         158
  C:F04DH         LINE#         159
  C:F04DH         LINE#         161
  -------         ENDPROC       JUDGE_ERR_COVER_KEY
  -------         ENDMOD        DRV_KEY_IO

  -------         MODULE        DRV_LCD
  C:0000H         SYMBOL        _ICE_DUMMY_
  D:0090H         PUBLIC        P1
  D:00B0H         PUBLIC        P3
  D:00A8H         PUBLIC        IE
  C:F1A9H         PUBLIC        LCD_OFF
  D:00B8H         PUBLIC        IP
  B:0080H.3       PUBLIC        LCDG
  D:0098H         PUBLIC        SCON
  D:0088H         PUBLIC        TCON
  D:00F0H         PUBLIC        B
  C:B019H         PUBLIC        _Write_LCD
  D:00E0H         PUBLIC        ACC
  C:D9EDH         PUBLIC        Init_LCD
  C:F121H         PUBLIC        LCD_ON
  C:EEFCH         PUBLIC        Clr_all_lcd
  C:ED35H         PUBLIC        _Full_SEG
  D:0080H         PUBLIC        SysCtrl
  D:00C8H         PUBLIC        T2CON
  D:00D0H         PUBLIC        PSW
  -------         PROC          LCD_ON
  C:F121H         LINE#         29
  C:F121H         LINE#         30
  C:F121H         LINE#         31
  C:F123H         LINE#         32
  C:F128H         LINE#         33
  C:F12EH         LINE#         34
  -------         ENDPROC       LCD_ON
BL51 BANKED LINKER/LOCATER V6.22                                                      03/12/2019  13:46:20  PAGE 91


  -------         PROC          LCD_OFF
  C:F1A9H         LINE#         43
  C:F1A9H         LINE#         44
  C:F1A9H         LINE#         45
  C:F1ABH         LINE#         46
  -------         ENDPROC       LCD_OFF
  -------         PROC          CLR_ALL_LCD
  C:EEFCH         LINE#         54
  C:EEFCH         LINE#         55
  C:EEFCH         LINE#         56
  C:EF01H         LINE#         57
  C:EF03H         LINE#         58
  C:EF05H         LINE#         59
  C:EF07H         LINE#         60
  C:EF09H         LINE#         61
  C:EF0BH         LINE#         62
  C:EF0DH         LINE#         63
  C:EF0FH         LINE#         64
  C:EF13H         LINE#         65
  C:EF15H         LINE#         66
  C:EF17H         LINE#         67
  -------         ENDPROC       CLR_ALL_LCD
  -------         PROC          _FULL_SEG
  D:0007H         SYMBOL        val
  C:ED35H         LINE#         76
  C:ED35H         LINE#         77
  C:ED35H         LINE#         78
  C:ED3AH         LINE#         79
  C:ED3EH         LINE#         80
  C:ED40H         LINE#         81
  C:ED42H         LINE#         82
  C:ED44H         LINE#         83
  C:ED48H         LINE#         84
  C:ED4AH         LINE#         85
  C:ED4CH         LINE#         86
  C:ED50H         LINE#         87
  C:ED52H         LINE#         88
  C:ED56H         LINE#         89
  C:ED5BH         LINE#         90
  -------         ENDPROC       _FULL_SEG
  -------         PROC          INIT_LCD
  C:D9EDH         LINE#         99
  C:D9EDH         LINE#         100
  C:D9EDH         LINE#         103
  C:D9F4H         LINE#         104
  C:D9FBH         LINE#         105
  C:DA02H         LINE#         106
  C:DA09H         LINE#         107
  C:DA10H         LINE#         108
  C:DA17H         LINE#         110
  C:DA1EH         LINE#         111
  C:DA25H         LINE#         112
  C:DA2BH         LINE#         113
  C:DA32H         LINE#         114
  C:DA39H         LINE#         115
  C:DA40H         LINE#         117
  C:DA43H         LINE#         119
BL51 BANKED LINKER/LOCATER V6.22                                                      03/12/2019  13:46:20  PAGE 92


  C:DA49H         LINE#         121
  C:DA4DH         LINE#         124
  C:DA51H         LINE#         126
  C:DA55H         LINE#         128
  C:DA59H         LINE#         130
  -------         ENDPROC       INIT_LCD
  -------         PROC          _WRITE_LCD
  D:0001H         SYMBOL        bf_i2cData
  C:B019H         LINE#         138
  C:B019H         LINE#         139
  C:B019H         LINE#         141
  C:B02EH         LINE#         142
  C:B042H         LINE#         143
  C:B053H         LINE#         144
  C:B06AH         LINE#         145
  C:B07BH         LINE#         146
  C:B092H         LINE#         147
  C:B0A3H         LINE#         148
  C:B0BAH         LINE#         149
  C:B0CBH         LINE#         150
  C:B0E2H         LINE#         151
  C:B0E7H         LINE#         152
  C:B0F8H         LINE#         154
  -------         ENDPROC       _WRITE_LCD
  -------         ENDMOD        DRV_LCD

  -------         MODULE        DRV_RTC
  C:0000H         SYMBOL        _ICE_DUMMY_
  D:009AH         PUBLIC        RTCSC
  D:0090H         PUBLIC        P1
  D:00B0H         PUBLIC        P3
  D:009EH         PUBLIC        RTCWC
  C:86ECH         PUBLIC        _SetRTCNormal
  D:0093H         PUBLIC        RTCYC
  C:DC08H         PUBLIC        _Set_RTCTime
  D:00A8H         PUBLIC        IE
  D:00B8H         PUBLIC        IP
  D:0098H         PUBLIC        SCON
  D:0088H         PUBLIC        TCON
  D:00F0H         PUBLIC        B
  D:00E0H         PUBLIC        ACC
  D:00DFH         PUBLIC        SECINT
  D:00DBH         PUBLIC        DIVTHH
  C:E820H         PUBLIC        _SetExtRTC
  C:F10EH         PUBLIC        Open_SecOut
  D:00DDH         PUBLIC        DIVTHL
  D:00DCH         PUBLIC        DIVTHM
  D:0090H         PUBLIC        RTCPEN
  C:EF34H         PUBLIC        Clr_RTC_AdjParam
  D:00E8H         PUBLIC        EIE
  D:0096H         PUBLIC        INTRTC
  D:0097H         PUBLIC        RTCPWD
  D:00DAH         PUBLIC        RTCLATCH
  D:0080H         PUBLIC        SysCtrl
  C:F149H         PUBLIC        Init_RTC
  D:009BH         PUBLIC        RTCMiC
  D:00C8H         PUBLIC        T2CON
BL51 BANKED LINKER/LOCATER V6.22                                                      03/12/2019  13:46:20  PAGE 93


  C:F1B6H         PUBLIC        Handl_RTC_Adj_per_minu
  D:009FH         PUBLIC        RTCMoC
  D:009DH         PUBLIC        RTCDC
  D:009CH         PUBLIC        RTCHC
  D:0094H         PUBLIC        RTCCH
  D:0095H         PUBLIC        RTCCL
  D:00D0H         PUBLIC        PSW
  C:DED3H         PUBLIC        _Get_RTCTime
  -------         PROC          OPEN_SECOUT
  C:F10EH         LINE#         28
  C:F10EH         LINE#         29
  C:F10EH         LINE#         30
  C:F114H         LINE#         32
  C:F11BH         LINE#         33
  C:F120H         LINE#         34
  -------         ENDPROC       OPEN_SECOUT
  -------         PROC          INIT_RTC
  C:F149H         LINE#         52
  C:F149H         LINE#         53
  C:F149H         LINE#         54
  C:F14CH         LINE#         55
  C:F153H         LINE#         56
  -------         ENDPROC       INIT_RTC
  -------         PROC          _SETEXTRTC
  X:0009H         SYMBOL        SEC
  X:000AH         SYMBOL        intRTC
  C:E820H         LINE#         67
  C:E828H         LINE#         68
  C:E828H         LINE#         70
  C:E82BH         LINE#         71
  C:E82EH         LINE#         72
  C:E833H         LINE#         74
  C:E83AH         LINE#         77
  C:E83EH         LINE#         78
  C:E83EH         LINE#         79
  C:E841H         LINE#         80
  C:E84BH         LINE#         81
  C:E84BH         LINE#         84
  C:E850H         LINE#         86
  C:E853H         LINE#         87
  C:E856H         LINE#         88
  -------         ENDPROC       _SETEXTRTC
  -------         PROC          _GET_RTCTIME
  X:0023H         SYMBOL        pTime
  -------         DO            
  X:0026H         SYMBOL        RTCFLAG
  -------         ENDDO         
  C:DED3H         LINE#         99
  C:DEDEH         LINE#         100
  C:DEDEH         LINE#         103
  C:DEE2H         LINE#         104
  C:DEE7H         LINE#         106
  C:DEF7H         LINE#         107
  C:DF0AH         LINE#         108
  C:DF12H         LINE#         109
  C:DF1AH         LINE#         110
  C:DF22H         LINE#         111
BL51 BANKED LINKER/LOCATER V6.22                                                      03/12/2019  13:46:20  PAGE 94


  C:DF2AH         LINE#         112
  -------         ENDPROC       _GET_RTCTIME
  -------         PROC          _SET_RTCTIME
  X:0093H         SYMBOL        pTime
  C:DC08H         LINE#         122
  C:DC13H         LINE#         123
  C:DC13H         LINE#         125
  C:DC16H         LINE#         126
  C:DC19H         LINE#         127
  C:DC1EH         LINE#         129
  C:DC2EH         LINE#         130
  C:DC36H         LINE#         131
  C:DC3EH         LINE#         132
  C:DC46H         LINE#         133
  C:DC4EH         LINE#         134
  C:DC56H         LINE#         135
  C:DC5EH         LINE#         136
  C:DC63H         LINE#         139
  C:DC66H         LINE#         140
  C:DC69H         LINE#         141
  C:DC6EH         LINE#         143
  C:DC70H         LINE#         144
  -------         ENDPROC       _SET_RTCTIME
  -------         PROC          CLR_RTC_ADJPARAM
  C:EF34H         LINE#         155
  C:EF34H         LINE#         156
  C:EF34H         LINE#         158
  C:EF37H         LINE#         159
  C:EF3AH         LINE#         160
  C:EF3FH         LINE#         161
  C:EF42H         LINE#         162
  C:EF44H         LINE#         165
  C:EF47H         LINE#         166
  C:EF4AH         LINE#         167
  -------         ENDPROC       CLR_RTC_ADJPARAM
  -------         PROC          _SETRTCNORMAL
  X:078CH         SYMBOL        offset
  -------         DO            
  X:078EH         SYMBOL        temp1
  X:0792H         SYMBOL        temp2
  D:0006H         SYMBOL        temp3
  -------         ENDDO         
  C:86ECH         LINE#         178
  C:86F4H         LINE#         179
  C:86F4H         LINE#         183
  C:86FEH         LINE#         184
  C:870DH         LINE#         185
  C:8719H         LINE#         186
  C:8719H         LINE#         187
  C:8728H         LINE#         188
  C:8732H         LINE#         189
  C:8758H         LINE#         190
  C:8762H         LINE#         191
  C:87A2H         LINE#         192
  C:87A4H         LINE#         194
  C:87A4H         LINE#         195
  C:87CAH         LINE#         196
BL51 BANKED LINKER/LOCATER V6.22                                                      03/12/2019  13:46:20  PAGE 95


  C:87D4H         LINE#         197
  C:8824H         LINE#         198
  C:8824H         LINE#         200
  C:8833H         LINE#         201
  C:883AH         LINE#         202
  C:883DH         LINE#         203
  C:8840H         LINE#         204
  C:8845H         LINE#         205
  C:884BH         LINE#         206
  C:884FH         LINE#         207
  C:8855H         LINE#         208
  C:8859H         LINE#         209
  C:885DH         LINE#         211
  C:8862H         LINE#         212
  C:8865H         LINE#         213
  C:8868H         LINE#         214
  -------         ENDPROC       _SETRTCNORMAL
  -------         PROC          HANDL_RTC_ADJ_PER_MINU
  -------         DO            
  X:0000H         SYMBOL        i
  X:0001H         SYMBOL        p
  X:0003H         SYMBOL        temp1
  X:0007H         SYMBOL        temperature
  X:000BH         SYMBOL        delta
  D:0006H         SYMBOL        OSC
  X:000DH         SYMBOL        Bpara
  X:0011H         SYMBOL        Ti
  -------         ENDDO         
  C:F1B6H         LINE#         224
  C:F1B6H         LINE#         225
  -------         ENDPROC       HANDL_RTC_ADJ_PER_MINU
  -------         ENDMOD        DRV_RTC

  -------         MODULE        DRV_TMR
  C:0000H         SYMBOL        _ICE_DUMMY_
  D:0090H         PUBLIC        P1
  D:00B0H         PUBLIC        P3
  C:0016H         PUBLIC        Stop_Timer
  D:00A8H         PUBLIC        IE
  D:00B8H         PUBLIC        IP
  C:000EH         PUBLIC        Start_Timer1
  D:0098H         PUBLIC        SCON
  D:0089H         PUBLIC        TMOD
  D:0088H         PUBLIC        TCON
  D:00F0H         PUBLIC        B
  D:00E0H         PUBLIC        ACC
  B:00A8H.1       PUBLIC        ET0
  B:00A8H.3       PUBLIC        ET1
  D:008CH         PUBLIC        TH0
  D:008DH         PUBLIC        TH1
  D:008AH         PUBLIC        TL0
  D:008BH         PUBLIC        TL1
  B:0088H.4       PUBLIC        TR0
  B:0088H.6       PUBLIC        TR1
  D:0080H         PUBLIC        SysCtrl
  D:00C8H         PUBLIC        T2CON
  D:008EH         PUBLIC        CKCON
BL51 BANKED LINKER/LOCATER V6.22                                                      03/12/2019  13:46:20  PAGE 96


  C:0006H         PUBLIC        Start_Timer
  C:F04EH         PUBLIC        Init_Timer
  D:00D0H         PUBLIC        PSW
  -------         PROC          START_TIMER
  C:0006H         LINE#         30
  C:0006H         LINE#         31
  C:0006H         LINE#         32
  C:0008H         LINE#         33
  C:000AH         LINE#         34
  -------         ENDPROC       START_TIMER
  -------         PROC          START_TIMER1
  C:000EH         LINE#         35
  C:000EH         LINE#         36
  C:000EH         LINE#         37
  C:0010H         LINE#         38
  C:0012H         LINE#         39
  -------         ENDPROC       START_TIMER1
  -------         PROC          STOP_TIMER
  C:0016H         LINE#         47
  C:0016H         LINE#         48
  C:0016H         LINE#         49
  C:0018H         LINE#         50
  C:001AH         LINE#         51
  -------         ENDPROC       STOP_TIMER
  -------         PROC          INIT_TIMER
  C:F04EH         LINE#         60
  C:F04EH         LINE#         61
  C:F04EH         LINE#         64
  C:F051H         LINE#         65
  C:F054H         LINE#         66
  C:F057H         LINE#         67
  C:F05AH         LINE#         68
  C:F05DH         LINE#         69
  C:F060H         LINE#         70
  C:F063H         LINE#         71
  -------         ENDPROC       INIT_TIMER
  -------         ENDMOD        DRV_TMR

  -------         MODULE        DRV_UART
  C:0000H         SYMBOL        _ICE_DUMMY_
  D:0090H         PUBLIC        P1
  D:00B0H         PUBLIC        P3
  B:00A8H.7       PUBLIC        EA
  C:E1F3H         PUBLIC        Uart4_Transmit
  D:00A8H         PUBLIC        IE
  C:A99DH         PUBLIC        _Get_UART_rx_buff
  C:B0F9H         PUBLIC        _Hdl_UART_10ms_run
  D:00B8H         PUBLIC        IP
  C:F07DH         PUBLIC        En_UART2_Tx
  C:F093H         PUBLIC        En_UART4_Tx
  D:0098H         PUBLIC        SCON
  D:0088H         PUBLIC        TCON
  C:F173H         PUBLIC        Dis_UART2_rx
  C:F17BH         PUBLIC        Dis_UART4_rx
  D:00F0H         PUBLIC        B
  D:00E0H         PUBLIC        ACC
  C:E408H         PUBLIC        En_UART2_rx
BL51 BANKED LINKER/LOCATER V6.22                                                      03/12/2019  13:46:20  PAGE 97


  B:00D0H.0       PUBLIC        P
  C:E56CH         PUBLIC        En_UART4_rx
  C:C487H         PUBLIC        _Init_UART_soft
  X:0236H         PUBLIC        gs_uart_drv_var
  D:00E8H         PUBLIC        EIE
  D:0080H         PUBLIC        SysCtrl
  C:D5E0H         PUBLIC        _Set_Uart2_badu
  C:D656H         PUBLIC        _Set_Uart4_badu
  D:00C8H         PUBLIC        T2CON
  C:F18BH         PUBLIC        _Init_UART2_hard
  C:F191H         PUBLIC        _Init_UART4_hard
  C:79DCH         PUBLIC        _Tx_UART_frist
  D:00D0H         PUBLIC        PSW
  -------         PROC          _SET_UART2_BADU
  D:0006H         SYMBOL        rate
  C:D5E0H         LINE#         32
  C:D5E0H         LINE#         33
  C:D5E0H         LINE#         34
  C:D5E6H         LINE#         35
  C:D604H         LINE#         36
  C:D604H         LINE#         37
  C:D604H         LINE#         39
  C:D60AH         LINE#         41
  C:D60FH         LINE#         56
  C:D611H         LINE#         58
  C:D611H         LINE#         60
  C:D617H         LINE#         62
  C:D61CH         LINE#         77
  C:D61EH         LINE#         79
  C:D61EH         LINE#         81
  C:D624H         LINE#         83
  C:D629H         LINE#         98
  C:D62BH         LINE#         100
  C:D62BH         LINE#         103
  C:D631H         LINE#         105
  C:D636H         LINE#         120
  C:D638H         LINE#         122
  C:D638H         LINE#         124
  C:D63EH         LINE#         126
  C:D643H         LINE#         141
  C:D645H         LINE#         142
  C:D645H         LINE#         143
  C:D645H         LINE#         145
  C:D64BH         LINE#         147
  C:D655H         LINE#         162
  C:D655H         LINE#         164
  C:D655H         LINE#         166
  -------         ENDPROC       _SET_UART2_BADU
  -------         PROC          _SET_UART4_BADU
  D:0006H         SYMBOL        rate
  C:D656H         LINE#         176
  C:D656H         LINE#         177
  C:D656H         LINE#         178
  C:D65CH         LINE#         179
  C:D67AH         LINE#         180
  C:D67AH         LINE#         181
  C:D67AH         LINE#         183
BL51 BANKED LINKER/LOCATER V6.22                                                      03/12/2019  13:46:20  PAGE 98


  C:D680H         LINE#         185
  C:D685H         LINE#         198
  C:D687H         LINE#         200
  C:D687H         LINE#         202
  C:D68DH         LINE#         204
  C:D692H         LINE#         217
  C:D694H         LINE#         219
  C:D694H         LINE#         221
  C:D69AH         LINE#         223
  C:D69FH         LINE#         236
  C:D6A1H         LINE#         238
  C:D6A1H         LINE#         240
  C:D6A7H         LINE#         242
  C:D6ACH         LINE#         255
  C:D6AEH         LINE#         257
  C:D6AEH         LINE#         259
  C:D6B4H         LINE#         261
  C:D6B9H         LINE#         274
  C:D6BBH         LINE#         275
  C:D6BBH         LINE#         276
  C:D6BBH         LINE#         278
  C:D6C1H         LINE#         280
  C:D6CBH         LINE#         293
  C:D6CBH         LINE#         295
  C:D6CBH         LINE#         297
  -------         ENDPROC       _SET_UART4_BADU
  -------         PROC          EN_UART2_RX
  C:E408H         LINE#         308
  C:E408H         LINE#         309
  C:E408H         LINE#         310
  C:E435H         LINE#         311
  C:E43BH         LINE#         312
  C:E442H         LINE#         313
  C:E449H         LINE#         314
  C:E44DH         LINE#         315
  C:E450H         LINE#         316
  -------         ENDPROC       EN_UART2_RX
  -------         PROC          EN_UART4_RX
  C:E56CH         LINE#         336
  C:E56CH         LINE#         337
  C:E56CH         LINE#         354
  C:E593H         LINE#         355
  C:E599H         LINE#         356
  C:E5A0H         LINE#         357
  C:E5A7H         LINE#         358
  C:E5ABH         LINE#         359
  C:E5AEH         LINE#         360
  -------         ENDPROC       EN_UART4_RX
  -------         PROC          DIS_UART2_RX
  C:F173H         LINE#         369
  C:F173H         LINE#         370
  C:F173H         LINE#         371
  C:F17AH         LINE#         372
  -------         ENDPROC       DIS_UART2_RX
  -------         PROC          DIS_UART4_RX
  C:F17BH         LINE#         381
  C:F17BH         LINE#         382
BL51 BANKED LINKER/LOCATER V6.22                                                      03/12/2019  13:46:20  PAGE 99


  C:F17BH         LINE#         383
  C:F182H         LINE#         384
  -------         ENDPROC       DIS_UART4_RX
  -------         PROC          EN_UART2_TX
  C:F07DH         LINE#         393
  C:F07DH         LINE#         394
  C:F07DH         LINE#         395
  C:F084H         LINE#         396
  C:F08BH         LINE#         397
  C:F08FH         LINE#         398
  C:F092H         LINE#         400
  -------         ENDPROC       EN_UART2_TX
  -------         PROC          EN_UART4_TX
  C:F093H         LINE#         410
  C:F093H         LINE#         411
  C:F093H         LINE#         412
  C:F09AH         LINE#         413
  C:F0A1H         LINE#         414
  C:F0A5H         LINE#         415
  C:F0A8H         LINE#         416
  -------         ENDPROC       EN_UART4_TX
  -------         PROC          _INIT_UART2_HARD
  D:0006H         SYMBOL        badu
  C:F18BH         LINE#         428
  C:F18BH         LINE#         429
  C:F18BH         LINE#         431
  C:F18EH         LINE#         432
  -------         ENDPROC       _INIT_UART2_HARD
  -------         PROC          _INIT_UART4_HARD
  D:0006H         SYMBOL        badu
  C:F191H         LINE#         444
  C:F191H         LINE#         445
  C:F191H         LINE#         447
  C:F194H         LINE#         448
  -------         ENDPROC       _INIT_UART4_HARD
  -------         PROC          _INIT_UART_SOFT
  D:0007H         SYMBOL        ch
  -------         DO            
  D:0006H         SYMBOL        i
  -------         ENDDO         
  C:C487H         LINE#         460
  C:C487H         LINE#         461
  C:C487H         LINE#         464
  C:C490H         LINE#         467
  C:C4A4H         LINE#         468
  C:C4B8H         LINE#         469
  C:C4CCH         LINE#         470
  C:C4E0H         LINE#         471
  C:C4F4H         LINE#         472
  C:C509H         LINE#         473
  C:C50BH         LINE#         474
  C:C50BH         LINE#         475
  C:C529H         LINE#         476
  C:C52EH         LINE#         477
  -------         ENDPROC       _INIT_UART_SOFT
  -------         PROC          _HDL_UART_10MS_RUN
  D:0007H         SYMBOL        ch
BL51 BANKED LINKER/LOCATER V6.22                                                      03/12/2019  13:46:20  PAGE 100


  -------         DO            
  D:0006H         SYMBOL        rx_len
  -------         ENDDO         
  C:B0F9H         LINE#         486
  C:B0F9H         LINE#         487
  C:B0F9H         LINE#         490
  C:B102H         LINE#         493
  C:B117H         LINE#         494
  C:B117H         LINE#         495
  C:B119H         LINE#         497
  C:B119H         LINE#         500
  C:B130H         LINE#         501
  C:B130H         LINE#         502
  C:B132H         LINE#         504
  C:B132H         LINE#         506
  C:B136H         LINE#         507
  C:B136H         LINE#         508
  C:B139H         LINE#         509
  C:B139H         LINE#         510
  C:B13CH         LINE#         511
  C:B13CH         LINE#         512
  C:B140H         LINE#         513
  C:B140H         LINE#         515
  C:B141H         LINE#         516
  C:B141H         LINE#         517
  C:B144H         LINE#         519
  C:B144H         LINE#         523
  C:B158H         LINE#         524
  C:B15AH         LINE#         525
  C:B15AH         LINE#         526
  C:B16FH         LINE#         528
  C:B16FH         LINE#         530
  C:B184H         LINE#         532
  C:B19DH         LINE#         533
  C:B19DH         LINE#         534
  C:B1AFH         LINE#         535
  C:B1B1H         LINE#         537
  C:B1B1H         LINE#         538
  C:B1C2H         LINE#         539
  C:B1C2H         LINE#         540
  C:B1D6H         LINE#         543
  -------         ENDPROC       _HDL_UART_10MS_RUN
  -------         PROC          _TX_UART_FRIST
  X:0006H         SYMBOL        p_buf
  X:0009H         SYMBOL        len
  X:000AH         SYMBOL        badu
  X:000CH         SYMBOL        ch
  -------         DO            
  D:0007H         SYMBOL        i
  X:000DH         SYMBOL        bits_len
  -------         ENDDO         
  C:79DCH         LINE#         556
  C:79EAH         LINE#         557
  C:79EAH         LINE#         562
  C:79F0H         LINE#         564
  C:79F6H         LINE#         565
  C:79F6H         LINE#         566
BL51 BANKED LINKER/LOCATER V6.22                                                      03/12/2019  13:46:20  PAGE 101


  C:79FCH         LINE#         567
  C:79FCH         LINE#         569
  C:7A08H         LINE#         571
  C:7A14H         LINE#         572
  C:7A14H         LINE#         573
  C:7A4CH         LINE#         574
  C:7A4FH         LINE#         575
  C:7A6FH         LINE#         576
  C:7A86H         LINE#         577
  C:7A9CH         LINE#         578
  C:7AB3H         LINE#         580
  C:7AB9H         LINE#         581
  C:7AB9H         LINE#         582
  C:7ABBH         LINE#         583
  C:7AD4H         LINE#         584
  C:7AD4H         LINE#         586
  C:7AEDH         LINE#         587
  C:7AF3H         LINE#         588
  C:7AF3H         LINE#         589
  C:7B0CH         LINE#         590
  C:7B0EH         LINE#         592
  C:7B0EH         LINE#         593
  C:7B25H         LINE#         594
  C:7B25H         LINE#         595
  C:7B25H         LINE#         596
  C:7B27H         LINE#         597
  C:7B32H         LINE#         598
  C:7B35H         LINE#         599
  C:7B38H         LINE#         600
  C:7B55H         LINE#         601
  C:7B55H         LINE#         603
  C:7B5DH         LINE#         604
  C:7B5DH         LINE#         605
  C:7B65H         LINE#         606
  C:7B7BH         LINE#         607
  C:7B7EH         LINE#         608
  C:7B83H         LINE#         609
  C:7B89H         LINE#         610
  C:7B8EH         LINE#         611
  C:7B8EH         LINE#         615
  -------         ENDPROC       _TX_UART_FRIST
  -------         PROC          _GET_UART_RX_BUFF
  X:0036H         SYMBOL        p_buf
  X:0039H         SYMBOL        ch
  -------         DO            
  D:0005H         SYMBOL        len
  -------         ENDDO         
  C:A99DH         LINE#         626
  C:A9ABH         LINE#         627
  C:A9ABH         LINE#         630
  C:A9B3H         LINE#         633
  C:A9DFH         LINE#         636
  C:A9FDH         LINE#         637
  C:A9FDH         LINE#         638
  C:AA00H         LINE#         639
  C:AA00H         LINE#         642
  C:AA1AH         LINE#         643
BL51 BANKED LINKER/LOCATER V6.22                                                      03/12/2019  13:46:20  PAGE 102


  C:AA31H         LINE#         645
  C:AA34H         LINE#         646
  C:AA34H         LINE#         648
  C:AA37H         LINE#         649
  C:AA37H         LINE#         651
  C:AA3FH         LINE#         652
  C:AA3FH         LINE#         655
  C:AA40H         LINE#         656
  C:AA40H         LINE#         658
  C:AA5AH         LINE#         659
  C:AA70H         LINE#         660
  C:AA84H         LINE#         662
  C:AA8AH         LINE#         663
  C:AA8AH         LINE#         664
  C:AA8CH         LINE#         665
  C:AA8CH         LINE#         667
  C:AA8EH         LINE#         668
  -------         ENDPROC       _GET_UART_RX_BUFF
  -------         PROC          UART4_TRANSMIT
  -------         DO            
  D:0007H         SYMBOL        i
  -------         ENDDO         
  C:E1F3H         LINE#         672
  C:E1F3H         LINE#         673
  C:E1F3H         LINE#         675
  C:E1FBH         LINE#         676
  C:E1FBH         LINE#         677
  C:E205H         LINE#         678
  C:E205H         LINE#         679
  C:E214H         LINE#         680
  C:E21AH         LINE#         681
  C:E21AH         LINE#         682
  C:E21EH         LINE#         683
  C:E220H         LINE#         685
  C:E220H         LINE#         686
  C:E224H         LINE#         687
  C:E224H         LINE#         688
  C:E23AH         LINE#         689
  C:E23BH         LINE#         691
  C:E23BH         LINE#         692
  C:E241H         LINE#         693
  C:E241H         LINE#         694
  C:E241H         LINE#         695
  -------         ENDPROC       UART4_TRANSMIT
  -------         ENDMOD        DRV_UART

  -------         MODULE        LIB_MYMATH
  C:0000H         SYMBOL        _ICE_DUMMY_
  C:EB5BH         PUBLIC        _Lib_get_csck_int16u_num
  C:E5AFH         PUBLIC        _Lib_bcd_arry_add1
  D:0090H         PUBLIC        P1
  D:00B0H         PUBLIC        P3
  C:EAC7H         PUBLIC        _Lib_math_get_BCC_chk
  D:00A8H         PUBLIC        IE
  D:00B8H         PUBLIC        IP
  C:ED83H         PUBLIC        _Lib_BCDCHK
  C:E97EH         PUBLIC        _Lib_ENOB_Get
BL51 BANKED LINKER/LOCATER V6.22                                                      03/12/2019  13:46:20  PAGE 103


  D:0098H         PUBLIC        SCON
  D:0088H         PUBLIC        TCON
  C:AA8FH         PUBLIC        _Lib_Check_RTC_data_FORM
  X:062CH         PUBLIC        DayTab
  C:EF5BH         PUBLIC        _Lib_bcd_byte
  C:EF18H         PUBLIC        _Lib_byte_bcd
  C:D47BH         PUBLIC        _Lib_BCD_Asc
  C:D97FH         PUBLIC        _Lib_Asc_BCD
  C:E28FH         PUBLIC        _Lib_bcd_inc
  D:00F0H         PUBLIC        B
  X:0646H         PUBLIC        MonTab
  X:0653H         PUBLIC        DefaultData
  D:00E0H         PUBLIC        ACC
  C:ED5CH         PUBLIC        _Lib_get_csck_int8u_num
  D:0080H         PUBLIC        SysCtrl
  C:EC4FH         PUBLIC        _Lib_BtoA
  C:E86FH         PUBLIC        _Lib_AtoB
  D:00C8H         PUBLIC        T2CON
  C:B7ABH         PUBLIC        _Lib_bcd4_long
  C:BD01H         PUBLIC        _Lib_long_bcd4
  C:E327H         PUBLIC        _Lib_GetGmSec
  C:F0A9H         PUBLIC        _Lib_check_bitnum
  C:CBE9H         PUBLIC        _Lib_GetGmDay
  C:E3BEH         PUBLIC        _Lib_GetGmHour
  C:EDCFH         PUBLIC        _Lib_bcd2_word
  C:D4F3H         PUBLIC        _Lib_word_bcd2
  C:E2DBH         PUBLIC        _Lib_GetGmMin
  D:00D0H         PUBLIC        PSW
  C:D90EH         PUBLIC        _Lib_BCD_AscA
  C:D89DH         PUBLIC        _Lib_Asc_BCDA
  -------         PROC          _LIB_BYTE_BCD
  D:0007H         SYMBOL        xx
  C:EF18H         LINE#         37
  C:EF18H         LINE#         38
  C:EF18H         LINE#         39
  C:EF21H         LINE#         40
  C:EF33H         LINE#         41
  -------         ENDPROC       _LIB_BYTE_BCD
  C:EF4FH         SYMBOL        L?0101
  C:EF57H         SYMBOL        L?0102
  -------         PROC          L?0100
  -------         ENDPROC       L?0100
  C:EF4FH         SYMBOL        L?0101
  C:EF57H         SYMBOL        L?0102
  -------         PROC          _LIB_BCD_BYTE
  D:0007H         SYMBOL        xx
  C:EF5BH         LINE#         46
  C:EF5BH         LINE#         47
  C:EF5BH         LINE#         48
  C:EF69H         LINE#         49
  -------         ENDPROC       _LIB_BCD_BYTE
  -------         PROC          _LIB_WORD_BCD2
  X:0102H         SYMBOL        ptr
  X:0105H         SYMBOL        xx
  C:D4F3H         LINE#         54
  C:D504H         LINE#         55
  C:D504H         LINE#         56
BL51 BANKED LINKER/LOCATER V6.22                                                      03/12/2019  13:46:20  PAGE 104


  C:D50CH         LINE#         57
  C:D50CH         LINE#         58
  C:D51EH         LINE#         59
  C:D522H         LINE#         61
  C:D522H         LINE#         67
  C:D543H         LINE#         68
  C:D569H         LINE#         71
  -------         ENDPROC       _LIB_WORD_BCD2
  -------         PROC          _LIB_BCD2_WORD
  D:0001H         SYMBOL        ptr
  C:EDCFH         LINE#         76
  C:EDCFH         LINE#         77
  C:EDCFH         LINE#         83
  C:EDF3H         LINE#         86
  -------         ENDPROC       _LIB_BCD2_WORD
  -------         PROC          _LIB_LONG_BCD4
  X:00FBH         SYMBOL        ptr
  X:00FEH         SYMBOL        xx
  C:BD01H         LINE#         91
  C:BD10H         LINE#         92
  C:BD10H         LINE#         93
  C:BD2CH         LINE#         94
  C:BD2CH         LINE#         95
  C:BD3EH         LINE#         96
  C:BD45H         LINE#         97
  C:BD4CH         LINE#         98
  C:BD50H         LINE#         100
  C:BD50H         LINE#         106
  C:BD7AH         LINE#         107
  C:BDB7H         LINE#         111
  -------         ENDPROC       _LIB_LONG_BCD4
  -------         PROC          _LIB_BCD4_LONG
  X:00B1H         SYMBOL        ptr
  C:B7ABH         LINE#         116
  C:B7B6H         LINE#         117
  C:B7B6H         LINE#         121
  C:B873H         LINE#         125
  -------         ENDPROC       _LIB_BCD4_LONG
  -------         PROC          _LIB_BCD_INC
  X:07EFH         SYMBOL        ptr
  C:E28FH         LINE#         132
  C:E29AH         LINE#         133
  C:E29AH         LINE#         135
  C:E2AAH         LINE#         136
  C:E2B5H         LINE#         137
  C:E2B5H         LINE#         138
  C:E2BBH         LINE#         139
  C:E2CBH         LINE#         140
  C:E2DAH         LINE#         141
  C:E2DAH         LINE#         142
  -------         ENDPROC       _LIB_BCD_INC
  -------         PROC          _LIB_BCD_ARRY_ADD1
  X:07F2H         SYMBOL        ptr
  D:0005H         SYMBOL        len
  -------         DO            
  D:0006H         SYMBOL        result
  -------         ENDDO         
BL51 BANKED LINKER/LOCATER V6.22                                                      03/12/2019  13:46:20  PAGE 105


  C:E5AFH         LINE#         150
  C:E5BAH         LINE#         151
  C:E5BAH         LINE#         154
  C:E5C0H         LINE#         155
  C:E5C0H         LINE#         156
  C:E5C2H         LINE#         157
  C:E5D0H         LINE#         158
  C:E5E0H         LINE#         159
  C:E5E1H         LINE#         160
  C:E5EBH         LINE#         161
  C:E5EDH         LINE#         162
  C:E5EFH         LINE#         163
  C:E5F1H         LINE#         164
  -------         ENDPROC       _LIB_BCD_ARRY_ADD1
  -------         PROC          _LIB_GET_CSCK_INT16U_NUM
  D:0001H         SYMBOL        ptr
  D:0004H         SYMBOL        len
  X:01D6H         SYMBOL        key
  C:EB5BH         LINE#         177
  C:EB5BH         LINE#         178
  C:EB5BH         LINE#         179
  C:EB64H         LINE#         180
  C:EB64H         LINE#         181
  C:EB75H         LINE#         182
  C:EB7CH         LINE#         183
  C:EB81H         LINE#         184
  C:EB83H         LINE#         185
  C:EB8BH         LINE#         186
  -------         ENDPROC       _LIB_GET_CSCK_INT16U_NUM
  -------         PROC          _LIB_GET_CSCK_INT8U_NUM
  D:0001H         SYMBOL        ptr
  D:0004H         SYMBOL        len
  X:003DH         SYMBOL        key
  C:ED5CH         LINE#         198
  C:ED5CH         LINE#         199
  C:ED5CH         LINE#         200
  C:ED65H         LINE#         201
  C:ED65H         LINE#         202
  C:ED6FH         LINE#         203
  C:ED76H         LINE#         204
  C:ED7BH         LINE#         205
  C:ED7DH         LINE#         206
  C:ED82H         LINE#         207
  -------         ENDPROC       _LIB_GET_CSCK_INT8U_NUM
  -------         PROC          _LIB_BCDCHK
  D:0001H         SYMBOL        ptr
  D:0005H         SYMBOL        len
  -------         DO            
  D:0007H         SYMBOL        i
  D:0006H         SYMBOL        Temp
  -------         ENDDO         
  C:ED83H         LINE#         217
  C:ED83H         LINE#         218
  C:ED83H         LINE#         222
  C:ED85H         LINE#         224
  C:ED85H         LINE#         225
  C:ED89H         LINE#         226
BL51 BANKED LINKER/LOCATER V6.22                                                      03/12/2019  13:46:20  PAGE 106


  C:ED9AH         LINE#         227
  C:EDA1H         LINE#         228
  C:EDA2H         LINE#         229
  C:EDA7H         LINE#         231
  C:EDA9H         LINE#         232
  -------         ENDPROC       _LIB_BCDCHK
  -------         PROC          _LIB_GETGMDAY
  D:0001H         SYMBOL        Addr
  -------         DO            
  D:0006H         SYMBOL        Day
  X:018BH         SYMBOL        Mon
  X:018DH         SYMBOL        Year
  -------         ENDDO         
  C:CBE9H         LINE#         239
  C:CBE9H         LINE#         240
  C:CBE9H         LINE#         243
  C:CBFBH         LINE#         244
  C:CC0DH         LINE#         245
  C:CC66H         LINE#         246
  C:CC7FH         LINE#         247
  C:CC7FH         LINE#         248
  -------         ENDPROC       _LIB_GETGMDAY
  -------         PROC          _LIB_GETGMHOUR
  X:0188H         SYMBOL        Addr
  C:E3BEH         LINE#         255
  C:E3C9H         LINE#         256
  C:E3C9H         LINE#         258
  C:E407H         LINE#         259
  -------         ENDPROC       _LIB_GETGMHOUR
  -------         PROC          _LIB_GETGMMIN
  X:0185H         SYMBOL        Addr
  C:E2DBH         LINE#         266
  C:E2E6H         LINE#         267
  C:E2E6H         LINE#         269
  C:E326H         LINE#         270
  -------         ENDPROC       _LIB_GETGMMIN
  -------         PROC          _LIB_GETGMSEC
  X:0182H         SYMBOL        Addr
  C:E327H         LINE#         277
  C:E332H         LINE#         278
  C:E332H         LINE#         280
  C:E372H         LINE#         281
  -------         ENDPROC       _LIB_GETGMSEC
  -------         PROC          _LIB_CHECK_RTC_DATA_FORM
  D:0001H         SYMBOL        ClkData
  C:AA8FH         LINE#         295
  C:AA8FH         LINE#         296
  C:AA8FH         LINE#         298
  C:AA9AH         LINE#         301
  C:AAA9H         LINE#         302
  C:AAB4H         LINE#         305
  C:AAC9H         LINE#         306
  C:AADAH         LINE#         308
  C:AB20H         LINE#         309
  C:AB23H         LINE#         310
  C:AB2EH         LINE#         313
  C:AB3DH         LINE#         314
BL51 BANKED LINKER/LOCATER V6.22                                                      03/12/2019  13:46:20  PAGE 107


  C:AB48H         LINE#         316
  C:AB57H         LINE#         317
  C:AB62H         LINE#         319
  C:AB71H         LINE#         320
  C:AB7CH         LINE#         322
  C:AB7EH         LINE#         323
  -------         ENDPROC       _LIB_CHECK_RTC_DATA_FORM
  -------         PROC          _LIB_ENOB_GET
  D:0001H         SYMBOL        s1
  D:0005H         SYMBOL        len
  X:07E2H         SYMBOL        ENOB_len
  -------         DO            
  D:0007H         SYMBOL        i
  -------         ENDDO         
  C:E97EH         LINE#         348
  C:E97EH         LINE#         349
  C:E97EH         LINE#         351
  C:E988H         LINE#         352
  C:E988H         LINE#         353
  C:E993H         LINE#         354
  C:E997H         LINE#         355
  C:E997H         LINE#         356
  C:E99FH         LINE#         357
  C:E9A6H         LINE#         358
  C:E9A8H         LINE#         360
  C:E9A8H         LINE#         361
  C:E9B0H         LINE#         362
  C:E9B0H         LINE#         363
  C:E9B3H         LINE#         364
  C:E9B5H         LINE#         365
  -------         ENDPROC       _LIB_ENOB_GET
  C:E85EH         SYMBOL        L?0099
  -------         PROC          L?0098
  -------         ENDPROC       L?0098
  C:E85EH         SYMBOL        L?0099
  -------         PROC          _LIB_ATOB
  D:0007H         SYMBOL        Asc
  -------         DO            
  D:0006H         SYMBOL        Tmp
  -------         ENDDO         
  C:E86FH         LINE#         371
  C:E86FH         LINE#         372
  C:E86FH         LINE#         373
  C:E871H         LINE#         375
  C:E87DH         LINE#         376
  C:E883H         LINE#         377
  C:E88FH         LINE#         378
  C:E893H         LINE#         379
  C:E895H         LINE#         380
  -------         ENDPROC       _LIB_ATOB
  -------         PROC          L?0103
  -------         ENDPROC       L?0103
  -------         PROC          _LIB_BTOA
  D:0007H         SYMBOL        BCD
  -------         DO            
  D:0006H         SYMBOL        Tmp
  -------         ENDDO         
BL51 BANKED LINKER/LOCATER V6.22                                                      03/12/2019  13:46:20  PAGE 108


  C:EC4FH         LINE#         385
  C:EC4FH         LINE#         386
  C:EC4FH         LINE#         387
  C:EC51H         LINE#         389
  C:EC57H         LINE#         390
  C:EC5DH         LINE#         391
  C:EC63H         LINE#         392
  C:EC67H         LINE#         393
  C:EC69H         LINE#         394
  -------         ENDPROC       _LIB_BTOA
  -------         PROC          _LIB_ASC_BCD
  X:0796H         SYMBOL        BCD
  X:0799H         SYMBOL        Asc
  X:079CH         SYMBOL        Lenth
  -------         DO            
  D:0005H         SYMBOL        i
  X:079DH         SYMBOL        Ptr
  -------         ENDDO         
  C:D97FH         LINE#         400
  C:D98AH         LINE#         401
  C:D98AH         LINE#         405
  C:D997H         LINE#         406
  C:D997H         LINE#         407
  C:D9BFH         LINE#         408
  C:D9D6H         LINE#         409
  C:D9E8H         LINE#         410
  C:D9ECH         LINE#         411
  -------         ENDPROC       _LIB_ASC_BCD
  -------         PROC          _LIB_ASC_BCDA
  X:00E6H         SYMBOL        BCD
  X:00E9H         SYMBOL        Asc
  X:00ECH         SYMBOL        Lenth
  -------         DO            
  D:0005H         SYMBOL        i
  X:00EDH         SYMBOL        Ptr
  -------         ENDDO         
  C:D89DH         LINE#         416
  C:D8A8H         LINE#         417
  C:D8A8H         LINE#         421
  C:D8AFH         LINE#         422
  C:D8BBH         LINE#         423
  C:D8BBH         LINE#         424
  C:D8DBH         LINE#         425
  C:D8F5H         LINE#         426
  C:D90AH         LINE#         427
  C:D90DH         LINE#         428
  -------         ENDPROC       _LIB_ASC_BCDA
  -------         PROC          _LIB_BCD_ASC
  X:07A0H         SYMBOL        Asc
  X:07A3H         SYMBOL        BCD
  X:07A6H         SYMBOL        Lenth
  -------         DO            
  D:0005H         SYMBOL        i
  X:07A7H         SYMBOL        Ptr
  -------         ENDDO         
  C:D47BH         LINE#         433
  C:D486H         LINE#         434
BL51 BANKED LINKER/LOCATER V6.22                                                      03/12/2019  13:46:20  PAGE 109


  C:D486H         LINE#         438
  C:D491H         LINE#         439
  C:D491H         LINE#         440
  C:D4B0H         LINE#         441
  C:D4C7H         LINE#         442
  C:D4EFH         LINE#         443
  C:D4F2H         LINE#         444
  -------         ENDPROC       _LIB_BCD_ASC
  -------         PROC          _LIB_BCD_ASCA
  X:01C9H         SYMBOL        Asc
  X:01CCH         SYMBOL        BCD
  X:01CFH         SYMBOL        Lenth
  -------         DO            
  D:0005H         SYMBOL        i
  X:01D0H         SYMBOL        Ptr
  -------         ENDDO         
  C:D90EH         LINE#         449
  C:D919H         LINE#         450
  C:D919H         LINE#         454
  C:D925H         LINE#         455
  C:D925H         LINE#         456
  C:D93CH         LINE#         457
  C:D953H         LINE#         458
  C:D97BH         LINE#         459
  C:D97EH         LINE#         460
  -------         ENDPROC       _LIB_BCD_ASCA
  -------         PROC          _LIB_MATH_GET_BCC_CHK
  X:07E3H         SYMBOL        yourBuf
  D:0005H         SYMBOL        StartID
  X:07E7H         SYMBOL        EndID
  -------         DO            
  D:0006H         SYMBOL        i
  D:0007H         SYMBOL        tmp
  -------         ENDDO         
  C:EAC7H         LINE#         472
  C:EAD2H         LINE#         473
  C:EAD2H         LINE#         477
  C:EAD4H         LINE#         478
  C:EAE0H         LINE#         479
  C:EAE0H         LINE#         480
  C:EAF5H         LINE#         481
  C:EAF8H         LINE#         482
  C:EAF8H         LINE#         483
  -------         ENDPROC       _LIB_MATH_GET_BCC_CHK
  -------         PROC          _LIB_CHECK_BITNUM
  D:0007H         SYMBOL        value
  -------         DO            
  D:0005H         SYMBOL        i
  D:0007H         SYMBOL        temp_data
  D:0006H         SYMBOL        re_value
  -------         ENDDO         
  C:F0A9H         LINE#         490
  C:F0A9H         LINE#         491
  C:F0A9H         LINE#         493
  C:F0A9H         LINE#         494
  C:F0ABH         LINE#         495
  C:F0ACH         LINE#         496
BL51 BANKED LINKER/LOCATER V6.22                                                      03/12/2019  13:46:20  PAGE 110


  C:F0ACH         LINE#         497
  C:F0B0H         LINE#         498
  C:F0B0H         LINE#         499
  C:F0B1H         LINE#         500
  C:F0B1H         LINE#         501
  C:F0B5H         LINE#         502
  C:F0BAH         LINE#         503
  C:F0BDH         LINE#         504
  C:F0BEH         LINE#         505
  -------         ENDPROC       _LIB_CHECK_BITNUM
  -------         ENDMOD        LIB_MYMATH

  -------         MODULE        LIB_MYSPRING
  C:0000H         SYMBOL        _ICE_DUMMY_
  D:0090H         PUBLIC        P1
  C:EC6AH         PUBLIC        _Lib_Set_String
  D:00B0H         PUBLIC        P3
  D:00A8H         PUBLIC        IE
  C:EEDEH         PUBLIC        _Lib_Clr_String_U16
  D:00B8H         PUBLIC        IP
  C:C1D8H         PUBLIC        _Lib_Rev_Copy_Arry
  C:D6CCH         PUBLIC        _Lib_get_data_0xFF_asclen
  D:0098H         PUBLIC        SCON
  D:0088H         PUBLIC        TCON
  D:00F0H         PUBLIC        B
  D:00E0H         PUBLIC        ACC
  C:D389H         PUBLIC        _Lib_Cmp_TwoArry
  D:0080H         PUBLIC        SysCtrl
  C:D402H         PUBLIC        _Lib_MVHalfByte_L
  C:E8D1H         PUBLIC        _Lib_FCpyTMem
  C:DF8FH         PUBLIC        _Lib_MVHalfByte_R
  D:00C8H         PUBLIC        T2CON
  C:DF32H         PUBLIC        _Lib_Copy_Str_TwoArry
  C:EF6AH         PUBLIC        _Lib_Clr_String
  D:00D0H         PUBLIC        PSW
  -------         PROC          _LIB_CMP_TWOARRY
  X:022BH         SYMBOL        s1
  X:022EH         SYMBOL        s2
  X:0231H         SYMBOL        len
  -------         DO            
  D:0007H         SYMBOL        i
  -------         ENDDO         
  C:D389H         LINE#         33
  C:D394H         LINE#         34
  C:D394H         LINE#         37
  C:D3A6H         LINE#         38
  C:D3AFH         LINE#         39
  C:D3BBH         LINE#         40
  C:D3BBH         LINE#         41
  C:D3E0H         LINE#         42
  C:D3E8H         LINE#         43
  C:D3F2H         LINE#         44
  C:D3FCH         LINE#         45
  C:D3FFH         LINE#         46
  C:D401H         LINE#         47
  -------         ENDPROC       _LIB_CMP_TWOARRY
  -------         PROC          _LIB_REV_COPY_ARRY
BL51 BANKED LINKER/LOCATER V6.22                                                      03/12/2019  13:46:20  PAGE 111


  X:0038H         SYMBOL        s1
  X:003BH         SYMBOL        len
  -------         DO            
  X:003CH         SYMBOL        tmpData
  X:003DH         SYMBOL        i
  -------         ENDDO         
  C:C1D8H         LINE#         60
  C:C1E6H         LINE#         61
  C:C1E6H         LINE#         63
  C:C1EDH         LINE#         65
  C:C202H         LINE#         66
  C:C202H         LINE#         67
  C:C21EH         LINE#         68
  C:C253H         LINE#         69
  C:C27BH         LINE#         70
  C:C284H         LINE#         71
  -------         ENDPROC       _LIB_REV_COPY_ARRY
  -------         PROC          _LIB_COPY_STR_TWOARRY
  X:01DCH         SYMBOL        s1
  X:01DFH         SYMBOL        s2
  X:01E2H         SYMBOL        len
  C:DF32H         LINE#         84
  C:DF3DH         LINE#         85
  C:DF3DH         LINE#         86
  C:DF4CH         LINE#         87
  C:DF4CH         LINE#         88
  C:DF6AH         LINE#         89
  C:DF74H         LINE#         90
  C:DF7EH         LINE#         91
  C:DF8CH         LINE#         92
  C:DF8EH         LINE#         93
  -------         ENDPROC       _LIB_COPY_STR_TWOARRY
  -------         PROC          _LIB_SET_STRING
  D:0001H         SYMBOL        s1
  D:0005H         SYMBOL        tmp
  X:017BH         SYMBOL        len
  C:EC6AH         LINE#         106
  C:EC6AH         LINE#         107
  C:EC6AH         LINE#         108
  C:EC79H         LINE#         109
  C:EC79H         LINE#         110
  C:EC7DH         LINE#         111
  C:EC84H         LINE#         112
  C:EC92H         LINE#         113
  C:EC94H         LINE#         114
  -------         ENDPROC       _LIB_SET_STRING
  -------         PROC          _LIB_CLR_STRING_U16
  D:0001H         SYMBOL        s1
  D:0004H         SYMBOL        len
  C:EEDEH         LINE#         126
  C:EEDEH         LINE#         127
  C:EEDEH         LINE#         128
  C:EEE7H         LINE#         129
  C:EEE7H         LINE#         130
  C:EEEDH         LINE#         131
  C:EEF4H         LINE#         132
  C:EEF9H         LINE#         133
BL51 BANKED LINKER/LOCATER V6.22                                                      03/12/2019  13:46:20  PAGE 112


  C:EEFBH         LINE#         135
  -------         ENDPROC       _LIB_CLR_STRING_U16
  -------         PROC          _LIB_CLR_STRING
  D:0001H         SYMBOL        s1
  D:0004H         SYMBOL        len
  C:EF6AH         LINE#         146
  C:EF6AH         LINE#         147
  C:EF6AH         LINE#         148
  C:EF73H         LINE#         149
  C:EF73H         LINE#         150
  C:EF77H         LINE#         151
  C:EF7DH         LINE#         152
  C:EF82H         LINE#         153
  C:EF84H         LINE#         155
  -------         ENDPROC       _LIB_CLR_STRING
  -------         PROC          _LIB_GET_DATA_0XFF_ASCLEN
  X:07CCH         SYMBOL        Addr
  X:07CFH         SYMBOL        numbyte
  -------         DO            
  D:0006H         SYMBOL        i
  X:07D1H         SYMBOL        asclen
  -------         ENDDO         
  C:D6CCH         LINE#         163
  C:D6DDH         LINE#         164
  C:D6DDH         LINE#         166
  C:D6E2H         LINE#         167
  C:D6F1H         LINE#         168
  C:D6F1H         LINE#         169
  C:D70BH         LINE#         170
  C:D70BH         LINE#         171
  C:D70DH         LINE#         172
  C:D70DH         LINE#         173
  C:D71BH         LINE#         174
  C:D722H         LINE#         175
  C:D722H         LINE#         176
  C:D724H         LINE#         177
  C:D724H         LINE#         178
  C:D732H         LINE#         179
  C:D739H         LINE#         180
  C:D741H         LINE#         181
  -------         ENDPROC       _LIB_GET_DATA_0XFF_ASCLEN
  -------         PROC          _LIB_MVHALFBYTE_R
  X:07F5H         SYMBOL        addr
  D:0005H         SYMBOL        numbyte
  -------         DO            
  D:0007H         SYMBOL        i
  -------         ENDDO         
  C:DF8FH         LINE#         190
  C:DF9AH         LINE#         191
  C:DF9AH         LINE#         195
  C:DFA3H         LINE#         196
  C:DFA3H         LINE#         197
  C:DFD5H         LINE#         198
  C:DFD8H         LINE#         199
  -------         ENDPROC       _LIB_MVHALFBYTE_R
  -------         PROC          _LIB_MVHALFBYTE_L
  X:07F8H         SYMBOL        addr
BL51 BANKED LINKER/LOCATER V6.22                                                      03/12/2019  13:46:20  PAGE 113


  D:0004H         SYMBOL        numbyte
  -------         DO            
  D:0005H         SYMBOL        i
  -------         ENDDO         
  C:D402H         LINE#         209
  C:D40FH         LINE#         210
  C:D40FH         LINE#         214
  C:D419H         LINE#         215
  C:D419H         LINE#         216
  C:D44AH         LINE#         217
  C:D44DH         LINE#         218
  -------         ENDPROC       _LIB_MVHALFBYTE_L
  -------         PROC          _LIB_FCPYTMEM
  X:0038H         SYMBOL        des
  X:003AH         SYMBOL        src
  D:0003H         SYMBOL        len
  C:E8D1H         LINE#         225
  C:E8DFH         LINE#         226
  C:E8DFH         LINE#         227
  C:E8E5H         LINE#         228
  C:E8E5H         LINE#         229
  C:E908H         LINE#         230
  C:E90AH         LINE#         231
  -------         ENDPROC       _LIB_FCPYTMEM
  -------         ENDMOD        LIB_MYSPRING

  -------         MODULE        LIB_MYTIMER
  C:0000H         SYMBOL        _ICE_DUMMY_
  D:00CEH         PUBLIC        wdt0
  D:0090H         PUBLIC        P1
  D:00CFH         PUBLIC        wdt1
  D:00B0H         PUBLIC        P3
  C:EE19H         PUBLIC        _Lib_Delay_sec
  D:00A8H         PUBLIC        IE
  D:00B8H         PUBLIC        IP
  C:EFEDH         PUBLIC        _Lib_Delay_ms
  D:0098H         PUBLIC        SCON
  D:0088H         PUBLIC        TCON
  D:00F0H         PUBLIC        B
  D:00E0H         PUBLIC        ACC
  D:0080H         PUBLIC        SysCtrl
  C:F154H         PUBLIC        _Lib_Delay_2us
  D:00C8H         PUBLIC        T2CON
  C:EC95H         PUBLIC        _Lib_SystemDelay
  C:F169H         PUBLIC        _Lib_Delay_Nop
  D:00D0H         PUBLIC        PSW
  -------         PROC          _LIB_DELAY_NOP
  D:0007H         SYMBOL        cnt
  C:F169H         LINE#         29
  C:F169H         LINE#         30
  C:F169H         LINE#         31
  C:F16FH         LINE#         32
  C:F16FH         LINE#         33
  C:F170H         LINE#         34
  C:F172H         LINE#         35
  -------         ENDPROC       _LIB_DELAY_NOP
  -------         PROC          _LIB_DELAY_2US
BL51 BANKED LINKER/LOCATER V6.22                                                      03/12/2019  13:46:20  PAGE 114


  D:0007H         SYMBOL        cnt
  C:F154H         LINE#         45
  C:F154H         LINE#         46
  C:F154H         LINE#         49
  C:F15AH         LINE#         50
  C:F15AH         LINE#         51
  C:F15BH         LINE#         52
  C:F15CH         LINE#         53
  C:F15EH         LINE#         54
  -------         ENDPROC       _LIB_DELAY_2US
  -------         PROC          _LIB_DELAY_MS
  D:0006H         SYMBOL        cnt
  -------         DO            
  D:0006H         SYMBOL        i
  D:0005H         SYMBOL        j
  -------         ENDDO         
  C:EFEDH         LINE#         87
  C:EFEDH         LINE#         88
  C:EFEDH         LINE#         92
  C:EFF6H         LINE#         93
  C:EFF6H         LINE#         94
  C:EFF8H         LINE#         95
  C:EFF8H         LINE#         96
  C:EFF9H         LINE#         97
  C:EFFEH         LINE#         98
  C:F005H         LINE#         99
  -------         ENDPROC       _LIB_DELAY_MS
  -------         PROC          _LIB_DELAY_SEC
  D:0004H         SYMBOL        cnt
  -------         DO            
  D:0003H         SYMBOL        i
  -------         ENDDO         
  C:EE19H         LINE#         109
  C:EE1BH         LINE#         110
  C:EE1BH         LINE#         112
  C:EE22H         LINE#         113
  C:EE22H         LINE#         114
  C:EE30H         LINE#         115
  C:EE37H         LINE#         116
  C:EE3AH         LINE#         117
  -------         ENDPROC       _LIB_DELAY_SEC
  -------         PROC          _LIB_SYSTEMDELAY
  D:0006H         SYMBOL        t
  -------         DO            
  D:0004H         SYMBOL        i
  -------         ENDDO         
  C:EC95H         LINE#         129
  C:EC95H         LINE#         130
  C:EC95H         LINE#         132
  C:EC9FH         LINE#         133
  C:EC9FH         LINE#         134
  C:ECADH         LINE#         136
  C:ECBBH         LINE#         137
  C:ECBDH         LINE#         138
  -------         ENDPROC       _LIB_SYSTEMDELAY
  -------         ENDMOD        LIB_MYTIMER

BL51 BANKED LINKER/LOCATER V6.22                                                      03/12/2019  13:46:20  PAGE 115


  -------         MODULE        API_ADJERR
  C:0000H         SYMBOL        _ICE_DUMMY_
  D:0090H         PUBLIC        P1
  D:00B0H         PUBLIC        P3
  D:00A8H         PUBLIC        IE
  D:00B8H         PUBLIC        IP
  X:07FFH         PUBLIC        u8_channel_fg
  D:0098H         PUBLIC        SCON
  D:0088H         PUBLIC        TCON
  D:00F0H         PUBLIC        B
  D:00E0H         PUBLIC        ACC
  D:0080H         PUBLIC        SysCtrl
  D:00C8H         PUBLIC        T2CON
  D:00D0H         PUBLIC        PSW
  -------         ENDMOD        API_ADJERR

  -------         MODULE        API_BILL_RECORD
  C:0000H         SYMBOL        _ICE_DUMMY_
  D:00CEH         PUBLIC        wdt0
  D:0090H         PUBLIC        P1
  D:00CFH         PUBLIC        wdt1
  D:00B0H         PUBLIC        P3
  C:855EH         PUBLIC        api_handl_settle_when_powerUp
  X:0463H         PUBLIC        energy_data_array
  D:00A8H         PUBLIC        IE
  D:00B8H         PUBLIC        IP
  X:0481H         PUBLIC        csck
  X:0482H         PUBLIC        st_mmd_unit_array
  C:F183H         PUBLIC        bill_info
  D:0098H         PUBLIC        SCON
  D:0088H         PUBLIC        TCON
  C:CA1EH         PUBLIC        api_handl_settle_per_minute
  C:EDF4H         PUBLIC        _Judage_Month
  D:00F0H         PUBLIC        B
  C:72B8H         PUBLIC        _api_get_bill_record_addr
  C:EE5DH         PUBLIC        _Judage_Year
  D:00E0H         PUBLIC        ACC
  C:83CBH         PUBLIC        _api_write_bill_data
  D:0080H         PUBLIC        SysCtrl
  C:D20FH         PUBLIC        api_freeze_energy_pre_day
  C:6EFFH         PUBLIC        api_freeze_energy_Ram_pre_day
  X:04AFH         PUBLIC        d_flag
  C:A0A9H         PUBLIC        api_clr_bill_data
  X:04B0H         PUBLIC        Excsck
  X:04B1H         PUBLIC        sum_st_mmd_unit_array
  D:00C8H         PUBLIC        T2CON
  D:00D0H         PUBLIC        PSW
  -------         PROC          _JUDAGE_YEAR
  D:0007H         SYMBOL        year
  C:EE5DH         LINE#         39
  C:EE5DH         LINE#         40
  C:EE5DH         LINE#         41
  C:EE78H         LINE#         42
  C:EE78H         LINE#         43
  C:EE7BH         LINE#         44
  C:EE7BH         LINE#         46
  C:EE7BH         LINE#         47
BL51 BANKED LINKER/LOCATER V6.22                                                      03/12/2019  13:46:20  PAGE 116


  C:EE7DH         LINE#         48
  C:EE7DH         LINE#         49
  -------         ENDPROC       _JUDAGE_YEAR
  -------         PROC          _JUDAGE_MONTH
  D:0007H         SYMBOL        month
  D:0005H         SYMBOL        year
  C:EDF4H         LINE#         51
  C:EDF4H         LINE#         52
  C:EDF4H         LINE#         53
  C:EDF8H         LINE#         54
  C:EDFFH         LINE#         55
  C:EE05H         LINE#         56
  C:EE05H         LINE#         57
  C:EE09H         LINE#         58
  C:EE09H         LINE#         59
  C:EE0CH         LINE#         60
  C:EE0CH         LINE#         62
  C:EE0CH         LINE#         63
  C:EE0FH         LINE#         64
  C:EE0FH         LINE#         65
  C:EE0FH         LINE#         67
  C:EE0FH         LINE#         68
  C:EE13H         LINE#         69
  C:EE13H         LINE#         70
  C:EE16H         LINE#         71
  C:EE16H         LINE#         73
  C:EE16H         LINE#         74
  C:EE18H         LINE#         75
  C:EE18H         LINE#         76
  C:EE18H         LINE#         77
  -------         ENDPROC       _JUDAGE_MONTH
  -------         PROC          _API_GET_BILL_RECORD_ADDR
  X:00E6H         SYMBOL        addr
  -------         DO            
  X:00E8H         SYMBOL        i
  X:00E9H         SYMBOL        ptr
  D:0007H         SYMBOL        temp
  D:0003H         SYMBOL        num
  X:00EAH         SYMBOL        hist_addr
  D:0006H         SYMBOL        len
  -------         ENDDO         
  C:72B8H         LINE#         92
  C:72C0H         LINE#         93
  C:72C0H         LINE#         97
  C:72D0H         LINE#         98
  C:72D0H         LINE#         99
  C:72EDH         LINE#         100
  C:7318H         LINE#         101
  C:7346H         LINE#         102
  C:734FH         LINE#         104
  C:738DH         LINE#         105
  C:73A9H         LINE#         106
  C:73A9H         LINE#         107
  C:73ABH         LINE#         108
  C:73ABH         LINE#         110
  C:73D7H         LINE#         111
  C:73F7H         LINE#         112
BL51 BANKED LINKER/LOCATER V6.22                                                      03/12/2019  13:46:20  PAGE 117


  C:7418H         LINE#         113
  C:7421H         LINE#         114
  C:7421H         LINE#         115
  C:743DH         LINE#         116
  C:743FH         LINE#         118
  C:743FH         LINE#         119
  C:7446H         LINE#         120
  C:7446H         LINE#         121
  C:748FH         LINE#         123
  C:748FH         LINE#         124
  -------         ENDPROC       _API_GET_BILL_RECORD_ADDR
  -------         PROC          _API_WRITE_BILL_DATA
  X:0019H         SYMBOL        id
  -------         DO            
  X:001AH         SYMBOL        adr_tmp
  X:001CH         SYMBOL        ptr_tmp
  X:001DH         SYMBOL        buff_int8u
  -------         ENDDO         
  C:83CBH         LINE#         140
  C:83D0H         LINE#         141
  C:83D0H         LINE#         147
  C:83DDH         LINE#         150
  C:8409H         LINE#         151
  C:840FH         LINE#         152
  C:842FH         LINE#         153
  C:846FH         LINE#         154
  C:8498H         LINE#         157
  C:84A1H         LINE#         158
  C:84A1H         LINE#         159
  C:84A1H         LINE#         160
  C:84A9H         LINE#         161
  C:84B1H         LINE#         162
  C:84B9H         LINE#         163
  C:84C1H         LINE#         164
  C:84C9H         LINE#         165
  C:84D1H         LINE#         166
  C:84EBH         LINE#         167
  C:8509H         LINE#         168
  C:8523H         LINE#         169
  C:855AH         LINE#         172
  C:855AH         LINE#         174
  C:855AH         LINE#         175
  C:855DH         LINE#         176
  C:855DH         LINE#         177
  C:855DH         LINE#         180
  -------         ENDPROC       _API_WRITE_BILL_DATA
  -------         PROC          API_HANDL_SETTLE_PER_MINUTE
  -------         DO            
  X:0000H         SYMBOL        param_settel
  X:0002H         SYMBOL        u16_hour_A
  X:0004H         SYMBOL        u16_hour_B
  -------         ENDDO         
  C:CA1EH         LINE#         195
  C:CA1EH         LINE#         196
  C:CA1EH         LINE#         200
  C:CA27H         LINE#         202
  C:CA3FH         LINE#         203
BL51 BANKED LINKER/LOCATER V6.22                                                      03/12/2019  13:46:20  PAGE 118


  C:CA6CH         LINE#         204
  C:CA99H         LINE#         206
  C:CAB0H         LINE#         207
  C:CAB0H         LINE#         208
  C:CAB4H         LINE#         209
  C:CAB7H         LINE#         210
  C:CAB7H         LINE#         211
  -------         ENDPROC       API_HANDL_SETTLE_PER_MINUTE
  -------         PROC          API_FREEZE_ENERGY_PRE_DAY
  C:D20FH         LINE#         225
  C:D20FH         LINE#         226
  C:D20FH         LINE#         228
  C:D217H         LINE#         229
  C:D218H         LINE#         230
  C:D231H         LINE#         231
  C:D24BH         LINE#         232
  C:D264H         LINE#         235
  C:D26AH         LINE#         236
  C:D26AH         LINE#         238
  C:D270H         LINE#         239
  C:D270H         LINE#         240
  C:D276H         LINE#         241
  C:D276H         LINE#         243
  C:D27DH         LINE#         244
  C:D27DH         LINE#         246
  C:D28BH         LINE#         247
  C:D290H         LINE#         248
  C:D293H         LINE#         250
  C:D293H         LINE#         251
  C:D293H         LINE#         252
  C:D293H         LINE#         253
  C:D293H         LINE#         255
  C:D293H         LINE#         258
  -------         ENDPROC       API_FREEZE_ENERGY_PRE_DAY
  -------         PROC          API_FREEZE_ENERGY_RAM_PRE_DAY
  -------         DO            
  X:0009H         SYMBOL        i
  -------         ENDDO         
  C:6EFFH         LINE#         260
  C:6EFFH         LINE#         261
  C:6EFFH         LINE#         265
  C:6F08H         LINE#         266
  C:6F08H         LINE#         268
  C:6F11H         LINE#         269
  C:6F11H         LINE#         270
  C:6F1AH         LINE#         271
  C:6F1AH         LINE#         273
  C:6F1FH         LINE#         274
  C:6F38H         LINE#         275
  C:6F4AH         LINE#         276
  C:6F4AH         LINE#         277
  C:6F91H         LINE#         278
  C:6F99H         LINE#         281
  C:6FA1H         LINE#         282
  C:6FA9H         LINE#         283
  C:6FB1H         LINE#         284
  C:6FB9H         LINE#         285
BL51 BANKED LINKER/LOCATER V6.22                                                      03/12/2019  13:46:20  PAGE 119


  C:6FC1H         LINE#         286
  C:6FD3H         LINE#         287
  C:6FD3H         LINE#         288
  C:701AH         LINE#         289
  C:7022H         LINE#         292
  C:7034H         LINE#         293
  C:7034H         LINE#         294
  C:707BH         LINE#         295
  C:7083H         LINE#         312
  C:7088H         LINE#         313
  C:70A5H         LINE#         314
  C:70C2H         LINE#         315
  C:70DFH         LINE#         317
  C:70DFH         LINE#         318
  C:70DFH         LINE#         319
  C:70DFH         LINE#         320
  -------         ENDPROC       API_FREEZE_ENERGY_RAM_PRE_DAY
  -------         PROC          API_HANDL_SETTLE_WHEN_POWERUP
  -------         DO            
  X:072AH         SYMBOL        last_rec_dateTime
  X:0730H         SYMBOL        param_settel
  X:0732H         SYMBOL        u16_month_A
  X:0734H         SYMBOL        u16_month_B
  X:0736H         SYMBOL        u16_hour_A
  X:0738H         SYMBOL        u16_hour_B
  X:073AH         SYMBOL        months_no_settled
  X:073CH         SYMBOL        i
  X:073DH         SYMBOL        j
  -------         ENDDO         
  C:855EH         LINE#         337
  C:855EH         LINE#         338
  C:855EH         LINE#         352
  C:8578H         LINE#         353
  C:85A5H         LINE#         354
  C:85D2H         LINE#         355
  C:85EAH         LINE#         356
  C:8617H         LINE#         357
  C:8644H         LINE#         365
  C:8659H         LINE#         366
  C:8659H         LINE#         367
  C:8661H         LINE#         368
  C:8663H         LINE#         370
  C:8663H         LINE#         371
  C:867EH         LINE#         372
  C:867EH         LINE#         373
  C:8683H         LINE#         374
  C:8687H         LINE#         375
  C:8687H         LINE#         376
  C:8690H         LINE#         377
  C:869BH         LINE#         378
  C:86A1H         LINE#         379
  C:86A1H         LINE#         380
  C:86B6H         LINE#         381
  C:86B6H         LINE#         382
  C:86B6H         LINE#         383
  C:86B6H         LINE#         384
  C:86B6H         LINE#         385
BL51 BANKED LINKER/LOCATER V6.22                                                      03/12/2019  13:46:20  PAGE 120


  C:86B6H         LINE#         386
  C:86B8H         LINE#         388
  C:86B8H         LINE#         389
  C:86B8H         LINE#         390
  C:86B8H         LINE#         391
  C:86B8H         LINE#         393
  C:86B8H         LINE#         394
  C:86BDH         LINE#         395
  C:86CBH         LINE#         396
  C:86D1H         LINE#         397
  C:86DFH         LINE#         398
  C:86DFH         LINE#         399
  C:86EBH         LINE#         400
  -------         ENDPROC       API_HANDL_SETTLE_WHEN_POWERUP
  -------         PROC          API_CLR_BILL_DATA
  -------         DO            
  X:0002H         SYMBOL        tmp_bill_var
  X:000BH         SYMBOL        tmp_bill_unit
  -------         ENDDO         
  C:A0A9H         LINE#         416
  C:A0A9H         LINE#         417
  C:A0A9H         LINE#         418
  C:A0A9H         LINE#         420
  C:A0B7H         LINE#         421
  C:A0C4H         LINE#         422
  C:A0D1H         LINE#         424
  C:A0EBH         LINE#         425
  C:A0F9H         LINE#         427
  C:A10AH         LINE#         428
  C:A118H         LINE#         429
  C:A12AH         LINE#         430
  C:A138H         LINE#         431
  C:A14AH         LINE#         432
  C:A158H         LINE#         433
  C:A16AH         LINE#         434
  C:A178H         LINE#         435
  C:A18AH         LINE#         436
  C:A198H         LINE#         437
  C:A1AAH         LINE#         438
  C:A1B8H         LINE#         454
  -------         ENDPROC       API_CLR_BILL_DATA
  -------         ENDMOD        API_BILL_RECORD

  -------         MODULE        API_DEMAND
  C:0000H         SYMBOL        _ICE_DUMMY_
  D:00CEH         PUBLIC        wdt0
  D:0090H         PUBLIC        P1
  X:03D4H         PUBLIC        gs_md_param
  D:00CFH         PUBLIC        wdt1
  D:00B0H         PUBLIC        P3
  D:00A8H         PUBLIC        IE
  D:00B8H         PUBLIC        IP
  C:7827H         PUBLIC        _api_cmp_save_md_data
  C:E373H         PUBLIC        lnk_updata_md_var_power_per_second
  C:E90BH         PUBLIC        api_init_md_data_ram
  C:646FH         PUBLIC        api_updata_md_var_slid_per_minute
  C:D742H         PUBLIC        api_updata_md_var_min_per_second
BL51 BANKED LINKER/LOCATER V6.22                                                      03/12/2019  13:46:20  PAGE 121


  C:D7B6H         PUBLIC        api_clr_freeze_energy
  D:0098H         PUBLIC        SCON
  D:0088H         PUBLIC        TCON
  C:B38CH         PUBLIC        api_clr_current_MD_data
  X:03D6H         PUBLIC        gs_md_var
  D:00F0H         PUBLIC        B
  D:00E0H         PUBLIC        ACC
  C:E9BCH         PUBLIC        _api_check_Demand_para
  D:0080H         PUBLIC        SysCtrl
  D:00C8H         PUBLIC        T2CON
  D:00D0H         PUBLIC        PSW
  -------         PROC          L?0040
  -------         ENDPROC       L?0040
  -------         PROC          _API_CHECK_DEMAND_PARA
  D:0001H         SYMBOL        s_para
  -------         DO            
  D:0007H         SYMBOL        flg
  D:0006H         SYMBOL        u8_period
  D:0005H         SYMBOL        u8_slid
  -------         ENDDO         
  C:E9BCH         LINE#         37
  C:E9BCH         LINE#         38
  C:E9BCH         LINE#         39
  C:E9BEH         LINE#         42
  C:E9C2H         LINE#         43
  C:E9C9H         LINE#         45
  C:E9D5H         LINE#         46
  C:E9D5H         LINE#         47
  C:E9E0H         LINE#         48
  C:E9E0H         LINE#         49
  C:E9E4H         LINE#         50
  C:E9E4H         LINE#         51
  C:E9ECH         LINE#         52
  C:E9ECH         LINE#         53
  C:E9EDH         LINE#         54
  C:E9EDH         LINE#         55
  C:E9EDH         LINE#         56
  C:E9EDH         LINE#         57
  C:E9EDH         LINE#         59
  C:E9EDH         LINE#         61
  -------         ENDPROC       _API_CHECK_DEMAND_PARA
  -------         PROC          API_INIT_MD_DATA_RAM
  C:E90BH         LINE#         76
  C:E90BH         LINE#         77
  C:E90BH         LINE#         80
  C:E923H         LINE#         82
  C:E929H         LINE#         83
  C:E929H         LINE#         85
  C:E92FH         LINE#         86
  C:E931H         LINE#         87
  C:E931H         LINE#         90
  -------         ENDPROC       API_INIT_MD_DATA_RAM
  -------         PROC          _API_CMP_SAVE_MD_DATA
  X:0006H         SYMBOL        ch
  X:0007H         SYMBOL        val_hex32
  -------         DO            
  X:000BH         SYMBOL        st_mmd_unit
BL51 BANKED LINKER/LOCATER V6.22                                                      03/12/2019  13:46:20  PAGE 122


  X:0014H         SYMBOL        adr_offset
  -------         ENDDO         
  C:7827H         LINE#         105
  C:782CH         LINE#         106
  C:782CH         LINE#         111
  C:7834H         LINE#         112
  C:7834H         LINE#         113
  C:7843H         LINE#         114
  C:7864H         LINE#         115
  C:7889H         LINE#         116
  C:7889H         LINE#         117
  C:789BH         LINE#         118
  C:78A3H         LINE#         119
  C:78ABH         LINE#         120
  C:78B3H         LINE#         121
  C:78BBH         LINE#         122
  C:78C3H         LINE#         123
  C:78E7H         LINE#         124
  C:7901H         LINE#         125
  C:791BH         LINE#         126
  C:791BH         LINE#         129
  C:793AH         LINE#         130
  C:795BH         LINE#         131
  C:797DH         LINE#         132
  C:797DH         LINE#         133
  C:798FH         LINE#         134
  C:7997H         LINE#         135
  C:799FH         LINE#         136
  C:79A7H         LINE#         137
  C:79AFH         LINE#         138
  C:79B7H         LINE#         139
  C:79DBH         LINE#         140
  C:79DBH         LINE#         160
  C:79DBH         LINE#         163
  -------         ENDPROC       _API_CMP_SAVE_MD_DATA
  -------         PROC          LNK_UPDATA_MD_VAR_POWER_PER_SECOND
  -------         DO            
  X:0001H         SYMBOL        i
  -------         ENDDO         
  C:E373H         LINE#         178
  C:E373H         LINE#         179
  C:E373H         LINE#         182
  C:E382H         LINE#         183
  C:E382H         LINE#         184
  C:E389H         LINE#         185
  C:E389H         LINE#         186
  C:E389H         LINE#         187
  C:E38CH         LINE#         188
  C:E38EH         LINE#         190
  C:E38EH         LINE#         191
  C:E3B0H         LINE#         192
  C:E3B2H         LINE#         193
  C:E3B2H         LINE#         194
  C:E3B5H         LINE#         195
  C:E3B5H         LINE#         196
  C:E3BDH         LINE#         198
  -------         ENDPROC       LNK_UPDATA_MD_VAR_POWER_PER_SECOND
BL51 BANKED LINKER/LOCATER V6.22                                                      03/12/2019  13:46:20  PAGE 123


  -------         PROC          API_UPDATA_MD_VAR_MIN_PER_SECOND
  -------         DO            
  X:0000H         SYMBOL        i
  -------         ENDDO         
  C:D742H         LINE#         213
  C:D742H         LINE#         214
  C:D742H         LINE#         218
  C:D745H         LINE#         222
  C:D74AH         LINE#         223
  C:D74AH         LINE#         224
  C:D75FH         LINE#         225
  C:D7ABH         LINE#         226
  C:D7B5H         LINE#         228
  -------         ENDPROC       API_UPDATA_MD_VAR_MIN_PER_SECOND
  -------         PROC          API_UPDATA_MD_VAR_SLID_PER_MINUTE
  -------         DO            
  X:0000H         SYMBOL        i
  X:0001H         SYMBOL        j
  X:0002H         SYMBOL        sum_hex32
  -------         ENDDO         
  C:646FH         LINE#         244
  C:646FH         LINE#         245
  C:646FH         LINE#         250
  C:6475H         LINE#         251
  C:6475H         LINE#         253
  C:647BH         LINE#         254
  C:647DH         LINE#         255
  C:647DH         LINE#         257
  C:648FH         LINE#         258
  C:648FH         LINE#         260
  C:64A0H         LINE#         261
  C:64A0H         LINE#         262
  C:64D9H         LINE#         263
  C:64E9H         LINE#         264
  C:64FEH         LINE#         265
  C:64FEH         LINE#         268
  C:651FH         LINE#         269
  C:651FH         LINE#         270
  C:6569H         LINE#         271
  C:657AH         LINE#         272
  C:6596H         LINE#         273
  C:6596H         LINE#         274
  C:65ABH         LINE#         275
  C:65BBH         LINE#         276
  C:65BBH         LINE#         278
  C:65D5H         LINE#         279
  C:65D5H         LINE#         280
  C:65DFH         LINE#         281
  C:65FFH         LINE#         282
  C:65FFH         LINE#         283
  C:6610H         LINE#         284
  C:6610H         LINE#         285
  C:665CH         LINE#         286
  C:6664H         LINE#         287
  C:6693H         LINE#         288
  C:66BBH         LINE#         289
  C:66BBH         LINE#         290
BL51 BANKED LINKER/LOCATER V6.22                                                      03/12/2019  13:46:20  PAGE 124


  C:66BBH         LINE#         291
  C:66BBH         LINE#         293
  C:66C4H         LINE#         295
  -------         ENDPROC       API_UPDATA_MD_VAR_SLID_PER_MINUTE
  -------         PROC          API_CLR_CURRENT_MD_DATA
  -------         DO            
  X:0093H         SYMBOL        tmp_ms_user_data
  X:00C2H         SYMBOL        st_mmd_unit
  -------         ENDDO         
  C:B38CH         LINE#         310
  C:B38CH         LINE#         311
  C:B38CH         LINE#         315
  C:B3A6H         LINE#         316
  C:B3D4H         LINE#         317
  C:B3DAH         LINE#         318
  C:B3F3H         LINE#         320
  C:B400H         LINE#         321
  C:B40DH         LINE#         322
  C:B427H         LINE#         323
  C:B441H         LINE#         324
  C:B44FH         LINE#         326
  -------         ENDPROC       API_CLR_CURRENT_MD_DATA
  -------         PROC          API_CLR_FREEZE_ENERGY
  C:D7B6H         LINE#         329
  C:D7B6H         LINE#         330
  C:D7B6H         LINE#         331
  C:D7C3H         LINE#         332
  C:D7D0H         LINE#         333
  C:D7DDH         LINE#         334
  C:D7F7H         LINE#         335
  C:D811H         LINE#         336
  -------         ENDPROC       API_CLR_FREEZE_ENERGY
  -------         ENDMOD        API_DEMAND

  -------         MODULE        API_ENERGY
  C:0000H         SYMBOL        _ICE_DUMMY_
  D:00CEH         PUBLIC        wdt0
  D:0090H         PUBLIC        P1
  D:00CFH         PUBLIC        wdt1
  D:00B0H         PUBLIC        P3
  B:00A8H.7       PUBLIC        EA
  C:5FA8H         PUBLIC        api_accum_current_energy_data_pre_second
  D:00A8H         PUBLIC        IE
  D:00B8H         PUBLIC        IP
  C:DB9EH         PUBLIC        api_clr_current_energy_data
  D:0098H         PUBLIC        SCON
  D:0088H         PUBLIC        TCON
  D:00F0H         PUBLIC        B
  D:00E0H         PUBLIC        ACC
  C:68FCH         PUBLIC        api_init_current_energy_data_ram
  D:0080H         PUBLIC        SysCtrl
  C:DCDAH         PUBLIC        lnk_add_fac_energy_pluse
  X:04E3H         PUBLIC        gs_energy_user_data_back
  C:F1ACH         PUBLIC        lnk_add_rac_energy_pluse
  D:00C8H         PUBLIC        T2CON
  X:0521H         PUBLIC        gs_energy_user_data
  C:C129H         PUBLIC        api_check_current_energy_data
BL51 BANKED LINKER/LOCATER V6.22                                                      03/12/2019  13:46:20  PAGE 125


  X:055FH         PUBLIC        gs_energy_var
  D:00D0H         PUBLIC        PSW
  -------         PROC          API_INIT_CURRENT_ENERGY_DATA_RAM
  -------         DO            
  X:000DH         SYMBOL        i
  X:000EH         SYMBOL        u16_month_A
  X:0010H         SYMBOL        u16_month_B
  X:0012H         SYMBOL        last_rec_dateTime
  X:0018H         SYMBOL        max_dateTime
  -------         ENDDO         
  C:68FCH         LINE#         41
  C:68FCH         LINE#         42
  C:68FCH         LINE#         51
  C:6910H         LINE#         52
  C:6924H         LINE#         53
  C:6927H         LINE#         55
  C:693FH         LINE#         57
  C:6959H         LINE#         58
  C:6973H         LINE#         59
  C:698CH         LINE#         60
  C:6991H         LINE#         78
  C:69AAH         LINE#         79
  C:69D7H         LINE#         80
  C:6A04H         LINE#         81
  C:6A12H         LINE#         82
  C:6A2AH         LINE#         83
  C:6A2AH         LINE#         84
  C:6A47H         LINE#         85
  C:6A47H         LINE#         86
  C:6A4DH         LINE#         87
  C:6A4FH         LINE#         89
  C:6A4FH         LINE#         90
  C:6A6AH         LINE#         91
  C:6A87H         LINE#         93
  C:6A96H         LINE#         94
  C:6A96H         LINE#         98
  C:6A9EH         LINE#         99
  C:6A9EH         LINE#         100
  C:6AAEH         LINE#         101
  C:6AAEH         LINE#         102
  C:6ABCH         LINE#         103
  C:6ACEH         LINE#         104
  C:6ACEH         LINE#         105
  C:6AD3H         LINE#         106
  C:6AE1H         LINE#         107
  C:6AE9H         LINE#         108
  C:6AF7H         LINE#         109
  C:6AFAH         LINE#         111
  C:6B08H         LINE#         112
  C:6B08H         LINE#         113
  C:6B08H         LINE#         121
  C:6B08H         LINE#         129
  C:6B0DH         LINE#         130
  -------         ENDPROC       API_INIT_CURRENT_ENERGY_DATA_RAM
  -------         PROC          API_CHECK_CURRENT_ENERGY_DATA
  -------         DO            
  D:0006H         SYMBOL        csck_tmp
BL51 BANKED LINKER/LOCATER V6.22                                                      03/12/2019  13:46:20  PAGE 126


  -------         ENDDO         
  C:C129H         LINE#         144
  C:C129H         LINE#         145
  C:C129H         LINE#         149
  C:C140H         LINE#         150
  C:C14FH         LINE#         151
  C:C14FH         LINE#         152
  C:C166H         LINE#         153
  C:C172H         LINE#         154
  C:C172H         LINE#         155
  C:C18BH         LINE#         156
  C:C1AAH         LINE#         166
  C:C1AAH         LINE#         167
  C:C1C8H         LINE#         168
  C:C1D7H         LINE#         169
  C:C1D7H         LINE#         170
  -------         ENDPROC       API_CHECK_CURRENT_ENERGY_DATA
  -------         PROC          LNK_ADD_FAC_ENERGY_PLUSE
  -------         DO            
  D:0007H         SYMBOL        chg_fg
  D:0005H         SYMBOL        u8_tmp
  D:0006H         SYMBOL        i
  -------         ENDDO         
  C:DCDAH         LINE#         184
  C:DCDAH         LINE#         185
  C:DCDAH         LINE#         187
  C:DCDCH         LINE#         190
  C:DCDDH         LINE#         191
  C:DCDDH         LINE#         192
  C:DCEEH         LINE#         193
  C:DCEEH         LINE#         194
  C:DCF0H         LINE#         195
  C:DCF0H         LINE#         196
  C:DCFCH         LINE#         197
  C:DCFEH         LINE#         199
  C:DD14H         LINE#         201
  C:DD3AH         LINE#         203
  C:DD3CH         LINE#         204
  C:DD3CH         LINE#         205
  C:DD41H         LINE#         207
  C:DD41H         LINE#         208
  -------         ENDPROC       LNK_ADD_FAC_ENERGY_PLUSE
  -------         PROC          LNK_ADD_RAC_ENERGY_PLUSE
  -------         DO            
  D:0007H         SYMBOL        chg_fg
  -------         ENDDO         
  C:F1ACH         LINE#         224
  C:F1ACH         LINE#         225
  C:F1ACH         LINE#         227
  C:F1AEH         LINE#         287
  C:F1AEH         LINE#         288
  -------         ENDPROC       LNK_ADD_RAC_ENERGY_PLUSE
  -------         PROC          API_ACCUM_CURRENT_ENERGY_DATA_PRE_SECOND
  -------         DO            
  X:0007H         SYMBOL        save_fg
  X:0008H         SYMBOL        i
  D:0007H         SYMBOL        chg_fg1
BL51 BANKED LINKER/LOCATER V6.22                                                      03/12/2019  13:46:20  PAGE 127


  -------         ENDDO         
  C:5FA8H         LINE#         302
  C:5FA8H         LINE#         303
  C:5FA8H         LINE#         304
  C:5FADH         LINE#         309
  C:5FB0H         LINE#         311
  C:5FB3H         LINE#         313
  C:5FB9H         LINE#         315
  C:5FBEH         LINE#         316
  C:5FCDH         LINE#         317
  C:5FCDH         LINE#         318
  C:5FF2H         LINE#         319
  C:5FF2H         LINE#         320
  C:5FFEH         LINE#         321
  C:6018H         LINE#         322
  C:604DH         LINE#         323
  C:6074H         LINE#         324
  C:6074H         LINE#         325
  C:608CH         LINE#         326
  C:608CH         LINE#         327
  C:608CH         LINE#         329
  C:60C6H         LINE#         330
  C:60C6H         LINE#         331
  C:60F3H         LINE#         332
  C:6144H         LINE#         333
  C:6180H         LINE#         334
  C:6180H         LINE#         335
  C:61AAH         LINE#         336
  C:61AAH         LINE#         337
  C:61AAH         LINE#         340
  C:61B3H         LINE#         343
  C:61D2H         LINE#         344
  C:61F0H         LINE#         347
  C:61F7H         LINE#         348
  C:61F7H         LINE#         349
  C:6210H         LINE#         350
  C:6210H         LINE#         351
  -------         ENDPROC       API_ACCUM_CURRENT_ENERGY_DATA_PRE_SECOND
  -------         PROC          API_CLR_CURRENT_ENERGY_DATA
  C:DB9EH         LINE#         367
  C:DB9EH         LINE#         368
  C:DB9EH         LINE#         370
  C:DBB2H         LINE#         371
  C:DBD1H         LINE#         373
  C:DBEFH         LINE#         375
  -------         ENDPROC       API_CLR_CURRENT_ENERGY_DATA
  -------         ENDMOD        API_ENERGY

  -------         MODULE        API_EVENT
  C:0000H         SYMBOL        _ICE_DUMMY_
  D:00CEH         PUBLIC        wdt0
  D:0090H         PUBLIC        P1
  D:00CFH         PUBLIC        wdt1
  D:00B0H         PUBLIC        P3
  C:EE9FH         PUBLIC        api_even_Detect_NOL1
  C:EE7EH         PUBLIC        api_even_Detect_NOL2
  D:00A8H         PUBLIC        IE
BL51 BANKED LINKER/LOCATER V6.22                                                      03/12/2019  13:46:20  PAGE 128


  C:BAC5H         PUBLIC        _api_deal_even_class_recode
  C:E896H         PUBLIC        gs_even_var
  D:00B8H         PUBLIC        IP
  C:DC71H         PUBLIC        api_even_ee_err
  C:EB8CH         PUBLIC        api_even_Detect_sec
  D:0098H         PUBLIC        SCON
  D:0088H         PUBLIC        TCON
  C:9D4BH         PUBLIC        api_clr_even_by_comm
  C:A4C4H         PUBLIC        _GetTotalTime
  C:F12FH         PUBLIC        api_even_Detect_lowbattery
  D:00F0H         PUBLIC        B
  X:0775H         PUBLIC        gs_even_fun_var
  D:00E0H         PUBLIC        ACC
  C:4A42H         PUBLIC        _api_pwl_cover_even_class_recode
  D:0080H         PUBLIC        SysCtrl
  D:00C8H         PUBLIC        T2CON
  C:002EH         PUBLIC        api_even_Detect_L1reverse
  C:001EH         PUBLIC        api_even_Detect_L2reverse
  C:35CFH         PUBLIC        _lnk_save_even_class1_recode
  C:E8B0H         PUBLIC        even_class_I_tab
  C:F1B2H         PUBLIC        api_even_int
  D:00D0H         PUBLIC        PSW
  -------         PROC          API_EVEN_INT
  C:F1B2H         LINE#         101
  C:F1B2H         LINE#         102
  C:F1B2H         LINE#         104
  C:F1B3H         LINE#         105
  -------         ENDPROC       API_EVEN_INT
  -------         PROC          _API_PWL_COVER_EVEN_CLASS_RECODE
  X:0338H         SYMBOL        even_id
  D:0005H         SYMBOL        type
  -------         DO            
  X:0339H         SYMBOL        data_class2
  X:03B9H         SYMBOL        buftmp
  X:03CFH         SYMBOL        Time
  X:03D3H         SYMBOL        i
  -------         ENDDO         
  C:4A42H         LINE#         110
  C:4A47H         LINE#         111
  C:4A47H         LINE#         120
  C:4A4FH         LINE#         121
  C:4A4FH         LINE#         122
  C:4A6FH         LINE#         123
  C:4A6FH         LINE#         124
  C:4A7FH         LINE#         125
  C:4AA2H         LINE#         126
  C:4AA4H         LINE#         128
  C:4AA4H         LINE#         129
  C:4AB4H         LINE#         130
  C:4AD5H         LINE#         132
  C:4AD5H         LINE#         133
  C:4AEFH         LINE#         136
  C:4B14H         LINE#         137
  C:4B24H         LINE#         138
  C:4B24H         LINE#         139
  C:4B5EH         LINE#         140
  C:4B66H         LINE#         141
BL51 BANKED LINKER/LOCATER V6.22                                                      03/12/2019  13:46:20  PAGE 129


  C:4B6EH         LINE#         142
  C:4B76H         LINE#         143
  C:4B7EH         LINE#         144
  C:4B86H         LINE#         145
  C:4B8EH         LINE#         146
  C:4B96H         LINE#         148
  C:4BA6H         LINE#         149
  C:4BA6H         LINE#         150
  C:4BE0H         LINE#         151
  C:4BE8H         LINE#         152
  C:4BF6H         LINE#         154
  C:4C0AH         LINE#         156
  C:4C29H         LINE#         158
  C:4C43H         LINE#         159
  C:4C43H         LINE#         161
  C:4C43H         LINE#         163
  C:4C59H         LINE#         164
  C:4C59H         LINE#         166
  C:4C59H         LINE#         167
  C:4C69H         LINE#         168
  C:4C69H         LINE#         169
  C:4C79H         LINE#         170
  C:4C86H         LINE#         172
  C:4C87H         LINE#         174
  C:4C87H         LINE#         177
  C:4C97H         LINE#         178
  C:4CBAH         LINE#         179
  C:4CC8H         LINE#         180
  C:4CE2H         LINE#         182
  C:4CEAH         LINE#         183
  C:4CF2H         LINE#         184
  C:4CFAH         LINE#         185
  C:4D02H         LINE#         186
  C:4D0AH         LINE#         187
  C:4D13H         LINE#         189
  C:4D1BH         LINE#         190
  C:4D23H         LINE#         191
  C:4D2BH         LINE#         192
  C:4D33H         LINE#         193
  C:4D3BH         LINE#         194
  C:4D43H         LINE#         196
  C:4D46H         LINE#         197
  C:4D4EH         LINE#         198
  C:4D56H         LINE#         199
  C:4D5EH         LINE#         200
  C:4D66H         LINE#         201
  C:4D6EH         LINE#         203
  C:4D77H         LINE#         205
  C:4D95H         LINE#         207
  C:4DF6H         LINE#         209
  C:4E15H         LINE#         210
  C:4E23H         LINE#         212
  C:4E3DH         LINE#         214
  C:4E4DH         LINE#         215
  C:4E59H         LINE#         216
  C:4E59H         LINE#         218
  C:4E59H         LINE#         221
BL51 BANKED LINKER/LOCATER V6.22                                                      03/12/2019  13:46:20  PAGE 130


  -------         ENDPROC       _API_PWL_COVER_EVEN_CLASS_RECODE
  -------         PROC          _LNK_SAVE_EVEN_CLASS1_RECODE
  X:0098H         SYMBOL        ID
  X:0099H         SYMBOL        adr
  X:009BH         SYMBOL        type
  -------         DO            
  X:009CH         SYMBOL        data_class1
  X:00DCH         SYMBOL        data_class2
  X:015CH         SYMBOL        buftmp
  X:0172H         SYMBOL        Time
  X:0176H         SYMBOL        i
  -------         ENDDO         
  C:35CFH         LINE#         237
  C:35E1H         LINE#         238
  C:35E1H         LINE#         246
  C:35ECH         LINE#         248
  C:35FEH         LINE#         249
  C:35FEH         LINE#         251
  C:3619H         LINE#         253
  C:363EH         LINE#         254
  C:364EH         LINE#         255
  C:364EH         LINE#         256
  C:3688H         LINE#         257
  C:3690H         LINE#         259
  C:3698H         LINE#         260
  C:36A0H         LINE#         261
  C:36A8H         LINE#         262
  C:36B0H         LINE#         263
  C:36B8H         LINE#         264
  C:36C0H         LINE#         266
  C:36DFH         LINE#         269
  C:36F8H         LINE#         271
  C:36F8H         LINE#         274
  C:3717H         LINE#         275
  C:3717H         LINE#         276
  C:3720H         LINE#         277
  C:3720H         LINE#         278
  C:3730H         LINE#         281
  C:3750H         LINE#         282
  C:3769H         LINE#         283
  C:3769H         LINE#         284
  C:3774H         LINE#         285
  C:3777H         LINE#         287
  C:3777H         LINE#         288
  C:3787H         LINE#         289
  C:37ABH         LINE#         290
  C:37B9H         LINE#         292
  C:37CFH         LINE#         293
  C:37CFH         LINE#         294
  C:37E0H         LINE#         295
  C:3800H         LINE#         296
  C:3800H         LINE#         300
  C:381EH         LINE#         303
  C:3843H         LINE#         304
  C:3853H         LINE#         305
  C:3853H         LINE#         306
  C:388DH         LINE#         307
BL51 BANKED LINKER/LOCATER V6.22                                                      03/12/2019  13:46:20  PAGE 131


  C:3895H         LINE#         308
  C:389DH         LINE#         309
  C:38A5H         LINE#         310
  C:38ADH         LINE#         311
  C:38B5H         LINE#         312
  C:38BDH         LINE#         313
  C:38C5H         LINE#         315
  C:38D5H         LINE#         316
  C:38D5H         LINE#         317
  C:390FH         LINE#         318
  C:3917H         LINE#         319
  C:3925H         LINE#         322
  C:3939H         LINE#         326
  C:3958H         LINE#         329
  C:396EH         LINE#         330
  C:396EH         LINE#         331
  C:3971H         LINE#         333
  C:3971H         LINE#         334
  C:398DH         LINE#         335
  C:398DH         LINE#         336
  C:39B0H         LINE#         338
  C:39B0H         LINE#         339
  C:39C0H         LINE#         340
  C:39CCH         LINE#         343
  C:39ECH         LINE#         344
  C:3A00H         LINE#         345
  C:3A00H         LINE#         347
  C:3A00H         LINE#         350
  C:3A10H         LINE#         351
  C:3A30H         LINE#         352
  C:3A3EH         LINE#         353
  C:3A5CH         LINE#         355
  C:3A64H         LINE#         356
  C:3A6CH         LINE#         357
  C:3A74H         LINE#         358
  C:3A7CH         LINE#         359
  C:3A84H         LINE#         360
  C:3A8DH         LINE#         362
  C:3A95H         LINE#         363
  C:3A9DH         LINE#         364
  C:3AA5H         LINE#         365
  C:3AADH         LINE#         366
  C:3AB5H         LINE#         367
  C:3ABDH         LINE#         370
  C:3AC0H         LINE#         371
  C:3AC8H         LINE#         372
  C:3AD0H         LINE#         373
  C:3AD8H         LINE#         374
  C:3AE0H         LINE#         375
  C:3AE8H         LINE#         377
  C:3AF1H         LINE#         379
  C:3B0FH         LINE#         381
  C:3B70H         LINE#         383
  C:3B8FH         LINE#         385
  C:3B9DH         LINE#         388
  C:3BBBH         LINE#         390
  C:3BBBH         LINE#         391
BL51 BANKED LINKER/LOCATER V6.22                                                      03/12/2019  13:46:20  PAGE 132


  C:3BBBH         LINE#         393
  C:3BBBH         LINE#         394
  C:3BCBH         LINE#         395
  C:3BD7H         LINE#         396
  C:3BD7H         LINE#         397
  C:3BD7H         LINE#         399
  C:3BD7H         LINE#         402
  -------         ENDPROC       _LNK_SAVE_EVEN_CLASS1_RECODE
  -------         PROC          _API_DEAL_EVEN_CLASS_RECODE
  D:0007H         SYMBOL        even_id
  D:0006H         SYMBOL        type
  -------         DO            
  X:0093H         SYMBOL        i
  X:0094H         SYMBOL        ID
  X:0095H         SYMBOL        tab_class
  -------         ENDDO         
  C:BAC5H         LINE#         418
  C:BAC7H         LINE#         419
  C:BAC7H         LINE#         423
  C:BACDH         LINE#         424
  C:BACDH         LINE#         425
  C:BADCH         LINE#         426
  C:BADCH         LINE#         427
  C:BAEFH         LINE#         428
  C:BAF7H         LINE#         430
  C:BB04H         LINE#         432
  C:BB10H         LINE#         433
  C:BB10H         LINE#         434
  C:BB12H         LINE#         435
  C:BB1DH         LINE#         436
  C:BB1DH         LINE#         437
  C:BB2CH         LINE#         438
  C:BB2CH         LINE#         439
  C:BB3FH         LINE#         440
  C:BB47H         LINE#         442
  C:BB50H         LINE#         444
  C:BB70H         LINE#         445
  C:BB75H         LINE#         446
  C:BB75H         LINE#         449
  C:BB87H         LINE#         451
  -------         ENDPROC       _API_DEAL_EVEN_CLASS_RECODE
  -------         PROC          API_CLR_EVEN_BY_COMM
  -------         DO            
  X:0093H         SYMBOL        i
  X:0094H         SYMBOL        data_class1
  X:00D4H         SYMBOL        data_class2
  -------         ENDDO         
  C:9D4BH         LINE#         466
  C:9D4BH         LINE#         467
  C:9D4BH         LINE#         472
  C:9D5FH         LINE#         473
  C:9D73H         LINE#         474
  C:9D78H         LINE#         475
  C:9D8BH         LINE#         477
  C:9DA5H         LINE#         479
  C:9DC4H         LINE#         480
  C:9DE3H         LINE#         482
BL51 BANKED LINKER/LOCATER V6.22                                                      03/12/2019  13:46:20  PAGE 133


  C:9DF5H         LINE#         483
  C:9DF5H         LINE#         484
  C:9E03H         LINE#         485
  C:9E2EH         LINE#         486
  C:9E5CH         LINE#         487
  C:9E6AH         LINE#         488
  C:9E73H         LINE#         491
  -------         ENDPROC       API_CLR_EVEN_BY_COMM
  -------         PROC          _GETTOTALTIME
  X:0177H         SYMBOL        buftmp
  -------         DO            
  X:017AH         SYMBOL        temp1
  X:017EH         SYMBOL        temp2
  -------         ENDDO         
  C:A4C4H         LINE#         502
  C:A4CFH         LINE#         503
  C:A4CFH         LINE#         506
  C:A4FAH         LINE#         507
  C:A4FAH         LINE#         508
  C:A504H         LINE#         509
  C:A50EH         LINE#         510
  C:A510H         LINE#         512
  C:A510H         LINE#         513
  C:A520H         LINE#         514
  C:A539H         LINE#         518
  C:A539H         LINE#         520
  C:A55EH         LINE#         521
  C:A55EH         LINE#         522
  C:A589H         LINE#         523
  C:A58BH         LINE#         525
  C:A58BH         LINE#         526
  C:A592H         LINE#         527
  C:A592H         LINE#         529
  -------         ENDPROC       _GETTOTALTIME
  -------         PROC          API_EVEN_DETECT_SEC
  C:EB8CH         LINE#         545
  C:EB8CH         LINE#         546
  C:EB8CH         LINE#         547
  C:EB94H         LINE#         549
  C:EB97H         LINE#         551
  C:EBA1H         LINE#         552
  C:EBA8H         LINE#         562
  C:EBB2H         LINE#         563
  C:EBB9H         LINE#         572
  -------         ENDPROC       API_EVEN_DETECT_SEC
  -------         PROC          API_EVEN_DETECT_L2REVERSE
  C:001EH         LINE#         587
  C:001EH         LINE#         588
  C:001EH         LINE#         590
  C:0025H         LINE#         591
  C:0028H         LINE#         593
  C:002AH         LINE#         595
  -------         ENDPROC       API_EVEN_DETECT_L2REVERSE
  -------         PROC          API_EVEN_DETECT_L1REVERSE
  C:002EH         LINE#         611
  C:002EH         LINE#         612
  C:002EH         LINE#         613
BL51 BANKED LINKER/LOCATER V6.22                                                      03/12/2019  13:46:20  PAGE 134


  C:0035H         LINE#         614
  C:0038H         LINE#         616
  C:003AH         LINE#         617
  -------         ENDPROC       API_EVEN_DETECT_L1REVERSE
  -------         PROC          API_EVEN_DETECT_NOL2
  C:EE7EH         LINE#         631
  C:EE7EH         LINE#         632
  C:EE7EH         LINE#         634
  C:EE99H         LINE#         635
  C:EE99H         LINE#         637
  C:EE9CH         LINE#         638
  C:EE9CH         LINE#         640
  C:EE9CH         LINE#         642
  C:EE9EH         LINE#         643
  C:EE9EH         LINE#         644
  -------         ENDPROC       API_EVEN_DETECT_NOL2
  -------         PROC          API_EVEN_DETECT_NOL1
  C:EE9FH         LINE#         658
  C:EE9FH         LINE#         659
  C:EE9FH         LINE#         661
  C:EEBAH         LINE#         662
  C:EEBAH         LINE#         664
  C:EEBDH         LINE#         665
  C:EEBDH         LINE#         667
  C:EEBDH         LINE#         669
  C:EEBFH         LINE#         670
  C:EEBFH         LINE#         671
  -------         ENDPROC       API_EVEN_DETECT_NOL1
  -------         PROC          API_EVEN_DETECT_LOWBATTERY
  C:F12FH         LINE#         685
  C:F12FH         LINE#         686
  C:F12FH         LINE#         687
  C:F136H         LINE#         688
  C:F139H         LINE#         690
  C:F13BH         LINE#         691
  -------         ENDPROC       API_EVEN_DETECT_LOWBATTERY
  -------         PROC          API_EVEN_EE_ERR
  C:DC71H         LINE#         707
  C:DC71H         LINE#         708
  C:DC71H         LINE#         709
  C:DC8BH         LINE#         711
  C:DCA7H         LINE#         712
  C:DCA7H         LINE#         713
  C:DCABH         LINE#         714
  C:DCABH         LINE#         716
  C:DCCCH         LINE#         717
  C:DCCCH         LINE#         718
  C:DCD3H         LINE#         719
  C:DCD9H         LINE#         720
  C:DCD9H         LINE#         722
  C:DCD9H         LINE#         724
  C:DCD9H         LINE#         725
  -------         ENDPROC       API_EVEN_EE_ERR
  -------         ENDMOD        API_EVENT

  -------         MODULE        API_LOADPROFILE
  C:0000H         SYMBOL        _ICE_DUMMY_
BL51 BANKED LINKER/LOCATER V6.22                                                      03/12/2019  13:46:20  PAGE 135


  D:00CEH         PUBLIC        wdt0
  D:0090H         PUBLIC        P1
  D:00CFH         PUBLIC        wdt1
  D:00B0H         PUBLIC        P3
  C:F1AFH         PUBLIC        ReadLPRunPa
  X:06E4H         PUBLIC        LPRunPa
  D:00A8H         PUBLIC        IE
  D:00B8H         PUBLIC        IP
  C:DAC6H         PUBLIC        Init_LoadPro_param
  X:06E8H         PUBLIC        LPReadPara
  C:C3DCH         PUBLIC        _LPRec_Read_1
  C:CDAAH         PUBLIC        LoadPro_Rec
  D:0098H         PUBLIC        SCON
  D:0088H         PUBLIC        TCON
  D:00F0H         PUBLIC        B
  D:00E0H         PUBLIC        ACC
  X:06EDH         PUBLIC        LPRd
  D:0080H         PUBLIC        SysCtrl
  C:6211H         PUBLIC        _LPRec_Read_Block
  D:00C8H         PUBLIC        T2CON
  C:E5F2H         PUBLIC        LoadProRst
  D:00D0H         PUBLIC        PSW
  C:583EH         PUBLIC        _Load_Rec
  -------         PROC          LOADPRORST
  C:E5F2H         LINE#         28
  C:E5F2H         LINE#         29
  C:E5F2H         LINE#         30
  C:E606H         LINE#         31
  C:E620H         LINE#         33
  -------         ENDPROC       LOADPRORST
  -------         PROC          READLPRUNPA
  C:F1AFH         LINE#         45
  C:F1AFH         LINE#         46
  C:F1AFH         LINE#         47
  C:F1B1H         LINE#         48
  -------         ENDPROC       READLPRUNPA
  -------         PROC          _LPREC_READ_1
  X:00E6H         SYMBOL        dst
  D:0004H         SYMBOL        idNo
  -------         DO            
  X:00E9H         SYMBOL        RecLen
  X:00EAH         SYMBOL        Buffer
  D:0004H         SYMBOL        LPAddr
  X:00FEH         SYMBOL        ptr
  -------         ENDDO         
  C:C3DCH         LINE#         58
  C:C3E7H         LINE#         59
  C:C3E7H         LINE#         66
  C:C3F5H         LINE#         67
  C:C3F5H         LINE#         68
  C:C3FAH         LINE#         69
  C:C3FCH         LINE#         71
  C:C3FCH         LINE#         72
  C:C41EH         LINE#         73
  C:C41EH         LINE#         75
  C:C424H         LINE#         76
  C:C442H         LINE#         77
BL51 BANKED LINKER/LOCATER V6.22                                                      03/12/2019  13:46:20  PAGE 136


  C:C45DH         LINE#         78
  C:C481H         LINE#         85
  C:C486H         LINE#         86
  -------         ENDPROC       _LPREC_READ_1
  -------         PROC          _LPREC_READ_BLOCK
  X:00E6H         SYMBOL        dst
  X:00E9H         SYMBOL        StartARESS
  X:00EBH         SYMBOL        EndARESS
  -------         DO            
  X:00EDH         SYMBOL        Ch
  X:00EEH         SYMBOL        RecLen
  X:00EFH         SYMBOL        Buffer
  X:01B7H         SYMBOL        LPAddr
  X:01BBH         SYMBOL        LPAddr2
  X:01BFH         SYMBOL        HGAddr
  D:0002H         SYMBOL        LWAddr
  X:01C1H         SYMBOL        ComLenth
  X:01C3H         SYMBOL        ptr
  X:01C5H         SYMBOL        ComNo
  X:01C7H         SYMBOL        TempLen
  -------         ENDDO         
  C:6211H         LINE#         94
  C:6222H         LINE#         95
  C:6222H         LINE#         104
  C:622FH         LINE#         105
  C:623DH         LINE#         106
  C:625BH         LINE#         107
  C:6265H         LINE#         109
  C:6281H         LINE#         110
  C:6286H         LINE#         112
  C:629FH         LINE#         114
  C:62C3H         LINE#         116
  C:62C9H         LINE#         118
  C:62D3H         LINE#         119
  C:62E1H         LINE#         120
  C:62F3H         LINE#         121
  C:62F3H         LINE#         122
  C:6339H         LINE#         123
  C:636AH         LINE#         125
  C:6373H         LINE#         127
  C:639EH         LINE#         128
  C:63A3H         LINE#         130
  C:63B2H         LINE#         131
  C:63C0H         LINE#         133
  C:63C9H         LINE#         134
  C:63D0H         LINE#         137
  C:63DEH         LINE#         138
  C:63F5H         LINE#         139
  C:63F5H         LINE#         140
  C:6441H         LINE#         149
  C:644FH         LINE#         150
  C:645DH         LINE#         151
  C:6466H         LINE#         153
  C:646EH         LINE#         154
  -------         ENDPROC       _LPREC_READ_BLOCK
  -------         PROC          _LOAD_REC
  X:0006H         SYMBOL        Ch
BL51 BANKED LINKER/LOCATER V6.22                                                      03/12/2019  13:46:20  PAGE 137


  -------         DO            
  X:0007H         SYMBOL        LPAddr
  X:000BH         SYMBOL        Len
  X:000CH         SYMBOL        Buffer
  -------         ENDDO         
  C:583EH         LINE#         233
  C:5843H         LINE#         234
  C:5843H         LINE#         240
  C:584DH         LINE#         248
  C:5861H         LINE#         249
  C:5866H         LINE#         250
  C:588AH         LINE#         251
  C:5891H         LINE#         256
  C:58B0H         LINE#         257
  C:58B7H         LINE#         262
  C:58D2H         LINE#         263
  C:5909H         LINE#         264
  C:5910H         LINE#         269
  C:592BH         LINE#         270
  C:5962H         LINE#         271
  C:5969H         LINE#         275
  C:5987H         LINE#         276
  C:598EH         LINE#         294
  C:59B0H         LINE#         295
  C:59E4H         LINE#         296
  C:5A02H         LINE#         297
  C:5A2BH         LINE#         300
  C:5A35H         LINE#         301
  C:5A82H         LINE#         303
  C:5A9CH         LINE#         312
  C:5ABEH         LINE#         314
  C:5AC0H         LINE#         315
  -------         ENDPROC       _LOAD_REC
  -------         PROC          LOADPRO_REC
  -------         DO            
  X:0000H         SYMBOL        Ch
  D:0006H         SYMBOL        Addr
  X:0001H         SYMBOL        TimeInv
  X:0003H         SYMBOL        flag
  X:0004H         SYMBOL        Buffer
  -------         ENDDO         
  C:CDAAH         LINE#         323
  C:CDAAH         LINE#         324
  C:CDAAH         LINE#         331
  C:CDBCH         LINE#         332
  C:CDBCH         LINE#         333
  C:CDC8H         LINE#         335
  C:CDDFH         LINE#         336
  C:CDF0H         LINE#         337
  C:CDF3H         LINE#         338
  C:CDF3H         LINE#         339
  C:CDF6H         LINE#         340
  C:CE05H         LINE#         341
  C:CE05H         LINE#         348
  C:CE12H         LINE#         349
  C:CE26H         LINE#         350
  C:CE26H         LINE#         351
BL51 BANKED LINKER/LOCATER V6.22                                                      03/12/2019  13:46:20  PAGE 138


  C:CE2CH         LINE#         352
  C:CE2CH         LINE#         353
  C:CE34H         LINE#         354
  C:CE34H         LINE#         355
  C:CE34H         LINE#         356
  C:CE3DH         LINE#         357
  -------         ENDPROC       LOADPRO_REC
  -------         PROC          INIT_LOADPRO_PARAM
  C:DAC6H         LINE#         366
  C:DAC6H         LINE#         367
  C:DAC6H         LINE#         370
  C:DAE0H         LINE#         372
  C:DAF8H         LINE#         373
  C:DB08H         LINE#         374
  C:DB08H         LINE#         375
  C:DB0EH         LINE#         376
  C:DB0EH         LINE#         379
  C:DB18H         LINE#         381
  -------         ENDPROC       INIT_LOADPRO_PARAM
  -------         ENDMOD        API_LOADPROFILE

  -------         MODULE        API_MEASURE
  C:0000H         SYMBOL        _ICE_DUMMY_
  D:00CEH         PUBLIC        wdt0
  D:0090H         PUBLIC        P1
  D:00CFH         PUBLIC        wdt1
  D:00B0H         PUBLIC        P3
  D:00A8H         PUBLIC        IE
  C:8E22H         PUBLIC        api_measure_deal_pre_second
  D:00B8H         PUBLIC        IP
  C:ECBEH         PUBLIC        api_Measure_ram_INIT
  D:0098H         PUBLIC        SCON
  D:0088H         PUBLIC        TCON
  D:00F0H         PUBLIC        B
  D:00E0H         PUBLIC        ACC
  D:0080H         PUBLIC        SysCtrl
  X:0685H         PUBLIC        gs_measure_status_judge_var
  X:068BH         PUBLIC        gs_measure_var_data
  D:00C8H         PUBLIC        T2CON
  C:EA5DH         PUBLIC        api_measure_VBAT_pre_min
  C:EFD3H         PUBLIC        api_measure_temperature_pre_min
  D:00D0H         PUBLIC        PSW
  -------         PROC          API_MEASURE_RAM_INIT
  C:ECBEH         LINE#         37
  C:ECBEH         LINE#         38
  C:ECBEH         LINE#         39
  C:ECD2H         LINE#         40
  -------         ENDPROC       API_MEASURE_RAM_INIT
  -------         PROC          API_MEASURE_DEAL_PRE_SECOND
  -------         DO            
  X:0000H         SYMBOL        u32_UI
  X:0004H         SYMBOL        u32_P
  X:0008H         SYMBOL        u32_PF
  -------         ENDDO         
  C:8E22H         LINE#         55
  C:8E22H         LINE#         56
  C:8E22H         LINE#         57
BL51 BANKED LINKER/LOCATER V6.22                                                      03/12/2019  13:46:20  PAGE 139


  C:8E22H         LINE#         58
  C:8E30H         LINE#         61
  C:8E33H         LINE#         64
  C:8E3EH         LINE#         68
  C:8E48H         LINE#         69
  C:8E7DH         LINE#         70
  C:8EB2H         LINE#         72
  C:8EBFH         LINE#         78
  C:8EDDH         LINE#         79
  C:8F0CH         LINE#         80
  C:8F25H         LINE#         81
  C:8F25H         LINE#         82
  C:8F2FH         LINE#         83
  C:8F30H         LINE#         85
  C:8F30H         LINE#         86
  C:8F53H         LINE#         87
  C:8F78H         LINE#         88
  C:8F89H         LINE#         89
  C:8F89H         LINE#         90
  -------         ENDPROC       API_MEASURE_DEAL_PRE_SECOND
  -------         PROC          API_MEASURE_VBAT_PRE_MIN
  C:EA5DH         LINE#         103
  C:EA5DH         LINE#         104
  C:EA5DH         LINE#         105
  C:EA68H         LINE#         107
  C:EA70H         LINE#         108
  C:EA70H         LINE#         109
  C:EA7BH         LINE#         110
  C:EA83H         LINE#         111
  C:EA83H         LINE#         112
  C:EA8AH         LINE#         114
  C:EA8AH         LINE#         115
  C:EA8BH         LINE#         117
  C:EA8BH         LINE#         118
  C:EA92H         LINE#         119
  C:EA92H         LINE#         120
  -------         ENDPROC       API_MEASURE_VBAT_PRE_MIN
  -------         PROC          API_MEASURE_TEMPERATURE_PRE_MIN
  C:EFD3H         LINE#         135
  C:EFD3H         LINE#         136
  C:EFD3H         LINE#         137
  C:EFD8H         LINE#         138
  C:EFDFH         LINE#         140
  C:EFEAH         LINE#         142
  -------         ENDPROC       API_MEASURE_TEMPERATURE_PRE_MIN
  -------         ENDMOD        API_MEASURE

  -------         MODULE        API_TRIFF
  C:0000H         SYMBOL        _ICE_DUMMY_
  C:DFECH         PUBLIC        api_update_triffNo_pre_minute
  D:0090H         PUBLIC        P1
  C:9769H         PUBLIC        api_get_seasonTab_No
  D:00B0H         PUBLIC        P3
  D:00A8H         PUBLIC        IE
  C:CAD2H         PUBLIC        default_triff_week_tab
  D:00B8H         PUBLIC        IP
  C:CAF0H         PUBLIC        default_triff_day_tab
BL51 BANKED LINKER/LOCATER V6.22                                                      03/12/2019  13:46:20  PAGE 140


  D:0098H         PUBLIC        SCON
  C:C5CFH         PUBLIC        _api_get_dayTab_No
  D:0088H         PUBLIC        TCON
  D:00F0H         PUBLIC        B
  D:00E0H         PUBLIC        ACC
  D:0080H         PUBLIC        SysCtrl
  D:00C8H         PUBLIC        T2CON
  X:07E8H         PUBLIC        gs_current_triff_var
  C:CAB8H         PUBLIC        default_triff_season_tab
  C:808CH         PUBLIC        _api_get_triff_No
  D:00D0H         PUBLIC        PSW
  -------         PROC          API_GET_SEASONTAB_NO
  -------         DO            
  X:0094H         SYMBOL        s_season_data
  D:0006H         SYMBOL        i
  D:0005H         SYMBOL        result
  D:0007H         SYMBOL        table_ok_len
  -------         ENDDO         
  C:9769H         LINE#         639
  C:9769H         LINE#         640
  C:9769H         LINE#         648
  C:9783H         LINE#         651
  C:9785H         LINE#         652
  C:9786H         LINE#         653
  C:9786H         LINE#         654
  C:979CH         LINE#         655
  C:97B2H         LINE#         656
  C:97C8H         LINE#         657
  C:97C9H         LINE#         658
  C:97CEH         LINE#         660
  C:97D6H         LINE#         661
  C:97D6H         LINE#         662
  C:97D9H         LINE#         663
  C:97D9H         LINE#         666
  C:97DBH         LINE#         667
  C:97E0H         LINE#         668
  C:97E9H         LINE#         669
  C:97E9H         LINE#         670
  C:9805H         LINE#         671
  C:981BH         LINE#         674
  C:9835H         LINE#         675
  C:9835H         LINE#         676
  C:9835H         LINE#         677
  C:9835H         LINE#         678
  C:9837H         LINE#         679
  C:983BH         LINE#         680
  C:983BH         LINE#         681
  C:9855H         LINE#         682
  C:9855H         LINE#         683
  C:985BH         LINE#         684
  C:986BH         LINE#         685
  C:986DH         LINE#         687
  C:986DH         LINE#         688
  C:9870H         LINE#         689
  C:9870H         LINE#         690
  C:9870H         LINE#         691
  C:9870H         LINE#         692
BL51 BANKED LINKER/LOCATER V6.22                                                      03/12/2019  13:46:20  PAGE 141


  C:9872H         LINE#         693
  C:9872H         LINE#         695
  C:9872H         LINE#         696
  C:9872H         LINE#         697
  C:9872H         LINE#         698
  C:9872H         LINE#         699
  C:9872H         LINE#         701
  C:9872H         LINE#         702
  C:9875H         LINE#         703
  C:9875H         LINE#         704
  C:987AH         LINE#         705
  C:9889H         LINE#         706
  C:988BH         LINE#         707
  C:988BH         LINE#         709
  C:988BH         LINE#         710
  C:988BH         LINE#         711
  C:988BH         LINE#         712
  C:988BH         LINE#         713
  C:988FH         LINE#         715
  C:9895H         LINE#         716
  C:9897H         LINE#         718
  -------         ENDPROC       API_GET_SEASONTAB_NO
  -------         PROC          _API_GET_DAYTAB_NO
  D:0007H         SYMBOL        weekTab_no
  -------         DO            
  X:0094H         SYMBOL        s_weekTab_data
  X:009BH         SYMBOL        result
  -------         ENDDO         
  C:C5CFH         LINE#         734
  C:C5CFH         LINE#         735
  C:C5CFH         LINE#         740
  C:C5D7H         LINE#         741
  C:C5D7H         LINE#         742
  C:C5DDH         LINE#         743
  C:C5DEH         LINE#         744
  C:C5DEH         LINE#         746
  C:C605H         LINE#         750
  C:C62AH         LINE#         751
  C:C62AH         LINE#         752
  C:C62AH         LINE#         753
  C:C62DH         LINE#         754
  C:C62FH         LINE#         755
  C:C62FH         LINE#         756
  C:C632H         LINE#         757
  C:C634H         LINE#         758
  C:C634H         LINE#         759
  C:C637H         LINE#         760
  C:C639H         LINE#         761
  C:C639H         LINE#         762
  C:C63CH         LINE#         763
  C:C63EH         LINE#         764
  C:C63EH         LINE#         765
  C:C641H         LINE#         766
  C:C643H         LINE#         767
  C:C643H         LINE#         768
  C:C64BH         LINE#         769
  C:C64DH         LINE#         770
BL51 BANKED LINKER/LOCATER V6.22                                                      03/12/2019  13:46:20  PAGE 142


  C:C64DH         LINE#         771
  C:C653H         LINE#         772
  C:C655H         LINE#         773
  C:C655H         LINE#         774
  C:C658H         LINE#         775
  C:C658H         LINE#         776
  C:C658H         LINE#         778
  C:C663H         LINE#         779
  C:C663H         LINE#         780
  C:C669H         LINE#         781
  C:C669H         LINE#         783
  C:C66EH         LINE#         785
  -------         ENDPROC       _API_GET_DAYTAB_NO
  -------         PROC          _API_GET_TRIFF_NO
  D:0007H         SYMBOL        dayTab_no
  -------         DO            
  X:0094H         SYMBOL        s_dayTab_data
  X:00ACH         SYMBOL        i
  X:00ADH         SYMBOL        table_ok_len
  X:00AEH         SYMBOL        result
  -------         ENDDO         
  C:808CH         LINE#         800
  C:808CH         LINE#         801
  C:808CH         LINE#         809
  C:8094H         LINE#         810
  C:8094H         LINE#         811
  C:809AH         LINE#         812
  C:809BH         LINE#         813
  C:809BH         LINE#         816
  C:80C2H         LINE#         819
  C:80C7H         LINE#         820
  C:80D5H         LINE#         821
  C:80D5H         LINE#         822
  C:80ECH         LINE#         823
  C:8104H         LINE#         824
  C:8118H         LINE#         825
  C:8131H         LINE#         826
  C:8137H         LINE#         827
  C:813FH         LINE#         829
  C:814AH         LINE#         830
  C:814AH         LINE#         831
  C:814DH         LINE#         832
  C:814DH         LINE#         836
  C:8153H         LINE#         837
  C:8158H         LINE#         838
  C:816DH         LINE#         839
  C:816DH         LINE#         840
  C:8187H         LINE#         841
  C:81A3H         LINE#         842
  C:81B8H         LINE#         845
  C:81C2H         LINE#         846
  C:81C2H         LINE#         847
  C:81C2H         LINE#         848
  C:81C4H         LINE#         849
  C:81D9H         LINE#         850
  C:81D9H         LINE#         851
  C:81E3H         LINE#         852
BL51 BANKED LINKER/LOCATER V6.22                                                      03/12/2019  13:46:20  PAGE 143


  C:81E3H         LINE#         853
  C:81F9H         LINE#         854
  C:81FBH         LINE#         856
  C:81FBH         LINE#         857
  C:8201H         LINE#         858
  C:8201H         LINE#         859
  C:8201H         LINE#         860
  C:8203H         LINE#         861
  C:8203H         LINE#         863
  C:8203H         LINE#         864
  C:8203H         LINE#         865
  C:8203H         LINE#         866
  C:8203H         LINE#         867
  C:8203H         LINE#         869
  C:8203H         LINE#         870
  C:8209H         LINE#         871
  C:8209H         LINE#         872
  C:821DH         LINE#         873
  C:821FH         LINE#         874
  C:821FH         LINE#         876
  C:821FH         LINE#         877
  C:821FH         LINE#         878
  C:821FH         LINE#         879
  C:821FH         LINE#         880
  C:8228H         LINE#         882
  C:822DH         LINE#         884
  -------         ENDPROC       _API_GET_TRIFF_NO
  -------         PROC          API_UPDATE_TRIFFNO_PRE_MINUTE
  -------         DO            
  X:0093H         SYMBOL        u8_temp
  -------         ENDDO         
  C:DFECH         LINE#         899
  C:DFECH         LINE#         900
  C:DFECH         LINE#         907
  C:DFF2H         LINE#         909
  C:DFF5H         LINE#         910
  C:DFF5H         LINE#         912
  C:DFFAH         LINE#         914
  C:DFFCH         LINE#         916
  C:DFFCH         LINE#         918
  C:E004H         LINE#         919
  C:E007H         LINE#         920
  C:E007H         LINE#         921
  C:E00DH         LINE#         922
  C:E00DH         LINE#         923
  C:E00FH         LINE#         925
  C:E00FH         LINE#         926
  C:E017H         LINE#         927
  C:E017H         LINE#         928
  C:E024H         LINE#         930
  C:E024H         LINE#         932
  C:E031H         LINE#         933
  C:E039H         LINE#         934
  C:E039H         LINE#         935
  C:E03FH         LINE#         936
  C:E03FH         LINE#         938
  C:E047H         LINE#         940
BL51 BANKED LINKER/LOCATER V6.22                                                      03/12/2019  13:46:20  PAGE 144


  -------         ENDPROC       API_UPDATE_TRIFFNO_PRE_MINUTE
  -------         ENDMOD        API_TRIFF

  -------         MODULE        API_RELAY
  C:0000H         SYMBOL        _ICE_DUMMY_
  D:00CEH         PUBLIC        wdt0
  D:0090H         PUBLIC        P1
  D:00CFH         PUBLIC        wdt1
  D:00B0H         PUBLIC        P3
  C:CC80H         PUBLIC        Drv_relay_powerup_check
  D:00A8H         PUBLIC        IE
  D:00B8H         PUBLIC        IP
  C:E49AH         PUBLIC        _Drv_relay_COMM_CMD_operating
  D:0098H         PUBLIC        SCON
  D:0088H         PUBLIC        TCON
  D:00F0H         PUBLIC        B
  C:F1B7H         PUBLIC        Drv_relay_run_check
  D:00E0H         PUBLIC        ACC
  X:07FBH         PUBLIC        gs_relay_manage_var
  D:0080H         PUBLIC        SysCtrl
  D:00C8H         PUBLIC        T2CON
  D:00D0H         PUBLIC        PSW
  -------         PROC          DRV_RELAY_RUN_CHECK
  C:F1B7H         LINE#         52
  C:F1B7H         LINE#         53
  C:F1B7H         LINE#         99
  -------         ENDPROC       DRV_RELAY_RUN_CHECK
  -------         PROC          DRV_RELAY_POWERUP_CHECK
  C:CC80H         LINE#         116
  C:CC80H         LINE#         117
  C:CC80H         LINE#         119
  C:CC8CH         LINE#         120
  C:CC97H         LINE#         121
  C:CC9EH         LINE#         124
  C:CCA9H         LINE#         125
  C:CCB0H         LINE#         126
  C:CCBBH         LINE#         129
  C:CCD3H         LINE#         130
  C:CCD8H         LINE#         133
  C:CCE2H         LINE#         134
  C:CCE2H         LINE#         135
  C:CCE5H         LINE#         136
  C:CCFCH         LINE#         137
  C:CCFCH         LINE#         138
  C:CD01H         LINE#         139
  C:CD07H         LINE#         140
  C:CD15H         LINE#         141
  -------         ENDPROC       DRV_RELAY_POWERUP_CHECK
  -------         PROC          _DRV_RELAY_COMM_CMD_OPERATING
  D:0001H         SYMBOL        ptr_cmd
  -------         DO            
  D:0007H         SYMBOL        u8_cmd
  D:0006H         SYMBOL        u8_sta
  -------         ENDDO         
  C:E49AH         LINE#         160
  C:E49AH         LINE#         161
  C:E49AH         LINE#         164
BL51 BANKED LINKER/LOCATER V6.22                                                      03/12/2019  13:46:20  PAGE 145


  C:E49EH         LINE#         165
  C:E4A5H         LINE#         169
  C:E4ABH         LINE#         171
  C:E4AEH         LINE#         172
  C:E4AEH         LINE#         174
  C:E4B2H         LINE#         175
  C:E4B6H         LINE#         176
  C:E4B7H         LINE#         177
  C:E4B7H         LINE#         178
  C:E4B9H         LINE#         179
  C:E4BDH         LINE#         180
  C:E4BDH         LINE#         182
  C:E4C3H         LINE#         183
  C:E4C6H         LINE#         184
  C:E4C8H         LINE#         185
  C:E4CBH         LINE#         186
  C:E4CDH         LINE#         188
  C:E4CDH         LINE#         189
  C:E4D0H         LINE#         190
  C:E4D0H         LINE#         192
  C:E4DEH         LINE#         193
  C:E4E0H         LINE#         194
  -------         ENDPROC       _DRV_RELAY_COMM_CMD_OPERATING
  -------         ENDMOD        API_RELAY

  -------         MODULE        API_LCD_DISPLAY
  C:0000H         SYMBOL        _ICE_DUMMY_
  C:4E73H         PUBLIC        _api_get_energy_LCD
  D:0090H         PUBLIC        P1
  C:EE3BH         PUBLIC        Link_Get_Dis_RealChar_buff
  C:03AEH         PUBLIC        _api_chg_LCDDisplay_adj_item
  D:00B0H         PUBLIC        P3
  C:45EEH         PUBLIC        Link_Get_Dis_Data_Num_buff
  D:00A8H         PUBLIC        IE
  D:00B8H         PUBLIC        IP
  C:DDA8H         PUBLIC        default_dis_param_tab
  C:DDB8H         PUBLIC        NumSegD1_D6
  C:6B0EH         PUBLIC        Link_Get_Dis_Drv_buff
  C:B60DH         PUBLIC        api_updated_LCDDisplayPixel_per_second
  C:DDC8H         PUBLIC        NumSegD7_D9
  C:EA93H         PUBLIC        api_init_display
  X:05EEH         PUBLIC        gs_dis_pixel_var
  C:E4E9H         PUBLIC        api_get_next_dis_item
  C:B463H         PUBLIC        api_updated_LCDDisplayItem_per_second
  D:0098H         PUBLIC        SCON
  D:0088H         PUBLIC        TCON
  C:A6BFH         PUBLIC        _Link_Get_DisTab_Var
  C:5241H         PUBLIC        Link_Get_Dis_OBIS_Num_buff
  D:00F0H         PUBLIC        B
  C:ECE6H         PUBLIC        api_handl_dis_sleep
  D:00E0H         PUBLIC        ACC
  C:F1B8H         PUBLIC        api_updated_LED_per_second
  X:0606H         PUBLIC        gs_dis_ctl_var
  C:DDD8H         PUBLIC        LcdDisTab
  D:0080H         PUBLIC        SysCtrl
  X:0610H         PUBLIC        dis_data_sec
  X:0611H         PUBLIC        dis_data_type
BL51 BANKED LINKER/LOCATER V6.22                                                      03/12/2019  13:46:20  PAGE 146


  D:00C8H         PUBLIC        T2CON
  C:90F1H         PUBLIC        _api_LCDDisplay_adj_item
  X:0612H         PUBLIC        gs_dis_param
  C:E6F2H         PUBLIC        api_handl_dis_key
  X:0622H         PUBLIC        dis_num_char
  X:0623H         PUBLIC        gs_LCDDISTAB_var
  C:B93BH         PUBLIC        Link_Get_Dis_Char_buff
  D:00D0H         PUBLIC        PSW
  -------         PROC          API_INIT_DISPLAY
  C:EA93H         LINE#         105
  C:EA93H         LINE#         106
  C:EA93H         LINE#         107
  C:EAADH         LINE#         108
  C:EAB3H         LINE#         109
  C:EAB6H         LINE#         110
  C:EAB9H         LINE#         111
  C:EABEH         LINE#         112
  C:EAC0H         LINE#         113
  C:EAC2H         LINE#         114
  C:EAC6H         LINE#         115
  -------         ENDPROC       API_INIT_DISPLAY
  -------         PROC          API_HANDL_DIS_KEY
  C:E6F2H         LINE#         130
  C:E6F2H         LINE#         131
  C:E6F2H         LINE#         133
  C:E6FFH         LINE#         134
  C:E6FFH         LINE#         135
  C:E705H         LINE#         136
  C:E71FH         LINE#         138
  C:E71FH         LINE#         140
  C:E727H         LINE#         141
  C:E72FH         LINE#         143
  -------         ENDPROC       API_HANDL_DIS_KEY
  -------         PROC          API_HANDL_DIS_SLEEP
  C:ECE6H         LINE#         157
  C:ECE6H         LINE#         158
  C:ECE6H         LINE#         159
  C:ECECH         LINE#         160
  C:ECF1H         LINE#         161
  C:ED0BH         LINE#         162
  -------         ENDPROC       API_HANDL_DIS_SLEEP
  -------         PROC          API_UPDATED_LCDDISPLAYPIXEL_PER_SECOND
  C:B60DH         LINE#         179
  C:B60DH         LINE#         180
  C:B60DH         LINE#         181
  C:B621H         LINE#         182
  C:B635H         LINE#         183
  C:B649H         LINE#         184
  C:B65DH         LINE#         187
  C:B66DH         LINE#         188
  C:B66DH         LINE#         189
  C:B670H         LINE#         193
  C:B670H         LINE#         194
  C:B672H         LINE#         196
  C:B672H         LINE#         197
  C:B67AH         LINE#         198
  C:B67AH         LINE#         199
BL51 BANKED LINKER/LOCATER V6.22                                                      03/12/2019  13:46:20  PAGE 147


  C:B67DH         LINE#         200
  C:B680H         LINE#         201
  C:B683H         LINE#         202
  C:B68EH         LINE#         203
  C:B691H         LINE#         204
  C:B693H         LINE#         206
  C:B693H         LINE#         207
  C:B69CH         LINE#         208
  C:B69CH         LINE#         209
  C:B69FH         LINE#         210
  C:B69FH         LINE#         212
  C:B6A5H         LINE#         213
  C:B6A5H         LINE#         214
  C:B6B8H         LINE#         215
  C:B6BAH         LINE#         217
  C:B6BAH         LINE#         218
  C:B6C2H         LINE#         219
  C:B6C5H         LINE#         221
  C:B6C8H         LINE#         222
  C:B6D3H         LINE#         223
  C:B6D6H         LINE#         224
  C:B6D6H         LINE#         226
  C:B6DFH         LINE#         227
  -------         ENDPROC       API_UPDATED_LCDDISPLAYPIXEL_PER_SECOND
  -------         PROC          API_UPDATED_LED_PER_SECOND
  C:F1B8H         LINE#         242
  C:F1B8H         LINE#         243
  C:F1B8H         LINE#         245
  C:F1B8H         LINE#         246
  C:F1B8H         LINE#         248
  C:F1B8H         LINE#         250
  C:F1B8H         LINE#         252
  C:F1B8H         LINE#         253
  -------         ENDPROC       API_UPDATED_LED_PER_SECOND
  -------         PROC          API_UPDATED_LCDDISPLAYITEM_PER_SECOND
  C:B463H         LINE#         268
  C:B463H         LINE#         269
  C:B463H         LINE#         270
  C:B471H         LINE#         271
  C:B471H         LINE#         272
  C:B471H         LINE#         273
  C:B477H         LINE#         274
  C:B47DH         LINE#         275
  C:B47DH         LINE#         276
  C:B483H         LINE#         277
  C:B48BH         LINE#         278
  C:B490H         LINE#         279
  C:B49FH         LINE#         280
  C:B4A4H         LINE#         281
  C:B4A4H         LINE#         282
  C:B4A5H         LINE#         284
  C:B4A5H         LINE#         285
  C:B4ADH         LINE#         286
  C:B4ADH         LINE#         288
  C:B4AEH         LINE#         289
  C:B4B7H         LINE#         290
  C:B4B7H         LINE#         291
BL51 BANKED LINKER/LOCATER V6.22                                                      03/12/2019  13:46:20  PAGE 148


  C:B4BAH         LINE#         292
  C:B4BAH         LINE#         293
  C:B4C1H         LINE#         294
  C:B4C1H         LINE#         295
  C:B4C4H         LINE#         296
  C:B4C6H         LINE#         298
  C:B4C6H         LINE#         299
  C:B4CCH         LINE#         300
  C:B4CCH         LINE#         302
  C:B4CCH         LINE#         303
  C:B4CCH         LINE#         304
  C:B4CEH         LINE#         305
  C:B4D6H         LINE#         306
  C:B4D6H         LINE#         307
  C:B4D7H         LINE#         308
  C:B4E0H         LINE#         309
  C:B4E0H         LINE#         310
  C:B4E3H         LINE#         311
  C:B4E3H         LINE#         312
  C:B4EAH         LINE#         313
  C:B4EAH         LINE#         314
  C:B4EDH         LINE#         315
  C:B4EFH         LINE#         317
  C:B4EFH         LINE#         318
  C:B4F5H         LINE#         319
  C:B4F5H         LINE#         321
  C:B4F5H         LINE#         322
  C:B4FDH         LINE#         323
  C:B4FEH         LINE#         325
  C:B4FEH         LINE#         326
  C:B50BH         LINE#         327
  C:B50BH         LINE#         328
  C:B50DH         LINE#         329
  C:B50EH         LINE#         331
  C:B50EH         LINE#         332
  C:B514H         LINE#         333
  C:B517H         LINE#         334
  C:B517H         LINE#         335
  C:B517H         LINE#         336
  C:B51FH         LINE#         338
  C:B528H         LINE#         339
  C:B528H         LINE#         340
  C:B52AH         LINE#         341
  C:B52BH         LINE#         343
  C:B52BH         LINE#         344
  C:B531H         LINE#         345
  C:B531H         LINE#         346
  C:B531H         LINE#         347
  C:B531H         LINE#         348
  C:B531H         LINE#         349
  C:B532H         LINE#         351
  C:B532H         LINE#         352
  C:B538H         LINE#         353
  C:B538H         LINE#         355
  C:B538H         LINE#         356
  -------         ENDPROC       API_UPDATED_LCDDISPLAYITEM_PER_SECOND
  -------         PROC          L?0185
BL51 BANKED LINKER/LOCATER V6.22                                                      03/12/2019  13:46:20  PAGE 149


  -------         ENDPROC       L?0185
  -------         PROC          API_GET_NEXT_DIS_ITEM
  -------         DO            
  D:0007H         SYMBOL        item
  -------         ENDDO         
  C:E4E9H         LINE#         370
  C:E4E9H         LINE#         371
  C:E4E9H         LINE#         375
  C:E4EBH         LINE#         376
  C:E4F3H         LINE#         377
  C:E4F3H         LINE#         378
  C:E4F9H         LINE#         379
  C:E50CH         LINE#         380
  C:E50CH         LINE#         381
  C:E511H         LINE#         382
  C:E511H         LINE#         384
  C:E520H         LINE#         385
  C:E525H         LINE#         386
  C:E525H         LINE#         387
  C:E527H         LINE#         388
  C:E527H         LINE#         389
  C:E527H         LINE#         390
  C:E527H         LINE#         391
  -------         ENDPROC       API_GET_NEXT_DIS_ITEM
  -------         PROC          _LINK_GET_DISTAB_VAR
  D:0007H         SYMBOL        u8_dis_itm
  -------         DO            
  D:0005H         SYMBOL        i
  D:0006H         SYMBOL        u8_result
  -------         ENDDO         
  C:A6BFH         LINE#         401
  C:A6BFH         LINE#         402
  C:A6BFH         LINE#         404
  C:A6C1H         LINE#         406
  C:A6C7H         LINE#         407
  C:A6C7H         LINE#         408
  C:A6C9H         LINE#         409
  C:A6C9H         LINE#         412
  C:A6CBH         LINE#         413
  C:A6CBH         LINE#         414
  C:A6E1H         LINE#         415
  C:A6E1H         LINE#         416
  C:A6E6H         LINE#         417
  C:A702H         LINE#         418
  C:A71EH         LINE#         419
  C:A73AH         LINE#         420
  C:A74EH         LINE#         421
  C:A762H         LINE#         422
  C:A762H         LINE#         423
  C:A765H         LINE#         424
  C:A765H         LINE#         425
  C:A76EH         LINE#         427
  C:A771H         LINE#         428
  C:A771H         LINE#         429
  C:A777H         LINE#         430
  C:A788H         LINE#         431
  C:A799H         LINE#         432
BL51 BANKED LINKER/LOCATER V6.22                                                      03/12/2019  13:46:20  PAGE 150


  C:A7AAH         LINE#         433
  C:A7B3H         LINE#         434
  C:A7B3H         LINE#         435
  C:A7B5H         LINE#         437
  -------         ENDPROC       _LINK_GET_DISTAB_VAR
  -------         PROC          LINK_GET_DIS_OBIS_NUM_BUFF
  -------         DO            
  X:0781H         SYMBOL        u8_len
  X:0782H         SYMBOL        u8_mem_type
  X:0783H         SYMBOL        lib_len
  X:0784H         SYMBOL        u32_tmp
  X:0788H         SYMBOL        buffer
  -------         ENDDO         
  C:5241H         LINE#         448
  C:5241H         LINE#         449
  C:5241H         LINE#         453
  C:524DH         LINE#         455
  C:5255H         LINE#         456
  C:525AH         LINE#         458
  C:5261H         LINE#         459
  C:5261H         LINE#         460
  C:5267H         LINE#         461
  C:5270H         LINE#         462
  C:5273H         LINE#         464
  C:5273H         LINE#         466
  C:5292H         LINE#         467
  C:5292H         LINE#         468
  C:5292H         LINE#         469
  C:52B4H         LINE#         470
  C:52C5H         LINE#         471
  C:52C8H         LINE#         473
  C:52C8H         LINE#         474
  C:52EAH         LINE#         475
  C:52FBH         LINE#         476
  C:52FBH         LINE#         477
  C:52FEH         LINE#         479
  C:52FEH         LINE#         480
  C:5320H         LINE#         481
  C:5331H         LINE#         482
  C:5331H         LINE#         483
  C:5334H         LINE#         485
  C:5334H         LINE#         486
  C:5356H         LINE#         487
  C:536DH         LINE#         488
  C:5383H         LINE#         489
  C:538AH         LINE#         490
  C:538AH         LINE#         491
  C:53A2H         LINE#         492
  C:53A2H         LINE#         493
  C:53A5H         LINE#         494
  C:53A9H         LINE#         495
  C:53A9H         LINE#         496
  C:53C6H         LINE#         497
  C:53C6H         LINE#         498
  C:53C9H         LINE#         499
  C:53D1H         LINE#         500
  C:53D1H         LINE#         501
BL51 BANKED LINKER/LOCATER V6.22                                                      03/12/2019  13:46:20  PAGE 151


  C:53E4H         LINE#         502
  C:53E7H         LINE#         503
  C:53EEH         LINE#         504
  C:53EEH         LINE#         505
  C:5402H         LINE#         506
  C:5404H         LINE#         508
  C:5404H         LINE#         509
  C:5410H         LINE#         510
  C:5410H         LINE#         511
  C:5413H         LINE#         512
  C:5413H         LINE#         513
  C:5435H         LINE#         514
  C:544CH         LINE#         515
  C:5462H         LINE#         516
  C:5469H         LINE#         517
  C:5469H         LINE#         518
  C:5486H         LINE#         519
  C:548DH         LINE#         520
  C:5490H         LINE#         521
  C:5494H         LINE#         522
  C:5494H         LINE#         523
  C:54ADH         LINE#         524
  C:54B4H         LINE#         525
  C:54B6H         LINE#         526
  C:54C0H         LINE#         527
  C:54C0H         LINE#         528
  C:54D4H         LINE#         529
  C:54D6H         LINE#         531
  C:54D6H         LINE#         532
  C:54E8H         LINE#         533
  C:54E8H         LINE#         534
  C:54EAH         LINE#         537
  C:54EAH         LINE#         538
  C:5510H         LINE#         539
  C:5510H         LINE#         540
  C:5510H         LINE#         548
  C:551AH         LINE#         549
  C:551AH         LINE#         550
  C:551AH         LINE#         551
  C:552BH         LINE#         552
  C:5539H         LINE#         553
  C:5540H         LINE#         554
  C:5542H         LINE#         555
  C:5542H         LINE#         556
  C:5553H         LINE#         557
  C:5561H         LINE#         558
  C:5561H         LINE#         559
  C:5561H         LINE#         560
  C:5561H         LINE#         561
  C:5561H         LINE#         564
  -------         ENDPROC       LINK_GET_DIS_OBIS_NUM_BUFF
  -------         PROC          LINK_GET_DIS_DATA_NUM_BUFF
  -------         DO            
  X:0009H         SYMBOL        buffer
  X:000DH         SYMBOL        temp
  X:0013H         SYMBOL        t
  X:001CH         SYMBOL        rtc_data_tmp
BL51 BANKED LINKER/LOCATER V6.22                                                      03/12/2019  13:46:20  PAGE 152


  -------         ENDDO         
  C:45EEH         LINE#         576
  C:45EEH         LINE#         577
  C:45EEH         LINE#         584
  C:45FCH         LINE#         585
  C:45FCH         LINE#         586
  C:4605H         LINE#         588
  C:4615H         LINE#         589
  C:4620H         LINE#         590
  C:4630H         LINE#         591
  C:463BH         LINE#         592
  C:464BH         LINE#         593
  C:4656H         LINE#         594
  C:465CH         LINE#         595
  C:4664H         LINE#         596
  C:4665H         LINE#         598
  C:4665H         LINE#         599
  C:466EH         LINE#         600
  C:466EH         LINE#         602
  C:4686H         LINE#         604
  C:4689H         LINE#         609
  C:469AH         LINE#         610
  C:46A8H         LINE#         611
  C:46B9H         LINE#         612
  C:46C7H         LINE#         613
  C:46D9H         LINE#         614
  C:46E1H         LINE#         615
  C:46E1H         LINE#         616
  C:46EFH         LINE#         617
  C:46EFH         LINE#         620
  C:46F8H         LINE#         621
  C:4701H         LINE#         622
  C:4701H         LINE#         623
  C:470CH         LINE#         624
  C:470CH         LINE#         627
  C:4725H         LINE#         628
  C:473CH         LINE#         635
  C:474AH         LINE#         636
  C:475BH         LINE#         637
  C:4769H         LINE#         638
  C:477AH         LINE#         639
  C:4788H         LINE#         642
  C:479AH         LINE#         647
  C:47A3H         LINE#         648
  C:47ACH         LINE#         649
  C:47ACH         LINE#         650
  C:47B7H         LINE#         651
  C:47B7H         LINE#         654
  C:47CFH         LINE#         655
  C:47E6H         LINE#         661
  C:47F4H         LINE#         662
  C:4805H         LINE#         663
  C:4813H         LINE#         664
  C:4824H         LINE#         665
  C:4832H         LINE#         668
  C:4844H         LINE#         673
  C:484DH         LINE#         674
BL51 BANKED LINKER/LOCATER V6.22                                                      03/12/2019  13:46:20  PAGE 153


  C:4856H         LINE#         675
  C:4856H         LINE#         676
  C:4861H         LINE#         677
  C:4861H         LINE#         680
  C:4879H         LINE#         681
  C:487CH         LINE#         686
  C:488DH         LINE#         687
  C:489BH         LINE#         688
  C:48ACH         LINE#         689
  C:48BAH         LINE#         690
  C:48CCH         LINE#         691
  C:48D4H         LINE#         692
  C:48D4H         LINE#         693
  C:48E2H         LINE#         694
  C:48E2H         LINE#         698
  C:48EBH         LINE#         699
  C:48F4H         LINE#         700
  C:48F4H         LINE#         701
  C:48FFH         LINE#         702
  C:48FFH         LINE#         705
  C:4918H         LINE#         706
  C:492FH         LINE#         712
  C:493DH         LINE#         713
  C:494EH         LINE#         714
  C:495CH         LINE#         715
  C:496DH         LINE#         716
  C:497BH         LINE#         719
  C:498DH         LINE#         724
  C:4996H         LINE#         725
  C:4998H         LINE#         726
  C:4998H         LINE#         727
  C:49A3H         LINE#         728
  C:49A3H         LINE#         731
  C:49BBH         LINE#         732
  C:49D2H         LINE#         738
  C:49E0H         LINE#         739
  C:49F1H         LINE#         740
  C:49FFH         LINE#         741
  C:4A10H         LINE#         742
  C:4A1EH         LINE#         745
  C:4A2FH         LINE#         750
  C:4A38H         LINE#         751
  C:4A41H         LINE#         752
  C:4A41H         LINE#         753
  C:4A41H         LINE#         754
  -------         ENDPROC       LINK_GET_DIS_DATA_NUM_BUFF
  -------         PROC          LINK_GET_DIS_CHAR_BUFF
  C:B93BH         LINE#         763
  C:B93BH         LINE#         764
  C:B93BH         LINE#         769
  C:B943H         LINE#         770
  C:B943H         LINE#         771
  C:B955H         LINE#         772
  C:B955H         LINE#         773
  C:B955H         LINE#         774
  C:B95CH         LINE#         775
  C:B95EH         LINE#         776
BL51 BANKED LINKER/LOCATER V6.22                                                      03/12/2019  13:46:20  PAGE 154


  C:B95EH         LINE#         777
  C:B965H         LINE#         778
  C:B967H         LINE#         779
  C:B967H         LINE#         780
  C:B96EH         LINE#         781
  C:B970H         LINE#         782
  C:B970H         LINE#         783
  C:B977H         LINE#         784
  C:B977H         LINE#         785
  C:B977H         LINE#         786
  C:B977H         LINE#         787
  C:B97EH         LINE#         788
  C:B97EH         LINE#         789
  C:B985H         LINE#         790
  C:B988H         LINE#         791
  C:B98AH         LINE#         793
  C:B98AH         LINE#         794
  C:B993H         LINE#         795
  C:B993H         LINE#         796
  C:B99BH         LINE#         797
  C:B99BH         LINE#         798
  C:B9A2H         LINE#         799
  C:B9A2H         LINE#         800
  C:B9A9H         LINE#         801
  C:B9ABH         LINE#         803
  C:B9ABH         LINE#         808
  C:B9B2H         LINE#         809
  C:B9B7H         LINE#         810
  C:B9BCH         LINE#         811
  C:B9BCH         LINE#         812
  C:B9BCH         LINE#         813
  C:B9C4H         LINE#         814
  C:B9C4H         LINE#         816
  C:B9C4H         LINE#         817
  C:B9CCH         LINE#         818
  C:B9CCH         LINE#         820
  C:B9CCH         LINE#         824
  C:B9E1H         LINE#         825
  C:B9E1H         LINE#         826
  C:B9E1H         LINE#         827
  C:B9E8H         LINE#         828
  C:B9E9H         LINE#         829
  C:B9E9H         LINE#         830
  C:B9F0H         LINE#         831
  C:B9F1H         LINE#         832
  C:B9F1H         LINE#         833
  C:B9F8H         LINE#         834
  C:B9F9H         LINE#         835
  C:B9F9H         LINE#         836
  C:BA00H         LINE#         837
  C:BA00H         LINE#         838
  C:BA00H         LINE#         839
  C:BA00H         LINE#         840
  C:BA00H         LINE#         843
  -------         ENDPROC       LINK_GET_DIS_CHAR_BUFF
  -------         PROC          LINK_GET_DIS_REALCHAR_BUFF
  C:EE3BH         LINE#         853
BL51 BANKED LINKER/LOCATER V6.22                                                      03/12/2019  13:46:20  PAGE 155


  C:EE3BH         LINE#         854
  C:EE3BH         LINE#         856
  C:EE49H         LINE#         857
  C:EE53H         LINE#         858
  C:EE53H         LINE#         859
  C:EE57H         LINE#         860
  C:EE58H         LINE#         862
  C:EE58H         LINE#         863
  C:EE5CH         LINE#         864
  C:EE5CH         LINE#         865
  -------         ENDPROC       LINK_GET_DIS_REALCHAR_BUFF
  -------         PROC          LINK_GET_DIS_DRV_BUFF
  C:6B0EH         LINE#         876
  C:6B0EH         LINE#         877
  C:6B0EH         LINE#         878
  C:6B20H         LINE#         879
  C:6B30H         LINE#         880
  C:6B40H         LINE#         881
  C:6B50H         LINE#         882
  C:6B60H         LINE#         883
  C:6B70H         LINE#         885
  C:6B80H         LINE#         886
  C:6B90H         LINE#         887
  C:6BA0H         LINE#         891
  C:6BB3H         LINE#         892
  C:6BC1H         LINE#         893
  C:6BD6H         LINE#         894
  C:6BE4H         LINE#         895
  C:6BF2H         LINE#         896
  C:6C00H         LINE#         897
  C:6C0EH         LINE#         899
  C:6C1FH         LINE#         900
  C:6C2DH         LINE#         901
  C:6C3BH         LINE#         902
  C:6C49H         LINE#         903
  C:6C57H         LINE#         904
  C:6C65H         LINE#         906
  C:6C73H         LINE#         907
  C:6C81H         LINE#         909
  C:6C8FH         LINE#         910
  C:6C96H         LINE#         911
  C:6C96H         LINE#         912
  C:6C9DH         LINE#         913
  C:6CA0H         LINE#         914
  C:6CA5H         LINE#         915
  C:6CA8H         LINE#         916
  C:6CA8H         LINE#         917
  C:6CB9H         LINE#         918
  C:6CC0H         LINE#         919
  C:6CC0H         LINE#         920
  C:6CC7H         LINE#         921
  C:6CCEH         LINE#         922
  C:6CD1H         LINE#         923
  C:6CD1H         LINE#         924
  C:6CDFH         LINE#         925
  C:6CEDH         LINE#         926
  C:6CFBH         LINE#         927
BL51 BANKED LINKER/LOCATER V6.22                                                      03/12/2019  13:46:20  PAGE 156


  C:6D09H         LINE#         929
  -------         ENDPROC       LINK_GET_DIS_DRV_BUFF
  -------         PROC          L?0184
  -------         ENDPROC       L?0184
  -------         PROC          _API_GET_ENERGY_LCD
  X:00E6H         SYMBOL        temp
  X:00E9H         SYMBOL        type
  X:00EAH         SYMBOL        result
  -------         DO            
  X:00EDH         SYMBOL        u32_result
  X:00F1H         SYMBOL        BCD_temp
  X:00F5H         SYMBOL        ec_tmp
  -------         ENDDO         
  C:4E73H         LINE#         944
  C:4E81H         LINE#         945
  C:4E81H         LINE#         951
  C:4EA6H         LINE#         953
  C:4EB0H         LINE#         955
  C:4EB7H         LINE#         956
  C:4EB7H         LINE#         957
  C:4EF5H         LINE#         958
  C:4F0CH         LINE#         959
  C:4F0CH         LINE#         961
  C:4F17H         LINE#         962
  C:4F17H         LINE#         964
  C:4F54H         LINE#         965
  C:4F6BH         LINE#         966
  C:4F73H         LINE#         967
  C:4F7BH         LINE#         968
  C:4F83H         LINE#         971
  C:4F9AH         LINE#         972
  C:4FA9H         LINE#         974
  C:4FA9H         LINE#         975
  C:4FB0H         LINE#         976
  C:4FB0H         LINE#         977
  C:4FEEH         LINE#         978
  C:5005H         LINE#         979
  C:5005H         LINE#         981
  C:5010H         LINE#         982
  C:5010H         LINE#         984
  C:504DH         LINE#         985
  C:5064H         LINE#         986
  C:506CH         LINE#         987
  C:5074H         LINE#         988
  C:507CH         LINE#         991
  C:5093H         LINE#         992
  C:50A2H         LINE#         994
  C:50A2H         LINE#         995
  C:50ADH         LINE#         996
  C:50ADH         LINE#         998
  C:50EAH         LINE#         999
  C:5101H         LINE#         1000
  C:5106H         LINE#         1001
  C:511CH         LINE#         1002
  C:5132H         LINE#         1003
  C:5145H         LINE#         1006
  C:515CH         LINE#         1007
BL51 BANKED LINKER/LOCATER V6.22                                                      03/12/2019  13:46:20  PAGE 157


  C:517BH         LINE#         1008
  C:517BH         LINE#         1009
  C:5186H         LINE#         1010
  C:5186H         LINE#         1012
  C:51C3H         LINE#         1013
  C:51DAH         LINE#         1014
  C:51DFH         LINE#         1015
  C:51F5H         LINE#         1016
  C:520BH         LINE#         1017
  C:521EH         LINE#         1018
  C:521EH         LINE#         1020
  -------         ENDPROC       _API_GET_ENERGY_LCD
  -------         PROC          _API_CHG_LCDDISPLAY_ADJ_ITEM
  D:0007H         SYMBOL        u8_item
  C:03AEH         LINE#         1037
  C:03AEH         LINE#         1038
  C:03AEH         LINE#         1039
  C:03BAH         LINE#         1040
  C:03BAH         LINE#         1042
  C:03C0H         LINE#         1043
  C:03C7H         LINE#         1044
  C:03C7H         LINE#         1045
  C:03CAH         LINE#         1046
  C:03CCH         LINE#         1048
  C:03CCH         LINE#         1049
  C:03CFH         LINE#         1050
  C:03CFH         LINE#         1052
  C:03D4H         LINE#         1053
  C:03D9H         LINE#         1054
  C:03DBH         LINE#         1056
  C:03DBH         LINE#         1058
  C:03E1H         LINE#         1059
  C:03E9H         LINE#         1060
  C:03EEH         LINE#         1061
  C:03FDH         LINE#         1062
  C:03FDH         LINE#         1064
  -------         ENDPROC       _API_CHG_LCDDISPLAY_ADJ_ITEM
  -------         PROC          _API_LCDDISPLAY_ADJ_ITEM
  X:0009H         SYMBOL        u8_item
  -------         DO            
  X:000AH         SYMBOL        adr
  -------         ENDDO         
  C:90F1H         LINE#         1079
  C:90F6H         LINE#         1080
  C:90F6H         LINE#         1082
  C:9103H         LINE#         1083
  C:9103H         LINE#         1085
  C:9103H         LINE#         1087
  C:9117H         LINE#         1088
  C:912BH         LINE#         1089
  C:913FH         LINE#         1092
  C:9156H         LINE#         1093
  C:9156H         LINE#         1094
  C:9156H         LINE#         1095
  C:9156H         LINE#         1096
  C:9156H         LINE#         1097
  C:9156H         LINE#         1098
BL51 BANKED LINKER/LOCATER V6.22                                                      03/12/2019  13:46:20  PAGE 158


  C:915FH         LINE#         1099
  C:9163H         LINE#         1100
  C:916CH         LINE#         1101
  C:9170H         LINE#         1102
  C:9176H         LINE#         1103
  C:9178H         LINE#         1105
  C:9178H         LINE#         1106
  C:9178H         LINE#         1107
  C:9178H         LINE#         1108
  C:9178H         LINE#         1109
  C:9181H         LINE#         1110
  C:9185H         LINE#         1111
  C:918EH         LINE#         1112
  C:9192H         LINE#         1113
  C:91A0H         LINE#         1114
  C:91A1H         LINE#         1116
  C:91A1H         LINE#         1117
  C:91AAH         LINE#         1118
  C:91AEH         LINE#         1119
  C:91B2H         LINE#         1120
  C:91B3H         LINE#         1122
  C:91B3H         LINE#         1123
  C:91CDH         LINE#         1124
  C:91DBH         LINE#         1125
  C:91EDH         LINE#         1126
  C:91F8H         LINE#         1127
  C:920AH         LINE#         1128
  C:9215H         LINE#         1129
  C:9227H         LINE#         1130
  C:9232H         LINE#         1131
  C:9244H         LINE#         1132
  C:924FH         LINE#         1133
  C:9250H         LINE#         1134
  C:9250H         LINE#         1135
  C:9253H         LINE#         1136
  C:9253H         LINE#         1137
  C:9253H         LINE#         1139
  -------         ENDPROC       _API_LCDDISPLAY_ADJ_ITEM
  -------         ENDMOD        API_LCD_DISPLAY

  -------         MODULE        API_USER_COMM
  C:0000H         SYMBOL        _ICE_DUMMY_
  C:0600H         PUBLIC        _IEC_Cmd_Read_Deal
  C:A1B9H         PUBLIC        _api_handl_COMM_pre_10ms
  D:00CEH         PUBLIC        wdt0
  D:0090H         PUBLIC        P1
  D:00CFH         PUBLIC        wdt1
  D:00B0H         PUBLIC        P3
  B:00A8H.7       PUBLIC        EA
  X:0561H         PUBLIC        P_IEC_BUFF
  C:25FFH         PUBLIC        IEC_ComDisTab
  D:00A8H         PUBLIC        IE
  C:1D1DH         PUBLIC        _IEC_Cmd_Write_Deal
  D:00B8H         PUBLIC        IP
  C:B2B3H         PUBLIC        _lnk_tx_comm_ready
  C:E674H         PUBLIC        RF_comm_deal
  X:0564H         PUBLIC        g_ch_comm
BL51 BANKED LINKER/LOCATER V6.22                                                      03/12/2019  13:46:20  PAGE 159


  X:0565H         PUBLIC        meter_info_IR
  X:0575H         PUBLIC        comm_data
  X:0581H         PUBLIC        Super_mima_iec
  C:8877H         PUBLIC        _get_IEC_comm_var
  X:0589H         PUBLIC        meter_info
  D:0098H         PUBLIC        SCON
  X:0599H         PUBLIC        mima_info
  D:0088H         PUBLIC        TCON
  X:05A3H         PUBLIC        clr_flag
  D:00F0H         PUBLIC        B
  D:00E0H         PUBLIC        ACC
  C:E730H         PUBLIC        _get_meter_id_asclen
  D:0080H         PUBLIC        SysCtrl
  C:AB7FH         PUBLIC        _IEC_Cmd_Password_Deal
  X:05A4H         PUBLIC        gs_uart_iec_app_var
  C:4196H         PUBLIC        _process_iec62056_21
  D:00C8H         PUBLIC        T2CON
  C:EBBAH         PUBLIC        _IEC_Cmd_Break_Deal
  C:F13CH         PUBLIC        SecurityCK
  C:DB32H         PUBLIC        _api_handl_COMM_FRAME_ERROR
  D:00D0H         PUBLIC        PSW
  -------         PROC          _GET_METER_ID_ASCLEN
  X:00E6H         SYMBOL        Addr
  D:0005H         SYMBOL        numbyte
  -------         DO            
  D:0006H         SYMBOL        i
  D:0007H         SYMBOL        asclen
  -------         ENDDO         
  C:E730H         LINE#         323
  C:E73BH         LINE#         324
  C:E73BH         LINE#         326
  C:E73DH         LINE#         327
  C:E743H         LINE#         328
  C:E743H         LINE#         329
  C:E75EH         LINE#         330
  C:E75EH         LINE#         331
  C:E75FH         LINE#         332
  C:E75FH         LINE#         333
  C:E760H         LINE#         334
  C:E767H         LINE#         335
  C:E767H         LINE#         336
  C:E768H         LINE#         337
  C:E768H         LINE#         338
  C:E769H         LINE#         339
  C:E76CH         LINE#         340
  C:E76CH         LINE#         341
  -------         ENDPROC       _GET_METER_ID_ASCLEN
  -------         PROC          L?0232
  -------         ENDPROC       L?0232
  -------         PROC          _GET_IEC_COMM_VAR
  X:00E6H         SYMBOL        id
  -------         DO            
  X:00EAH         SYMBOL        i
  -------         ENDDO         
  C:8877H         LINE#         352
  C:887DH         LINE#         353
  C:887DH         LINE#         356
BL51 BANKED LINKER/LOCATER V6.22                                                      03/12/2019  13:46:20  PAGE 160


  C:88B0H         LINE#         357
  C:88B0H         LINE#         358
  C:88B0H         LINE#         359
  C:88B0H         LINE#         360
  C:88B0H         LINE#         361
  C:88B0H         LINE#         362
  C:88B2H         LINE#         363
  C:88B2H         LINE#         364
  C:88E5H         LINE#         365
  C:88E5H         LINE#         366
  C:88EEH         LINE#         367
  C:88F7H         LINE#         368
  C:88FBH         LINE#         369
  C:88FCH         LINE#         370
  C:88FFH         LINE#         371
  C:88FFH         LINE#         372
  C:8919H         LINE#         373
  C:8919H         LINE#         374
  C:8946H         LINE#         375
  C:8946H         LINE#         376
  C:8975H         LINE#         377
  C:8996H         LINE#         378
  C:89B4H         LINE#         379
  C:89CDH         LINE#         380
  C:89D0H         LINE#         381
  C:89D0H         LINE#         382
  C:89E1H         LINE#         383
  C:89E3H         LINE#         496
  -------         ENDPROC       _GET_IEC_COMM_VAR
  -------         PROC          SECURITYCK
  -------         DO            
  X:0093H         SYMBOL        secType
  -------         ENDDO         
  C:F13CH         LINE#         506
  C:F13CH         LINE#         507
  C:F13CH         LINE#         509
  C:F146H         LINE#         519
  C:F148H         LINE#         520
  -------         ENDPROC       SECURITYCK
  -------         PROC          _IEC_CMD_PASSWORD_DEAL
  X:0043H         SYMBOL        sptr
  -------         DO            
  X:0046H         SYMBOL        tmp_8u_01
  X:004AH         SYMBOL        tmp_8u_02
  -------         ENDDO         
  C:AB7FH         LINE#         529
  C:AB8AH         LINE#         530
  C:AB8AH         LINE#         534
  C:ABA5H         LINE#         536
  C:ABBFH         LINE#         537
  C:ABDAH         LINE#         540
  C:AC02H         LINE#         541
  C:AC02H         LINE#         542
  C:AC02H         LINE#         543
  C:AC02H         LINE#         544
  C:AC02H         LINE#         545
  C:AC04H         LINE#         546
BL51 BANKED LINKER/LOCATER V6.22                                                      03/12/2019  13:46:20  PAGE 161


  C:AC04H         LINE#         548
  C:AC04H         LINE#         549
  C:AC2CH         LINE#         550
  C:AC2CH         LINE#         551
  C:AC41H         LINE#         552
  C:AC4FH         LINE#         553
  C:AC63H         LINE#         554
  C:AC65H         LINE#         555
  C:AC65H         LINE#         556
  C:AC65H         LINE#         557
  C:AC6CH         LINE#         558
  C:AC6EH         LINE#         559
  -------         ENDPROC       _IEC_CMD_PASSWORD_DEAL
  -------         PROC          _IEC_CMD_READ_DEAL
  X:0043H         SYMBOL        sptr
  -------         DO            
  X:0046H         SYMBOL        i
  D:0007H         SYMBOL        j
  X:0047H         SYMBOL        mem_type
  X:0048H         SYMBOL        data_buff
  X:00C8H         SYMBOL        ptr_adr
  D:0006H         SYMBOL        ctmp1
  X:00CBH         SYMBOL        long_tmp
  X:00CFH         SYMBOL        LPRecStart
  X:00D1H         SYMBOL        LPRecEnd
  X:00D3H         SYMBOL        t
  X:00DDH         SYMBOL        te
  -------         ENDDO         
  C:0600H         LINE#         569
  C:060BH         LINE#         570
  C:060BH         LINE#         581
  C:0626H         LINE#         583
  C:064EH         LINE#         586
  C:0656H         LINE#         587
  C:0660H         LINE#         589
  C:066DH         LINE#         591
  C:068FH         LINE#         593
  C:06A4H         LINE#         597
  C:06DDH         LINE#         598
  C:06DDH         LINE#         599
  C:06EDH         LINE#         600
  C:06FAH         LINE#         601
  C:06FAH         LINE#         602
  C:0716H         LINE#         603
  C:071AH         LINE#         604
  C:071CH         LINE#         606
  C:071CH         LINE#         610
  C:0721H         LINE#         611
  C:0721H         LINE#         616
  C:073BH         LINE#         617
  C:074BH         LINE#         618
  C:075EH         LINE#         619
  C:0783H         LINE#         620
  C:07B2H         LINE#         621
  C:07C0H         LINE#         623
  C:07C3H         LINE#         624
  C:07C3H         LINE#         627
BL51 BANKED LINKER/LOCATER V6.22                                                      03/12/2019  13:46:20  PAGE 162


  C:07FCH         LINE#         628
  C:07FCH         LINE#         629
  C:0829H         LINE#         630
  C:083DH         LINE#         632
  C:0843H         LINE#         633
  C:0843H         LINE#         634
  C:0852H         LINE#         635
  C:0861H         LINE#         636
  C:0861H         LINE#         638
  C:0890H         LINE#         641
  C:0898H         LINE#         643
  C:08B2H         LINE#         644
  C:08C0H         LINE#         645
  C:08D0H         LINE#         646
  C:08F1H         LINE#         647
  C:0908H         LINE#         648
  C:0945H         LINE#         649
  C:0997H         LINE#         650
  C:09A5H         LINE#         651
  C:09A8H         LINE#         653
  C:09A8H         LINE#         656
  C:0A2FH         LINE#         657
  C:0A2FH         LINE#         658
  C:0A2FH         LINE#         659
  C:0A2FH         LINE#         660
  C:0A46H         LINE#         661
  C:0A53H         LINE#         662
  C:0A53H         LINE#         663
  C:0A55H         LINE#         665
  C:0A55H         LINE#         666
  C:0A55H         LINE#         667
  C:0A5EH         LINE#         668
  C:0A5EH         LINE#         669
  C:0A5EH         LINE#         670
  C:0A60H         LINE#         672
  C:0A60H         LINE#         673
  C:0A69H         LINE#         674
  C:0A69H         LINE#         675
  C:0A69H         LINE#         676
  C:0A6BH         LINE#         678
  C:0A6BH         LINE#         679
  C:0A6BH         LINE#         680
  C:0A74H         LINE#         681
  C:0A74H         LINE#         682
  C:0A74H         LINE#         683
  C:0A76H         LINE#         685
  C:0A76H         LINE#         686
  C:0A8DH         LINE#         687
  C:0AA1H         LINE#         688
  C:0AA1H         LINE#         689
  C:0AA3H         LINE#         691
  C:0AA3H         LINE#         692
  C:0AA3H         LINE#         693
  C:0AB4H         LINE#         694
  C:0AC8H         LINE#         695
  C:0AC8H         LINE#         696
  C:0ACAH         LINE#         698
BL51 BANKED LINKER/LOCATER V6.22                                                      03/12/2019  13:46:20  PAGE 163


  C:0ACAH         LINE#         699
  C:0ADBH         LINE#         700
  C:0AF9H         LINE#         701
  C:0AF9H         LINE#         702
  C:0AFBH         LINE#         704
  C:0AFBH         LINE#         705
  C:0B26H         LINE#         706
  C:0B2EH         LINE#         707
  C:0B36H         LINE#         708
  C:0B3EH         LINE#         709
  C:0B46H         LINE#         710
  C:0B4EH         LINE#         711
  C:0B51H         LINE#         712
  C:0B54H         LINE#         713
  C:0B57H         LINE#         714
  C:0B7CH         LINE#         715
  C:0B7FH         LINE#         717
  C:0B7FH         LINE#         718
  C:0BA6H         LINE#         719
  C:0BB6H         LINE#         720
  C:0BBEH         LINE#         721
  C:0BDEH         LINE#         722
  C:0BE1H         LINE#         724
  C:0BE1H         LINE#         725
  C:0C1EH         LINE#         726
  C:0C21H         LINE#         728
  C:0C21H         LINE#         730
  C:0C3AH         LINE#         731
  C:0C53H         LINE#         732
  C:0C78H         LINE#         734
  C:0C90H         LINE#         735
  C:0CB5H         LINE#         736
  C:0CD3H         LINE#         737
  C:0CF4H         LINE#         738
  C:0CF7H         LINE#         740
  C:0CF7H         LINE#         741
  C:0CF7H         LINE#         742
  C:0CF7H         LINE#         743
  C:0CF7H         LINE#         744
  C:0CFFH         LINE#         745
  C:0D23H         LINE#         746
  C:0D3CH         LINE#         747
  C:0D61H         LINE#         749
  C:0D89H         LINE#         750
  C:0DA6H         LINE#         751
  C:0DC4H         LINE#         752
  C:0DF4H         LINE#         753
  C:0E22H         LINE#         754
  C:0E3EH         LINE#         755
  C:0E40H         LINE#         756
  C:0E40H         LINE#         757
  C:0E51H         LINE#         758
  C:0E51H         LINE#         759
  C:0E68H         LINE#         760
  C:0E68H         LINE#         761
  C:0E6DH         LINE#         762
  C:0E92H         LINE#         765
BL51 BANKED LINKER/LOCATER V6.22                                                      03/12/2019  13:46:20  PAGE 164


  C:0EBAH         LINE#         766
  C:0ED7H         LINE#         767
  C:0EF5H         LINE#         768
  C:0F25H         LINE#         769
  C:0F53H         LINE#         770
  C:0F6FH         LINE#         771
  C:0F71H         LINE#         772
  C:0F71H         LINE#         773
  C:0F82H         LINE#         774
  C:0F82H         LINE#         775
  C:0F99H         LINE#         776
  C:0F99H         LINE#         777
  C:0F9EH         LINE#         778
  C:0FC3H         LINE#         780
  C:0FCBH         LINE#         781
  C:0FD3H         LINE#         782
  C:0FDBH         LINE#         783
  C:0FE3H         LINE#         784
  C:0FEBH         LINE#         785
  C:1010H         LINE#         786
  C:1019H         LINE#         787
  C:1019H         LINE#         788
  C:1026H         LINE#         789
  C:1026H         LINE#         790
  C:1050H         LINE#         791
  C:1053H         LINE#         793
  C:1053H         LINE#         795
  C:1059H         LINE#         796
  C:1059H         LINE#         797
  C:105FH         LINE#         798
  C:105FH         LINE#         801
  C:1069H         LINE#         802
  C:1069H         LINE#         803
  C:1096H         LINE#         804
  C:1099H         LINE#         805
  C:10A3H         LINE#         806
  C:10A3H         LINE#         807
  C:10CCH         LINE#         808
  C:10F7H         LINE#         809
  C:10F9H         LINE#         812
  C:10F9H         LINE#         813
  C:1100H         LINE#         814
  C:1100H         LINE#         815
  C:112BH         LINE#         816
  C:112DH         LINE#         818
  C:112DH         LINE#         819
  C:1154H         LINE#         820
  C:1154H         LINE#         821
  C:1154H         LINE#         823
  C:115AH         LINE#         824
  C:115AH         LINE#         825
  C:1177H         LINE#         826
  C:1190H         LINE#         827
  C:1196H         LINE#         828
  C:1196H         LINE#         832
  C:119DH         LINE#         833
  C:119DH         LINE#         834
BL51 BANKED LINKER/LOCATER V6.22                                                      03/12/2019  13:46:20  PAGE 165


  C:11BBH         LINE#         835
  C:11D2H         LINE#         836
  C:11D2H         LINE#         843
  C:11DAH         LINE#         844
  C:11DAH         LINE#         845
  C:11F6H         LINE#         846
  C:120EH         LINE#         847
  C:1210H         LINE#         849
  C:1210H         LINE#         850
  C:1239H         LINE#         851
  C:1239H         LINE#         852
  C:1239H         LINE#         853
  C:1239H         LINE#         856
  C:1253H         LINE#         857
  C:1263H         LINE#         858
  C:1276H         LINE#         859
  C:128DH         LINE#         860
  C:12BCH         LINE#         861
  C:130EH         LINE#         863
  C:1310H         LINE#         864
  -------         ENDPROC       _IEC_CMD_READ_DEAL
  -------         PROC          _IEC_CMD_WRITE_DEAL
  X:0043H         SYMBOL        sptr
  X:0046H         SYMBOL        len
  -------         DO            
  X:0047H         SYMBOL        mem_type
  X:0048H         SYMBOL        data_buff
  D:0007H         SYMBOL        sectemp
  X:008EH         SYMBOL        i
  X:008FH         SYMBOL        MeterID_LenTmp
  X:0090H         SYMBOL        ptr_adr
  -------         ENDDO         
  C:1D1DH         LINE#         874
  C:1D2BH         LINE#         875
  C:1D2BH         LINE#         883
  C:1D46H         LINE#         885
  C:1D6EH         LINE#         887
  C:1D76H         LINE#         889
  C:1D80H         LINE#         891
  C:1D8EH         LINE#         892
  C:1D91H         LINE#         893
  C:1D98H         LINE#         896
  C:1DB0H         LINE#         897
  C:1DCCH         LINE#         898
  C:1DCCH         LINE#         899
  C:1DECH         LINE#         900
  C:1DEFH         LINE#         901
  C:1DEFH         LINE#         903
  C:1DEFH         LINE#         904
  C:1E03H         LINE#         905
  C:1E06H         LINE#         906
  C:1E06H         LINE#         908
  C:1E1BH         LINE#         911
  C:1EA2H         LINE#         912
  C:1EA2H         LINE#         914
  C:1EA2H         LINE#         915
  C:1ECEH         LINE#         916
BL51 BANKED LINKER/LOCATER V6.22                                                      03/12/2019  13:46:20  PAGE 166


  C:1ED6H         LINE#         917
  C:1EDEH         LINE#         918
  C:1EE6H         LINE#         919
  C:1EEEH         LINE#         920
  C:1EF6H         LINE#         921
  C:1EFEH         LINE#         922
  C:1F06H         LINE#         923
  C:1F08H         LINE#         924
  C:1F11H         LINE#         925
  C:1F13H         LINE#         926
  C:1F2DH         LINE#         927
  C:1F34H         LINE#         928
  C:1F37H         LINE#         930
  C:1F3AH         LINE#         932
  C:1F3DH         LINE#         936
  C:1F3DH         LINE#         937
  C:1F48H         LINE#         938
  C:1F4BH         LINE#         939
  C:1F4BH         LINE#         940
  C:1F59H         LINE#         941
  C:1F59H         LINE#         942
  C:1F89H         LINE#         943
  C:1F91H         LINE#         944
  C:1FA4H         LINE#         945
  C:1FAEH         LINE#         946
  C:1FAEH         LINE#         947
  C:1FB6H         LINE#         948
  C:1FCAH         LINE#         949
  C:1FF6H         LINE#         950
  C:1FF6H         LINE#         951
  C:1FF9H         LINE#         954
  C:1FF9H         LINE#         955
  C:2025H         LINE#         956
  C:203BH         LINE#         957
  C:203BH         LINE#         958
  C:203EH         LINE#         959
  C:203EH         LINE#         960
  C:203EH         LINE#         961
  C:2041H         LINE#         970
  C:2041H         LINE#         971
  C:206DH         LINE#         972
  C:208AH         LINE#         973
  C:208AH         LINE#         974
  C:208DH         LINE#         975
  C:208DH         LINE#         976
  C:20B4H         LINE#         977
  C:20B7H         LINE#         978
  C:20BAH         LINE#         982
  C:20BAH         LINE#         983
  C:20BAH         LINE#         984
  C:20BAH         LINE#         985
  C:20BAH         LINE#         986
  C:20BAH         LINE#         987
  C:20BAH         LINE#         988
  C:20C8H         LINE#         989
  C:20CBH         LINE#         991
  C:20CBH         LINE#         992
BL51 BANKED LINKER/LOCATER V6.22                                                      03/12/2019  13:46:20  PAGE 167


  C:20F7H         LINE#         993
  C:20F7H         LINE#         994
  C:2101H         LINE#         995
  C:2101H         LINE#         998
  C:210BH         LINE#         1005
  C:2119H         LINE#         1006
  C:2119H         LINE#         1007
  C:211DH         LINE#         1008
  C:211DH         LINE#         1009
  C:2127H         LINE#         1010
  C:2131H         LINE#         1011
  C:213BH         LINE#         1012
  C:2145H         LINE#         1013
  C:214FH         LINE#         1014
  C:215DH         LINE#         1015
  C:215DH         LINE#         1016
  C:2160H         LINE#         1017
  C:2160H         LINE#         1018
  C:2163H         LINE#         1020
  C:2163H         LINE#         1021
  C:2166H         LINE#         1022
  C:2166H         LINE#         1023
  C:2166H         LINE#         1025
  C:2166H         LINE#         1026
  C:2197H         LINE#         1027
  C:2197H         LINE#         1029
  C:219DH         LINE#         1030
  C:21B5H         LINE#         1031
  C:21B5H         LINE#         1032
  C:21B7H         LINE#         1033
  C:21E8H         LINE#         1034
  C:21E8H         LINE#         1036
  C:21EDH         LINE#         1037
  C:2204H         LINE#         1038
  C:2207H         LINE#         1039
  C:220AH         LINE#         1041
  C:220AH         LINE#         1042
  C:220DH         LINE#         1043
  C:220DH         LINE#         1044
  C:220DH         LINE#         1046
  C:220DH         LINE#         1047
  C:222AH         LINE#         1048
  C:222AH         LINE#         1049
  C:222DH         LINE#         1050
  C:222DH         LINE#         1051
  C:222FH         LINE#         1053
  C:222FH         LINE#         1054
  C:2232H         LINE#         1055
  C:2232H         LINE#         1056
  C:2232H         LINE#         1058
  C:2232H         LINE#         1059
  C:225EH         LINE#         1060
  C:2267H         LINE#         1061
  C:226AH         LINE#         1062
  C:2271H         LINE#         1063
  C:2271H         LINE#         1064
  C:2273H         LINE#         1066
BL51 BANKED LINKER/LOCATER V6.22                                                      03/12/2019  13:46:20  PAGE 168


  C:2273H         LINE#         1069
  C:2290H         LINE#         1070
  C:2290H         LINE#         1071
  C:2293H         LINE#         1072
  C:22A1H         LINE#         1073
  C:22A4H         LINE#         1075
  C:22A4H         LINE#         1076
  C:22A7H         LINE#         1077
  C:22A7H         LINE#         1078
  C:22A7H         LINE#         1081
  C:22A7H         LINE#         1082
  C:22D3H         LINE#         1083
  C:22E8H         LINE#         1084
  C:22F6H         LINE#         1085
  C:22FCH         LINE#         1086
  C:22FFH         LINE#         1088
  C:22FFH         LINE#         1089
  C:232BH         LINE#         1090
  C:2333H         LINE#         1091
  C:2336H         LINE#         1092
  C:2339H         LINE#         1094
  C:2339H         LINE#         1095
  C:2365H         LINE#         1096
  C:2373H         LINE#         1097
  C:239AH         LINE#         1098
  C:23A8H         LINE#         1099
  C:23A8H         LINE#         1100
  C:23A8H         LINE#         1101
  C:23A9H         LINE#         1102
  C:23ABH         LINE#         1103
  C:23ABH         LINE#         1104
  C:23ABH         LINE#         1107
  C:23ABH         LINE#         1108
  C:23DBH         LINE#         1109
  C:23DBH         LINE#         1110
  C:23E0H         LINE#         1112
  C:23E3H         LINE#         1114
  C:23E3H         LINE#         1115
  C:23E3H         LINE#         1116
  C:23E4H         LINE#         1117
  C:23E6H         LINE#         1118
  C:23E6H         LINE#         1119
  C:23E6H         LINE#         1120
  C:2416H         LINE#         1121
  C:2416H         LINE#         1122
  C:241BH         LINE#         1123
  C:241BH         LINE#         1124
  C:241BH         LINE#         1125
  C:241CH         LINE#         1126
  C:241EH         LINE#         1127
  C:241EH         LINE#         1128
  C:241EH         LINE#         1130
  C:241EH         LINE#         1131
  C:2421H         LINE#         1132
  C:2421H         LINE#         1133
  C:2421H         LINE#         1135
  C:2421H         LINE#         1136
BL51 BANKED LINKER/LOCATER V6.22                                                      03/12/2019  13:46:20  PAGE 169


  C:244DH         LINE#         1138
  C:2457H         LINE#         1139
  C:2457H         LINE#         1140
  C:247BH         LINE#         1141
  C:247DH         LINE#         1143
  C:247DH         LINE#         1144
  C:24A1H         LINE#         1145
  C:24A1H         LINE#         1147
  C:24A1H         LINE#         1149
  C:24A1H         LINE#         1153
  C:2506H         LINE#         1155
  C:2506H         LINE#         1157
  C:2509H         LINE#         1158
  C:2509H         LINE#         1162
  C:2525H         LINE#         1163
  C:2525H         LINE#         1164
  C:253CH         LINE#         1165
  C:253CH         LINE#         1167
  C:2558H         LINE#         1168
  C:2558H         LINE#         1169
  C:256FH         LINE#         1170
  C:256FH         LINE#         1172
  C:25B9H         LINE#         1173
  C:25B9H         LINE#         1174
  C:25D3H         LINE#         1175
  C:25D3H         LINE#         1177
  C:25DAH         LINE#         1178
  C:25EEH         LINE#         1179
  C:25FCH         LINE#         1180
  C:25FEH         LINE#         1181
  -------         ENDPROC       _IEC_CMD_WRITE_DEAL
  -------         PROC          _IEC_CMD_BREAK_DEAL
  D:0001H         SYMBOL        sptr
  C:EBBAH         LINE#         1191
  C:EBBAH         LINE#         1192
  C:EBBAH         LINE#         1194
  C:EBD0H         LINE#         1195
  C:EBE1H         LINE#         1196
  C:EBE4H         LINE#         1197
  C:EBE6H         LINE#         1198
  -------         ENDPROC       _IEC_CMD_BREAK_DEAL
  -------         PROC          _LNK_TX_COMM_READY
  X:0002H         SYMBOL        ch
  X:0003H         SYMBOL        start_index
  -------         DO            
  X:0004H         SYMBOL        u16_badu
  -------         ENDDO         
  C:B2B3H         LINE#         1212
  C:B2BDH         LINE#         1213
  C:B2BDH         LINE#         1216
  C:B2DDH         LINE#         1217
  C:B2DDH         LINE#         1218
  C:B2DDH         LINE#         1219
  C:B2DDH         LINE#         1220
  C:B2DFH         LINE#         1221
  C:B2DFH         LINE#         1222
  C:B2E9H         LINE#         1223
BL51 BANKED LINKER/LOCATER V6.22                                                      03/12/2019  13:46:20  PAGE 170


  C:B2EBH         LINE#         1224
  C:B2EBH         LINE#         1225
  C:B2F5H         LINE#         1226
  C:B2F7H         LINE#         1227
  C:B2F7H         LINE#         1228
  C:B301H         LINE#         1229
  C:B303H         LINE#         1230
  C:B303H         LINE#         1231
  C:B30DH         LINE#         1232
  C:B30FH         LINE#         1233
  C:B30FH         LINE#         1234
  C:B319H         LINE#         1235
  C:B31BH         LINE#         1237
  C:B325H         LINE#         1239
  C:B325H         LINE#         1240
  C:B325H         LINE#         1242
  C:B347H         LINE#         1244
  -------         ENDPROC       _LNK_TX_COMM_READY
  -------         PROC          _API_HANDL_COMM_FRAME_ERROR
  X:0036H         SYMBOL        ch
  C:DB32H         LINE#         1260
  C:DB37H         LINE#         1261
  C:DB37H         LINE#         1262
  C:DB39H         LINE#         1263
  C:DB39H         LINE#         1264
  C:DB4FH         LINE#         1265
  C:DB56H         LINE#         1266
  C:DB5EH         LINE#         1267
  C:DB72H         LINE#         1268
  C:DB72H         LINE#         1270
  C:DB7AH         LINE#         1271
  C:DB7AH         LINE#         1272
  C:DB8FH         LINE#         1273
  C:DB97H         LINE#         1274
  C:DB9AH         LINE#         1275
  C:DB9DH         LINE#         1276
  C:DB9DH         LINE#         1279
  -------         ENDPROC       _API_HANDL_COMM_FRAME_ERROR
  -------         PROC          _PROCESS_IEC62056_21
  X:0002H         SYMBOL        ch
  -------         DO            
  X:0003H         SYMBOL        buff_size
  X:0004H         SYMBOL        start_index
  X:0005H         SYMBOL        meterID_len
  X:0006H         SYMBOL        tmp_8u_01
  X:0016H         SYMBOL        tmp_8u_02
  -------         ENDDO         
  C:4196H         LINE#         1288
  C:419BH         LINE#         1289
  C:419BH         LINE#         1300
  C:41A3H         LINE#         1302
  C:41BDH         LINE#         1303
  C:41BDH         LINE#         1305
  C:41BDH         LINE#         1307
  C:41CBH         LINE#         1308
  C:41D0H         LINE#         1311
  C:41E5H         LINE#         1312
BL51 BANKED LINKER/LOCATER V6.22                                                      03/12/2019  13:46:20  PAGE 171


  C:41E5H         LINE#         1313
  C:41F3H         LINE#         1314
  C:4201H         LINE#         1315
  C:4201H         LINE#         1319
  C:4210H         LINE#         1320
  C:4210H         LINE#         1321
  C:4232H         LINE#         1322
  C:423AH         LINE#         1324
  C:4243H         LINE#         1325
  C:4243H         LINE#         1327
  C:4246H         LINE#         1329
  C:4246H         LINE#         1331
  C:425AH         LINE#         1332
  C:426CH         LINE#         1333
  C:427CH         LINE#         1334
  C:4281H         LINE#         1336
  C:42B5H         LINE#         1337
  C:42B5H         LINE#         1338
  C:42C4H         LINE#         1340
  C:42E0H         LINE#         1341
  C:42E0H         LINE#         1342
  C:42E0H         LINE#         1343
  C:42F6H         LINE#         1344
  C:42F6H         LINE#         1345
  C:42F9H         LINE#         1347
  C:42F9H         LINE#         1348
  C:4313H         LINE#         1349
  C:4323H         LINE#         1350
  C:433EH         LINE#         1351
  C:437CH         LINE#         1352
  C:437CH         LINE#         1353
  C:4382H         LINE#         1354
  C:4382H         LINE#         1355
  C:43ADH         LINE#         1356
  C:43ADH         LINE#         1357
  C:43B4H         LINE#         1358
  C:43B4H         LINE#         1359
  C:43DFH         LINE#         1360
  C:43DFH         LINE#         1361
  C:43F4H         LINE#         1362
  C:4400H         LINE#         1363
  C:4403H         LINE#         1365
  C:4403H         LINE#         1367
  C:440BH         LINE#         1369
  C:440BH         LINE#         1370
  C:440BH         LINE#         1372
  C:440BH         LINE#         1373
  C:4421H         LINE#         1374
  C:4421H         LINE#         1375
  C:4424H         LINE#         1377
  C:4424H         LINE#         1378
  C:4449H         LINE#         1379
  C:4449H         LINE#         1380
  C:447CH         LINE#         1381
  C:4495H         LINE#         1382
  C:44AAH         LINE#         1383
  C:44BCH         LINE#         1384
BL51 BANKED LINKER/LOCATER V6.22                                                      03/12/2019  13:46:20  PAGE 172


  C:44BFH         LINE#         1386
  C:44BFH         LINE#         1387
  C:44D4H         LINE#         1388
  C:44D4H         LINE#         1389
  C:44D4H         LINE#         1390
  C:44D4H         LINE#         1392
  C:44D6H         LINE#         1394
  C:44D6H         LINE#         1395
  C:44ECH         LINE#         1396
  C:44ECH         LINE#         1397
  C:44EFH         LINE#         1399
  C:44EFH         LINE#         1401
  C:4514H         LINE#         1402
  C:4514H         LINE#         1405
  C:452FH         LINE#         1406
  C:4543H         LINE#         1407
  C:4543H         LINE#         1408
  C:4545H         LINE#         1410
  C:4545H         LINE#         1411
  C:4554H         LINE#         1412
  C:4556H         LINE#         1413
  C:4556H         LINE#         1415
  C:4556H         LINE#         1417
  C:4556H         LINE#         1418
  C:456BH         LINE#         1419
  C:456BH         LINE#         1421
  C:4581H         LINE#         1422
  C:4581H         LINE#         1424
  C:4584H         LINE#         1426
  C:4584H         LINE#         1428
  C:4584H         LINE#         1429
  C:4599H         LINE#         1430
  C:45ABH         LINE#         1431
  C:45BDH         LINE#         1432
  C:45BDH         LINE#         1433
  C:45D5H         LINE#         1434
  C:45D5H         LINE#         1435
  C:45EDH         LINE#         1436
  C:45EDH         LINE#         1437
  -------         ENDPROC       _PROCESS_IEC62056_21
  -------         PROC          _API_HANDL_COMM_PRE_10MS
  X:0001H         SYMBOL        ch
  C:A1B9H         LINE#         1452
  C:A1BEH         LINE#         1453
  C:A1BEH         LINE#         1455
  C:A1C1H         LINE#         1457
  C:A1DFH         LINE#         1458
  C:A1DFH         LINE#         1460
  C:A1E2H         LINE#         1461
  C:A1E2H         LINE#         1463
  C:A20DH         LINE#         1464
  C:A20DH         LINE#         1466
  C:A220H         LINE#         1467
  C:A233H         LINE#         1468
  C:A233H         LINE#         1470
  C:A23EH         LINE#         1471
  C:A23EH         LINE#         1472
BL51 BANKED LINKER/LOCATER V6.22                                                      03/12/2019  13:46:20  PAGE 173


  C:A23FH         LINE#         1473
  C:A24DH         LINE#         1474
  C:A250H         LINE#         1475
  C:A25EH         LINE#         1476
  C:A261H         LINE#         1477
  C:A26FH         LINE#         1479
  C:A272H         LINE#         1481
  C:A287H         LINE#         1482
  C:A28AH         LINE#         1483
  C:A298H         LINE#         1484
  C:A29BH         LINE#         1485
  C:A2A9H         LINE#         1487
  C:A2ACH         LINE#         1488
  C:A2BAH         LINE#         1489
  C:A2BFH         LINE#         1490
  C:A2BFH         LINE#         1492
  -------         ENDPROC       _API_HANDL_COMM_PRE_10MS
  -------         PROC          RF_COMM_DEAL
  C:E674H         LINE#         1503
  C:E674H         LINE#         1504
  C:E674H         LINE#         1506
  C:E67BH         LINE#         1507
  C:E680H         LINE#         1508
  C:E687H         LINE#         1511
  C:E690H         LINE#         1512
  C:E69EH         LINE#         1513
  C:E6A5H         LINE#         1514
  C:E6ABH         LINE#         1516
  C:E6B3H         LINE#         1518
  -------         ENDPROC       RF_COMM_DEAL
  -------         ENDMOD        API_USER_COMM

  -------         MODULE        IEC62056_21
  C:0000H         SYMBOL        _ICE_DUMMY_
  D:0090H         PUBLIC        P1
  C:E9F4H         PUBLIC        _Get_Bcc_Chk
  D:00B0H         PUBLIC        P3
  C:DE0EH         PUBLIC        _IEC_Comm_Acknowledgement_Cmd_Judge
  D:00A8H         PUBLIC        IE
  D:00B8H         PUBLIC        IP
  C:0046H         PUBLIC        _Get_ACK_Answer
  C:9898H         PUBLIC        _IEC_Comm_Command_Cmd_Judge
  D:0098H         PUBLIC        SCON
  D:0088H         PUBLIC        TCON
  D:00F0H         PUBLIC        B
  C:B6E0H         PUBLIC        _Get_IEC_Comm_Operand_Answer
  D:00E0H         PUBLIC        ACC
  C:99C7H         PUBLIC        _IEC_Comm_Request_Cmd_Judge
  D:0080H         PUBLIC        SysCtrl
  C:D101H         PUBLIC        _Get_IEC_Comm_Request_Cmd_Answer
  C:003EH         PUBLIC        _Get_Error_Answer
  D:00C8H         PUBLIC        T2CON
  D:00D0H         PUBLIC        PSW
  -------         PROC          _IEC_COMM_REQUEST_CMD_JUDGE
  X:0036H         SYMBOL        sptr
  D:0005H         SYMBOL        len
  X:003AH         SYMBOL        id_ptr
BL51 BANKED LINKER/LOCATER V6.22                                                      03/12/2019  13:46:20  PAGE 174


  X:003DH         SYMBOL        meter_id_lenth
  -------         DO            
  D:0007H         SYMBOL        i
  -------         ENDDO         
  C:99C7H         LINE#         34
  C:99D2H         LINE#         35
  C:99D2H         LINE#         38
  C:99D7H         LINE#         39
  C:99D7H         LINE#         40
  C:99ECH         LINE#         41
  C:99F9H         LINE#         42
  C:9A06H         LINE#         43
  C:9A13H         LINE#         44
  C:9A20H         LINE#         45
  C:9A23H         LINE#         46
  C:9A23H         LINE#         48
  C:9A23H         LINE#         49
  C:9A38H         LINE#         50
  C:9A45H         LINE#         51
  C:9A51H         LINE#         52
  C:9A51H         LINE#         53
  C:9A83H         LINE#         54
  C:9A83H         LINE#         55
  C:9A86H         LINE#         56
  C:9A86H         LINE#         57
  C:9A89H         LINE#         58
  C:9AACH         LINE#         59
  C:9ACCH         LINE#         60
  C:9AF1H         LINE#         62
  -------         ENDPROC       _IEC_COMM_REQUEST_CMD_JUDGE
  -------         PROC          _IEC_COMM_ACKNOWLEDGEMENT_CMD_JUDGE
  D:0001H         SYMBOL        sptr
  D:0005H         SYMBOL        len
  C:DE0EH         LINE#         81
  C:DE0EH         LINE#         82
  C:DE0EH         LINE#         83
  C:DE16H         LINE#         85
  C:DE20H         LINE#         86
  C:DE2DH         LINE#         87
  C:DE42H         LINE#         88
  C:DE55H         LINE#         89
  C:DE62H         LINE#         90
  C:DE6FH         LINE#         92
  C:DE71H         LINE#         94
  -------         ENDPROC       _IEC_COMM_ACKNOWLEDGEMENT_CMD_JUDGE
  -------         PROC          _IEC_COMM_COMMAND_CMD_JUDGE
  X:0036H         SYMBOL        sptr
  X:0039H         SYMBOL        len
  -------         DO            
  X:003AH         SYMBOL        u8_a
  -------         ENDDO         
  C:9898H         LINE#         107
  C:98A8H         LINE#         108
  C:98A8H         LINE#         111
  C:98B2H         LINE#         112
  C:98D6H         LINE#         114
  C:9909H         LINE#         117
BL51 BANKED LINKER/LOCATER V6.22                                                      03/12/2019  13:46:20  PAGE 175


  C:991FH         LINE#         118
  C:9929H         LINE#         119
  C:9933H         LINE#         120
  C:993DH         LINE#         121
  C:9947H         LINE#         122
  C:9951H         LINE#         123
  C:995BH         LINE#         124
  C:9965H         LINE#         125
  C:996FH         LINE#         127
  C:9980H         LINE#         128
  C:9980H         LINE#         129
  C:9980H         LINE#         130
  C:998EH         LINE#         131
  C:998EH         LINE#         133
  C:998EH         LINE#         135
  C:999CH         LINE#         136
  C:999CH         LINE#         138
  C:999CH         LINE#         139
  C:99ADH         LINE#         140
  C:99ADH         LINE#         143
  C:99ADH         LINE#         145
  C:99ADH         LINE#         146
  C:99AFH         LINE#         147
  C:99AFH         LINE#         153
  C:99AFH         LINE#         154
  C:99C4H         LINE#         155
  -------         ENDPROC       _IEC_COMM_COMMAND_CMD_JUDGE
  -------         PROC          _GET_IEC_COMM_REQUEST_CMD_ANSWER
  X:0036H         SYMBOL        sptr
  X:0039H         SYMBOL        len
  X:003AH         SYMBOL        info_ptr
  -------         DO            
  D:0007H         SYMBOL        i
  -------         ENDDO         
  C:D101H         LINE#         176
  C:D111H         LINE#         177
  C:D111H         LINE#         180
  C:D116H         LINE#         182
  C:D122H         LINE#         183
  C:D122H         LINE#         184
  C:D150H         LINE#         185
  C:D153H         LINE#         187
  C:D172H         LINE#         188
  -------         ENDPROC       _GET_IEC_COMM_REQUEST_CMD_ANSWER
  -------         PROC          _GET_IEC_COMM_OPERAND_ANSWER
  X:0036H         SYMBOL        sptr
  X:0039H         SYMBOL        len
  X:003AH         SYMBOL        info_ptr
  -------         DO            
  D:0007H         SYMBOL        i
  -------         ENDDO         
  C:B6E0H         LINE#         203
  C:B6EEH         LINE#         204
  C:B6EEH         LINE#         207
  C:B6FEH         LINE#         208
  C:B711H         LINE#         209
  C:B719H         LINE#         210
BL51 BANKED LINKER/LOCATER V6.22                                                      03/12/2019  13:46:20  PAGE 176


  C:B721H         LINE#         212
  C:B72DH         LINE#         213
  C:B72DH         LINE#         214
  C:B75BH         LINE#         215
  C:B75EH         LINE#         217
  C:B77DH         LINE#         218
  -------         ENDPROC       _GET_IEC_COMM_OPERAND_ANSWER
  -------         PROC          _GET_ERROR_ANSWER
  D:0001H         SYMBOL        sptr
  C:003EH         LINE#         233
  C:003EH         LINE#         234
  C:003EH         LINE#         235
  -------         ENDPROC       _GET_ERROR_ANSWER
  -------         PROC          _GET_ACK_ANSWER
  D:0001H         SYMBOL        sptr
  C:0046H         LINE#         250
  C:0046H         LINE#         251
  C:0046H         LINE#         252
  -------         ENDPROC       _GET_ACK_ANSWER
  -------         PROC          L?0052
  -------         ENDPROC       L?0052
  -------         PROC          _GET_BCC_CHK
  X:00E6H         SYMBOL        yourBuf
  D:0005H         SYMBOL        StartID
  X:00EAH         SYMBOL        EndID
  -------         DO            
  D:0006H         SYMBOL        i
  D:0007H         SYMBOL        tmp
  -------         ENDDO         
  C:E9F4H         LINE#         266
  C:E9FFH         LINE#         267
  C:E9FFH         LINE#         271
  C:EA01H         LINE#         272
  C:EA0DH         LINE#         273
  C:EA0DH         LINE#         274
  C:EA22H         LINE#         275
  C:EA25H         LINE#         276
  C:EA25H         LINE#         277
  -------         ENDPROC       _GET_BCC_CHK
  -------         ENDMOD        IEC62056_21

  -------         MODULE        ?C?FPADD
  C:1318H         PUBLIC        ?C?FPADD
  C:1314H         PUBLIC        ?C?FPSUB
  -------         ENDMOD        ?C?FPADD

  -------         MODULE        ?C?FPMUL
  C:1409H         PUBLIC        ?C?FPMUL
  -------         ENDMOD        ?C?FPMUL

  -------         MODULE        ?C?FPDIV
  C:1512H         PUBLIC        ?C?FPDIV
  -------         ENDMOD        ?C?FPDIV

  -------         MODULE        ?C?FPCMP
  C:15B1H         PUBLIC        ?C?FPCMP
  C:15AFH         PUBLIC        ?C?FPCMP3
BL51 BANKED LINKER/LOCATER V6.22                                                      03/12/2019  13:46:20  PAGE 177


  -------         ENDMOD        ?C?FPCMP

  -------         MODULE        ?C?FCAST
  C:1626H         PUBLIC        ?C?FCASTC
  C:1621H         PUBLIC        ?C?FCASTI
  C:161CH         PUBLIC        ?C?FCASTL
  -------         ENDMOD        ?C?FCAST

  -------         MODULE        ?C?CASTF
  C:165AH         PUBLIC        ?C?CASTF
  -------         ENDMOD        ?C?CASTF

  -------         MODULE        ATOF
  C:E451H         PUBLIC        _ATOF
  -------         ENDMOD        ATOF

  -------         MODULE        SQRT
  C:C289H         PUBLIC        _SQRT
  -------         ENDMOD        SQRT

  -------         MODULE        FLOOR
  C:AC6FH         PUBLIC        _floor
  -------         ENDMOD        FLOOR

  -------         MODULE        ?C?FPNEG
  C:16DBH         PUBLIC        ?C?FPNEG
  -------         ENDMOD        ?C?FPNEG

  -------         MODULE        ?C?FTNPWR
  C:171CH         PUBLIC        ?C?FTNPWR
  -------         ENDMOD        ?C?FTNPWR

  -------         MODULE        ?C?COPY
  C:182CH         PUBLIC        ?C?COPY
  -------         ENDMOD        ?C?COPY

  -------         MODULE        ?C?CLDPTR
  C:1852H         PUBLIC        ?C?CLDPTR
  -------         ENDMOD        ?C?CLDPTR

  -------         MODULE        ?C?CLDOPTR
  C:186BH         PUBLIC        ?C?CLDOPTR
  -------         ENDMOD        ?C?CLDOPTR

  -------         MODULE        ?C?CILDPTR
  C:1898H         PUBLIC        ?C?CILDPTR
  -------         ENDMOD        ?C?CILDPTR

  -------         MODULE        ?C?CSTPTR
  C:18BAH         PUBLIC        ?C?CSTPTR
  -------         ENDMOD        ?C?CSTPTR

  -------         MODULE        ?C?CSTOPTR
  C:18CCH         PUBLIC        ?C?CSTOPTR
  -------         ENDMOD        ?C?CSTOPTR

  -------         MODULE        ?C?IMUL
BL51 BANKED LINKER/LOCATER V6.22                                                      03/12/2019  13:46:20  PAGE 178


  C:18EEH         PUBLIC        ?C?IMUL
  -------         ENDMOD        ?C?IMUL

  -------         MODULE        ?C?UIDIV
  C:1900H         PUBLIC        ?C?UIDIV
  -------         ENDMOD        ?C?UIDIV

  -------         MODULE        ?C?SIDIV
  C:1955H         PUBLIC        ?C?SIDIV
  -------         ENDMOD        ?C?SIDIV

  -------         MODULE        ?C?IILDX
  C:198BH         PUBLIC        ?C?IILDX
  -------         ENDMOD        ?C?IILDX

  -------         MODULE        ?C?ILDIX
  C:19A1H         PUBLIC        ?C?ILDIX
  -------         ENDMOD        ?C?ILDIX

  -------         MODULE        ?C?ISTPTR
  C:19B7H         PUBLIC        ?C?ISTPTR
  -------         ENDMOD        ?C?ISTPTR

  -------         MODULE        ?C?LMUL
  C:19D6H         PUBLIC        ?C?LMUL
  -------         ENDMOD        ?C?LMUL

  -------         MODULE        ?C?ULDIV
  C:1A61H         PUBLIC        ?C?ULDIV
  -------         ENDMOD        ?C?ULDIV

  -------         MODULE        ?C?SLDIV
  C:E528H         PUBLIC        ?C?SLDIV
  -------         ENDMOD        ?C?SLDIV

  -------         MODULE        ?C?LNOT
  C:1AF3H         PUBLIC        ?C?LNOT
  -------         ENDMOD        ?C?LNOT

  -------         MODULE        ?C?LNEG
  C:1B00H         PUBLIC        ?C?LNEG
  -------         ENDMOD        ?C?LNEG

  -------         MODULE        ?C?SLCMP
  C:1B0EH         PUBLIC        ?C?SLCMP
  -------         ENDMOD        ?C?SLCMP

  -------         MODULE        ?C?ULCMP
  C:1B24H         PUBLIC        ?C?ULCMP
  -------         ENDMOD        ?C?ULCMP

  -------         MODULE        ?C?ULSHR
  C:1B35H         PUBLIC        ?C?ULSHR
  -------         ENDMOD        ?C?ULSHR

  -------         MODULE        ?C?LSHL
  C:1B48H         PUBLIC        ?C?LSHL
BL51 BANKED LINKER/LOCATER V6.22                                                      03/12/2019  13:46:20  PAGE 179


  -------         ENDMOD        ?C?LSHL

  -------         MODULE        ?C?LLDPTR
  C:1B5BH         PUBLIC        ?C?LLDPTR
  -------         ENDMOD        ?C?LLDPTR

  -------         MODULE        ?C?LLDXDATA
  C:1B7BH         PUBLIC        ?C?LLDXDATA
  -------         ENDMOD        ?C?LLDXDATA

  -------         MODULE        ?C?LLDCODE
  C:1B87H         PUBLIC        ?C?LLDCODE
  -------         ENDMOD        ?C?LLDCODE

  -------         MODULE        ?C?LLDCODE0
  C:1B97H         PUBLIC        ?C?LLDCODE0
  -------         ENDMOD        ?C?LLDCODE0

  -------         MODULE        ?C?LSTXDATA
  C:1BA7H         PUBLIC        ?C?LSTXDATA
  -------         ENDMOD        ?C?LSTXDATA

  -------         MODULE        ?C?LSTKXDATA
  C:1BB3H         PUBLIC        ?C?LSTKXDATA
  -------         ENDMOD        ?C?LSTKXDATA

  -------         MODULE        ?C?OFFXADD
  C:1BE4H         PUBLIC        ?C?OFFXADD
  -------         ENDMOD        ?C?OFFXADD

  -------         MODULE        ?C?PLDIXDATA
  C:1BF0H         PUBLIC        ?C?PLDIXDATA
  -------         ENDMOD        ?C?PLDIXDATA

  -------         MODULE        ?C?PSTXDATA
  C:1C07H         PUBLIC        ?C?PSTXDATA
  -------         ENDMOD        ?C?PSTXDATA

  -------         MODULE        ?C?PSTPTR
  C:1C10H         PUBLIC        ?C?PSTPTR
  -------         ENDMOD        ?C?PSTPTR

  -------         MODULE        ?C?ICASE
  C:1C5FH         PUBLIC        ?C?ICASE
  -------         ENDMOD        ?C?ICASE

  -------         MODULE        ?C?LCASE
  C:1C8CH         PUBLIC        ?C?LCASE
  -------         ENDMOD        ?C?LCASE

  -------         MODULE        ?C?LIMUL
  C:1CC6H         PUBLIC        ?C?LIMUL
  -------         ENDMOD        ?C?LIMUL

  -------         MODULE        ISSPACE
  C:F0E7H         PUBLIC        _isspace
  -------         ENDMOD        ISSPACE
BL51 BANKED LINKER/LOCATER V6.22                                                      03/12/2019  13:46:20  PAGE 180



  -------         MODULE        ?C?LLDIDATA
  C:1CF3H         PUBLIC        ?C?LLDIDATA
  -------         ENDMOD        ?C?LLDIDATA

  -------         MODULE        ?C?LLDPDATA
  C:1CFFH         PUBLIC        ?C?LLDPDATA
  -------         ENDMOD        ?C?LLDPDATA

  -------         MODULE        ?C?PSTIDATA
  C:1D0BH         PUBLIC        ?C?PSTIDATA
  -------         ENDMOD        ?C?PSTIDATA

  -------         MODULE        ?C?PSTPDATA
  C:1D14H         PUBLIC        ?C?PSTPDATA
  -------         ENDMOD        ?C?PSTPDATA

*** WARNING L1: UNRESOLVED EXTERNAL SYMBOL
    SYMBOL:  _READRACCOON
    MODULE:  .\Lnk_EMU_Adj.obj (LNK_EMU_ADJ)

*** WARNING L1: UNRESOLVED EXTERNAL SYMBOL
    SYMBOL:  _WRITERACCOON
    MODULE:  .\Lnk_EMU_Adj.obj (LNK_EMU_ADJ)

*** WARNING L1: UNRESOLVED EXTERNAL SYMBOL
    SYMBOL:  ?_WRITERACCOON?BYTE
    MODULE:  .\Lnk_EMU_Adj.obj (LNK_EMU_ADJ)

*** WARNING L1: UNRESOLVED EXTERNAL SYMBOL
    SYMBOL:  GS_RACCTRL
    MODULE:  .\Lnk_EMU_Adj.obj (LNK_EMU_ADJ)

*** WARNING L2: REFERENCE MADE TO UNRESOLVED EXTERNAL
    SYMBOL:  _READRACCOON
    MODULE:  .\Lnk_EMU_Adj.obj (LNK_EMU_ADJ)
    ADDRESS: 8BC8H

*** WARNING L2: REFERENCE MADE TO UNRESOLVED EXTERNAL
    SYMBOL:  GS_RACCTRL
    MODULE:  .\Lnk_EMU_Adj.obj (LNK_EMU_ADJ)
    ADDRESS: 8BD6H

*** WARNING L2: REFERENCE MADE TO UNRESOLVED EXTERNAL
    SYMBOL:  GS_RACCTRL
    MODULE:  .\Lnk_EMU_Adj.obj (LNK_EMU_ADJ)
    ADDRESS: 8BD8H

*** WARNING L2: REFERENCE MADE TO UNRESOLVED EXTERNAL
    SYMBOL:  _READRACCOON
    MODULE:  .\Lnk_EMU_Adj.obj (LNK_EMU_ADJ)
    ADDRESS: 8D31H

*** WARNING L2: REFERENCE MADE TO UNRESOLVED EXTERNAL
    SYMBOL:  GS_RACCTRL
    MODULE:  .\Lnk_EMU_Adj.obj (LNK_EMU_ADJ)
    ADDRESS: 8D3FH
BL51 BANKED LINKER/LOCATER V6.22                                                      03/12/2019  13:46:20  PAGE 181



*** WARNING L2: REFERENCE MADE TO UNRESOLVED EXTERNAL
    SYMBOL:  GS_RACCTRL
    MODULE:  .\Lnk_EMU_Adj.obj (LNK_EMU_ADJ)
    ADDRESS: 8D41H

*** WARNING L2: REFERENCE MADE TO UNRESOLVED EXTERNAL
    SYMBOL:  ?_WRITERACCOON?BYTE
    MODULE:  .\Lnk_EMU_Adj.obj (LNK_EMU_ADJ)
    ADDRESS: A00BH

*** WARNING L2: REFERENCE MADE TO UNRESOLVED EXTERNAL
    SYMBOL:  _WRITERACCOON
    MODULE:  .\Lnk_EMU_Adj.obj (LNK_EMU_ADJ)
    ADDRESS: A018H

*** WARNING L2: REFERENCE MADE TO UNRESOLVED EXTERNAL
    SYMBOL:  ?_WRITERACCOON?BYTE
    MODULE:  .\Lnk_EMU_Adj.obj (LNK_EMU_ADJ)
    ADDRESS: A029H

*** WARNING L2: REFERENCE MADE TO UNRESOLVED EXTERNAL
    SYMBOL:  _WRITERACCOON
    MODULE:  .\Lnk_EMU_Adj.obj (LNK_EMU_ADJ)
    ADDRESS: A036H

*** WARNING L2: REFERENCE MADE TO UNRESOLVED EXTERNAL
    SYMBOL:  ?_WRITERACCOON?BYTE
    MODULE:  .\Lnk_EMU_Adj.obj (LNK_EMU_ADJ)
    ADDRESS: B589H

*** WARNING L2: REFERENCE MADE TO UNRESOLVED EXTERNAL
    SYMBOL:  _WRITERACCOON
    MODULE:  .\Lnk_EMU_Adj.obj (LNK_EMU_ADJ)
    ADDRESS: B596H

*** WARNING L2: REFERENCE MADE TO UNRESOLVED EXTERNAL
    SYMBOL:  ?_WRITERACCOON?BYTE
    MODULE:  .\Lnk_EMU_Adj.obj (LNK_EMU_ADJ)
    ADDRESS: 74D0H

*** WARNING L2: REFERENCE MADE TO UNRESOLVED EXTERNAL
    SYMBOL:  _WRITERACCOON
    MODULE:  .\Lnk_EMU_Adj.obj (LNK_EMU_ADJ)
    ADDRESS: 74E3H

*** WARNING L2: REFERENCE MADE TO UNRESOLVED EXTERNAL
    SYMBOL:  _READRACCOON
    MODULE:  .\Lnk_EMU_Adj.obj (LNK_EMU_ADJ)
    ADDRESS: 328CH

*** WARNING L2: REFERENCE MADE TO UNRESOLVED EXTERNAL
    SYMBOL:  GS_RACCTRL
    MODULE:  .\Lnk_EMU_Adj.obj (LNK_EMU_ADJ)
    ADDRESS: 329AH

*** WARNING L2: REFERENCE MADE TO UNRESOLVED EXTERNAL
BL51 BANKED LINKER/LOCATER V6.22                                                      03/12/2019  13:46:20  PAGE 182


    SYMBOL:  GS_RACCTRL
    MODULE:  .\Lnk_EMU_Adj.obj (LNK_EMU_ADJ)
    ADDRESS: 329CH

*** WARNING L2: REFERENCE MADE TO UNRESOLVED EXTERNAL
    SYMBOL:  _READRACCOON
    MODULE:  .\Lnk_EMU_Adj.obj (LNK_EMU_ADJ)
    ADDRESS: 33BDH

*** WARNING L2: REFERENCE MADE TO UNRESOLVED EXTERNAL
    SYMBOL:  GS_RACCTRL
    MODULE:  .\Lnk_EMU_Adj.obj (LNK_EMU_ADJ)
    ADDRESS: 33CBH

*** WARNING L2: REFERENCE MADE TO UNRESOLVED EXTERNAL
    SYMBOL:  GS_RACCTRL
    MODULE:  .\Lnk_EMU_Adj.obj (LNK_EMU_ADJ)
    ADDRESS: 33CDH

*** WARNING L1: UNRESOLVED EXTERNAL SYMBOL
    SYMBOL:  _READRACCOON
    MODULE:  .\Lnk_EMU_handl.obj (LNK_EMU_HANDL)

*** WARNING L1: UNRESOLVED EXTERNAL SYMBOL
    SYMBOL:  GS_RACCTRL
    MODULE:  .\Lnk_EMU_handl.obj (LNK_EMU_HANDL)

*** WARNING L2: REFERENCE MADE TO UNRESOLVED EXTERNAL
    SYMBOL:  _READRACCOON
    MODULE:  .\Lnk_EMU_handl.obj (LNK_EMU_HANDL)
    ADDRESS: 8FF4H

*** WARNING L2: REFERENCE MADE TO UNRESOLVED EXTERNAL
    SYMBOL:  GS_RACCTRL
    MODULE:  .\Lnk_EMU_handl.obj (LNK_EMU_HANDL)
    ADDRESS: 9002H

*** WARNING L2: REFERENCE MADE TO UNRESOLVED EXTERNAL
    SYMBOL:  GS_RACCTRL
    MODULE:  .\Lnk_EMU_handl.obj (LNK_EMU_HANDL)
    ADDRESS: 9004H

*** WARNING L2: REFERENCE MADE TO UNRESOLVED EXTERNAL
    SYMBOL:  _READRACCOON
    MODULE:  .\Lnk_EMU_handl.obj (LNK_EMU_HANDL)
    ADDRESS: 6D2AH

*** WARNING L2: REFERENCE MADE TO UNRESOLVED EXTERNAL
    SYMBOL:  GS_RACCTRL
    MODULE:  .\Lnk_EMU_handl.obj (LNK_EMU_HANDL)
    ADDRESS: 6D38H

*** WARNING L2: REFERENCE MADE TO UNRESOLVED EXTERNAL
    SYMBOL:  GS_RACCTRL
    MODULE:  .\Lnk_EMU_handl.obj (LNK_EMU_HANDL)
    ADDRESS: 6D3AH

BL51 BANKED LINKER/LOCATER V6.22                                                      03/12/2019  13:46:20  PAGE 183


*** WARNING L2: REFERENCE MADE TO UNRESOLVED EXTERNAL
    SYMBOL:  _READRACCOON
    MODULE:  .\Lnk_EMU_handl.obj (LNK_EMU_HANDL)
    ADDRESS: 6DDCH

*** WARNING L2: REFERENCE MADE TO UNRESOLVED EXTERNAL
    SYMBOL:  GS_RACCTRL
    MODULE:  .\Lnk_EMU_handl.obj (LNK_EMU_HANDL)
    ADDRESS: 6DEAH

*** WARNING L2: REFERENCE MADE TO UNRESOLVED EXTERNAL
    SYMBOL:  GS_RACCTRL
    MODULE:  .\Lnk_EMU_handl.obj (LNK_EMU_HANDL)
    ADDRESS: 6DECH

*** WARNING L2: REFERENCE MADE TO UNRESOLVED EXTERNAL
    SYMBOL:  _READRACCOON
    MODULE:  .\Lnk_EMU_handl.obj (LNK_EMU_HANDL)
    ADDRESS: B213H

*** WARNING L2: REFERENCE MADE TO UNRESOLVED EXTERNAL
    SYMBOL:  GS_RACCTRL
    MODULE:  .\Lnk_EMU_handl.obj (LNK_EMU_HANDL)
    ADDRESS: B223H

*** WARNING L2: REFERENCE MADE TO UNRESOLVED EXTERNAL
    SYMBOL:  GS_RACCTRL
    MODULE:  .\Lnk_EMU_handl.obj (LNK_EMU_HANDL)
    ADDRESS: B225H

*** WARNING L2: REFERENCE MADE TO UNRESOLVED EXTERNAL
    SYMBOL:  _READRACCOON
    MODULE:  .\Lnk_EMU_handl.obj (LNK_EMU_HANDL)
    ADDRESS: 3C19H

*** WARNING L2: REFERENCE MADE TO UNRESOLVED EXTERNAL
    SYMBOL:  GS_RACCTRL
    MODULE:  .\Lnk_EMU_handl.obj (LNK_EMU_HANDL)
    ADDRESS: 3C29H

*** WARNING L2: REFERENCE MADE TO UNRESOLVED EXTERNAL
    SYMBOL:  GS_RACCTRL
    MODULE:  .\Lnk_EMU_handl.obj (LNK_EMU_HANDL)
    ADDRESS: 3C2BH

*** WARNING L2: REFERENCE MADE TO UNRESOLVED EXTERNAL
    SYMBOL:  _READRACCOON
    MODULE:  .\Lnk_EMU_handl.obj (LNK_EMU_HANDL)
    ADDRESS: 7BF5H

*** WARNING L2: REFERENCE MADE TO UNRESOLVED EXTERNAL
    SYMBOL:  GS_RACCTRL
    MODULE:  .\Lnk_EMU_handl.obj (LNK_EMU_HANDL)
    ADDRESS: 7C03H

*** WARNING L2: REFERENCE MADE TO UNRESOLVED EXTERNAL
    SYMBOL:  GS_RACCTRL
BL51 BANKED LINKER/LOCATER V6.22                                                      03/12/2019  13:46:20  PAGE 184


    MODULE:  .\Lnk_EMU_handl.obj (LNK_EMU_HANDL)
    ADDRESS: 7C05H

*** WARNING L1: UNRESOLVED EXTERNAL SYMBOL
    SYMBOL:  _SX1276_TXPACKET
    MODULE:  .\Drv_UART.obj (DRV_UART)

*** WARNING L1: UNRESOLVED EXTERNAL SYMBOL
    SYMBOL:  RX_MODE
    MODULE:  .\Drv_UART.obj (DRV_UART)

*** WARNING L1: UNRESOLVED EXTERNAL SYMBOL
    SYMBOL:  GS_RACCTRL
    MODULE:  .\Drv_UART.obj (DRV_UART)

*** WARNING L1: UNRESOLVED EXTERNAL SYMBOL
    SYMBOL:  G_LORACONFIG
    MODULE:  .\Drv_UART.obj (DRV_UART)

*** WARNING L2: REFERENCE MADE TO UNRESOLVED EXTERNAL
    SYMBOL:  G_LORACONFIG
    MODULE:  .\Drv_UART.obj (DRV_UART)
    ADDRESS: 7B62H

*** WARNING L2: REFERENCE MADE TO UNRESOLVED EXTERNAL
    SYMBOL:  _SX1276_TXPACKET
    MODULE:  .\Drv_UART.obj (DRV_UART)
    ADDRESS: 7B79H

*** WARNING L2: REFERENCE MADE TO UNRESOLVED EXTERNAL
    SYMBOL:  RX_MODE
    MODULE:  .\Drv_UART.obj (DRV_UART)
    ADDRESS: 7B7CH

*** WARNING L2: REFERENCE MADE TO UNRESOLVED EXTERNAL
    SYMBOL:  GS_RACCTRL
    MODULE:  .\Drv_UART.obj (DRV_UART)
    ADDRESS: E1F4H

*** WARNING L2: REFERENCE MADE TO UNRESOLVED EXTERNAL
    SYMBOL:  GS_RACCTRL
    MODULE:  .\Drv_UART.obj (DRV_UART)
    ADDRESS: E206H

*** WARNING L2: REFERENCE MADE TO UNRESOLVED EXTERNAL
    SYMBOL:  GS_RACCTRL
    MODULE:  .\Drv_UART.obj (DRV_UART)
    ADDRESS: E20CH

*** WARNING L2: REFERENCE MADE TO UNRESOLVED EXTERNAL
    SYMBOL:  GS_RACCTRL
    MODULE:  .\Drv_UART.obj (DRV_UART)
    ADDRESS: E225H

*** WARNING L2: REFERENCE MADE TO UNRESOLVED EXTERNAL
    SYMBOL:  GS_RACCTRL
    MODULE:  .\Drv_UART.obj (DRV_UART)
BL51 BANKED LINKER/LOCATER V6.22                                                      03/12/2019  13:46:20  PAGE 185


    ADDRESS: E22CH

*** WARNING L2: REFERENCE MADE TO UNRESOLVED EXTERNAL
    SYMBOL:  GS_RACCTRL
    MODULE:  .\Drv_UART.obj (DRV_UART)
    ADDRESS: E232H

*** WARNING L2: REFERENCE MADE TO UNRESOLVED EXTERNAL
    SYMBOL:  GS_RACCTRL
    MODULE:  .\Drv_UART.obj (DRV_UART)
    ADDRESS: E23CH

*** WARNING L1: UNRESOLVED EXTERNAL SYMBOL
    SYMBOL:  RX_MODE
    MODULE:  .\Api_User_Comm.obj (API_USER_COMM)

*** WARNING L1: UNRESOLVED EXTERNAL SYMBOL
    SYMBOL:  SX127X_INIT
    MODULE:  .\Api_User_Comm.obj (API_USER_COMM)

*** WARNING L1: UNRESOLVED EXTERNAL SYMBOL
    SYMBOL:  _LSD_RF_RXPACKET
    MODULE:  .\Api_User_Comm.obj (API_USER_COMM)

*** WARNING L1: UNRESOLVED EXTERNAL SYMBOL
    SYMBOL:  G_LORACONFIG
    MODULE:  .\Api_User_Comm.obj (API_USER_COMM)

*** WARNING L2: REFERENCE MADE TO UNRESOLVED EXTERNAL
    SYMBOL:  SX127X_INIT
    MODULE:  .\Api_User_Comm.obj (API_USER_COMM)
    ADDRESS: DB98H

*** WARNING L2: REFERENCE MADE TO UNRESOLVED EXTERNAL
    SYMBOL:  RX_MODE
    MODULE:  .\Api_User_Comm.obj (API_USER_COMM)
    ADDRESS: DB9BH

*** WARNING L2: REFERENCE MADE TO UNRESOLVED EXTERNAL
    SYMBOL:  _LSD_RF_RXPACKET
    MODULE:  .\Api_User_Comm.obj (API_USER_COMM)
    ADDRESS: E68EH

*** WARNING L2: REFERENCE MADE TO UNRESOLVED EXTERNAL
    SYMBOL:  G_LORACONFIG
    MODULE:  .\Api_User_Comm.obj (API_USER_COMM)
    ADDRESS: E6ACH

Program Size: data=19.6 xdata=2048 code=61881
LINK/LOCATE RUN COMPLETE.  66 WARNING(S),  0 ERROR(S)
