BL51 BANKED LINKER/LOCATER V6.22                                                        03/11/2019  14:45:04  PAGE 1


BL51 BANKED LINKER/LOCATER V6.22, INVOKED BY:
C:\KEIL\C51\BIN\BL51.EXE .\STARTUP.obj, .\main.obj, .\Proc_Data.obj, .\Proc_EXmem.obj, .\Proc_System_Check.obj, .\Proc_S
>> ystem_Initialize.obj, .\Proc_System_Interrupt.obj, .\Proc_System_Tou.obj, .\Drv_E2P_24CXXX.obj, .\Drv_E2P_i2cSoft.obj
>> , .\Drv_EMU_hard.obj, .\Lnk_EMU_Adj.obj, .\Lnk_EMU_handl.obj, .\Drv_ADC.obj, .\Drv_core.obj, .\Drv_GPIO.obj, .\Drv_KE
>> Y_IO.obj, .\Drv_LCD.obj, .\Drv_RTC.obj, .\Drv_TMR.obj, .\Drv_UART.obj, .\Lib_myMath.obj, .\Lib_mySpring.obj, .\Lib_my
>> Timer.obj, .\Api_AdjErr.obj, .\Api_Bill_Record.obj, .\Api_Demand.obj, .\Api_Energy.obj, .\Api_Event.obj, .\Api_LoadPr
>> ofile.obj, .\Api_Measure.obj, .\Api_Triff.obj, .\API_Relay.obj, .\Api_Lcd_Display.obj, .\Api_User_Comm.obj, .\IEC6205
>> 6_21.obj TO DI03B_9811A_V10 RAMSIZE (256) DISABLEWARNING (16) CODE (0X0000-0XFFFE) XDATA (0X0000-0X0F7E)


MEMORY MODEL: LARGE WITH FLOATING POINT ARITHMETIC


INPUT MODULES INCLUDED:
  .\STARTUP.obj (?C_STARTUP)
  .\main.obj (MAIN)
  .\Proc_Data.obj (PROC_DATA)
  .\Proc_EXmem.obj (PROC_EXMEM)
  .\Proc_System_Check.obj (PROC_SYSTEM_CHECK)
  .\Proc_System_Initialize.obj (PROC_SYSTEM_INITIALIZE)
  .\Proc_System_Interrupt.obj (PROC_SYSTEM_INTERRUPT)
  .\Proc_System_Tou.obj (PROC_SYSTEM_TOU)
  .\Drv_E2P_24CXXX.obj (DRV_E2P_24CXXX)
  .\Drv_E2P_i2cSoft.obj (DRV_E2P_I2CSOFT)
  .\Drv_EMU_hard.obj (DRV_EMU_HARD)
  .\Lnk_EMU_Adj.obj (LNK_EMU_ADJ)
  .\Lnk_EMU_handl.obj (LNK_EMU_HANDL)
  .\Drv_ADC.obj (DRV_ADC)
  .\Drv_core.obj (DRV_CORE)
  .\Drv_GPIO.obj (DRV_GPIO)
  .\Drv_KEY_IO.obj (DRV_KEY_IO)
  .\Drv_LCD.obj (DRV_LCD)
  .\Drv_RTC.obj (DRV_RTC)
  .\Drv_TMR.obj (DRV_TMR)
  .\Drv_UART.obj (DRV_UART)
  .\Lib_myMath.obj (LIB_MYMATH)
  .\Lib_mySpring.obj (LIB_MYSPRING)
  .\Lib_myTimer.obj (LIB_MYTIMER)
  .\Api_AdjErr.obj (API_ADJERR)
  .\Api_Bill_Record.obj (API_BILL_RECORD)
  .\Api_Demand.obj (API_DEMAND)
  .\Api_Energy.obj (API_ENERGY)
  .\Api_Event.obj (API_EVENT)
  .\Api_LoadProfile.obj (API_LOADPROFILE)
  .\Api_Measure.obj (API_MEASURE)
  .\Api_Triff.obj (API_TRIFF)
  .\API_Relay.obj (API_RELAY)
  .\Api_Lcd_Display.obj (API_LCD_DISPLAY)
  .\Api_User_Comm.obj (API_USER_COMM)
  .\IEC62056_21.obj (IEC62056_21)
  C:\KEIL\C51\LIB\C51FPL.LIB (?C?FPADD)
  C:\KEIL\C51\LIB\C51FPL.LIB (?C?FPMUL)
  C:\KEIL\C51\LIB\C51FPL.LIB (?C?FPDIV)
  C:\KEIL\C51\LIB\C51FPL.LIB (?C?FPCMP)
  C:\KEIL\C51\LIB\C51FPL.LIB (?C?FCAST)
  C:\KEIL\C51\LIB\C51FPL.LIB (?C?CASTF)
  C:\KEIL\C51\LIB\C51FPL.LIB (ATOF)
  C:\KEIL\C51\LIB\C51FPL.LIB (SQRT)
BL51 BANKED LINKER/LOCATER V6.22                                                      03/11/2019  14:45:04  PAGE 2


  C:\KEIL\C51\LIB\C51FPL.LIB (FLOOR)
  C:\KEIL\C51\LIB\C51FPL.LIB (?C?FPGETOPN)
  C:\KEIL\C51\LIB\C51FPL.LIB (?C?ATOF)
  C:\KEIL\C51\LIB\C51FPL.LIB (?C?FPNEG)
  C:\KEIL\C51\LIB\C51FPL.LIB (?C?FTNPWR)
  C:\KEIL\C51\LIB\C51L.LIB (?C_INIT)
  C:\KEIL\C51\LIB\C51L.LIB (?C?COPY)
  C:\KEIL\C51\LIB\C51L.LIB (?C?CLDPTR)
  C:\KEIL\C51\LIB\C51L.LIB (?C?CLDOPTR)
  C:\KEIL\C51\LIB\C51L.LIB (?C?CILDPTR)
  C:\KEIL\C51\LIB\C51L.LIB (?C?CSTPTR)
  C:\KEIL\C51\LIB\C51L.LIB (?C?CSTOPTR)
  C:\KEIL\C51\LIB\C51L.LIB (?C?IMUL)
  C:\KEIL\C51\LIB\C51L.LIB (?C?UIDIV)
  C:\KEIL\C51\LIB\C51L.LIB (?C?SIDIV)
  C:\KEIL\C51\LIB\C51L.LIB (?C?IILDX)
  C:\KEIL\C51\LIB\C51L.LIB (?C?ILDIX)
  C:\KEIL\C51\LIB\C51L.LIB (?C?ISTPTR)
  C:\KEIL\C51\LIB\C51L.LIB (?C?LMUL)
  C:\KEIL\C51\LIB\C51L.LIB (?C?ULDIV)
  C:\KEIL\C51\LIB\C51L.LIB (?C?SLDIV)
  C:\KEIL\C51\LIB\C51L.LIB (?C?LNOT)
  C:\KEIL\C51\LIB\C51L.LIB (?C?LNEG)
  C:\KEIL\C51\LIB\C51L.LIB (?C?SLCMP)
  C:\KEIL\C51\LIB\C51L.LIB (?C?ULCMP)
  C:\KEIL\C51\LIB\C51L.LIB (?C?ULSHR)
  C:\KEIL\C51\LIB\C51L.LIB (?C?LSHL)
  C:\KEIL\C51\LIB\C51L.LIB (?C?LLDPTR)
  C:\KEIL\C51\LIB\C51L.LIB (?C?LLDXDATA)
  C:\KEIL\C51\LIB\C51L.LIB (?C?LLDCODE)
  C:\KEIL\C51\LIB\C51L.LIB (?C?LLDCODE0)
  C:\KEIL\C51\LIB\C51L.LIB (?C?LSTXDATA)
  C:\KEIL\C51\LIB\C51L.LIB (?C?LSTKXDATA)
  C:\KEIL\C51\LIB\C51L.LIB (?C?OFFXADD)
  C:\KEIL\C51\LIB\C51L.LIB (?C?PLDIXDATA)
  C:\KEIL\C51\LIB\C51L.LIB (?C?PSTXDATA)
  C:\KEIL\C51\LIB\C51L.LIB (?C?PSTPTR)
  C:\KEIL\C51\LIB\C51L.LIB (?C?ICASE)
  C:\KEIL\C51\LIB\C51L.LIB (?C?LCASE)
  C:\KEIL\C51\LIB\C51L.LIB (?C?LIMUL)
  C:\KEIL\C51\LIB\C51L.LIB (ISSPACE)
  C:\KEIL\C51\LIB\C51L.LIB (?C?LLDIDATA)
  C:\KEIL\C51\LIB\C51L.LIB (?C?LLDPDATA)
  C:\KEIL\C51\LIB\C51L.LIB (?C?PSTIDATA)
  C:\KEIL\C51\LIB\C51L.LIB (?C?PSTPDATA)


LINK MAP OF MODULE:  DI03B_9811A_V10 (?C_STARTUP)


            TYPE    BASE      LENGTH    RELOCATION   SEGMENT NAME
            -----------------------------------------------------

            * * * * * * *   D A T A   M E M O R Y   * * * * * * *
            REG     0000H     0008H     ABSOLUTE     "REG BANK 0"
            DATA    0008H     0002H     UNIT         _DATA_GROUP_
                    000AH     0006H                  *** GAP ***
BL51 BANKED LINKER/LOCATER V6.22                                                      03/11/2019  14:45:04  PAGE 3


            REG     0010H     0008H     ABSOLUTE     "REG BANK 2"
                    0018H     0008H                  *** GAP ***
            BIT     0020H.0   0000H.5   UNIT         _BIT_GROUP_
            BIT     0020H.5   0000H.1   UNIT         ?BI?_SOFTADJUST_IB5_PROCESS?LNK_EMU_ADJ
                    0020H.6   0000H.2                *** GAP ***
            IDATA   0021H     0001H     UNIT         ?STACK

            * * * * * * *  X D A T A   M E M O R Y  * * * * * * *
            XDATA   0000H     0236H     UNIT         _XDATA_GROUP_
            XDATA   0236H     0102H     UNIT         ?XD?DRV_UART
            XDATA   0338H     009CH     UNIT         ?XD?_API_PWL_COVER_EVEN_CLASS_RECODE?API_EVENT
            XDATA   03D4H     008FH     UNIT         ?XD?API_DEMAND
            XDATA   0463H     0080H     UNIT         ?XD?API_BILL_RECORD
            XDATA   04E3H     007EH     UNIT         ?XD?API_ENERGY
            XDATA   0561H     004DH     UNIT         ?XD?API_USER_COMM
            XDATA   05AEH     0040H     UNIT         ?XD?LNK_EMU_ADJ
            XDATA   05EEH     003EH     UNIT         ?XD?API_LCD_DISPLAY
            XDATA   062CH     002EH     UNIT         ?XD?LIB_MYMATH
            XDATA   065AH     002BH     UNIT         ?XD?HARDWARE_ADJUSTDIV_SUB?LNK_EMU_ADJ
            XDATA   0685H     0026H     UNIT         ?XD?API_MEASURE
            XDATA   06ABH     001DH     UNIT         ?XD?PROC_SYSTEM_TOU
            XDATA   06C8H     001CH     UNIT         ?XD?LNK_GET_EMU_RACTIVE_CONST?LNK_EMU_HANDL
            XDATA   06E4H     0019H     UNIT         ?XD?API_LOADPROFILE
            XDATA   06FDH     0018H     UNIT         ?XD?PROC_DATA
            XDATA   0715H     0015H     UNIT         ?XD?_LNK_GET_EMU_ACTIVEPOWER?LNK_EMU_HANDL
            XDATA   072AH     0014H     UNIT         ?XD?API_HANDL_SETTLE_WHEN_POWERUP?API_BILL_RECORD
            XDATA   073EH     0013H     UNIT         ?XD?_GET_ORIGINAL_POWER?LNK_EMU_ADJ
            XDATA   0751H     0013H     UNIT         ?XD?_GET_ORIGINAL_IRMS?LNK_EMU_ADJ
            XDATA   0764H     0011H     UNIT         ?XD?_LNK_GET_EMU_RACTIVEPOWER?LNK_EMU_HANDL
            XDATA   0775H     000CH     UNIT         ?XD?API_EVENT
            XDATA   0781H     000BH     UNIT         ?XD?LINK_GET_DIS_OBIS_NUM_BUFF?API_LCD_DISPLAY
            XDATA   078CH     000AH     UNIT         ?XD?_SETRTCNORMAL?DRV_RTC
            XDATA   0796H     000AH     UNIT         ?XD?_LIB_ASC_BCD?LIB_MYMATH
            XDATA   07A0H     000AH     UNIT         ?XD?_LIB_BCD_ASC?LIB_MYMATH
            XDATA   07AAH     0009H     UNIT         ?XD?_SOFTADJUST_IB_PROCESS?LNK_EMU_ADJ
            XDATA   07B3H     0009H     UNIT         ?XD?_SOFTADJUST_IB5_PROCESS?LNK_EMU_ADJ
            XDATA   07BCH     0009H     UNIT         ?XD?_SOFTADJUST_PHASE_PROCESS?LNK_EMU_ADJ
            XDATA   07C5H     0007H     UNIT         ?XD?_SETMETERCFGI?DRV_EMU_HARD
            XDATA   07CCH     0007H     UNIT         ?XD?_LIB_GET_DATA_0XFF_ASCLEN?LIB_MYSPRING
            XDATA   07D3H     0006H     UNIT         ?XD?_SETMETERCFGACKPM800K?DRV_EMU_HARD
            XDATA   07D9H     0005H     UNIT         ?XD?PROC_SYSTEM_CHECK
            XDATA   07DEH     0005H     UNIT         ?XD?_LIB_ENOB_GET?LIB_MYMATH
            XDATA   07E3H     0005H     UNIT         ?XD?_LIB_MATH_GET_BCC_CHK?LIB_MYMATH
            XDATA   07E8H     0004H     UNIT         ?XD?API_TRIFF
            XDATA   07ECH     0003H     UNIT         ?XD?LNK_EMU_HANDL
            XDATA   07EFH     0003H     UNIT         ?XD?_LIB_BCD_INC?LIB_MYMATH
            XDATA   07F2H     0003H     UNIT         ?XD?_LIB_BCD_ARRY_ADD1?LIB_MYMATH
            XDATA   07F5H     0003H     UNIT         ?XD?_LIB_MVHALFBYTE_R?LIB_MYSPRING
            XDATA   07F8H     0003H     UNIT         ?XD?_LIB_MVHALFBYTE_L?LIB_MYSPRING
            XDATA   07FBH     0003H     UNIT         ?XD?API_RELAY
            XDATA   07FEH     0001H     UNIT         ?XD?MAIN
            XDATA   07FFH     0001H     UNIT         ?XD?API_ADJERR

            * * * * * * *   C O D E   M E M O R Y   * * * * * * *
            CODE    0000H     0003H     ABSOLUTE     
            CODE    0003H     0003H     ABSOLUTE     
            CODE    0006H     0005H     UNIT         ?PR?START_TIMER?DRV_TMR
BL51 BANKED LINKER/LOCATER V6.22                                                      03/11/2019  14:45:04  PAGE 4


            CODE    000BH     0003H     ABSOLUTE     
            CODE    000EH     0005H     UNIT         ?PR?START_TIMER1?DRV_TMR
            CODE    0013H     0003H     ABSOLUTE     
            CODE    0016H     0005H     UNIT         ?PR?STOP_TIMER?DRV_TMR
            CODE    001BH     0003H     ABSOLUTE     
            CODE    001EH     000DH     UNIT         ?PR?API_EVEN_DETECT_L2REVERSE?API_EVENT
            CODE    002BH     0003H     ABSOLUTE     
            CODE    002EH     000DH     UNIT         ?PR?API_EVEN_DETECT_L1REVERSE?API_EVENT
            CODE    003BH     0003H     ABSOLUTE     
            CODE    003EH     0005H     UNIT         ?PR?_GET_ERROR_ANSWER?IEC62056_21
            CODE    0043H     0003H     ABSOLUTE     
            CODE    0046H     0005H     UNIT         ?PR?_GET_ACK_ANSWER?IEC62056_21
            CODE    004BH     0003H     ABSOLUTE     
            CODE    004EH     0004H     UNIT         ?PR?INTERRUPT_INT0?PROC_SYSTEM_INTERRUPT
            CODE    0052H     0001H     UNIT         ?PR?PROC_CHECK_SYSTEM_PRE_CYCLE?PROC_SYSTEM_CHECK
            CODE    0053H     0003H     ABSOLUTE     
            CODE    0056H     0358H     UNIT         ?PR?CAL_TEMPERATURE_DATA?DRV_ADC
            CODE    03AEH     0052H     UNIT         ?PR?_API_CHG_LCDDISPLAY_ADJ_ITEM?API_LCD_DISPLAY
            CODE    0400H     0001H     ABSOLUTE     
            CODE    0401H     01FFH     ABSOLUTE     
            CODE    0600H     0D11H     UNIT         ?PR?_IEC_CMD_READ_DEAL?API_USER_COMM
            CODE    1311H     0A0CH     UNIT         ?C?LIB_CODE
            CODE    1D1DH     08E2H     UNIT         ?PR?_IEC_CMD_WRITE_DEAL?API_USER_COMM
            CODE    25FFH     07F3H     UNIT         ?CO?API_USER_COMM
            CODE    2DF2H     07DDH     UNIT         ?PR?HARDWARE_ADJUSTDIV_SUB?LNK_EMU_ADJ
            CODE    35CFH     0609H     UNIT         ?PR?_LNK_SAVE_EVEN_CLASS1_RECODE?API_EVENT
            CODE    3BD8H     05BEH     UNIT         ?PR?LNK_GET_EMU_RACTIVE_CONST?LNK_EMU_HANDL
            CODE    4196H     0458H     UNIT         ?PR?_PROCESS_IEC62056_21?API_USER_COMM
            CODE    45EEH     0454H     UNIT         ?PR?LINK_GET_DIS_DATA_NUM_BUFF?API_LCD_DISPLAY
            CODE    4A42H     0418H     UNIT         ?PR?_API_PWL_COVER_EVEN_CLASS_RECODE?API_EVENT
            CODE    4E5AH     03E7H     UNIT         ?PR?_API_GET_ENERGY_LCD?API_LCD_DISPLAY
            CODE    5241H     0321H     UNIT         ?PR?LINK_GET_DIS_OBIS_NUM_BUFF?API_LCD_DISPLAY
            CODE    5562H     02DCH     UNIT         ?PR?_MEASURE_ELECTRIC_ERR_GAIN?LNK_EMU_ADJ
            CODE    583EH     0283H     UNIT         ?PR?_LOAD_REC?API_LOADPROFILE
            CODE    5AC1H     0279H     UNIT         ?PR?_INIT_EMU?LNK_EMU_HANDL
            CODE    5D3AH     026EH     UNIT         ?PR?_CALIBRATION_CURRENT?LNK_EMU_ADJ
            CODE    5FA8H     0269H     UNIT         ?PR?API_ACCUM_CURRENT_ENERGY_DATA_PRE_SECOND?API_ENERGY
            CODE    6211H     025EH     UNIT         ?PR?_LPREC_READ_BLOCK?API_LOADPROFILE
            CODE    646FH     0256H     UNIT         ?PR?API_UPDATA_MD_VAR_SLID_PER_MINUTE?API_DEMAND
            CODE    66C5H     0237H     UNIT         ?PR?CHECK_EMU_ADJPARAM?LNK_EMU_ADJ
            CODE    68FCH     0212H     UNIT         ?PR?API_INIT_CURRENT_ENERGY_DATA_RAM?API_ENERGY
            CODE    6B0EH     01FCH     UNIT         ?PR?LINK_GET_DIS_DRV_BUFF?API_LCD_DISPLAY
            CODE    6D0AH     01F5H     UNIT         ?PR?_LNK_GET_EMU_ACTIVEPOWER?LNK_EMU_HANDL
            CODE    6EFFH     01E1H     UNIT         ?PR?API_FREEZE_ENERGY_RAM_PRE_DAY?API_BILL_RECORD
            CODE    70E0H     01D8H     UNIT         ?PR?MEM_DB_CHECK?PROC_EXMEM
            CODE    72B8H     01D8H     UNIT         ?PR?_API_GET_BILL_RECORD_ADDR?API_BILL_RECORD
            CODE    7490H     01D5H     UNIT         ?PR?_SOFTADJUST_PHASE_PROCESS?LNK_EMU_ADJ
            CODE    7665H     01C2H     UNIT         ?PR?PROC_INITIALIZE_INRAM?PROC_SYSTEM_INITIALIZE
            CODE    7827H     01B5H     UNIT         ?PR?_API_CMP_SAVE_MD_DATA?API_DEMAND
            CODE    79DCH     01B3H     UNIT         ?PR?_TX_UART_FRIST?DRV_UART
            CODE    7B8FH     01AFH     UNIT         ?PR?_LNK_GET_EMU_RACTIVEPOWER?LNK_EMU_HANDL
            CODE    7D3EH     01A7H     UNIT         ?PR?_CALIBRATION_SMALL_SIGNAL?LNK_EMU_ADJ
            CODE    7EE5H     01A7H     UNIT         ?PR?LNK_CAL_EMU_CONSTSUM_PER_SECOND?LNK_EMU_HANDL
            CODE    808CH     01A2H     UNIT         ?PR?_API_GET_TRIFF_NO?API_TRIFF
            CODE    822EH     019DH     UNIT         ?PR?_CALCULATESCHZ?LNK_EMU_ADJ
            CODE    83CBH     0193H     UNIT         ?PR?_API_WRITE_BILL_DATA?API_BILL_RECORD
            CODE    855EH     018EH     UNIT         ?PR?API_HANDL_SETTLE_WHEN_POWERUP?API_BILL_RECORD
BL51 BANKED LINKER/LOCATER V6.22                                                      03/11/2019  14:45:04  PAGE 5


            CODE    86ECH     017DH     UNIT         ?PR?_SETRTCNORMAL?DRV_RTC
            CODE    8869H     017BH     UNIT         ?PR?_GET_IEC_COMM_VAR?API_USER_COMM
            CODE    89E4H     016CH     UNIT         ?PR?PROC_JUDGE_POWER_DOWN_PROCESS?PROC_SYSTEM_INITIALIZE
            CODE    8B50H     0169H     UNIT         ?PR?_GET_ORIGINAL_POWER?LNK_EMU_ADJ
            CODE    8CB9H     0169H     UNIT         ?PR?_GET_ORIGINAL_IRMS?LNK_EMU_ADJ
            CODE    8E22H     0168H     UNIT         ?PR?API_MEASURE_DEAL_PRE_SECOND?API_MEASURE
            CODE    8F8AH     0167H     UNIT         ?PR?_LNK_GET_EMU_VOLTAGE?LNK_EMU_HANDL
            CODE    90F1H     0163H     UNIT         ?PR?_API_LCDDISPLAY_ADJ_ITEM?API_LCD_DISPLAY
            CODE    9254H     014BH     UNIT         ?PR?_READMETERPARAACK?DRV_EMU_HARD
            CODE    939FH     0147H     UNIT         ?PR?PROC_HANDL_TOU_1S?PROC_SYSTEM_TOU
            CODE    94E6H     0142H     UNIT         ?PR?INTERRUPT_EXINT2?PROC_SYSTEM_INTERRUPT
            CODE    9628H     0141H     UNIT         ?C_INITSEG
            CODE    9769H     012FH     UNIT         ?PR?API_GET_SEASONTAB_NO?API_TRIFF
            CODE    9898H     012FH     UNIT         ?PR?_IEC_COMM_COMMAND_CMD_JUDGE?IEC62056_21
            CODE    99C7H     012DH     UNIT         ?PR?_IEC_COMM_REQUEST_CMD_JUDGE?IEC62056_21
            CODE    9AF4H     012CH     UNIT         ?PR?_MEM_DB_WRITE?PROC_EXMEM
            CODE    9C20H     012BH     UNIT         ?PR?_LNK_GET_EMU_CURRENT?LNK_EMU_HANDL
            CODE    9D4BH     0129H     UNIT         ?PR?API_CLR_EVEN_BY_COMM?API_EVENT
            CODE    9E74H     0124H     UNIT         ?PR?_CALIBRATION_ANGULAR?LNK_EMU_ADJ
            CODE    9F98H     0111H     UNIT         ?PR?_SOFTADJUST_IB_PROCESS?LNK_EMU_ADJ
            CODE    A0A9H     0110H     UNIT         ?PR?API_CLR_BILL_DATA?API_BILL_RECORD
            CODE    A1B9H     0107H     UNIT         ?PR?_API_HANDL_COMM_PRE_10MS?API_USER_COMM
            CODE    A2C0H     0103H     UNIT         ?PR?_CALCULATEAC?LNK_EMU_ADJ
            CODE    A3C3H     0101H     UNIT         ?PR?_GET_DEFAULT_MEM_DATA?PROC_EXMEM
            CODE    A4C4H     00FEH     UNIT         ?PR?_GETTOTALTIME?API_EVENT
            CODE    A5C2H     00FDH     UNIT         ?PR?TIMEEVENTPROC?LNK_EMU_ADJ
            CODE    A6BFH     00F7H     UNIT         ?PR?_LINK_GET_DISTAB_VAR?API_LCD_DISPLAY
            CODE    A7B6H     00F2H     UNIT         ?PR?_CALCULATESC?LNK_EMU_ADJ
            CODE    A8A8H     00F2H     UNIT         ?PR?_GET_UART_RX_BUFF?DRV_UART
            CODE    A99AH     00F0H     UNIT         ?PR?_LIB_CHECK_RTC_DATA_FORM?LIB_MYMATH
            CODE    AA8AH     00F0H     UNIT         ?PR?_IEC_CMD_PASSWORD_DEAL?API_USER_COMM
            CODE    AB7AH     00F0H     UNIT         ?PR?_FLOOR?FLOOR
            CODE    AC6AH     00EFH     UNIT         ?PR?_MEM_TO_MEM?PROC_EXMEM
            CODE    AD59H     00E6H     UNIT         ?PR??C?ATOF??C?ATOF
            CODE    AE3FH     00E5H     UNIT         ?PR?_SET_MCUCLOCK?DRV_CORE
            CODE    AF24H     00E0H     UNIT         ?PR?_WRITE_LCD?DRV_LCD
            CODE    B004H     00DEH     UNIT         ?PR?_HDL_UART_10MS_RUN?DRV_UART
            CODE    B0E2H     00DCH     UNIT         ?PR?_LNK_GET_EMU_FREQ?LNK_EMU_HANDL
            CODE    B1BEH     00D9H     UNIT         ?PR?_LNK_TX_COMM_READY?API_USER_COMM
            CODE    B297H     00D7H     UNIT         ?PR?API_CLR_CURRENT_MD_DATA?API_DEMAND
            CODE    B36EH     00D6H     UNIT         ?PR?API_UPDATED_LCDDISPLAYITEM_PER_SECOND?API_LCD_DISPLAY
            CODE    B444H     00D4H     UNIT         ?PR?_SOFTADJUST_IB5_PROCESS?LNK_EMU_ADJ
            CODE    B518H     00D3H     UNIT         ?PR?API_UPDATED_LCDDISPLAYPIXEL_PER_SECOND?API_LCD_DISPLAY
            CODE    B5EBH     00CBH     UNIT         ?PR?_GET_IEC_COMM_OPERAND_ANSWER?IEC62056_21
            CODE    B6B6H     00C9H     UNIT         ?PR?_LIB_BCD4_LONG?LIB_MYMATH
            CODE    B77FH     00C7H     UNIT         ?PR?_GET_MEM_CK_DATA?PROC_EXMEM
            CODE    B846H     00C6H     UNIT         ?PR?LINK_GET_DIS_CHAR_BUFF?API_LCD_DISPLAY
            CODE    B90CH     00C4H     UNIT         ?PR?_CALIBRATION_POWER?LNK_EMU_ADJ
            CODE    B9D0H     00C3H     UNIT         ?PR?_API_DEAL_EVEN_CLASS_RECODE?API_EVENT
            CODE    BA93H     00C0H     UNIT         ?PR?_MEM_DB_CLR?PROC_EXMEM
            CODE    BB53H     00B9H     UNIT         ?CO?LNK_EMU_ADJ
            CODE    BC0CH     00B7H     UNIT         ?PR?_LIB_LONG_BCD4?LIB_MYMATH
            CODE    BCC3H     00B4H     UNIT         ?PR?_READ_EEPROM_PAGE_SUB?DRV_E2P_24CXXX
            CODE    BD77H     00B0H     UNIT         ?PR?_SET_EMUCLOCK?DRV_CORE
            CODE    BE27H     00AFH     UNIT         ?PR?MAIN?MAIN
            CODE    BED6H     00AFH     UNIT         ?PR?PROC_CHECK_PROKEY_PRE_SEC?PROC_SYSTEM_CHECK
            CODE    BF85H     00AFH     UNIT         ?PR?_SETMETERCFGI?DRV_EMU_HARD
BL51 BANKED LINKER/LOCATER V6.22                                                      03/11/2019  14:45:04  PAGE 6


            CODE    C034H     00AFH     UNIT         ?PR?API_CHECK_CURRENT_ENERGY_DATA?API_ENERGY
            CODE    C0E3H     00ADH     UNIT         ?PR?_LIB_REV_COPY_ARRY?LIB_MYSPRING
            CODE    C190H     00ACH     UNIT         ?PR?SQRT?SQRT
            CODE    C23CH     00ABH     UNIT         ?PR?_WRITE_EEPROM_PAGE_SUB?DRV_E2P_24CXXX
            CODE    C2E7H     00ABH     UNIT         ?PR?_LPREC_READ_1?API_LOADPROFILE
            CODE    C392H     00A8H     UNIT         ?PR?_INIT_UART_SOFT?DRV_UART
            CODE    C43AH     00A0H     UNIT         ?PR?_READ_EEPROM?DRV_E2P_24CXXX
            CODE    C4DAH     00A0H     UNIT         ?PR?_API_GET_DAYTAB_NO?API_TRIFF
            CODE    C57AH     009EH     UNIT         ?PR?_MEM_FILL?PROC_EXMEM
            CODE    C618H     009EH     UNIT         ?PR?_SETMETERCFGACKPM800K?DRV_EMU_HARD
            CODE    C6B6H     009EH     UNIT         ?PR?_SETMETERCFGACK?DRV_EMU_HARD
            CODE    C754H     009DH     UNIT         ?PR?_WRITE_EEPROM?DRV_E2P_24CXXX
            CODE    C7F1H     009DH     UNIT         ?PR?_E2P_TXBYTE_I2C?DRV_E2P_I2CSOFT
            CODE    C88EH     009BH     UNIT         ?PR?_MEM_WRITE?PROC_EXMEM
            CODE    C929H     009AH     UNIT         ?PR?API_HANDL_SETTLE_PER_MINUTE?API_BILL_RECORD
            CODE    C9C3H     009AH     UNIT         ?CO?API_TRIFF
            CODE    CA5DH     0097H     UNIT         ?PR?PROC_GET_CLOCK?PROC_SYSTEM_TOU
            CODE    CAF4H     0097H     UNIT         ?PR?_LIB_GETGMDAY?LIB_MYMATH
            CODE    CB8BH     0096H     UNIT         ?PR?DRV_RELAY_POWERUP_CHECK?API_RELAY
            CODE    CC21H     0094H     UNIT         ?PR?_MEM_READ?PROC_EXMEM
            CODE    CCB5H     0094H     UNIT         ?PR?LOADPRO_REC?API_LOADPROFILE
            CODE    CD49H     0091H     UNIT         ?PR?_GET_MEM_TABLE_INDEX?PROC_EXMEM
            CODE    CDDAH     008EH     UNIT         ?PR?_E2P_RXBYTE_I2C?DRV_E2P_I2CSOFT
            CODE    CE68H     008DH     UNIT         ?PR?_WRITE_EEPROM_PAGE?DRV_E2P_24CXXX
            CODE    CEF5H     008CH     UNIT         ?PR?INIT_GPIO_RUN?DRV_GPIO
            CODE    CF81H     008BH     UNIT         ?PR?API_HANDL_BUTTON_PRE_10MS?PROC_SYSTEM_TOU
            CODE    D00CH     0088H     UNIT         ?PR?_GET_IEC_COMM_REQUEST_CMD_ANSWER?IEC62056_21
            CODE    D094H     0086H     UNIT         ?C_C51STARTUP
            CODE    D11AH     0085H     UNIT         ?PR?API_FREEZE_ENERGY_PRE_DAY?API_BILL_RECORD
            CODE    D19FH     007BH     UNIT         ?PR?_READ_EEPROM_PAGE?DRV_E2P_24CXXX
            CODE    D21AH     007AH     UNIT         ?PR?PROC_INITIALIZE_SYSTERM_NORMAL_MODE?PROC_SYSTEM_INITIALIZE
            CODE    D294H     0079H     UNIT         ?PR?_LIB_CMP_TWOARRY?LIB_MYSPRING
            CODE    D30DH     0079H     UNIT         ?PR?_LIB_MVHALFBYTE_L?LIB_MYSPRING
            CODE    D386H     0078H     UNIT         ?PR?_LIB_BCD_ASC?LIB_MYMATH
            CODE    D3FEH     0077H     UNIT         ?PR?_LIB_WORD_BCD2?LIB_MYMATH
            CODE    D475H     0076H     UNIT         ?PR?SET_SLEEP_OUT?DRV_CORE
            CODE    D4EBH     0076H     UNIT         ?PR?_SET_UART2_BADU?DRV_UART
            CODE    D561H     0076H     UNIT         ?PR?_SET_UART4_BADU?DRV_UART
            CODE    D5D7H     0076H     UNIT         ?PR?_LIB_GET_DATA_0XFF_ASCLEN?LIB_MYSPRING
            CODE    D64DH     0074H     UNIT         ?PR?API_UPDATA_MD_VAR_MIN_PER_SECOND?API_DEMAND
            CODE    D6C1H     0074H     UNIT         ?PR?API_CLR_FREEZE_ENERGY?API_DEMAND
            CODE    D735H     0073H     UNIT         ?PR?PROC_SYS_DATA_INIT?PROC_DATA
            CODE    D7A8H     0071H     UNIT         ?PR?_LIB_ASC_BCDA?LIB_MYMATH
            CODE    D819H     0071H     UNIT         ?PR?_LIB_BCD_ASCA?LIB_MYMATH
            CODE    D88AH     006EH     UNIT         ?PR?_LIB_ASC_BCD?LIB_MYMATH
            CODE    D8F8H     006DH     UNIT         ?PR?INIT_LCD?DRV_LCD
            CODE    D965H     006CH     UNIT         ?CO?PROC_EXMEM
            CODE    D9D1H     006CH     UNIT         ?PR?INIT_LOADPRO_PARAM?API_LOADPROFILE
            CODE    DA3DH     006CH     UNIT         ?PR?_API_HANDL_COMM_FRAME_ERROR?API_USER_COMM
            CODE    DAA9H     006AH     UNIT         ?PR?API_CLR_CURRENT_ENERGY_DATA?API_ENERGY
            CODE    DB13H     0069H     UNIT         ?PR?_SET_RTCTIME?DRV_RTC
            CODE    DB7CH     0069H     UNIT         ?PR?API_EVEN_EE_ERR?API_EVENT
            CODE    DBE5H     0068H     UNIT         ?PR?LNK_ADD_FAC_ENERGY_PLUSE?API_ENERGY
            CODE    DC4DH     0066H     UNIT         ?PR?INTERRUPT_EXINT3?PROC_SYSTEM_INTERRUPT
            CODE    DCB3H     0066H     UNIT         ?CO?API_LCD_DISPLAY
            CODE    DD19H     0064H     UNIT         ?PR?_IEC_COMM_ACKNOWLEDGEMENT_CMD_JUDGE?IEC62056_21
            CODE    DD7DH     0061H     UNIT         ?CO?PROC_DATA
BL51 BANKED LINKER/LOCATER V6.22                                                      03/11/2019  14:45:04  PAGE 7


            CODE    DDDEH     005FH     UNIT         ?PR?_GET_RTCTIME?DRV_RTC
            CODE    DE3DH     005DH     UNIT         ?PR?_LIB_COPY_STR_TWOARRY?LIB_MYSPRING
            CODE    DE9AH     005DH     UNIT         ?PR?_LIB_MVHALFBYTE_R?LIB_MYSPRING
            CODE    DEF7H     005CH     UNIT         ?PR?API_UPDATE_TRIFFNO_PRE_MINUTE?API_TRIFF
            CODE    DF53H     005AH     UNIT         ?PR?INTERRUPT_TIMER0?PROC_SYSTEM_INTERRUPT
            CODE    DFADH     0057H     UNIT         ?PR?INIT_GPIO_SLEEP?DRV_GPIO
            CODE    E004H     0055H     UNIT         ?PR?PROC_CHECK_COVER_PRE_SEC?PROC_SYSTEM_CHECK
            CODE    E059H     0055H     UNIT         ?PR?SET_MCUSLEEP?DRV_CORE
            CODE    E0AEH     0050H     UNIT         ?PR?PROC_HANDLE_WHEN_SYSTERM_RESET?PROC_SYSTEM_INITIALIZE
            CODE    E0FEH     004FH     UNIT         ?PR?UART4_TRANSMIT?DRV_UART
            CODE    E14DH     004DH     UNIT         ?PR?PROC_DISPLAY_POWER_DOWN_PROCESS?PROC_SYSTEM_INITIALIZE
            CODE    E19AH     004CH     UNIT         ?PR?_LIB_BCD_INC?LIB_MYMATH
            CODE    E1E6H     004CH     UNIT         ?PR?_LIB_GETGMMIN?LIB_MYMATH
            CODE    E232H     004CH     UNIT         ?PR?_LIB_GETGMSEC?LIB_MYMATH
            CODE    E27EH     004BH     UNIT         ?PR?LNK_UPDATA_MD_VAR_POWER_PER_SECOND?API_DEMAND
            CODE    E2C9H     004AH     UNIT         ?PR?_LIB_GETGMHOUR?LIB_MYMATH
            CODE    E313H     0049H     UNIT         ?PR?EN_UART2_RX?DRV_UART
            CODE    E35CH     0049H     UNIT         ?PR?ATOF?ATOF
            CODE    E3A5H     0048H     UNIT         ?PR?PROC_SLEEP_WHEN_RESET?PROC_SYSTEM_INITIALIZE
            CODE    E3EDH     0047H     UNIT         ?PR?_DRV_RELAY_COMM_CMD_OPERATING?API_RELAY
            CODE    E434H     0047H     UNIT         ?PR?API_GET_NEXT_DIS_ITEM?API_LCD_DISPLAY
            CODE    E47BH     0044H     UNIT         ?C?LDIV
            CODE    E4BFH     0043H     UNIT         ?PR?EN_UART4_RX?DRV_UART
            CODE    E502H     0043H     UNIT         ?PR?_LIB_BCD_ARRY_ADD1?LIB_MYMATH
            CODE    E545H     0042H     UNIT         ?PR?LOADPRORST?API_LOADPROFILE
            CODE    E587H     0040H     UNIT         ?CO?DRV_ADC
            CODE    E5C7H     0040H     UNIT         ?PR?RF_COMM_DEAL?API_USER_COMM
            CODE    E607H     003EH     UNIT         ?PR?GET_EMU_ADJPARAM?LNK_EMU_ADJ
            CODE    E645H     003EH     UNIT         ?PR?API_HANDL_DIS_KEY?API_LCD_DISPLAY
            CODE    E683H     003DH     UNIT         ?PR?_GET_METER_ID_ASCLEN?API_USER_COMM
            CODE    E6C0H     003CH     UNIT         ?PR?_ENABLE_M_ADC?DRV_ADC
            CODE    E6FCH     003CH     UNIT         ?PR?SAMLPE_BATADC?DRV_ADC
            CODE    E738H     003BH     UNIT         ?PR?E2P_STOP_I2C?DRV_E2P_I2CSOFT
            CODE    E773H     003BH     UNIT         ?PR?_SETEXTRTC?DRV_RTC
            CODE    E7AEH     003BH     UNIT         ?PR?_LIB_ATOB?LIB_MYMATH
            CODE    E7E9H     003BH     UNIT         ?CO?API_EVENT
            CODE    E824H     003AH     UNIT         ?PR?_LIB_FCPYTMEM?LIB_MYSPRING
            CODE    E85EH     003AH     UNIT         ?PR?API_INIT_MD_DATA_RAM?API_DEMAND
            CODE    E898H     0039H     UNIT         ?PR?SAVE_EMU_ADJPARAM?LNK_EMU_ADJ
            CODE    E8D1H     0038H     UNIT         ?PR?_LIB_ENOB_GET?LIB_MYMATH
            CODE    E909H     0038H     UNIT         ?PR?_API_CHECK_DEMAND_PARA?API_DEMAND
            CODE    E941H     0038H     UNIT         ?PR?_GET_BCC_CHK?IEC62056_21
            CODE    E979H     0037H     UNIT         ?PR?E2P_START_I2C?DRV_E2P_I2CSOFT
            CODE    E9B0H     0036H     UNIT         ?PR?API_MEASURE_VBAT_PRE_MIN?API_MEASURE
            CODE    E9E6H     0034H     UNIT         ?PR?API_INIT_DISPLAY?API_LCD_DISPLAY
            CODE    EA1AH     0032H     UNIT         ?PR?_LIB_MATH_GET_BCC_CHK?LIB_MYMATH
            CODE    EA4CH     0031H     UNIT         ?PR?PROC_INITIALIZE_SYSTERM_RESET?PROC_SYSTEM_INITIALIZE
            CODE    EA7DH     0031H     UNIT         ?PR?SAMLPE_TEMPERATUREADC?DRV_ADC
            CODE    EAAEH     0031H     UNIT         ?PR?_LIB_GET_CSCK_INT16U_NUM?LIB_MYMATH
            CODE    EADFH     002EH     UNIT         ?PR?API_EVEN_DETECT_SEC?API_EVENT
            CODE    EB0DH     002DH     UNIT         ?PR?_IEC_CMD_BREAK_DEAL?API_USER_COMM
            CODE    EB3AH     002CH     UNIT         ?PR?INTERRUPT_EXINT4?PROC_SYSTEM_INTERRUPT
            CODE    EB66H     002CH     UNIT         ?PR?DISABLE_M_ADC?DRV_ADC
            CODE    EB92H     002BH     UNIT         ?PR?_LIB_BTOA?LIB_MYMATH
            CODE    EBBDH     002BH     UNIT         ?PR?_LIB_SET_STRING?LIB_MYSPRING
            CODE    EBE8H     0029H     UNIT         ?PR?_LIB_SYSTEMDELAY?LIB_MYTIMER
            CODE    EC11H     0028H     UNIT         ?PR?API_MEASURE_RAM_INIT?API_MEASURE
BL51 BANKED LINKER/LOCATER V6.22                                                      03/11/2019  14:45:04  PAGE 8


            CODE    EC39H     0028H     UNIT         ?PR?API_HANDL_DIS_SLEEP?API_LCD_DISPLAY
            CODE    EC61H     0027H     UNIT         ?PR?CLOSE_CF?DRV_EMU_HARD
            CODE    EC88H     0027H     UNIT         ?PR?_FULL_SEG?DRV_LCD
            CODE    ECAFH     0027H     UNIT         ?PR?_LIB_GET_CSCK_INT8U_NUM?LIB_MYMATH
            CODE    ECD6H     0027H     UNIT         ?PR?_LIB_BCDCHK?LIB_MYMATH
            CODE    ECFDH     0025H     UNIT         ?PR?PROC_HANDL_TOU_10MS?PROC_SYSTEM_TOU
            CODE    ED22H     0025H     UNIT         ?PR?_LIB_BCD2_WORD?LIB_MYMATH
            CODE    ED47H     0025H     UNIT         ?PR?_JUDAGE_MONTH?API_BILL_RECORD
            CODE    ED6CH     0022H     UNIT         ?PR?_LIB_DELAY_SEC?LIB_MYTIMER
            CODE    ED8EH     0022H     UNIT         ?PR?LINK_GET_DIS_REALCHAR_BUFF?API_LCD_DISPLAY
            CODE    EDB0H     0021H     UNIT         ?PR?_JUDAGE_YEAR?API_BILL_RECORD
            CODE    EDD1H     0021H     UNIT         ?PR?API_EVEN_DETECT_NOL2?API_EVENT
            CODE    EDF2H     0021H     UNIT         ?PR?API_EVEN_DETECT_NOL1?API_EVENT
            CODE    EE13H     001EH     UNIT         ?PR?E2P_IIC_INITAIL?DRV_E2P_I2CSOFT
            CODE    EE31H     001EH     UNIT         ?PR?_LIB_CLR_STRING_U16?LIB_MYSPRING
            CODE    EE4FH     001CH     UNIT         ?PR?CLR_ALL_LCD?DRV_LCD
            CODE    EE6BH     001CH     UNIT         ?PR?_LIB_BYTE_BCD?LIB_MYMATH
            CODE    EE87H     001BH     UNIT         ?PR?CLR_RTC_ADJPARAM?DRV_RTC
            CODE    EEA2H     001BH     UNIT         ?PR?_LIB_BCD_BYTE?LIB_MYMATH
            CODE    EEBDH     001BH     UNIT         ?PR?_LIB_CLR_STRING?LIB_MYSPRING
            CODE    EED8H     001AH     UNIT         ?PR?JUDGE_ERR_ADJ_KEY?DRV_KEY_IO
            CODE    EEF2H     001AH     UNIT         ?PR?JUDGE_PG_DN_KEY?DRV_KEY_IO
            CODE    EF0CH     001AH     UNIT         ?PR?JUDGE_MAGN_CHK_KEY?DRV_KEY_IO
            CODE    EF26H     001AH     UNIT         ?PR?API_MEASURE_TEMPERATURE_PRE_MIN?API_MEASURE
            CODE    EF40H     0019H     UNIT         ?PR?_LIB_DELAY_MS?LIB_MYTIMER
            CODE    EF59H     0018H     UNIT         ?PR?CHECKPOWERUP?PROC_SYSTEM_CHECK
            CODE    EF71H     0018H     UNIT         ?PR?JUDGE_MD_CLEAR_KEY?DRV_KEY_IO
            CODE    EF89H     0018H     UNIT         ?PR?JUDGE_ERR_COVER_KEY?DRV_KEY_IO
            CODE    EFA1H     0018H     UNIT         ?PR?INIT_TIMER?DRV_TMR
            CODE    EFB9H     0017H     UNIT         ?PR?INTERRUPT_UART1?PROC_SYSTEM_INTERRUPT
            CODE    EFD0H     0016H     UNIT         ?PR?EN_UART2_TX?DRV_UART
            CODE    EFE6H     0016H     UNIT         ?PR?EN_UART4_TX?DRV_UART
            CODE    EFFCH     0016H     UNIT         ?PR?_LIB_CHECK_BITNUM?LIB_MYMATH
            CODE    F012H     0014H     UNIT         ?PR?PROC_INIT_CHECK_VAR?PROC_SYSTEM_CHECK
            CODE    F026H     0014H     UNIT         ?PR?OPENCF?DRV_EMU_HARD
            CODE    F03AH     0014H     UNIT         ?PR?_ISSPACE?ISSPACE
            CODE    F04EH     0013H     UNIT         ?PR?SYS_ERR?PROC_SYSTEM_INITIALIZE
            CODE    F061H     0013H     UNIT         ?PR?OPEN_SECOUT?DRV_RTC
            CODE    F074H     000EH     UNIT         ?PR?LCD_ON?DRV_LCD
            CODE    F082H     000DH     UNIT         ?PR?API_EVEN_DETECT_LOWBATTERY?API_EVENT
            CODE    F08FH     000DH     UNIT         ?PR?SECURITYCK?API_USER_COMM
            CODE    F09CH     000BH     UNIT         ?PR?INIT_RTC?DRV_RTC
            CODE    F0A7H     000BH     UNIT         ?PR?_LIB_DELAY_2US?LIB_MYTIMER
            CODE    F0B2H     000AH     UNIT         ?PR?INITLIZE_AUTO_CLRMETER_VAR?PROC_SYSTEM_TOU
            CODE    F0BCH     000AH     UNIT         ?PR?_LIB_DELAY_NOP?LIB_MYTIMER
            CODE    F0C6H     0008H     UNIT         ?PR?DIS_UART2_RX?DRV_UART
            CODE    F0CEH     0008H     UNIT         ?PR?DIS_UART4_RX?DRV_UART
            CODE    F0D6H     0008H     UNIT         ?CO?API_BILL_RECORD
            CODE    F0DEH     0006H     UNIT         ?PR?_INIT_UART2_HARD?DRV_UART
            CODE    F0E4H     0006H     UNIT         ?PR?_INIT_UART4_HARD?DRV_UART
            CODE    F0EAH     0004H     UNIT         ?PR?INTERRUPT_INT1?PROC_SYSTEM_INTERRUPT
            CODE    F0EEH     0004H     UNIT         ?PR?INTERRUPT_TIMER1?PROC_SYSTEM_INTERRUPT
            CODE    F0F2H     0004H     UNIT         ?PR?INTERRUPT_TIMER2?PROC_SYSTEM_INTERRUPT
            CODE    F0F6H     0003H     UNIT         ?PR?PROC_INIT_TOU_VAR?PROC_SYSTEM_TOU
            CODE    F0F9H     0003H     UNIT         ?PR?INIT_EMU_RAM?LNK_EMU_HANDL
            CODE    F0FCH     0003H     UNIT         ?PR?LCD_OFF?DRV_LCD
            CODE    F0FFH     0003H     UNIT         ?PR?LNK_ADD_RAC_ENERGY_PLUSE?API_ENERGY
BL51 BANKED LINKER/LOCATER V6.22                                                      03/11/2019  14:45:04  PAGE 9


            CODE    F102H     0003H     UNIT         ?PR?READLPRUNPA?API_LOADPROFILE
            CODE    F105H     0002H     UNIT         ?PR?API_EVEN_INT?API_EVENT
            CODE    F107H     0001H     UNIT         ?PR?PROC_AUTO_CLRMETER_PRE_SEC?PROC_SYSTEM_TOU
            CODE    F108H     0001H     UNIT         ?PR?CLOSE_EMUPWR?DRV_EMU_HARD
            CODE    F109H     0001H     UNIT         ?PR?HANDL_RTC_ADJ_PER_MINU?DRV_RTC
            CODE    F10AH     0001H     UNIT         ?PR?DRV_RELAY_RUN_CHECK?API_RELAY
            CODE    F10BH     0001H     UNIT         ?PR?API_UPDATED_LED_PER_SECOND?API_LCD_DISPLAY



OVERLAY MAP OF MODULE:   DI03B_9811A_V10 (?C_STARTUP)


SEGMENT                                             BIT_GROUP          DATA_GROUP          XDATA_GROUP
  +--> CALLED SEGMENT                            START    LENGTH     START    LENGTH     START    LENGTH
--------------------------------------------------------------------------------------------------------
?C_C51STARTUP                                    -----    -----      -----    -----      -----    -----
  +--> ?PR?MAIN?MAIN
  +--> ?C_INITSEG

?PR?MAIN?MAIN                                    -----    -----      -----    -----      -----    -----
  +--> ?PR?PROC_INITIALIZE_SYSTERM_RESET?PRO...
  +--> ?PR?CHECKPOWERUP?PROC_SYSTEM_CHECK
  +--> ?PR?PROC_HANDL_TOU_10MS?PROC_SYSTEM_TOU
  +--> ?PR?PROC_JUDGE_POWER_DOWN_PROCESS?PRO...
  +--> ?PR?PROC_HANDL_TOU_1S?PROC_SYSTEM_TOU
  +--> ?PR?API_UPDATED_LCDDISPLAYITEM_PER_SE...
  +--> ?PR?API_CLR_CURRENT_MD_DATA?API_DEMAND
  +--> ?PR?_API_DEAL_EVEN_CLASS_RECODE?API_E...
  +--> ?PR?_FULL_SEG?DRV_LCD

?PR?PROC_INITIALIZE_SYSTERM_RESET?PRO...         -----    -----      -----    -----      -----    -----
  +--> ?PR?PROC_HANDLE_WHEN_SYSTERM_RESET?PR...
  +--> ?PR?CHECKPOWERUP?PROC_SYSTEM_CHECK
  +--> ?PR?_LIB_DELAY_MS?LIB_MYTIMER
  +--> ?PR?PROC_SLEEP_WHEN_RESET?PROC_SYSTEM...
  +--> ?PR?PROC_INITIALIZE_SYSTERM_NORMAL_MO...

?PR?PROC_HANDLE_WHEN_SYSTERM_RESET?PR...         -----    -----      -----    -----      -----    -----
  +--> ?PR?_SET_MCUCLOCK?DRV_CORE
  +--> ?PR?INIT_GPIO_SLEEP?DRV_GPIO
  +--> ?PR?E2P_IIC_INITAIL?DRV_E2P_I2CSOFT
  +--> ?PR?E2P_STOP_I2C?DRV_E2P_I2CSOFT

?PR?_SET_MCUCLOCK?DRV_CORE                       -----    -----      -----    -----      0007H    0005H
  +--> ?PR?SYS_ERR?PROC_SYSTEM_INITIALIZE

?PR?PROC_SLEEP_WHEN_RESET?PROC_SYSTEM...         -----    -----      -----    -----      0000H    0002H
  +--> ?PR?API_MEASURE_RAM_INIT?API_MEASURE
  +--> ?PR?API_INIT_CURRENT_ENERGY_DATA_RAM?...
  +--> ?PR?INIT_LCD?DRV_LCD
  +--> ?PR?API_HANDL_DIS_SLEEP?API_LCD_DISPLAY
  +--> ?PR?INIT_GPIO_SLEEP?DRV_GPIO
  +--> ?PR?_SETEXTRTC?DRV_RTC
  +--> ?PR?SET_MCUSLEEP?DRV_CORE
  +--> ?PR?SYS_ERR?PROC_SYSTEM_INITIALIZE

BL51 BANKED LINKER/LOCATER V6.22                                                      03/11/2019  14:45:04  PAGE 10


?PR?API_MEASURE_RAM_INIT?API_MEASURE             -----    -----      -----    -----      -----    -----
  +--> ?PR?_LIB_SET_STRING?LIB_MYSPRING

?PR?_LIB_SET_STRING?LIB_MYSPRING                 -----    -----      -----    -----      0177H    0006H

?PR?API_INIT_CURRENT_ENERGY_DATA_RAM?...         -----    -----      -----    -----      000DH    000CH
  +--> ?PR?_LIB_SET_STRING?LIB_MYSPRING
  +--> ?PR?API_CHECK_CURRENT_ENERGY_DATA?API...
  +--> ?PR?_MEM_READ?PROC_EXMEM
  +--> ?PR?_LIB_BCD_BYTE?LIB_MYMATH
  +--> ?PR?_JUDAGE_MONTH?API_BILL_RECORD
  +--> ?PR?_API_WRITE_BILL_DATA?API_BILL_RECORD
  +--> ?PR?API_CLR_CURRENT_MD_DATA?API_DEMAND

?PR?API_CHECK_CURRENT_ENERGY_DATA?API...         -----    -----      -----    -----      -----    -----
  +--> ?PR?_LIB_GET_CSCK_INT16U_NUM?LIB_MYMATH
  +--> ?PR?_MEM_READ?PROC_EXMEM
  +--> ?PR?_LIB_COPY_STR_TWOARRY?LIB_MYSPRING

?PR?_LIB_GET_CSCK_INT16U_NUM?LIB_MYMATH          -----    -----      -----    -----      01D1H    0007H

?PR?_MEM_READ?PROC_EXMEM                         -----    -----      -----    -----      01D1H    000BH
  +--> ?PR?_LIB_COPY_STR_TWOARRY?LIB_MYSPRING
  +--> ?PR?_READ_EEPROM?DRV_E2P_24CXXX
  +--> ?PR?SYS_ERR?PROC_SYSTEM_INITIALIZE

?PR?_LIB_COPY_STR_TWOARRY?LIB_MYSPRING           -----    -----      -----    -----      01DCH    0008H

?PR?_READ_EEPROM?DRV_E2P_24CXXX                  -----    -----      -----    -----      01DCH    0008H
  +--> ?PR?_READ_EEPROM_PAGE?DRV_E2P_24CXXX

?PR?_READ_EEPROM_PAGE?DRV_E2P_24CXXX             -----    -----      -----    -----      01E4H    0047H
  +--> ?PR?_READ_EEPROM_PAGE_SUB?DRV_E2P_24CXXX
  +--> ?PR?_LIB_CMP_TWOARRY?LIB_MYSPRING

?PR?_READ_EEPROM_PAGE_SUB?DRV_E2P_24CXXX         -----    -----      -----    -----      022BH    0009H
  +--> ?PR?E2P_STOP_I2C?DRV_E2P_I2CSOFT
  +--> ?PR?E2P_START_I2C?DRV_E2P_I2CSOFT
  +--> ?PR?_E2P_TXBYTE_I2C?DRV_E2P_I2CSOFT
  +--> ?PR?_E2P_RXBYTE_I2C?DRV_E2P_I2CSOFT

?PR?_E2P_TXBYTE_I2C?DRV_E2P_I2CSOFT              -----    -----      0008H    0001H      -----    -----
  +--> ?PR?E2P_STOP_I2C?DRV_E2P_I2CSOFT

?PR?_E2P_RXBYTE_I2C?DRV_E2P_I2CSOFT              -----    -----      0008H    0002H      -----    -----

?PR?_LIB_CMP_TWOARRY?LIB_MYSPRING                -----    -----      -----    -----      022BH    0007H

?PR?_JUDAGE_MONTH?API_BILL_RECORD                -----    -----      -----    -----      -----    -----
  +--> ?PR?_JUDAGE_YEAR?API_BILL_RECORD

?PR?_API_WRITE_BILL_DATA?API_BILL_RECORD         -----    -----      -----    -----      0019H    0073H
  +--> ?PR?_LIB_CLR_STRING?LIB_MYSPRING
  +--> ?CO?API_BILL_RECORD
  +--> ?PR?_MEM_READ?PROC_EXMEM
  +--> ?PR?_MEM_DB_WRITE?PROC_EXMEM
  +--> ?PR?_LIB_COPY_STR_TWOARRY?LIB_MYSPRING
BL51 BANKED LINKER/LOCATER V6.22                                                      03/11/2019  14:45:04  PAGE 11


  +--> ?PR?SYS_ERR?PROC_SYSTEM_INITIALIZE

?PR?_MEM_DB_WRITE?PROC_EXMEM                     -----    -----      -----    -----      0177H    0012H
  +--> ?PR?_GET_MEM_TABLE_INDEX?PROC_EXMEM
  +--> ?PR?SYS_ERR?PROC_SYSTEM_INITIALIZE
  +--> ?CO?PROC_EXMEM
  +--> ?PR?_MEM_WRITE?PROC_EXMEM
  +--> ?PR?_GET_MEM_CK_DATA?PROC_EXMEM

?PR?_GET_MEM_TABLE_INDEX?PROC_EXMEM              -----    -----      -----    -----      0189H    0004H
  +--> ?CO?PROC_EXMEM

?PR?_MEM_WRITE?PROC_EXMEM                        -----    -----      -----    -----      0189H    0008H
  +--> ?PR?_LIB_COPY_STR_TWOARRY?LIB_MYSPRING
  +--> ?PR?_WRITE_EEPROM?DRV_E2P_24CXXX
  +--> ?PR?SYS_ERR?PROC_SYSTEM_INITIALIZE

?PR?_WRITE_EEPROM?DRV_E2P_24CXXX                 -----    -----      -----    -----      0191H    0008H
  +--> ?PR?_WRITE_EEPROM_PAGE?DRV_E2P_24CXXX

?PR?_WRITE_EEPROM_PAGE?DRV_E2P_24CXXX            -----    -----      -----    -----      0199H    0047H
  +--> ?PR?SYS_ERR?PROC_SYSTEM_INITIALIZE
  +--> ?PR?_WRITE_EEPROM_PAGE_SUB?DRV_E2P_24...
  +--> ?PR?_READ_EEPROM_PAGE_SUB?DRV_E2P_24CXXX
  +--> ?PR?_LIB_CMP_TWOARRY?LIB_MYSPRING

?PR?_WRITE_EEPROM_PAGE_SUB?DRV_E2P_24...         -----    -----      -----    -----      01E0H    0009H
  +--> ?PR?E2P_STOP_I2C?DRV_E2P_I2CSOFT
  +--> ?PR?E2P_START_I2C?DRV_E2P_I2CSOFT
  +--> ?PR?_E2P_TXBYTE_I2C?DRV_E2P_I2CSOFT
  +--> ?PR?_LIB_DELAY_MS?LIB_MYTIMER

?PR?_GET_MEM_CK_DATA?PROC_EXMEM                  -----    -----      -----    -----      0189H    0048H
  +--> ?PR?_MEM_READ?PROC_EXMEM
  +--> ?PR?_LIB_GET_CSCK_INT16U_NUM?LIB_MYMATH

?PR?API_CLR_CURRENT_MD_DATA?API_DEMAND           -----    -----      -----    -----      0093H    0038H
  +--> ?PR?_MEM_READ?PROC_EXMEM
  +--> ?PR?_MEM_WRITE?PROC_EXMEM
  +--> ?PR?_LIB_CLR_STRING?LIB_MYSPRING
  +--> ?PR?_MEM_DB_WRITE?PROC_EXMEM
  +--> ?PR?_LIB_SET_STRING?LIB_MYSPRING

?PR?INIT_LCD?DRV_LCD                             -----    -----      -----    -----      -----    -----
  +--> ?PR?LCD_ON?DRV_LCD

?PR?API_HANDL_DIS_SLEEP?API_LCD_DISPLAY          -----    -----      -----    -----      -----    -----
  +--> ?PR?_MEM_READ?PROC_EXMEM
  +--> ?PR?API_UPDATED_LCDDISPLAYPIXEL_PER_S...

?PR?API_UPDATED_LCDDISPLAYPIXEL_PER_S...         -----    -----      -----    -----      -----    -----
  +--> ?PR?_LIB_SET_STRING?LIB_MYSPRING
  +--> ?PR?_API_LCDDISPLAY_ADJ_ITEM?API_LCD_...
  +--> ?PR?LINK_GET_DIS_DATA_NUM_BUFF?API_LC...
  +--> ?PR?LINK_GET_DIS_CHAR_BUFF?API_LCD_DI...
  +--> ?PR?LINK_GET_DIS_REALCHAR_BUFF?API_LC...
  +--> ?PR?LINK_GET_DIS_DRV_BUFF?API_LCD_DIS...
BL51 BANKED LINKER/LOCATER V6.22                                                      03/11/2019  14:45:04  PAGE 12


  +--> ?PR?_LINK_GET_DISTAB_VAR?API_LCD_DISPLAY
  +--> ?PR?_WRITE_LCD?DRV_LCD

?PR?_API_LCDDISPLAY_ADJ_ITEM?API_LCD_...         -----    -----      -----    -----      0007H    0007H
  +--> ?PR?_LIB_SET_STRING?LIB_MYSPRING
  +--> ?CO?API_LCD_DISPLAY
  +--> ?PR?_MEM_READ?PROC_EXMEM
  +--> ?PR?SYS_ERR?PROC_SYSTEM_INITIALIZE

?PR?LINK_GET_DIS_DATA_NUM_BUFF?API_LC...         -----    -----      -----    -----      0007H    001AH
  +--> ?PR?_GET_RTCTIME?DRV_RTC
  +--> ?CO?API_LCD_DISPLAY
  +--> ?PR?_MEM_READ?PROC_EXMEM
  +--> ?PR?_API_GET_ENERGY_LCD?API_LCD_DISPLAY
  +--> ?PR?_LIB_LONG_BCD4?LIB_MYMATH

?PR?_GET_RTCTIME?DRV_RTC                         -----    -----      -----    -----      0021H    0004H
  +--> ?PR?_LIB_DELAY_2US?LIB_MYTIMER

?PR?_API_GET_ENERGY_LCD?API_LCD_DISPLAY          -----    -----      -----    -----      00E6H    0015H
  +--> ?PR?_LIB_COPY_STR_TWOARRY?LIB_MYSPRING
  +--> ?PR?_LIB_LONG_BCD4?LIB_MYMATH
  +--> ?PR?_LIB_BYTE_BCD?LIB_MYMATH

?PR?_LIB_LONG_BCD4?LIB_MYMATH                    -----    -----      -----    -----      00FBH    0007H
  +--> ?PR?_LIB_WORD_BCD2?LIB_MYMATH

?PR?_LIB_WORD_BCD2?LIB_MYMATH                    -----    -----      -----    -----      0102H    0005H
  +--> ?PR?_LIB_BYTE_BCD?LIB_MYMATH

?PR?_LINK_GET_DISTAB_VAR?API_LCD_DISPLAY         -----    -----      -----    -----      -----    -----
  +--> ?CO?API_LCD_DISPLAY

?PR?_SETEXTRTC?DRV_RTC                           -----    -----      -----    -----      0007H    0002H
  +--> ?PR?_LIB_DELAY_2US?LIB_MYTIMER

?PR?SET_MCUSLEEP?DRV_CORE                        -----    -----      -----    -----      0007H    0001H
  +--> ?PR?SYS_ERR?PROC_SYSTEM_INITIALIZE
  +--> ?PR?_LIB_DELAY_2US?LIB_MYTIMER

?PR?PROC_INITIALIZE_SYSTERM_NORMAL_MO...         -----    -----      -----    -----      -----    -----
  +--> ?PR?_SET_MCUCLOCK?DRV_CORE
  +--> ?PR?INIT_GPIO_RUN?DRV_GPIO
  +--> ?PR?INIT_LCD?DRV_LCD
  +--> ?PR?_FULL_SEG?DRV_LCD
  +--> ?PR?PROC_INITIALIZE_INRAM?PROC_SYSTEM...
  +--> ?PR?INIT_TIMER?DRV_TMR
  +--> ?PR?_API_HANDL_COMM_FRAME_ERROR?API_U...
  +--> ?PR?INIT_RTC?DRV_RTC
  +--> ?PR?_INIT_EMU?LNK_EMU_HANDL
  +--> ?PR?CHECK_EMU_ADJPARAM?LNK_EMU_ADJ
  +--> ?PR?_LIB_SET_STRING?LIB_MYSPRING
  +--> ?PR?_API_DEAL_EVEN_CLASS_RECODE?API_E...

?PR?PROC_INITIALIZE_INRAM?PROC_SYSTEM...         -----    -----      -----    -----      0000H    000DH
  +--> ?PR?_MEM_READ?PROC_EXMEM
  +--> ?PR?API_FREEZE_ENERGY_PRE_DAY?API_BIL...
BL51 BANKED LINKER/LOCATER V6.22                                                      03/11/2019  14:45:04  PAGE 13


  +--> ?PR?_MEM_FILL?PROC_EXMEM
  +--> ?PR?_MEM_DB_CLR?PROC_EXMEM
  +--> ?PR?MEM_DB_CHECK?PROC_EXMEM
  +--> ?PR?PROC_SYS_DATA_INIT?PROC_DATA
  +--> ?PR?PROC_INIT_CHECK_VAR?PROC_SYSTEM_C...
  +--> ?PR?INIT_EMU_RAM?LNK_EMU_HANDL
  +--> ?PR?PROC_INIT_TOU_VAR?PROC_SYSTEM_TOU
  +--> ?PR?INIT_LOADPRO_PARAM?API_LOADPROFILE
  +--> ?PR?API_INIT_MD_DATA_RAM?API_DEMAND
  +--> ?PR?API_INIT_CURRENT_ENERGY_DATA_RAM?...
  +--> ?PR?API_MEASURE_RAM_INIT?API_MEASURE
  +--> ?PR?API_MEASURE_VBAT_PRE_MIN?API_MEASURE
  +--> ?PR?API_MEASURE_TEMPERATURE_PRE_MIN?A...
  +--> ?PR?API_UPDATE_TRIFFNO_PRE_MINUTE?API...
  +--> ?PR?_API_WRITE_BILL_DATA?API_BILL_RECORD
  +--> ?PR?API_CLR_CURRENT_MD_DATA?API_DEMAND
  +--> ?PR?API_INIT_DISPLAY?API_LCD_DISPLAY

?PR?API_FREEZE_ENERGY_PRE_DAY?API_BIL...         -----    -----      -----    -----      -----    -----
  +--> ?PR?_MEM_WRITE?PROC_EXMEM
  +--> ?PR?_API_WRITE_BILL_DATA?API_BILL_RECORD
  +--> ?PR?API_CLR_CURRENT_MD_DATA?API_DEMAND

?PR?_MEM_FILL?PROC_EXMEM                         -----    -----      -----    -----      007AH    0047H
  +--> ?PR?_LIB_SET_STRING?LIB_MYSPRING
  +--> ?PR?_MEM_WRITE?PROC_EXMEM

?PR?_MEM_DB_CLR?PROC_EXMEM                       -----    -----      -----    -----      0093H    0007H
  +--> ?CO?PROC_EXMEM
  +--> ?PR?_MEM_WRITE?PROC_EXMEM

?PR?MEM_DB_CHECK?PROC_EXMEM                      -----    -----      -----    -----      000DH    000DH
  +--> ?CO?PROC_EXMEM
  +--> ?PR?_GET_MEM_CK_DATA?PROC_EXMEM
  +--> ?PR?_MEM_READ?PROC_EXMEM
  +--> ?PR?_MEM_TO_MEM?PROC_EXMEM
  +--> ?PR?_GET_DEFAULT_MEM_DATA?PROC_EXMEM
  +--> ?PR?_MEM_WRITE?PROC_EXMEM
  +--> ?PR?SYS_ERR?PROC_SYSTEM_INITIALIZE

?PR?_MEM_TO_MEM?PROC_EXMEM                       -----    -----      -----    -----      001AH    0048H
  +--> ?PR?_MEM_READ?PROC_EXMEM
  +--> ?PR?_MEM_WRITE?PROC_EXMEM

?PR?_GET_DEFAULT_MEM_DATA?PROC_EXMEM             -----    -----      -----    -----      001AH    0004H
  +--> ?CO?PROC_EXMEM
  +--> ?CO?PROC_DATA
  +--> ?CO?API_LCD_DISPLAY
  +--> ?CO?LNK_EMU_ADJ
  +--> ?CO?API_TRIFF
  +--> ?PR?_MEM_WRITE?PROC_EXMEM
  +--> ?PR?_MEM_FILL?PROC_EXMEM

?PR?PROC_SYS_DATA_INIT?PROC_DATA                 -----    -----      -----    -----      -----    -----
  +--> ?PR?_MEM_READ?PROC_EXMEM

?PR?PROC_INIT_CHECK_VAR?PROC_SYSTEM_C...         -----    -----      -----    -----      -----    -----
BL51 BANKED LINKER/LOCATER V6.22                                                      03/11/2019  14:45:04  PAGE 14


  +--> ?PR?_LIB_SET_STRING?LIB_MYSPRING

?PR?INIT_EMU_RAM?LNK_EMU_HANDL                   -----    -----      -----    -----      -----    -----
  +--> ?PR?GET_EMU_ADJPARAM?LNK_EMU_ADJ

?PR?GET_EMU_ADJPARAM?LNK_EMU_ADJ                 -----    -----      -----    -----      -----    -----
  +--> ?PR?_LIB_GET_CSCK_INT16U_NUM?LIB_MYMATH
  +--> ?PR?_MEM_READ?PROC_EXMEM

?PR?PROC_INIT_TOU_VAR?PROC_SYSTEM_TOU            -----    -----      -----    -----      -----    -----
  +--> ?PR?PROC_GET_CLOCK?PROC_SYSTEM_TOU

?PR?PROC_GET_CLOCK?PROC_SYSTEM_TOU               -----    -----      -----    -----      000DH    0007H
  +--> ?PR?_GET_RTCTIME?DRV_RTC
  +--> ?PR?_LIB_CHECK_RTC_DATA_FORM?LIB_MYMATH
  +--> ?PR?_MEM_READ?PROC_EXMEM
  +--> ?PR?_MEM_DB_WRITE?PROC_EXMEM
  +--> ?PR?_SET_RTCTIME?DRV_RTC
  +--> ?PR?_LIB_COPY_STR_TWOARRY?LIB_MYSPRING

?PR?_LIB_CHECK_RTC_DATA_FORM?LIB_MYMATH          -----    -----      -----    -----      -----    -----
  +--> ?PR?_LIB_BCD_BYTE?LIB_MYMATH
  +--> ?PR?_LIB_BYTE_BCD?LIB_MYMATH

?PR?_SET_RTCTIME?DRV_RTC                         -----    -----      -----    -----      0093H    0003H
  +--> ?PR?_LIB_DELAY_2US?LIB_MYTIMER

?PR?INIT_LOADPRO_PARAM?API_LOADPROFILE           -----    -----      -----    -----      -----    -----
  +--> ?PR?_MEM_READ?PROC_EXMEM

?PR?API_INIT_MD_DATA_RAM?API_DEMAND              -----    -----      -----    -----      -----    -----
  +--> ?PR?_MEM_READ?PROC_EXMEM
  +--> ?PR?_API_CHECK_DEMAND_PARA?API_DEMAND
  +--> ?PR?_LIB_SET_STRING?LIB_MYSPRING

?PR?API_MEASURE_VBAT_PRE_MIN?API_MEASURE         -----    -----      -----    -----      -----    -----
  +--> ?PR?SAMLPE_BATADC?DRV_ADC

?PR?SAMLPE_BATADC?DRV_ADC                        -----    -----      -----    -----      -----    -----
  +--> ?PR?_ENABLE_M_ADC?DRV_ADC
  +--> ?PR?_LIB_DELAY_MS?LIB_MYTIMER
  +--> ?PR?_READMETERPARAACK?DRV_EMU_HARD

?PR?_ENABLE_M_ADC?DRV_ADC                        -----    -----      -----    -----      -----    -----
  +--> ?PR?_READMETERPARAACK?DRV_EMU_HARD
  +--> ?PR?_SETMETERCFGACK?DRV_EMU_HARD

?PR?_READMETERPARAACK?DRV_EMU_HARD               -----    -----      0008H    0001H      00C6H    0008H

?PR?_SETMETERCFGACK?DRV_EMU_HARD                 -----    -----      -----    -----      00C6H    0006H

?PR?API_MEASURE_TEMPERATURE_PRE_MIN?A...         -----    -----      -----    -----      -----    -----
  +--> ?PR?_ENABLE_M_ADC?DRV_ADC
  +--> ?PR?_LIB_DELAY_MS?LIB_MYTIMER
  +--> ?PR?SAMLPE_TEMPERATUREADC?DRV_ADC
  +--> ?PR?DISABLE_M_ADC?DRV_ADC

BL51 BANKED LINKER/LOCATER V6.22                                                      03/11/2019  14:45:04  PAGE 15


?PR?SAMLPE_TEMPERATUREADC?DRV_ADC                -----    -----      -----    -----      000DH    0004H
  +--> ?PR?_ENABLE_M_ADC?DRV_ADC
  +--> ?PR?_LIB_DELAY_MS?LIB_MYTIMER
  +--> ?PR?CAL_TEMPERATURE_DATA?DRV_ADC

?PR?CAL_TEMPERATURE_DATA?DRV_ADC                 -----    -----      -----    -----      0011H    0027H
  +--> ?PR?_LIB_FCPYTMEM?LIB_MYSPRING
  +--> ?PR?_LIB_GET_CSCK_INT8U_NUM?LIB_MYMATH
  +--> ?PR?_LIB_REV_COPY_ARRY?LIB_MYSPRING
  +--> ?PR?_READMETERPARAACK?DRV_EMU_HARD
  +--> ?CO?DRV_ADC
  +--> ?PR?SQRT?SQRT

?PR?_LIB_FCPYTMEM?LIB_MYSPRING                   -----    -----      -----    -----      0038H    0004H

?PR?_LIB_GET_CSCK_INT8U_NUM?LIB_MYMATH           -----    -----      -----    -----      0038H    0006H

?PR?_LIB_REV_COPY_ARRY?LIB_MYSPRING              -----    -----      -----    -----      0038H    0006H

?PR?SQRT?SQRT                                    -----    -----      -----    -----      0038H    0004H

?PR?DISABLE_M_ADC?DRV_ADC                        -----    -----      -----    -----      -----    -----
  +--> ?PR?_READMETERPARAACK?DRV_EMU_HARD
  +--> ?PR?_SETMETERCFGACK?DRV_EMU_HARD

?PR?API_UPDATE_TRIFFNO_PRE_MINUTE?API...         -----    -----      -----    -----      0093H    0001H
  +--> ?PR?API_GET_SEASONTAB_NO?API_TRIFF
  +--> ?PR?_API_GET_DAYTAB_NO?API_TRIFF
  +--> ?PR?_API_GET_TRIFF_NO?API_TRIFF

?PR?API_GET_SEASONTAB_NO?API_TRIFF               -----    -----      -----    -----      0094H    0018H
  +--> ?PR?_MEM_READ?PROC_EXMEM

?PR?_API_GET_DAYTAB_NO?API_TRIFF                 -----    -----      -----    -----      0094H    0008H
  +--> ?PR?_MEM_READ?PROC_EXMEM
  +--> ?PR?SYS_ERR?PROC_SYSTEM_INITIALIZE

?PR?_API_GET_TRIFF_NO?API_TRIFF                  -----    -----      -----    -----      0094H    001BH
  +--> ?PR?_MEM_READ?PROC_EXMEM
  +--> ?PR?_LIB_BCDCHK?LIB_MYMATH

?PR?API_INIT_DISPLAY?API_LCD_DISPLAY             -----    -----      -----    -----      -----    -----
  +--> ?PR?_MEM_READ?PROC_EXMEM

?PR?INIT_TIMER?DRV_TMR                           -----    -----      -----    -----      -----    -----
  +--> ?PR?START_TIMER?DRV_TMR

?PR?_API_HANDL_COMM_FRAME_ERROR?API_U...         -----    -----      -----    -----      0036H    0001H
  +--> ?PR?_LIB_CLR_STRING?LIB_MYSPRING
  +--> ?PR?_INIT_UART4_HARD?DRV_UART
  +--> ?PR?_INIT_UART_SOFT?DRV_UART
  +--> ?PR?_LIB_SET_STRING?LIB_MYSPRING

?PR?_INIT_UART4_HARD?DRV_UART                    -----    -----      -----    -----      -----    -----
  +--> ?PR?_SET_UART4_BADU?DRV_UART
  +--> ?PR?EN_UART4_RX?DRV_UART

BL51 BANKED LINKER/LOCATER V6.22                                                      03/11/2019  14:45:04  PAGE 16


?PR?_INIT_EMU?LNK_EMU_HANDL                      -----    -----      -----    -----      0000H    0001H
  +--> ?PR?_SETMETERCFGACK?DRV_EMU_HARD
  +--> ?PR?_SET_EMUCLOCK?DRV_CORE
  +--> ?PR?SYS_ERR?PROC_SYSTEM_INITIALIZE

?PR?_SET_EMUCLOCK?DRV_CORE                       -----    -----      -----    -----      0001H    0005H
  +--> ?PR?SYS_ERR?PROC_SYSTEM_INITIALIZE

?PR?CHECK_EMU_ADJPARAM?LNK_EMU_ADJ               -----    -----      -----    -----      00B1H    0015H
  +--> ?PR?GET_EMU_ADJPARAM?LNK_EMU_ADJ
  +--> ?PR?_MEM_READ?PROC_EXMEM
  +--> ?PR?_SETMETERCFGACK?DRV_EMU_HARD
  +--> ?CO?LNK_EMU_ADJ
  +--> ?PR?_READMETERPARAACK?DRV_EMU_HARD

?PR?_API_DEAL_EVEN_CLASS_RECODE?API_E...         -----    -----      -----    -----      0093H    0005H
  +--> ?CO?API_EVENT
  +--> ?PR?_LNK_SAVE_EVEN_CLASS1_RECODE?API_...

?PR?_LNK_SAVE_EVEN_CLASS1_RECODE?API_...         -----    -----      -----    -----      0098H    00DFH
  +--> ?PR?_MEM_READ?PROC_EXMEM
  +--> ?PR?_LIB_COPY_STR_TWOARRY?LIB_MYSPRING
  +--> ?PR?_LIB_GET_CSCK_INT16U_NUM?LIB_MYMATH
  +--> ?CO?API_EVENT
  +--> ?PR?_MEM_DB_WRITE?PROC_EXMEM
  +--> ?PR?_LIB_SET_STRING?LIB_MYSPRING
  +--> ?PR?_GETTOTALTIME?API_EVENT
  +--> ?PR?_MEM_WRITE?PROC_EXMEM

?PR?_GETTOTALTIME?API_EVENT                      -----    -----      -----    -----      0177H    000BH
  +--> ?PR?_LIB_GETGMSEC?LIB_MYMATH
  +--> ?PR?_LIB_COPY_STR_TWOARRY?LIB_MYSPRING

?PR?_LIB_GETGMSEC?LIB_MYMATH                     -----    -----      -----    -----      0182H    0003H
  +--> ?PR?_LIB_GETGMMIN?LIB_MYMATH
  +--> ?PR?_LIB_BCD_BYTE?LIB_MYMATH

?PR?_LIB_GETGMMIN?LIB_MYMATH                     -----    -----      -----    -----      0185H    0003H
  +--> ?PR?_LIB_GETGMHOUR?LIB_MYMATH
  +--> ?PR?_LIB_BCD_BYTE?LIB_MYMATH

?PR?_LIB_GETGMHOUR?LIB_MYMATH                    -----    -----      -----    -----      0188H    0003H
  +--> ?PR?_LIB_GETGMDAY?LIB_MYMATH
  +--> ?PR?_LIB_BCD_BYTE?LIB_MYMATH

?PR?_LIB_GETGMDAY?LIB_MYMATH                     -----    -----      -----    -----      018BH    0004H
  +--> ?PR?_LIB_BCD_BYTE?LIB_MYMATH

?PR?PROC_HANDL_TOU_10MS?PROC_SYSTEM_TOU          -----    -----      -----    -----      0000H    0001H
  +--> ?PR?_HDL_UART_10MS_RUN?DRV_UART
  +--> ?PR?_API_HANDL_COMM_PRE_10MS?API_USER...
  +--> ?PR?API_HANDL_BUTTON_PRE_10MS?PROC_SY...

?PR?_HDL_UART_10MS_RUN?DRV_UART                  -----    -----      -----    -----      -----    -----
  +--> ?PR?EN_UART4_RX?DRV_UART
  +--> ?PR?_INIT_UART_SOFT?DRV_UART

BL51 BANKED LINKER/LOCATER V6.22                                                      03/11/2019  14:45:04  PAGE 17


?PR?_API_HANDL_COMM_PRE_10MS?API_USER...         -----    -----      -----    -----      0001H    0001H
  +--> ?PR?_PROCESS_IEC62056_21?API_USER_COMM
  +--> ?PR?_API_HANDL_COMM_FRAME_ERROR?API_U...
  +--> ?PR?_LNK_TX_COMM_READY?API_USER_COMM
  +--> ?PR?API_CLR_CURRENT_ENERGY_DATA?API_E...
  +--> ?PR?API_CLR_CURRENT_MD_DATA?API_DEMAND
  +--> ?PR?API_CLR_BILL_DATA?API_BILL_RECORD
  +--> ?PR?LOADPRORST?API_LOADPROFILE
  +--> ?PR?API_CLR_EVEN_BY_COMM?API_EVENT
  +--> ?PR?API_CLR_FREEZE_ENERGY?API_DEMAND
  +--> ?PR?_API_CHG_LCDDISPLAY_ADJ_ITEM?API_...

?PR?_PROCESS_IEC62056_21?API_USER_COMM           -----    -----      -----    -----      0002H    0034H
  +--> ?PR?_GET_UART_RX_BUFF?DRV_UART
  +--> ?PR?_MEM_READ?PROC_EXMEM
  +--> ?PR?_GET_METER_ID_ASCLEN?API_USER_COMM
  +--> ?PR?_LIB_BCD_ASCA?LIB_MYMATH
  +--> ?PR?_IEC_COMM_REQUEST_CMD_JUDGE?IEC62...
  +--> ?PR?_GET_IEC_COMM_REQUEST_CMD_ANSWER?...
  +--> ?PR?_IEC_COMM_ACKNOWLEDGEMENT_CMD_JUD...
  +--> ?PR?_GET_IEC_COMM_OPERAND_ANSWER?IEC6...
  +--> ?PR?_IEC_COMM_COMMAND_CMD_JUDGE?IEC62...
  +--> ?PR?_GET_ERROR_ANSWER?IEC62056_21
  +--> ?PR?_API_HANDL_COMM_FRAME_ERROR?API_U...

?PR?_GET_UART_RX_BUFF?DRV_UART                   -----    -----      -----    -----      0036H    0004H
  +--> ?PR?DIS_UART4_RX?DRV_UART

?PR?_GET_METER_ID_ASCLEN?API_USER_COMM           -----    -----      -----    -----      00E6H    0003H

?PR?_LIB_BCD_ASCA?LIB_MYMATH                     -----    -----      -----    -----      01C9H    000AH
  +--> ?PR?_LIB_BTOA?LIB_MYMATH

?PR?_IEC_COMM_REQUEST_CMD_JUDGE?IEC62...         -----    -----      -----    -----      0036H    0008H

?PR?_GET_IEC_COMM_REQUEST_CMD_ANSWER?...         -----    -----      -----    -----      0036H    0007H

?PR?_GET_IEC_COMM_OPERAND_ANSWER?IEC6...         -----    -----      -----    -----      0036H    0007H
  +--> ?PR?_GET_BCC_CHK?IEC62056_21

?PR?_GET_BCC_CHK?IEC62056_21                     -----    -----      -----    -----      00E6H    0005H

?PR?_IEC_COMM_COMMAND_CMD_JUDGE?IEC62...         -----    -----      -----    -----      0036H    000DH
  +--> ?PR?_GET_BCC_CHK?IEC62056_21
  +--> ?PR?_IEC_CMD_PASSWORD_DEAL?API_USER_COMM
  +--> ?PR?_IEC_CMD_READ_DEAL?API_USER_COMM
  +--> ?PR?_IEC_CMD_WRITE_DEAL?API_USER_COMM

?PR?_IEC_CMD_PASSWORD_DEAL?API_USER_COMM         -----    -----      -----    -----      0043H    000FH
  +--> ?PR?_MEM_READ?PROC_EXMEM
  +--> ?PR?_LIB_BCD_ASCA?LIB_MYMATH
  +--> ?PR?_LIB_CMP_TWOARRY?LIB_MYSPRING
  +--> ?PR?_GET_ACK_ANSWER?IEC62056_21
  +--> ?PR?_API_DEAL_EVEN_CLASS_RECODE?API_E...

?PR?_IEC_CMD_READ_DEAL?API_USER_COMM             -----    -----      -----    -----      0043H    00A3H
  +--> ?PR?_LIB_ASC_BCDA?LIB_MYMATH
BL51 BANKED LINKER/LOCATER V6.22                                                      03/11/2019  14:45:04  PAGE 18


  +--> ?PR?_GET_IEC_COMM_VAR?API_USER_COMM
  +--> ?PR?_LIB_SET_STRING?LIB_MYSPRING
  +--> ?PR?_LPREC_READ_1?API_LOADPROFILE
  +--> ?PR?_LPREC_READ_BLOCK?API_LOADPROFILE
  +--> ?PR?_GET_BCC_CHK?IEC62056_21
  +--> ?PR?_LIB_LONG_BCD4?LIB_MYMATH
  +--> ?PR?_LIB_WORD_BCD2?LIB_MYMATH
  +--> ?PR?_LIB_COPY_STR_TWOARRY?LIB_MYSPRING
  +--> ?PR?_MEM_READ?PROC_EXMEM
  +--> ?PR?_GET_METER_ID_ASCLEN?API_USER_COMM
  +--> ?PR?_API_GET_ENERGY_LCD?API_LCD_DISPLAY
  +--> ?PR?_LIB_BCD_ASCA?LIB_MYMATH
  +--> ?PR?_API_GET_BILL_RECORD_ADDR?API_BIL...
  +--> ?PR?_LIB_BTOA?LIB_MYMATH

?PR?_LIB_ASC_BCDA?LIB_MYMATH                     -----    -----      -----    -----      00E6H    000AH
  +--> ?PR?_LIB_ATOB?LIB_MYMATH

?PR?_GET_IEC_COMM_VAR?API_USER_COMM              -----    -----      -----    -----      00E6H    0006H
  +--> ?CO?API_USER_COMM

?CO?API_USER_COMM                                -----    -----      -----    -----      -----    -----
  +--> ?CO?PROC_DATA

?PR?_LPREC_READ_1?API_LOADPROFILE                -----    -----      -----    -----      00E6H    001AH
  +--> ?PR?_MEM_READ?PROC_EXMEM
  +--> ?PR?_LIB_BCD_ASCA?LIB_MYMATH

?PR?_LPREC_READ_BLOCK?API_LOADPROFILE            -----    -----      -----    -----      00E6H    00E3H
  +--> ?PR?_MEM_READ?PROC_EXMEM
  +--> ?PR?_LIB_BCD_ASCA?LIB_MYMATH

?PR?_API_GET_BILL_RECORD_ADDR?API_BIL...         -----    -----      -----    -----      00E6H    0006H
  +--> ?CO?API_BILL_RECORD
  +--> ?PR?_MEM_READ?PROC_EXMEM

?PR?_IEC_CMD_WRITE_DEAL?API_USER_COMM            -----    -----      -----    -----      0043H    0050H
  +--> ?PR?_LIB_ASC_BCDA?LIB_MYMATH
  +--> ?PR?_GET_IEC_COMM_VAR?API_USER_COMM
  +--> ?PR?SECURITYCK?API_USER_COMM
  +--> ?PR?_LIB_SET_STRING?LIB_MYSPRING
  +--> ?PR?_SET_RTCTIME?DRV_RTC
  +--> ?PR?_MEM_DB_WRITE?PROC_EXMEM
  +--> ?PR?_API_DEAL_EVEN_CLASS_RECODE?API_E...
  +--> ?PR?API_INIT_MD_DATA_RAM?API_DEMAND
  +--> ?PR?API_UPDATE_TRIFFNO_PRE_MINUTE?API...
  +--> ?PR?_MEASURE_ELECTRIC_ERR_GAIN?LNK_EM...
  +--> ?PR?SAVE_EMU_ADJPARAM?LNK_EMU_ADJ
  +--> ?PR?CHECK_EMU_ADJPARAM?LNK_EMU_ADJ
  +--> ?PR?API_CLR_EVEN_BY_COMM?API_EVENT
  +--> ?PR?API_CLR_CURRENT_MD_DATA?API_DEMAND
  +--> ?PR?LOADPRORST?API_LOADPROFILE
  +--> ?PR?_MEM_DB_CLR?PROC_EXMEM
  +--> ?PR?API_CLR_FREEZE_ENERGY?API_DEMAND
  +--> ?PR?_MEM_WRITE?PROC_EXMEM
  +--> ?PR?_MEM_READ?PROC_EXMEM
  +--> ?PR?_GET_ACK_ANSWER?IEC62056_21
BL51 BANKED LINKER/LOCATER V6.22                                                      03/11/2019  14:45:04  PAGE 19



?PR?SECURITYCK?API_USER_COMM                     -----    -----      -----    -----      0093H    0001H

?PR?_MEASURE_ELECTRIC_ERR_GAIN?LNK_EM...         -----    -----      -----    -----      0093H    001EH
  +--> ?PR?_LIB_ATOB?LIB_MYMATH
  +--> ?PR?_LIB_BCD4_LONG?LIB_MYMATH
  +--> ?PR?_LIB_COPY_STR_TWOARRY?LIB_MYSPRING
  +--> ?PR?ATOF?ATOF
  +--> ?PR?_CALIBRATION_POWER?LNK_EMU_ADJ
  +--> ?PR?_CALIBRATION_CURRENT?LNK_EMU_ADJ
  +--> ?PR?_CALIBRATION_ANGULAR?LNK_EMU_ADJ
  +--> ?PR?_CALIBRATION_SMALL_SIGNAL?LNK_EMU...
  +--> ?PR?SAVE_EMU_ADJPARAM?LNK_EMU_ADJ
  +--> ?PR?CHECK_EMU_ADJPARAM?LNK_EMU_ADJ

?PR?_LIB_BCD4_LONG?LIB_MYMATH                    -----    -----      -----    -----      00B1H    0003H
  +--> ?PR?_LIB_BCD_BYTE?LIB_MYMATH

?PR?ATOF?ATOF                                    -----    -----      -----    -----      00B1H    0003H
  +--> ?PR?_ISSPACE?ISSPACE
  +--> ?PR??C?ATOF??C?ATOF

?PR??C?ATOF??C?ATOF                              0020H.0  0000H.5    0008H    0002H      -----    -----

?PR?_CALIBRATION_POWER?LNK_EMU_ADJ               -----    -----      -----    -----      00B1H    000CH
  +--> ?PR?_READMETERPARAACK?DRV_EMU_HARD
  +--> ?PR?_CALCULATESC?LNK_EMU_ADJ
  +--> ?PR?_SETMETERCFGACK?DRV_EMU_HARD

?PR?_CALCULATESC?LNK_EMU_ADJ                     -----    -----      -----    -----      00C5H    001CH
  +--> ?PR?_FLOOR?FLOOR

?PR?_FLOOR?FLOOR                                 -----    -----      -----    -----      00E1H    0008H

?PR?_CALIBRATION_CURRENT?LNK_EMU_ADJ             -----    -----      -----    -----      00B1H    0014H
  +--> ?PR?_READMETERPARAACK?DRV_EMU_HARD
  +--> ?PR?_CALCULATESC?LNK_EMU_ADJ
  +--> ?PR?_SETMETERCFGACK?DRV_EMU_HARD

?PR?_CALIBRATION_ANGULAR?LNK_EMU_ADJ             -----    -----      -----    -----      00B1H    0014H
  +--> ?PR?_CALCULATEAC?LNK_EMU_ADJ
  +--> ?PR?_LIB_LONG_BCD4?LIB_MYMATH
  +--> ?PR?_SETMETERCFGACK?DRV_EMU_HARD

?PR?_CALCULATEAC?LNK_EMU_ADJ                     -----    -----      -----    -----      00C5H    000BH

?PR?_CALIBRATION_SMALL_SIGNAL?LNK_EMU...         -----    -----      -----    -----      00B1H    0011H
  +--> ?PR?_READMETERPARAACK?DRV_EMU_HARD
  +--> ?PR?_SETMETERCFGACK?DRV_EMU_HARD

?PR?SAVE_EMU_ADJPARAM?LNK_EMU_ADJ                -----    -----      -----    -----      -----    -----
  +--> ?PR?_LIB_GET_CSCK_INT16U_NUM?LIB_MYMATH
  +--> ?PR?_MEM_DB_WRITE?PROC_EXMEM

?PR?API_CLR_EVEN_BY_COMM?API_EVENT               -----    -----      -----    -----      0093H    00C1H
  +--> ?PR?_LIB_SET_STRING?LIB_MYSPRING
  +--> ?PR?_MEM_DB_WRITE?PROC_EXMEM
BL51 BANKED LINKER/LOCATER V6.22                                                      03/11/2019  14:45:04  PAGE 20


  +--> ?PR?_LIB_GET_CSCK_INT16U_NUM?LIB_MYMATH
  +--> ?CO?API_EVENT
  +--> ?PR?_MEM_WRITE?PROC_EXMEM

?PR?LOADPRORST?API_LOADPROFILE                   -----    -----      -----    -----      -----    -----
  +--> ?PR?_LIB_SET_STRING?LIB_MYSPRING
  +--> ?PR?_MEM_DB_WRITE?PROC_EXMEM

?PR?API_CLR_FREEZE_ENERGY?API_DEMAND             -----    -----      -----    -----      -----    -----
  +--> ?PR?_LIB_CLR_STRING?LIB_MYSPRING
  +--> ?PR?_MEM_WRITE?PROC_EXMEM

?PR?_LNK_TX_COMM_READY?API_USER_COMM             -----    -----      -----    -----      0002H    0004H
  +--> ?PR?_TX_UART_FRIST?DRV_UART

?PR?_TX_UART_FRIST?DRV_UART                      -----    -----      -----    -----      0006H    0008H
  +--> ?PR?_SET_UART4_BADU?DRV_UART
  +--> ?PR?DIS_UART4_RX?DRV_UART
  +--> ?PR?EN_UART4_TX?DRV_UART

?PR?API_CLR_CURRENT_ENERGY_DATA?API_E...         -----    -----      -----    -----      -----    -----
  +--> ?PR?_LIB_SET_STRING?LIB_MYSPRING
  +--> ?PR?_LIB_GET_CSCK_INT16U_NUM?LIB_MYMATH
  +--> ?PR?_LIB_COPY_STR_TWOARRY?LIB_MYSPRING
  +--> ?PR?_MEM_DB_WRITE?PROC_EXMEM

?PR?API_CLR_BILL_DATA?API_BILL_RECORD            -----    -----      -----    -----      0002H    0078H
  +--> ?PR?_LIB_CLR_STRING?LIB_MYSPRING
  +--> ?PR?_MEM_DB_WRITE?PROC_EXMEM
  +--> ?PR?_MEM_FILL?PROC_EXMEM

?PR?_API_CHG_LCDDISPLAY_ADJ_ITEM?API_...         -----    -----      -----    -----      -----    -----
  +--> ?PR?API_UPDATED_LCDDISPLAYPIXEL_PER_S...

?PR?API_HANDL_BUTTON_PRE_10MS?PROC_SY...         -----    -----      -----    -----      -----    -----
  +--> ?PR?JUDGE_ERR_COVER_KEY?DRV_KEY_IO
  +--> ?PR?JUDGE_PG_DN_KEY?DRV_KEY_IO
  +--> ?PR?JUDGE_MD_CLEAR_KEY?DRV_KEY_IO
  +--> ?PR?JUDGE_MAGN_CHK_KEY?DRV_KEY_IO

?PR?PROC_JUDGE_POWER_DOWN_PROCESS?PRO...         -----    -----      -----    -----      0000H    0007H
  +--> ?PR?CHECKPOWERUP?PROC_SYSTEM_CHECK
  +--> ?PR?API_ACCUM_CURRENT_ENERGY_DATA_PRE...
  +--> ?PR?_MEM_DB_WRITE?PROC_EXMEM
  +--> ?PR?_API_DEAL_EVEN_CLASS_RECODE?API_E...
  +--> ?PR?_MEM_READ?PROC_EXMEM
  +--> ?PR?API_CHECK_CURRENT_ENERGY_DATA?API...
  +--> ?PR?API_HANDL_DIS_SLEEP?API_LCD_DISPLAY
  +--> ?PR?INIT_GPIO_SLEEP?DRV_GPIO
  +--> ?PR?E2P_IIC_INITAIL?DRV_E2P_I2CSOFT
  +--> ?PR?E2P_STOP_I2C?DRV_E2P_I2CSOFT
  +--> ?PR?API_MEASURE_RAM_INIT?API_MEASURE
  +--> ?PR?_SETEXTRTC?DRV_RTC
  +--> ?PR?INIT_RTC?DRV_RTC
  +--> ?PR?SET_MCUSLEEP?DRV_CORE
  +--> ?PR?_SET_MCUCLOCK?DRV_CORE
  +--> ?PR?_GET_RTCTIME?DRV_RTC
BL51 BANKED LINKER/LOCATER V6.22                                                      03/11/2019  14:45:04  PAGE 21


  +--> ?PR?_LIB_COPY_STR_TWOARRY?LIB_MYSPRING
  +--> ?PR?INIT_GPIO_RUN?DRV_GPIO
  +--> ?PR?E2P_START_I2C?DRV_E2P_I2CSOFT
  +--> ?PR?_MEM_WRITE?PROC_EXMEM
  +--> ?PR?SYS_ERR?PROC_SYSTEM_INITIALIZE
  +--> ?PR?API_FREEZE_ENERGY_RAM_PRE_DAY?API...
  +--> ?PR?PROC_DISPLAY_POWER_DOWN_PROCESS?P...

?PR?API_ACCUM_CURRENT_ENERGY_DATA_PRE...         -----    -----      -----    -----      0007H    0002H
  +--> ?PR?API_CHECK_CURRENT_ENERGY_DATA?API...
  +--> ?PR?LNK_ADD_FAC_ENERGY_PLUSE?API_ENERGY
  +--> ?PR?_LIB_GET_CSCK_INT16U_NUM?LIB_MYMATH
  +--> ?PR?_LIB_COPY_STR_TWOARRY?LIB_MYSPRING
  +--> ?PR?_MEM_DB_WRITE?PROC_EXMEM

?PR?API_FREEZE_ENERGY_RAM_PRE_DAY?API...         -----    -----      -----    -----      0007H    0001H
  +--> ?PR?_MEM_READ?PROC_EXMEM
  +--> ?PR?_MEM_WRITE?PROC_EXMEM
  +--> ?PR?_LIB_GET_CSCK_INT16U_NUM?LIB_MYMATH

?PR?PROC_DISPLAY_POWER_DOWN_PROCESS?P...         -----    -----      -----    -----      -----    -----
  +--> ?PR?JUDGE_PG_DN_KEY?DRV_KEY_IO
  +--> ?PR?API_UPDATED_LCDDISPLAYPIXEL_PER_S...

?PR?PROC_HANDL_TOU_1S?PROC_SYSTEM_TOU            -----    -----      -----    -----      -----    -----
  +--> ?PR?PROC_GET_CLOCK?PROC_SYSTEM_TOU
  +--> ?PR?API_MEASURE_RAM_INIT?API_MEASURE
  +--> ?PR?API_MEASURE_DEAL_PRE_SECOND?API_M...
  +--> ?PR?API_ACCUM_CURRENT_ENERGY_DATA_PRE...
  +--> ?PR?API_EVEN_DETECT_SEC?API_EVENT
  +--> ?PR?API_UPDATA_MD_VAR_MIN_PER_SECOND?...
  +--> ?PR?PROC_CHECK_PROKEY_PRE_SEC?PROC_SY...
  +--> ?PR?API_UPDATED_LED_PER_SECOND?API_LC...
  +--> ?PR?API_MEASURE_VBAT_PRE_MIN?API_MEASURE
  +--> ?PR?JUDGE_ERR_COVER_KEY?DRV_KEY_IO
  +--> ?PR?API_UPDATED_LCDDISPLAYITEM_PER_SE...
  +--> ?PR?API_UPDATED_LCDDISPLAYPIXEL_PER_S...
  +--> ?PR?TIMEEVENTPROC?LNK_EMU_ADJ
  +--> ?PR?CHECK_EMU_ADJPARAM?LNK_EMU_ADJ
  +--> ?PR?API_UPDATA_MD_VAR_SLID_PER_MINUTE...
  +--> ?PR?API_FREEZE_ENERGY_RAM_PRE_DAY?API...
  +--> ?PR?API_FREEZE_ENERGY_PRE_DAY?API_BIL...
  +--> ?PR?API_HANDL_SETTLE_PER_MINUTE?API_B...
  +--> ?PR?LOADPRO_REC?API_LOADPROFILE
  +--> ?PR?API_UPDATE_TRIFFNO_PRE_MINUTE?API...
  +--> ?PR?HANDL_RTC_ADJ_PER_MINU?DRV_RTC
  +--> ?PR?API_MEASURE_TEMPERATURE_PRE_MIN?A...

?PR?API_MEASURE_DEAL_PRE_SECOND?API_M...         -----    -----      -----    -----      0000H    000CH
  +--> ?PR?LNK_CAL_EMU_CONSTSUM_PER_SECOND?L...
  +--> ?PR?_LNK_GET_EMU_VOLTAGE?LNK_EMU_HANDL
  +--> ?PR?_LNK_GET_EMU_CURRENT?LNK_EMU_HANDL
  +--> ?PR?_LNK_GET_EMU_FREQ?LNK_EMU_HANDL

?PR?LNK_CAL_EMU_CONSTSUM_PER_SECOND?L...         -----    -----      -----    -----      000CH    0008H
  +--> ?PR?_READMETERPARAACK?DRV_EMU_HARD
  +--> ?PR?_SETMETERCFGACK?DRV_EMU_HARD
BL51 BANKED LINKER/LOCATER V6.22                                                      03/11/2019  14:45:04  PAGE 22


  +--> ?CO?LNK_EMU_ADJ

?PR?_LNK_GET_EMU_VOLTAGE?LNK_EMU_HANDL           -----    -----      -----    -----      000CH    0011H
  +--> ?PR?_READMETERPARAACK?DRV_EMU_HARD
  +--> ?PR?_LIB_REV_COPY_ARRY?LIB_MYSPRING

?PR?_LNK_GET_EMU_CURRENT?LNK_EMU_HANDL           -----    -----      -----    -----      000CH    000DH
  +--> ?PR?_READMETERPARAACK?DRV_EMU_HARD

?PR?_LNK_GET_EMU_FREQ?LNK_EMU_HANDL              -----    -----      -----    -----      000CH    000DH
  +--> ?PR?_READMETERPARAACK?DRV_EMU_HARD
  +--> ?PR?_LIB_REV_COPY_ARRY?LIB_MYSPRING

?PR?API_EVEN_DETECT_SEC?API_EVENT                -----    -----      -----    -----      -----    -----
  +--> ?PR?CHECKPOWERUP?PROC_SYSTEM_CHECK
  +--> ?PR?API_EVEN_EE_ERR?API_EVENT
  +--> ?PR?API_EVEN_DETECT_LOWBATTERY?API_EVENT
  +--> ?PR?_API_DEAL_EVEN_CLASS_RECODE?API_E...
  +--> ?PR?API_EVEN_DETECT_L1REVERSE?API_EVENT

?PR?API_EVEN_EE_ERR?API_EVENT                    -----    -----      -----    -----      -----    -----
  +--> ?PR?_MEM_READ?PROC_EXMEM
  +--> ?PR?_API_DEAL_EVEN_CLASS_RECODE?API_E...

?PR?API_UPDATA_MD_VAR_MIN_PER_SECOND?...         -----    -----      -----    -----      0000H    0001H
  +--> ?PR?LNK_UPDATA_MD_VAR_POWER_PER_SECON...

?PR?LNK_UPDATA_MD_VAR_POWER_PER_SECON...         -----    -----      -----    -----      0001H    0001H
  +--> ?PR?SYS_ERR?PROC_SYSTEM_INITIALIZE

?PR?PROC_CHECK_PROKEY_PRE_SEC?PROC_SY...         -----    -----      -----    -----      -----    -----
  +--> ?PR?JUDGE_ERR_ADJ_KEY?DRV_KEY_IO
  +--> ?PR?API_CLR_CURRENT_ENERGY_DATA?API_E...
  +--> ?PR?API_CLR_CURRENT_MD_DATA?API_DEMAND
  +--> ?PR?API_CLR_FREEZE_ENERGY?API_DEMAND
  +--> ?PR?API_CLR_BILL_DATA?API_BILL_RECORD
  +--> ?PR?LOADPRORST?API_LOADPROFILE
  +--> ?PR?API_CLR_EVEN_BY_COMM?API_EVENT
  +--> ?PR?_API_CHG_LCDDISPLAY_ADJ_ITEM?API_...

?PR?API_UPDATED_LCDDISPLAYITEM_PER_SE...         -----    -----      -----    -----      -----    -----
  +--> ?PR?API_GET_NEXT_DIS_ITEM?API_LCD_DIS...

?PR?TIMEEVENTPROC?LNK_EMU_ADJ                    -----    -----      -----    -----      0000H    0002H
  +--> ?PR?_READMETERPARAACK?DRV_EMU_HARD
  +--> ?PR?_CALCULATESCHZ?LNK_EMU_ADJ
  +--> ?PR?_SETMETERCFGACK?DRV_EMU_HARD

?PR?_CALCULATESCHZ?LNK_EMU_ADJ                   -----    -----      -----    -----      0002H    0018H

?PR?API_UPDATA_MD_VAR_SLID_PER_MINUTE...         -----    -----      -----    -----      0000H    0006H
  +--> ?PR?_API_CHECK_DEMAND_PARA?API_DEMAND
  +--> ?PR?_API_CMP_SAVE_MD_DATA?API_DEMAND

?PR?_API_CMP_SAVE_MD_DATA?API_DEMAND             -----    -----      -----    -----      0006H    0010H
  +--> ?PR?_MEM_READ?PROC_EXMEM
  +--> ?PR?_MEM_DB_WRITE?PROC_EXMEM
BL51 BANKED LINKER/LOCATER V6.22                                                      03/11/2019  14:45:04  PAGE 23


  +--> ?PR?_MEM_WRITE?PROC_EXMEM

?PR?API_HANDL_SETTLE_PER_MINUTE?API_B...         -----    -----      -----    -----      0000H    0006H
  +--> ?PR?_MEM_READ?PROC_EXMEM
  +--> ?PR?_LIB_BCD_BYTE?LIB_MYMATH
  +--> ?PR?_API_WRITE_BILL_DATA?API_BILL_RECORD
  +--> ?PR?API_CLR_CURRENT_MD_DATA?API_DEMAND

?PR?LOADPRO_REC?API_LOADPROFILE                  -----    -----      -----    -----      0000H    0006H
  +--> ?PR?_MEM_READ?PROC_EXMEM
  +--> ?PR?_LIB_BCD2_WORD?LIB_MYMATH
  +--> ?PR?_LIB_BCD_BYTE?LIB_MYMATH
  +--> ?PR?_LOAD_REC?API_LOADPROFILE

?PR?_LIB_BCD2_WORD?LIB_MYMATH                    -----    -----      -----    -----      -----    -----
  +--> ?PR?_LIB_BCD_BYTE?LIB_MYMATH

?PR?_LOAD_REC?API_LOADPROFILE                    -----    -----      -----    -----      0006H    001AH
  +--> ?PR?_LIB_SET_STRING?LIB_MYSPRING
  +--> ?PR?_LIB_COPY_STR_TWOARRY?LIB_MYSPRING
  +--> ?PR?_API_GET_ENERGY_LCD?API_LCD_DISPLAY
  +--> ?PR?_LIB_LONG_BCD4?LIB_MYMATH
  +--> ?PR?_MEM_READ?PROC_EXMEM
  +--> ?PR?_MEM_DB_WRITE?PROC_EXMEM
  +--> ?PR?_MEM_WRITE?PROC_EXMEM

?PR?HANDL_RTC_ADJ_PER_MINU?DRV_RTC               -----    -----      -----    -----      0000H    0012H

*** NEW ROOT ***************************************************

?PR?INTERRUPT_EXINT2?PROC_SYSTEM_INTE...         -----    -----      -----    -----      0234H    0002H
  +--> ?PR?EN_UART4_RX?DRV_UART
  +--> ?PR?_INIT_UART_SOFT?DRV_UART



UNRESOLVED EXTERNAL SYMBOLS:
   ?_WRITERACCOON?BYTE
   GS_RACCTRL
   G_LORACONFIG
   RX_MODE
   SX127X_INIT
   _LSD_RF_RXPACKET
   _READRACCOON
   _SX1276_TXPACKET
   _WRITERACCOON



SYMBOL TABLE OF MODULE:  DI03B_9811A_V10 (?C_STARTUP)

  VALUE           TYPE          NAME
  ----------------------------------

  -------         MODULE        ?C_STARTUP
  C:D094H         SEGMENT       ?C_C51STARTUP
  I:0021H         SEGMENT       ?STACK
BL51 BANKED LINKER/LOCATER V6.22                                                      03/11/2019  14:45:04  PAGE 24


  C:0000H         PUBLIC        ?C_STARTUP
  D:00E0H         SYMBOL        ACC
  D:00F0H         SYMBOL        B
  D:0083H         SYMBOL        DPH
  D:0082H         SYMBOL        DPL
  N:0000H         SYMBOL        IBPSTACK
  N:0100H         SYMBOL        IBPSTACKTOP
  N:0080H         SYMBOL        IDATALEN
  N:0000H         SYMBOL        PBPSTACK
  N:0000H         SYMBOL        PBPSTACKTOP
  N:0000H         SYMBOL        PDATALEN
  N:0000H         SYMBOL        PDATASTART
  N:0000H         SYMBOL        PPAGE
  N:0000H         SYMBOL        PPAGEENABLE
  D:00A0H         SYMBOL        PPAGE_SFR
  D:0081H         SYMBOL        SP
  C:D094H         SYMBOL        STARTUP1
  N:0000H         SYMBOL        XBPSTACK
  N:0000H         SYMBOL        XBPSTACKTOP
  N:0000H         SYMBOL        XDATALEN
  N:0000H         SYMBOL        XDATASTART
  C:0400H         LINE#         82
  C:0000H         LINE#         105
  C:D094H         LINE#         163
  C:D097H         LINE#         167
  -------         ENDMOD        ?C_STARTUP

  -------         MODULE        MAIN
  C:0000H         SYMBOL        _ICE_DUMMY_
  D:00CEH         PUBLIC        wdt0
  D:0090H         PUBLIC        P1
  D:00CFH         PUBLIC        wdt1
  D:00B0H         PUBLIC        P3
  B:00A8H.7       PUBLIC        EA
  D:00A8H         PUBLIC        IE
  D:00B8H         PUBLIC        IP
  C:BE27H         PUBLIC        main
  D:0098H         PUBLIC        SCON
  D:0088H         PUBLIC        TCON
  D:00F0H         PUBLIC        B
  D:00E0H         PUBLIC        ACC
  D:0080H         PUBLIC        SysCtrl
  D:00C8H         PUBLIC        T2CON
  X:07FEH         PUBLIC        debug_tmp1
  D:00D0H         PUBLIC        PSW
  -------         PROC          MAIN
  C:BE27H         LINE#         30
  C:BE27H         LINE#         31
  C:BE27H         LINE#         33
  C:BE28H         LINE#         34
  C:BE36H         LINE#         35
  C:BE38H         LINE#         36
  C:BE3BH         LINE#         37
  C:BE3DH         LINE#         38
  C:BE3EH         LINE#         39
  C:BE3EH         LINE#         40
  C:BE3EH         LINE#         41
BL51 BANKED LINKER/LOCATER V6.22                                                      03/11/2019  14:45:04  PAGE 25


  C:BE4CH         LINE#         42
  C:BE54H         LINE#         43
  C:BE54H         LINE#         44
  C:BE62H         LINE#         45
  C:BE6AH         LINE#         46
  C:BE6AH         LINE#         47
  C:BE6DH         LINE#         48
  C:BE70H         LINE#         49
  C:BE70H         LINE#         51
  C:BE73H         LINE#         52
  C:BE7BH         LINE#         53
  C:BE7BH         LINE#         54
  C:BE7EH         LINE#         55
  C:BE81H         LINE#         56
  C:BE81H         LINE#         57
  C:BE90H         LINE#         58
  C:BE90H         LINE#         59
  C:BE93H         LINE#         60
  C:BE93H         LINE#         61
  C:BE9BH         LINE#         62
  C:BE9BH         LINE#         63
  C:BE9CH         LINE#         64
  C:BE9FH         LINE#         65
  C:BEADH         LINE#         66
  C:BEB4H         LINE#         67
  C:BEB9H         LINE#         68
  C:BEBFH         LINE#         69
  C:BEBFH         LINE#         71
  C:BEC2H         LINE#         73
  C:BED0H         LINE#         74
  C:BED0H         LINE#         76
  C:BED3H         LINE#         77
  -------         ENDPROC       MAIN
  -------         ENDMOD        MAIN

  -------         MODULE        PROC_DATA
  C:0000H         SYMBOL        _ICE_DUMMY_
  D:0090H         PUBLIC        P1
  D:00B0H         PUBLIC        P3
  D:00A8H         PUBLIC        IE
  D:00B8H         PUBLIC        IP
  D:0098H         PUBLIC        SCON
  D:0088H         PUBLIC        TCON
  D:00F0H         PUBLIC        B
  D:00E0H         PUBLIC        ACC
  C:DD8CH         PUBLIC        default_meter_parm1_tab
  X:06FDH         PUBLIC        gs_sys_run
  D:0080H         PUBLIC        SysCtrl
  D:00C8H         PUBLIC        T2CON
  C:D735H         PUBLIC        Proc_sys_data_init
  C:DD7DH         PUBLIC        sys_parm
  D:00D0H         PUBLIC        PSW
  X:06FFH         PUBLIC        gs_sys_globaL_var
  -------         PROC          PROC_SYS_DATA_INIT
  C:D735H         LINE#         82
  C:D735H         LINE#         83
  C:D735H         LINE#         84
BL51 BANKED LINKER/LOCATER V6.22                                                      03/11/2019  14:45:04  PAGE 26


  C:D73AH         LINE#         85
  C:D73CH         LINE#         86
  C:D742H         LINE#         87
  C:D747H         LINE#         88
  C:D75EH         LINE#         89
  C:D776H         LINE#         90
  C:D78EH         LINE#         92
  -------         ENDPROC       PROC_SYS_DATA_INIT
  -------         ENDMOD        PROC_DATA

  -------         MODULE        PROC_EXMEM
  C:0000H         SYMBOL        _ICE_DUMMY_
  D:00CEH         PUBLIC        wdt0
  D:0090H         PUBLIC        P1
  D:00CFH         PUBLIC        wdt1
  D:00B0H         PUBLIC        P3
  C:BA93H         PUBLIC        _mem_db_clr
  D:00A8H         PUBLIC        IE
  C:B791H         PUBLIC        _get_mem_ck_data
  D:00B8H         PUBLIC        IP
  C:AC8DH         PUBLIC        _mem_to_mem
  C:A3C3H         PUBLIC        _get_default_mem_data
  C:CD49H         PUBLIC        _get_mem_table_Index
  C:D965H         PUBLIC        mem_table
  D:0098H         PUBLIC        SCON
  D:0088H         PUBLIC        TCON
  C:CC2CH         PUBLIC        _mem_read
  D:00F0H         PUBLIC        B
  D:00E0H         PUBLIC        ACC
  C:70E0H         PUBLIC        mem_db_check
  C:C57AH         PUBLIC        _mem_fill
  C:C8AFH         PUBLIC        _mem_write
  D:0080H         PUBLIC        SysCtrl
  D:00C8H         PUBLIC        T2CON
  C:9AF4H         PUBLIC        _mem_db_write
  D:00D0H         PUBLIC        PSW
  C:B787H         SYMBOL        L?0090
  C:B78AH         SYMBOL        L?0091
  -------         PROC          L?0089
  -------         ENDPROC       L?0089
  C:B787H         SYMBOL        L?0090
  C:B78AH         SYMBOL        L?0091
  -------         PROC          _GET_MEM_CK_DATA
  X:0189H         SYMBOL        src
  X:018BH         SYMBOL        lenth
  X:018DH         SYMBOL        memType
  -------         DO            
  X:018EH         SYMBOL        size
  X:018FH         SYMBOL        tmpBuf
  X:01CFH         SYMBOL        sum
  -------         ENDDO         
  C:B791H         LINE#         77
  C:B7A2H         LINE#         78
  C:B7A2H         LINE#         81
  C:B7ACH         LINE#         83
  C:B7BFH         LINE#         84
  C:B7BFH         LINE#         85
BL51 BANKED LINKER/LOCATER V6.22                                                      03/11/2019  14:45:04  PAGE 27


  C:B7CAH         LINE#         86
  C:B7CAH         LINE#         87
  C:B7CDH         LINE#         88
  C:B7CFH         LINE#         90
  C:B7CFH         LINE#         91
  C:B7D1H         LINE#         92
  C:B7D1H         LINE#         93
  C:B7F7H         LINE#         94
  C:B81AH         LINE#         95
  C:B82DH         LINE#         96
  C:B83AH         LINE#         97
  C:B83DH         LINE#         99
  C:B845H         LINE#         100
  -------         ENDPROC       _GET_MEM_CK_DATA
  -------         PROC          _GET_MEM_TABLE_INDEX
  X:0189H         SYMBOL        adr
  D:0005H         SYMBOL        memType
  -------         DO            
  D:0007H         SYMBOL        i
  D:0001H         SYMBOL        len
  X:018BH         SYMBOL        blkAddr
  -------         ENDDO         
  C:CD49H         LINE#         109
  C:CD51H         LINE#         110
  C:CD51H         LINE#         115
  C:CD53H         LINE#         116
  C:CD53H         LINE#         117
  C:CD66H         LINE#         118
  C:CD66H         LINE#         119
  C:CD6BH         LINE#         120
  C:CD6BH         LINE#         121
  C:CD6EH         LINE#         122
  C:CD6EH         LINE#         124
  C:CD6EH         LINE#         125
  C:CD8AH         LINE#         126
  C:CD8AH         LINE#         127
  C:CD9CH         LINE#         129
  C:CDCDH         LINE#         130
  C:CDCDH         LINE#         131
  C:CDCEH         LINE#         132
  C:CDCEH         LINE#         133
  C:CDCEH         LINE#         134
  C:CDD7H         LINE#         135
  C:CDD9H         LINE#         136
  -------         ENDPROC       _GET_MEM_TABLE_INDEX
  C:AC79H         SYMBOL        L?0088
  -------         PROC          L?0087
  -------         ENDPROC       L?0087
  C:AC79H         SYMBOL        L?0088
  -------         PROC          _MEM_TO_MEM
  X:001AH         SYMBOL        dst
  X:001CH         SYMBOL        src
  X:001EH         SYMBOL        lenth
  X:0020H         SYMBOL        mode
  -------         DO            
  X:0021H         SYMBOL        tmp_Buffer
  X:0061H         SYMBOL        size
BL51 BANKED LINKER/LOCATER V6.22                                                      03/11/2019  14:45:04  PAGE 28


  -------         ENDDO         
  C:AC8DH         LINE#         142
  C:ACA1H         LINE#         143
  C:ACA1H         LINE#         147
  C:ACB4H         LINE#         148
  C:ACB4H         LINE#         149
  C:ACC0H         LINE#         150
  C:ACC0H         LINE#         151
  C:ACC3H         LINE#         152
  C:ACC5H         LINE#         154
  C:ACC5H         LINE#         155
  C:ACC7H         LINE#         156
  C:ACC7H         LINE#         157
  C:ACF1H         LINE#         158
  C:ACFFH         LINE#         159
  C:AD27H         LINE#         160
  C:AD3BH         LINE#         161
  C:AD47H         LINE#         162
  C:AD55H         LINE#         163
  C:AD58H         LINE#         165
  -------         ENDPROC       _MEM_TO_MEM
  -------         PROC          _MEM_FILL
  X:007AH         SYMBOL        dst
  X:007CH         SYMBOL        lenth
  D:0007H         SYMBOL        xx
  X:007FH         SYMBOL        memType
  -------         DO            
  X:0080H         SYMBOL        tmp_Buffer
  X:00C0H         SYMBOL        size
  -------         ENDDO         
  C:C57AH         LINE#         171
  C:C58AH         LINE#         172
  C:C58AH         LINE#         176
  C:C59EH         LINE#         178
  C:C5AEH         LINE#         179
  C:C5AEH         LINE#         180
  C:C5BAH         LINE#         181
  C:C5BAH         LINE#         182
  C:C5BDH         LINE#         183
  C:C5BFH         LINE#         185
  C:C5BFH         LINE#         186
  C:C5C1H         LINE#         187
  C:C5C1H         LINE#         188
  C:C5E7H         LINE#         189
  C:C5F5H         LINE#         190
  C:C608H         LINE#         191
  C:C615H         LINE#         192
  C:C617H         LINE#         193
  -------         ENDPROC       _MEM_FILL
  -------         PROC          L?0092
  -------         ENDPROC       L?0092
  -------         PROC          _MEM_READ
  X:01D1H         SYMBOL        dst
  X:01D4H         SYMBOL        src
  X:01D6H         SYMBOL        lenth
  X:01D8H         SYMBOL        memType
  -------         DO            
BL51 BANKED LINKER/LOCATER V6.22                                                      03/11/2019  14:45:04  PAGE 29


  X:01D9H         SYMBOL        ptr_adr
  -------         ENDDO         
  C:CC2CH         LINE#         198
  C:CC3DH         LINE#         199
  C:CC3DH         LINE#         202
  C:CC48H         LINE#         203
  C:CC48H         LINE#         204
  C:CC48H         LINE#         205
  C:CC5EH         LINE#         206
  C:CC90H         LINE#         208
  C:CC90H         LINE#         210
  C:CC90H         LINE#         211
  C:CCB1H         LINE#         212
  C:CCB1H         LINE#         214
  C:CCB1H         LINE#         215
  C:CCB4H         LINE#         216
  C:CCB4H         LINE#         217
  C:CCB4H         LINE#         218
  -------         ENDPROC       _MEM_READ
  C:C89DH         SYMBOL        L?0085
  C:C8A4H         SYMBOL        L?0086
  -------         PROC          L?0084
  -------         ENDPROC       L?0084
  C:C89DH         SYMBOL        L?0085
  C:C8A4H         SYMBOL        L?0086
  -------         PROC          _MEM_WRITE
  X:0189H         SYMBOL        dst
  X:018BH         SYMBOL        src
  X:018EH         SYMBOL        lenth
  X:0190H         SYMBOL        memType
  -------         DO            
  D:0001H         SYMBOL        ptr_adr
  -------         ENDDO         
  C:C8AFH         LINE#         223
  C:C8C0H         LINE#         224
  C:C8C0H         LINE#         227
  C:C8CBH         LINE#         228
  C:C8CBH         LINE#         229
  C:C8CBH         LINE#         230
  C:C8D7H         LINE#         231
  C:C904H         LINE#         232
  C:C904H         LINE#         234
  C:C904H         LINE#         235
  C:C925H         LINE#         236
  C:C925H         LINE#         238
  C:C925H         LINE#         239
  C:C928H         LINE#         241
  C:C928H         LINE#         242
  C:C928H         LINE#         243
  -------         ENDPROC       _MEM_WRITE
  -------         PROC          _MEM_DB_WRITE
  X:0177H         SYMBOL        dst
  X:0179H         SYMBOL        src
  X:017CH         SYMBOL        len
  X:017EH         SYMBOL        memType
  -------         DO            
  X:017FH         SYMBOL        index
BL51 BANKED LINKER/LOCATER V6.22                                                      03/11/2019  14:45:04  PAGE 30


  X:0180H         SYMBOL        checkNum
  X:0182H         SYMBOL        adr_dst
  X:0184H         SYMBOL        adr_csck
  X:0186H         SYMBOL        lenth
  X:0188H         SYMBOL        id_No
  -------         ENDDO         
  C:9AF4H         LINE#         259
  C:9B07H         LINE#         260
  C:9B07H         LINE#         269
  C:9B14H         LINE#         271
  C:9B19H         LINE#         272
  C:9B19H         LINE#         273
  C:9B1CH         LINE#         274
  C:9B1CH         LINE#         275
  C:9B3CH         LINE#         276
  C:9B5CH         LINE#         277
  C:9B6EH         LINE#         278
  C:9B85H         LINE#         280
  C:9BAEH         LINE#         281
  C:9BC4H         LINE#         282
  C:9BCEH         LINE#         283
  C:9BD7H         LINE#         284
  C:9BD7H         LINE#         285
  C:9C08H         LINE#         286
  C:9C1FH         LINE#         287
  C:9C1FH         LINE#         289
  -------         ENDPROC       _MEM_DB_WRITE
  -------         PROC          _GET_DEFAULT_MEM_DATA
  D:0007H         SYMBOL        index
  -------         DO            
  X:001AH         SYMBOL        adrAry
  X:001CH         SYMBOL        lenth
  D:0006H         SYMBOL        i
  -------         ENDDO         
  C:A3C3H         LINE#         300
  C:A3C3H         LINE#         301
  C:A3C3H         LINE#         306
  C:A3C5H         LINE#         307
  C:A3C5H         LINE#         308
  C:A3D8H         LINE#         309
  C:A3DDH         LINE#         311
  C:A3E6H         LINE#         314
  C:A402H         LINE#         315
  C:A421H         LINE#         317
  C:A438H         LINE#         318
  C:A438H         LINE#         319
  C:A438H         LINE#         320
  C:A446H         LINE#         321
  C:A448H         LINE#         323
  C:A448H         LINE#         324
  C:A456H         LINE#         325
  C:A458H         LINE#         328
  C:A458H         LINE#         329
  C:A466H         LINE#         330
  C:A468H         LINE#         337
  C:A468H         LINE#         338
  C:A476H         LINE#         339
BL51 BANKED LINKER/LOCATER V6.22                                                      03/11/2019  14:45:04  PAGE 31


  C:A478H         LINE#         341
  C:A478H         LINE#         342
  C:A486H         LINE#         343
  C:A488H         LINE#         345
  C:A488H         LINE#         346
  C:A4AAH         LINE#         347
  C:A4AAH         LINE#         353
  C:A4AAH         LINE#         354
  C:A4C3H         LINE#         355
  C:A4C3H         LINE#         356
  C:A4C3H         LINE#         357
  -------         ENDPROC       _GET_DEFAULT_MEM_DATA
  -------         PROC          MEM_DB_CHECK
  -------         DO            
  X:000DH         SYMBOL        i
  X:000EH         SYMBOL        checkNum0
  X:0010H         SYMBOL        checkNum1
  X:0012H         SYMBOL        adr_dst
  X:0014H         SYMBOL        adr_csck
  X:0016H         SYMBOL        lenth
  X:0018H         SYMBOL        staus
  X:0019H         SYMBOL        u8_No
  -------         ENDDO         
  C:70E0H         LINE#         372
  C:70E0H         LINE#         373
  C:70E0H         LINE#         383
  C:70F2H         LINE#         384
  C:70F2H         LINE#         385
  C:70F7H         LINE#         386
  C:7117H         LINE#         387
  C:7136H         LINE#         388
  C:714FH         LINE#         389
  C:7163H         LINE#         391
  C:7171H         LINE#         393
  C:7186H         LINE#         394
  C:7197H         LINE#         395
  C:71B2H         LINE#         397
  C:71BBH         LINE#         398
  C:71BBH         LINE#         400
  C:71D4H         LINE#         401
  C:71EBH         LINE#         402
  C:7206H         LINE#         403
  C:7206H         LINE#         409
  C:7214H         LINE#         410
  C:7228H         LINE#         411
  C:7228H         LINE#         412
  C:7228H         LINE#         414
  C:7228H         LINE#         416
  C:7228H         LINE#         417
  C:7231H         LINE#         418
  C:7231H         LINE#         419
  C:7243H         LINE#         420
  C:7246H         LINE#         422
  C:7246H         LINE#         423
  C:724EH         LINE#         424
  C:7251H         LINE#         425
  C:7254H         LINE#         426
BL51 BANKED LINKER/LOCATER V6.22                                                      03/11/2019  14:45:04  PAGE 32


  C:7254H         LINE#         427
  C:7254H         LINE#         428
  C:7257H         LINE#         430
  C:7257H         LINE#         431
  C:7260H         LINE#         432
  C:7260H         LINE#         433
  C:7263H         LINE#         434
  C:7263H         LINE#         435
  C:7263H         LINE#         437
  C:7265H         LINE#         439
  C:7265H         LINE#         440
  C:726DH         LINE#         441
  C:7270H         LINE#         442
  C:7273H         LINE#         443
  C:7281H         LINE#         444
  C:728AH         LINE#         445
  C:728AH         LINE#         446
  C:728DH         LINE#         447
  C:729BH         LINE#         448
  C:729BH         LINE#         449
  C:729DH         LINE#         451
  C:729DH         LINE#         452
  C:72A0H         LINE#         453
  C:72A0H         LINE#         454
  C:72A0H         LINE#         455
  C:72AEH         LINE#         457
  C:72B7H         LINE#         459
  -------         ENDPROC       MEM_DB_CHECK
  -------         PROC          _MEM_DB_CLR
  X:0093H         SYMBOL        type
  -------         DO            
  X:0094H         SYMBOL        i
  X:0095H         SYMBOL        checkNum0
  D:0004H         SYMBOL        adr_dst
  X:0097H         SYMBOL        adr_csck
  D:0006H         SYMBOL        lenth
  X:0099H         SYMBOL        u8_No
  -------         ENDDO         
  C:BA93H         LINE#         475
  C:BA98H         LINE#         476
  C:BA98H         LINE#         484
  C:BAA8H         LINE#         485
  C:BAA8H         LINE#         486
  C:BABEH         LINE#         487
  C:BAD1H         LINE#         488
  C:BADCH         LINE#         489
  C:BAF1H         LINE#         491
  C:BAFCH         LINE#         492
  C:BAFCH         LINE#         493
  C:BB0AH         LINE#         495
  C:BB11H         LINE#         496
  C:BB22H         LINE#         498
  C:BB2BH         LINE#         499
  C:BB2BH         LINE#         501
  C:BB32H         LINE#         502
  C:BB49H         LINE#         503
  C:BB49H         LINE#         504
BL51 BANKED LINKER/LOCATER V6.22                                                      03/11/2019  14:45:04  PAGE 33


  C:BB49H         LINE#         506
  C:BB52H         LINE#         508
  -------         ENDPROC       _MEM_DB_CLR
  -------         ENDMOD        PROC_EXMEM

  -------         MODULE        PROC_SYSTEM_CHECK
  C:0000H         SYMBOL        _ICE_DUMMY_
  D:00CEH         PUBLIC        wdt0
  D:0090H         PUBLIC        P1
  D:00CFH         PUBLIC        wdt1
  D:00B0H         PUBLIC        P3
  D:00A8H         PUBLIC        IE
  C:EF59H         PUBLIC        CheckPOWERUP
  D:00B8H         PUBLIC        IP
  C:F012H         PUBLIC        Proc_init_Check_var
  C:0052H         PUBLIC        Proc_Check_System_Pre_Cycle
  X:07D9H         PUBLIC        gs_sys_check_var
  D:0098H         PUBLIC        SCON
  D:0088H         PUBLIC        TCON
  C:BED6H         PUBLIC        Proc_Check_PROKEY_Pre_sec
  D:00F0H         PUBLIC        B
  D:00E0H         PUBLIC        ACC
  D:0080H         PUBLIC        SysCtrl
  C:E004H         PUBLIC        Proc_Check_COVER_Pre_sec
  D:00C8H         PUBLIC        T2CON
  D:00A1H         PUBLIC        Systate
  D:00D0H         PUBLIC        PSW
  -------         PROC          PROC_CHECK_PROKEY_PRE_SEC
  C:BED6H         LINE#         31
  C:BED6H         LINE#         32
  C:BED6H         LINE#         33
  C:BEE1H         LINE#         34
  C:BEE1H         LINE#         35
  C:BEEDH         LINE#         36
  C:BEEDH         LINE#         37
  C:BEF0H         LINE#         38
  C:BEF9H         LINE#         39
  C:BEF9H         LINE#         40
  C:BF04H         LINE#         41
  C:BF04H         LINE#         42
  C:BF0CH         LINE#         43
  C:BF0CH         LINE#         46
  C:BF0FH         LINE#         47
  C:BF1DH         LINE#         48
  C:BF20H         LINE#         49
  C:BF2EH         LINE#         50
  C:BF31H         LINE#         51
  C:BF3FH         LINE#         53
  C:BF42H         LINE#         55
  C:BF45H         LINE#         56
  C:BF53H         LINE#         57
  C:BF56H         LINE#         58
  C:BF64H         LINE#         59
  C:BF69H         LINE#         60
  C:BF6FH         LINE#         61
  C:BF6FH         LINE#         62
  C:BF6FH         LINE#         63
BL51 BANKED LINKER/LOCATER V6.22                                                      03/11/2019  14:45:04  PAGE 34


  C:BF6FH         LINE#         64
  C:BF6FH         LINE#         65
  C:BF70H         LINE#         67
  C:BF70H         LINE#         68
  C:BF7CH         LINE#         69
  C:BF84H         LINE#         70
  C:BF84H         LINE#         71
  -------         ENDPROC       PROC_CHECK_PROKEY_PRE_SEC
  -------         PROC          PROC_CHECK_COVER_PRE_SEC
  C:E004H         LINE#         73
  C:E004H         LINE#         74
  C:E004H         LINE#         75
  C:E00CH         LINE#         76
  C:E00CH         LINE#         77
  C:E015H         LINE#         78
  C:E015H         LINE#         79
  C:E018H         LINE#         80
  C:E01EH         LINE#         81
  C:E01EH         LINE#         83
  C:E01EH         LINE#         84
  C:E024H         LINE#         85
  C:E024H         LINE#         86
  C:E02BH         LINE#         87
  C:E031H         LINE#         89
  C:E031H         LINE#         90
  C:E031H         LINE#         91
  C:E031H         LINE#         92
  C:E031H         LINE#         93
  C:E032H         LINE#         95
  C:E032H         LINE#         96
  C:E041H         LINE#         97
  C:E047H         LINE#         98
  C:E047H         LINE#         99
  C:E04CH         LINE#         100
  C:E04CH         LINE#         101
  C:E053H         LINE#         102
  C:E058H         LINE#         103
  C:E058H         LINE#         105
  C:E058H         LINE#         106
  C:E058H         LINE#         107
  -------         ENDPROC       PROC_CHECK_COVER_PRE_SEC
  -------         PROC          PROC_INIT_CHECK_VAR
  C:F012H         LINE#         121
  C:F012H         LINE#         122
  C:F012H         LINE#         123
  -------         ENDPROC       PROC_INIT_CHECK_VAR
  -------         PROC          PROC_CHECK_SYSTEM_PRE_CYCLE
  C:0052H         LINE#         135
  C:0052H         LINE#         136
  C:0052H         LINE#         140
  -------         ENDPROC       PROC_CHECK_SYSTEM_PRE_CYCLE
  -------         PROC          CHECKPOWERUP
  -------         DO            
  D:0007H         SYMBOL        i
  -------         ENDDO         
  C:EF59H         LINE#         151
  C:EF59H         LINE#         152
BL51 BANKED LINKER/LOCATER V6.22                                                      03/11/2019  14:45:04  PAGE 35


  C:EF59H         LINE#         155
  C:EF5BH         LINE#         156
  C:EF5BH         LINE#         163
  C:EF60H         LINE#         166
  C:EF60H         LINE#         167
  C:EF65H         LINE#         168
  C:EF6BH         LINE#         169
  C:EF6EH         LINE#         171
  C:EF70H         LINE#         173
  -------         ENDPROC       CHECKPOWERUP
  -------         ENDMOD        PROC_SYSTEM_CHECK

  -------         MODULE        PROC_SYSTEM_INITIALIZE
  C:0000H         SYMBOL        _ICE_DUMMY_
  C:E0AEH         PUBLIC        Proc_handle_when_systerm_reset
  D:00CEH         PUBLIC        wdt0
  D:0090H         PUBLIC        P1
  D:00CFH         PUBLIC        wdt1
  C:D21AH         PUBLIC        Proc_Initialize_systerm_normal_mode
  D:00B0H         PUBLIC        P3
  B:00A8H.7       PUBLIC        EA
  C:F04EH         PUBLIC        sys_err
  D:00A8H         PUBLIC        IE
  C:EA4CH         PUBLIC        Proc_Initialize_systerm_reset
  D:00A5H         PUBLIC        P9IE
  D:00B8H         PUBLIC        IP
  D:00A4H         PUBLIC        P9OE
  C:7665H         PUBLIC        Proc_Initialize_INRam
  C:E3A5H         PUBLIC        Proc_sleep_when_reset
  D:0098H         PUBLIC        SCON
  D:0088H         PUBLIC        TCON
  D:00C9H         PUBLIC        IOWK
  D:008FH         PUBLIC        SPCFNC
  D:00F0H         PUBLIC        B
  D:00E0H         PUBLIC        ACC
  D:0090H         PUBLIC        RTCPEN
  D:0097H         PUBLIC        RTCPWD
  D:0080H         PUBLIC        SysCtrl
  D:00A0H         PUBLIC        CBANK
  C:E14DH         PUBLIC        Proc_display_Power_down_process
  B:0080H.4       PUBLIC        PMG
  D:00C8H         PUBLIC        T2CON
  D:00A1H         PUBLIC        Systate
  D:0094H         PUBLIC        RTCCH
  C:89E4H         PUBLIC        Proc_judge_Power_down_process
  D:0095H         PUBLIC        RTCCL
  D:00D0H         PUBLIC        PSW
  -------         PROC          PROC_HANDLE_WHEN_SYSTERM_RESET
  C:E0AEH         LINE#         30
  C:E0AEH         LINE#         31
  C:E0AEH         LINE#         40
  C:E0B4H         LINE#         42
  C:E0CCH         LINE#         43
  C:E0CCH         LINE#         44
  C:E0CFH         LINE#         45
  C:E0D2H         LINE#         46
  C:E0D5H         LINE#         47
BL51 BANKED LINKER/LOCATER V6.22                                                      03/11/2019  14:45:04  PAGE 36


  C:E0D7H         LINE#         48
  C:E0DAH         LINE#         49
  C:E0DDH         LINE#         50
  C:E0DDH         LINE#         51
  C:E0DEH         LINE#         54
  C:E0E1H         LINE#         55
  C:E0E7H         LINE#         56
  C:E0EAH         LINE#         57
  C:E0EDH         LINE#         58
  C:E0F5H         LINE#         62
  C:E0F8H         LINE#         63
  C:E0FBH         LINE#         64
  -------         ENDPROC       PROC_HANDLE_WHEN_SYSTERM_RESET
  -------         PROC          PROC_INITIALIZE_INRAM
  -------         DO            
  X:0000H         SYMBOL        i
  X:0001H         SYMBOL        j
  X:0002H         SYMBOL        last_rec_dateTime
  X:0008H         SYMBOL        param_settel
  X:000AH         SYMBOL        eeprom_flg
  -------         ENDDO         
  C:7665H         LINE#         77
  C:7665H         LINE#         78
  C:7665H         LINE#         94
  C:767EH         LINE#         95
  C:7690H         LINE#         96
  C:7690H         LINE#         97
  C:7696H         LINE#         98
  C:7699H         LINE#         99
  C:76AAH         LINE#         100
  C:76AFH         LINE#         101
  C:76BDH         LINE#         102
  C:76BDH         LINE#         107
  C:76C3H         LINE#         108
  C:76C3H         LINE#         109
  C:76C6H         LINE#         110
  C:76D4H         LINE#         111
  C:76D4H         LINE#         115
  C:76D7H         LINE#         116
  C:76DAH         LINE#         117
  C:76E8H         LINE#         121
  C:7702H         LINE#         122
  C:7705H         LINE#         123
  C:7708H         LINE#         128
  C:770BH         LINE#         129
  C:7719H         LINE#         130
  C:771CH         LINE#         131
  C:771FH         LINE#         132
  C:7722H         LINE#         133
  C:7725H         LINE#         134
  C:7728H         LINE#         135
  C:7736H         LINE#         141
  C:7739H         LINE#         142
  C:7747H         LINE#         146
  C:7752H         LINE#         147
  C:7752H         LINE#         148
  C:7760H         LINE#         149
BL51 BANKED LINKER/LOCATER V6.22                                                      03/11/2019  14:45:04  PAGE 37


  C:7764H         LINE#         151
  C:777DH         LINE#         152
  C:7795H         LINE#         153
  C:77A2H         LINE#         154
  C:77A2H         LINE#         155
  C:77A8H         LINE#         156
  C:77AAH         LINE#         157
  C:77AFH         LINE#         158
  C:77AFH         LINE#         159
  C:77C6H         LINE#         160
  C:77CBH         LINE#         161
  C:77CBH         LINE#         162
  C:77CEH         LINE#         163
  C:77D0H         LINE#         164
  C:77D5H         LINE#         165
  C:77D5H         LINE#         166
  C:77DEH         LINE#         167
  C:77E1H         LINE#         168
  C:77EAH         LINE#         169
  C:77EAH         LINE#         170
  C:77F8H         LINE#         171
  C:77F8H         LINE#         172
  C:77FDH         LINE#         173
  C:780BH         LINE#         174
  C:7813H         LINE#         175
  C:7821H         LINE#         176
  C:7824H         LINE#         177
  C:7824H         LINE#         178
  C:7824H         LINE#         184
  -------         ENDPROC       PROC_INITIALIZE_INRAM
  -------         PROC          PROC_SLEEP_WHEN_RESET
  -------         DO            
  X:0000H         SYMBOL        check_cnt
  X:0001H         SYMBOL        check_cnt2
  -------         ENDDO         
  C:E3A5H         LINE#         196
  C:E3A5H         LINE#         197
  C:E3A5H         LINE#         201
  C:E3AAH         LINE#         202
  C:E3ACH         LINE#         204
  C:E3BAH         LINE#         272
  C:E3C8H         LINE#         273
  C:E3CBH         LINE#         274
  C:E3CEH         LINE#         276
  C:E3D1H         LINE#         277
  C:E3D4H         LINE#         278
  C:E3D7H         LINE#         279
  C:E3DEH         LINE#         281
  C:E3E1H         LINE#         282
  C:E3E4H         LINE#         283
  C:E3E9H         LINE#         284
  C:E3E9H         LINE#         285
  C:E3ECH         LINE#         286
  C:E3ECH         LINE#         288
  -------         ENDPROC       PROC_SLEEP_WHEN_RESET
  -------         PROC          PROC_INITIALIZE_SYSTERM_NORMAL_MODE
  C:D21AH         LINE#         303
BL51 BANKED LINKER/LOCATER V6.22                                                      03/11/2019  14:45:04  PAGE 38


  C:D21AH         LINE#         304
  C:D21AH         LINE#         305
  C:D225H         LINE#         306
  C:D228H         LINE#         307
  C:D22BH         LINE#         308
  C:D230H         LINE#         309
  C:D23EH         LINE#         310
  C:D241H         LINE#         313
  C:D244H         LINE#         314
  C:D249H         LINE#         315
  C:D24CH         LINE#         316
  C:D251H         LINE#         317
  C:D254H         LINE#         318
  C:D268H         LINE#         319
  C:D26EH         LINE#         320
  C:D272H         LINE#         321
  C:D279H         LINE#         322
  C:D28DH         LINE#         323
  C:D293H         LINE#         324
  -------         ENDPROC       PROC_INITIALIZE_SYSTERM_NORMAL_MODE
  -------         PROC          PROC_INITIALIZE_SYSTERM_RESET
  C:EA4CH         LINE#         336
  C:EA4CH         LINE#         337
  C:EA4CH         LINE#         339
  C:EA4FH         LINE#         340
  C:EA55H         LINE#         341
  C:EA55H         LINE#         342
  C:EA5CH         LINE#         343
  C:EA5CH         LINE#         344
  C:EA62H         LINE#         345
  C:EA62H         LINE#         346
  C:EA68H         LINE#         347
  C:EA6AH         LINE#         349
  C:EA6AH         LINE#         350
  C:EA6FH         LINE#         351
  C:EA6FH         LINE#         353
  C:EA76H         LINE#         354
  C:EA76H         LINE#         355
  C:EA79H         LINE#         356
  C:EA79H         LINE#         358
  C:EA79H         LINE#         359
  C:EA7CH         LINE#         360
  C:EA7CH         LINE#         361
  -------         ENDPROC       PROC_INITIALIZE_SYSTERM_RESET
  -------         PROC          PROC_DISPLAY_POWER_DOWN_PROCESS
  C:E14DH         LINE#         363
  C:E14DH         LINE#         364
  C:E14DH         LINE#         370
  C:E156H         LINE#         371
  C:E156H         LINE#         372
  C:E15BH         LINE#         375
  C:E15BH         LINE#         382
  C:E162H         LINE#         383
  C:E162H         LINE#         384
  C:E164H         LINE#         385
  C:E16BH         LINE#         386
  C:E16BH         LINE#         387
BL51 BANKED LINKER/LOCATER V6.22                                                      03/11/2019  14:45:04  PAGE 39


  C:E16DH         LINE#         388
  C:E16FH         LINE#         390
  C:E16FH         LINE#         391
  C:E175H         LINE#         392
  C:E175H         LINE#         393
  C:E178H         LINE#         394
  C:E17EH         LINE#         395
  C:E180H         LINE#         397
  C:E180H         LINE#         398
  C:E189H         LINE#         399
  C:E18CH         LINE#         400
  C:E18CH         LINE#         401
  C:E192H         LINE#         402
  C:E192H         LINE#         403
  C:E196H         LINE#         404
  C:E199H         LINE#         405
  C:E199H         LINE#         407
  -------         ENDPROC       PROC_DISPLAY_POWER_DOWN_PROCESS
  -------         PROC          PROC_JUDGE_POWER_DOWN_PROCESS
  -------         DO            
  X:0000H         SYMBOL        rtc_data_tmp
  -------         ENDDO         
  C:89E4H         LINE#         417
  C:89E4H         LINE#         418
  C:89E4H         LINE#         421
  C:89EDH         LINE#         422
  C:89EDH         LINE#         423
  C:89EFH         LINE#         424
  C:89F1H         LINE#         425
  C:89F4H         LINE#         426
  C:8A0DH         LINE#         430
  C:8A13H         LINE#         432
  C:8A2DH         LINE#         434
  C:8A33H         LINE#         435
  C:8A3AH         LINE#         443
  C:8A40H         LINE#         444
  C:8A44H         LINE#         445
  C:8A4BH         LINE#         450
  C:8A63H         LINE#         452
  C:8A66H         LINE#         453
  C:8A69H         LINE#         455
  C:8A6CH         LINE#         458
  C:8A71H         LINE#         459
  C:8A78H         LINE#         461
  C:8A7BH         LINE#         462
  C:8A7EH         LINE#         463
  C:8A81H         LINE#         469
  C:8A86H         LINE#         470
  C:8A8AH         LINE#         471
  C:8A8AH         LINE#         472
  C:8A8AH         LINE#         473
  C:8A98H         LINE#         474
  C:8A9FH         LINE#         475
  C:8AA2H         LINE#         476
  C:8AA5H         LINE#         477
  C:8AA8H         LINE#         480
  C:8AB6H         LINE#         481
BL51 BANKED LINKER/LOCATER V6.22                                                      03/11/2019  14:45:04  PAGE 40


  C:8AC1H         LINE#         485
  C:8ACAH         LINE#         486
  C:8AE8H         LINE#         492
  C:8AEDH         LINE#         493
  C:8AEDH         LINE#         494
  C:8AF0H         LINE#         495
  C:8AF3H         LINE#         496
  C:8AF6H         LINE#         498
  C:8B10H         LINE#         499
  C:8B2AH         LINE#         500
  C:8B43H         LINE#         505
  C:8B46H         LINE#         506
  C:8B46H         LINE#         507
  C:8B49H         LINE#         509
  C:8B4CH         LINE#         510
  C:8B4FH         LINE#         511
  C:8B4FH         LINE#         513
  C:8B4FH         LINE#         515
  C:8B4FH         LINE#         516
  -------         ENDPROC       PROC_JUDGE_POWER_DOWN_PROCESS
  -------         PROC          SYS_ERR
  C:F04EH         LINE#         527
  C:F04EH         LINE#         528
  C:F04EH         LINE#         529
  C:F05CH         LINE#         531
  C:F05CH         LINE#         532
  C:F05CH         LINE#         533
  C:F05DH         LINE#         534
  C:F05EH         LINE#         535
  C:F05FH         LINE#         536
  -------         ENDPROC       SYS_ERR
  -------         ENDMOD        PROC_SYSTEM_INITIALIZE

  -------         MODULE        PROC_SYSTEM_INTERRUPT
  C:0000H         SYMBOL        _ICE_DUMMY_
  D:0090H         PUBLIC        P1
  D:00B0H         PUBLIC        P3
  C:EFB9H         PUBLIC        Interrupt_Uart1
  D:00A8H         PUBLIC        IE
  C:004EH         PUBLIC        Interrupt_Int0
  C:F0EAH         PUBLIC        Interrupt_Int1
  D:00B8H         PUBLIC        IP
  D:0091H         PUBLIC        EXIF
  D:0098H         PUBLIC        SCON
  D:0088H         PUBLIC        TCON
  D:00F0H         PUBLIC        B
  D:00E0H         PUBLIC        ACC
  D:008CH         PUBLIC        TH0
  B:00D0H.0       PUBLIC        P
  D:008AH         PUBLIC        TL0
  C:94E6H         PUBLIC        Interrupt_ExInt2
  C:DC4DH         PUBLIC        Interrupt_ExInt3
  C:EB3AH         PUBLIC        Interrupt_ExInt4
  D:0080H         PUBLIC        SysCtrl
  D:00C0H         PUBLIC        SCON1
  D:00C8H         PUBLIC        T2CON
  C:DF53H         PUBLIC        Interrupt_Timer0
BL51 BANKED LINKER/LOCATER V6.22                                                      03/11/2019  14:45:04  PAGE 41


  C:F0EEH         PUBLIC        Interrupt_Timer1
  C:F0F2H         PUBLIC        Interrupt_Timer2
  D:00D0H         PUBLIC        PSW
  -------         PROC          INTERRUPT_INT0
  C:004EH         LINE#         27
  C:004EH         LINE#         29
  C:0051H         LINE#         32
  -------         ENDPROC       INTERRUPT_INT0
  -------         PROC          INTERRUPT_TIMER0
  C:DF53H         LINE#         38
  C:DF5BH         LINE#         41
  C:DF5EH         LINE#         42
  C:DF61H         LINE#         45
  C:DF68H         LINE#         47
  C:DF7CH         LINE#         48
  C:DF83H         LINE#         49
  C:DF83H         LINE#         50
  C:DF9EH         LINE#         51
  C:DF9EH         LINE#         66
  C:DFA4H         LINE#         81
  -------         ENDPROC       INTERRUPT_TIMER0
  -------         PROC          INTERRUPT_INT1
  C:F0EAH         LINE#         87
  C:F0EAH         LINE#         89
  C:F0EDH         LINE#         90
  -------         ENDPROC       INTERRUPT_INT1
  -------         PROC          INTERRUPT_TIMER1
  C:F0EEH         LINE#         95
  C:F0EEH         LINE#         97
  C:F0F1H         LINE#         101
  -------         ENDPROC       INTERRUPT_TIMER1
  -------         PROC          INTERRUPT_TIMER2
  C:F0F2H         LINE#         107
  C:F0F2H         LINE#         109
  C:F0F5H         LINE#         112
  -------         ENDPROC       INTERRUPT_TIMER2
  -------         PROC          INTERRUPT_UART1
  C:EFB9H         LINE#         118
  C:EFBBH         LINE#         120
  C:EFC0H         LINE#         121
  C:EFC0H         LINE#         122
  C:EFC3H         LINE#         124
  C:EFC5H         LINE#         125
  C:EFCAH         LINE#         126
  C:EFCAH         LINE#         127
  C:EFCDH         LINE#         129
  C:EFCDH         LINE#         130
  -------         ENDPROC       INTERRUPT_UART1
  -------         PROC          INTERRUPT_EXINT2
  -------         DO            
  X:0234H         SYMBOL        buf
  X:0235H         SYMBOL        temp_ifg
  -------         ENDDO         
  C:94E6H         LINE#         138
  C:94F3H         LINE#         143
  C:9501H         LINE#         222
  C:9508H         LINE#         223
BL51 BANKED LINKER/LOCATER V6.22                                                      03/11/2019  14:45:04  PAGE 42


  C:9508H         LINE#         224
  C:950FH         LINE#         225
  C:9516H         LINE#         226
  C:951FH         LINE#         227
  C:951FH         LINE#         228
  C:9530H         LINE#         229
  C:9537H         LINE#         230
  C:9537H         LINE#         232
  C:953FH         LINE#         233
  C:9542H         LINE#         234
  C:9542H         LINE#         235
  C:9546H         LINE#         236
  C:9548H         LINE#         238
  C:9548H         LINE#         239
  C:954DH         LINE#         240
  C:954DH         LINE#         241
  C:954DH         LINE#         242
  C:9555H         LINE#         243
  C:955CH         LINE#         244
  C:9568H         LINE#         245
  C:956EH         LINE#         246
  C:9574H         LINE#         247
  C:9576H         LINE#         249
  C:9576H         LINE#         251
  C:957BH         LINE#         252
  C:9581H         LINE#         253
  C:9584H         LINE#         254
  C:9589H         LINE#         255
  C:9589H         LINE#         278
  C:9589H         LINE#         287
  C:9591H         LINE#         288
  C:9591H         LINE#         290
  C:9598H         LINE#         291
  C:959FH         LINE#         292
  C:95A5H         LINE#         293
  C:95B8H         LINE#         294
  C:95BFH         LINE#         295
  C:95C5H         LINE#         296
  C:95CCH         LINE#         297
  C:95CCH         LINE#         298
  C:95CDH         LINE#         299
  C:95CEH         LINE#         300
  C:95CEH         LINE#         301
  C:95DAH         LINE#         302
  C:95DFH         LINE#         303
  C:95DFH         LINE#         304
  C:95E0H         LINE#         305
  C:95E1H         LINE#         306
  C:95E1H         LINE#         323
  C:95E1H         LINE#         329
  C:95E5H         LINE#         330
  C:95E5H         LINE#         331
  C:95ECH         LINE#         333
  C:95ECH         LINE#         334
  C:95F3H         LINE#         335
  C:95F3H         LINE#         336
  C:95FAH         LINE#         338
BL51 BANKED LINKER/LOCATER V6.22                                                      03/11/2019  14:45:04  PAGE 43


  C:95FAH         LINE#         339
  C:9602H         LINE#         340
  C:9602H         LINE#         341
  C:9609H         LINE#         343
  C:9609H         LINE#         348
  C:960DH         LINE#         349
  C:960DH         LINE#         350
  C:9614H         LINE#         352
  C:961AH         LINE#         354
  C:961AH         LINE#         360
  C:961DH         LINE#         361
  -------         ENDPROC       INTERRUPT_EXINT2
  -------         PROC          INTERRUPT_EXINT3
  -------         DO            
  D:0015H         SYMBOL        temp_ifg
  -------         ENDDO         
  C:DC4DH         LINE#         368
  C:DC58H         LINE#         372
  C:DC63H         LINE#         373
  C:DC66H         LINE#         374
  C:DC66H         LINE#         375
  C:DC6DH         LINE#         377
  C:DC6DH         LINE#         378
  C:DC73H         LINE#         379
  C:DC73H         LINE#         380
  C:DC7AH         LINE#         382
  C:DC7AH         LINE#         383
  C:DC80H         LINE#         384
  C:DC80H         LINE#         385
  C:DC87H         LINE#         387
  C:DC8EH         LINE#         388
  C:DC94H         LINE#         390
  C:DC94H         LINE#         393
  C:DC9AH         LINE#         394
  C:DC9AH         LINE#         395
  C:DCA1H         LINE#         396
  C:DCA7H         LINE#         401
  C:DCA7H         LINE#         402
  C:DCAAH         LINE#         403
  -------         ENDPROC       INTERRUPT_EXINT3
  -------         PROC          INTERRUPT_EXINT4
  -------         DO            
  D:0017H         SYMBOL        temp_ifg
  -------         ENDDO         
  C:EB3AH         LINE#         409
  C:EB45H         LINE#         414
  C:EB50H         LINE#         430
  C:EB53H         LINE#         431
  C:EB53H         LINE#         441
  C:EB5AH         LINE#         443
  C:EB5AH         LINE#         455
  C:EB5DH         LINE#         456
  -------         ENDPROC       INTERRUPT_EXINT4
  -------         ENDMOD        PROC_SYSTEM_INTERRUPT

  -------         MODULE        PROC_SYSTEM_TOU
  C:0000H         SYMBOL        _ICE_DUMMY_
BL51 BANKED LINKER/LOCATER V6.22                                                      03/11/2019  14:45:04  PAGE 44


  D:00CEH         PUBLIC        wdt0
  D:0090H         PUBLIC        P1
  D:00CFH         PUBLIC        wdt1
  D:00B0H         PUBLIC        P3
  X:06ABH         PUBLIC        MD_delay
  X:06ACH         PUBLIC        MD_flag
  D:00A8H         PUBLIC        IE
  X:06ADH         PUBLIC        button_delay
  C:F0F6H         PUBLIC        Proc_init_tou_var
  X:06AEH         PUBLIC        TestDelay
  X:06AFH         PUBLIC        MAGN_delay
  D:00B8H         PUBLIC        IP
  X:06B0H         PUBLIC        button_flag
  X:06B1H         PUBLIC        MAGN_flag
  X:06B2H         PUBLIC        MD_dis_delay
  C:CA5DH         PUBLIC        Proc_get_clock
  D:0098H         PUBLIC        SCON
  D:0088H         PUBLIC        TCON
  X:06B3H         PUBLIC        KEY_READ_DELAY
  C:F107H         PUBLIC        Proc_Auto_ClrMeter_Pre_sec
  C:939FH         PUBLIC        Proc_handl_tou_1s
  X:06B4H         PUBLIC        gs_tou_var
  D:00F0H         PUBLIC        B
  X:06BCH         PUBLIC        gs_auto_clrMeter_var
  D:00E0H         PUBLIC        ACC
  C:F0B2H         PUBLIC        Initlize_Auto_ClrMeter_Var
  D:0080H         PUBLIC        SysCtrl
  C:ECFDH         PUBLIC        Proc_handl_tou_10ms
  X:06BEH         PUBLIC        Bill_Data
  X:06BFH         PUBLIC        KEY_READ_FLAG
  X:06C0H         PUBLIC        IsModeTest
  D:00C8H         PUBLIC        T2CON
  C:CF81H         PUBLIC        api_handl_button_pre_10ms
  X:06C1H         PUBLIC        gs_CurDateTime
  D:00D0H         PUBLIC        PSW
  -------         PROC          PROC_GET_CLOCK
  -------         DO            
  X:000DH         SYMBOL        rtc_data_tmp
  -------         ENDDO         
  C:CA5DH         LINE#         52
  C:CA5DH         LINE#         53
  C:CA5DH         LINE#         57
  C:CA66H         LINE#         58
  C:CA72H         LINE#         59
  C:CA72H         LINE#         60
  C:CA8BH         LINE#         61
  C:CA97H         LINE#         62
  C:CA97H         LINE#         64
  C:CA9DH         LINE#         65
  C:CAA1H         LINE#         66
  C:CAA5H         LINE#         67
  C:CAA9H         LINE#         68
  C:CAADH         LINE#         69
  C:CAB1H         LINE#         70
  C:CAB3H         LINE#         71
  C:CACDH         LINE#         72
  C:CACDH         LINE#         73
BL51 BANKED LINKER/LOCATER V6.22                                                      03/11/2019  14:45:04  PAGE 45


  C:CAD6H         LINE#         74
  C:CAD6H         LINE#         75
  -------         ENDPROC       PROC_GET_CLOCK
  -------         PROC          PROC_INIT_TOU_VAR
  C:F0F6H         LINE#         91
  C:F0F6H         LINE#         92
  C:F0F6H         LINE#         93
  -------         ENDPROC       PROC_INIT_TOU_VAR
  -------         PROC          API_HANDL_BUTTON_PRE_10MS
  C:CF81H         LINE#         96
  C:CF81H         LINE#         97
  C:CF81H         LINE#         98
  C:CF8DH         LINE#         99
  C:CF8DH         LINE#         100
  C:CF8FH         LINE#         101
  C:CF95H         LINE#         102
  C:CF95H         LINE#         103
  C:CF9BH         LINE#         104
  C:CF9BH         LINE#         105
  C:CFA0H         LINE#         106
  C:CFA4H         LINE#         107
  C:CFA4H         LINE#         108
  C:CFB3H         LINE#         109
  C:CFB3H         LINE#         110
  C:CFB8H         LINE#         111
  C:CFBCH         LINE#         113
  C:CFBCH         LINE#         114
  C:CFC3H         LINE#         115
  C:CFC3H         LINE#         116
  C:CFC7H         LINE#         117
  C:CFC7H         LINE#         118
  C:CFD6H         LINE#         119
  C:CFD6H         LINE#         120
  C:CFD9H         LINE#         121
  C:CFDDH         LINE#         122
  C:CFDDH         LINE#         123
  C:CFE4H         LINE#         124
  C:CFE4H         LINE#         125
  C:CFE8H         LINE#         126
  C:CFE8H         LINE#         127
  C:CFF7H         LINE#         128
  C:CFF7H         LINE#         129
  C:CFFCH         LINE#         130
  C:D000H         LINE#         132
  C:D000H         LINE#         133
  C:D007H         LINE#         134
  C:D007H         LINE#         135
  C:D00BH         LINE#         136
  C:D00BH         LINE#         137
  -------         ENDPROC       API_HANDL_BUTTON_PRE_10MS
  -------         PROC          PROC_HANDL_TOU_10MS
  -------         DO            
  X:0000H         SYMBOL        i
  -------         ENDDO         
  C:ECFDH         LINE#         152
  C:ECFDH         LINE#         153
  C:ECFDH         LINE#         157
BL51 BANKED LINKER/LOCATER V6.22                                                      03/11/2019  14:45:04  PAGE 46


  C:ED0CH         LINE#         158
  C:ED0CH         LINE#         159
  C:ED0FH         LINE#         160
  C:ED17H         LINE#         161
  C:ED1FH         LINE#         162
  -------         ENDPROC       PROC_HANDL_TOU_10MS
  -------         PROC          PROC_HANDL_TOU_1S
  C:939FH         LINE#         180
  C:939FH         LINE#         181
  C:939FH         LINE#         186
  C:93A2H         LINE#         188
  C:93B0H         LINE#         189
  C:93B9H         LINE#         190
  C:93B9H         LINE#         191
  C:93BCH         LINE#         192
  C:93BFH         LINE#         193
  C:93BFH         LINE#         195
  C:93C5H         LINE#         196
  C:93C5H         LINE#         199
  C:93C8H         LINE#         200
  C:93D6H         LINE#         202
  C:93D9H         LINE#         203
  C:93E7H         LINE#         204
  C:93EAH         LINE#         206
  C:93EDH         LINE#         207
  C:93FBH         LINE#         209
  C:93FEH         LINE#         211
  C:9401H         LINE#         212
  C:9404H         LINE#         213
  C:9404H         LINE#         214
  C:940AH         LINE#         215
  C:940AH         LINE#         216
  C:9413H         LINE#         217
  C:9413H         LINE#         218
  C:9413H         LINE#         219
  C:9415H         LINE#         220
  C:941BH         LINE#         221
  C:9421H         LINE#         223
  C:9421H         LINE#         224
  C:9423H         LINE#         225
  C:942CH         LINE#         226
  C:942CH         LINE#         227
  C:942FH         LINE#         228
  C:9431H         LINE#         229
  C:9436H         LINE#         230
  C:9436H         LINE#         231
  C:9436H         LINE#         232
  C:943CH         LINE#         233
  C:943CH         LINE#         235
  C:943FH         LINE#         237
  C:9442H         LINE#         238
  C:9444H         LINE#         240
  C:9444H         LINE#         241
  C:944AH         LINE#         242
  C:944AH         LINE#         247
  C:944DH         LINE#         249
  C:9453H         LINE#         250
BL51 BANKED LINKER/LOCATER V6.22                                                      03/11/2019  14:45:04  PAGE 47


  C:9453H         LINE#         251
  C:9456H         LINE#         252
  C:9464H         LINE#         253
  C:9467H         LINE#         254
  C:9475H         LINE#         256
  C:9478H         LINE#         257
  C:947BH         LINE#         260
  C:9482H         LINE#         261
  C:9482H         LINE#         262
  C:9490H         LINE#         263
  C:9493H         LINE#         264
  C:9493H         LINE#         265
  C:94A1H         LINE#         267
  C:94A4H         LINE#         268
  C:94B2H         LINE#         270
  C:94B5H         LINE#         273
  C:94B5H         LINE#         275
  C:94BCH         LINE#         276
  C:94BCH         LINE#         277
  C:94BFH         LINE#         278
  C:94CDH         LINE#         279
  C:94CDH         LINE#         282
  C:94D4H         LINE#         283
  C:94D4H         LINE#         284
  C:94D7H         LINE#         285
  C:94E5H         LINE#         286
  C:94E5H         LINE#         288
  -------         ENDPROC       PROC_HANDL_TOU_1S
  -------         PROC          PROC_AUTO_CLRMETER_PRE_SEC
  C:F107H         LINE#         298
  C:F107H         LINE#         299
  C:F107H         LINE#         302
  -------         ENDPROC       PROC_AUTO_CLRMETER_PRE_SEC
  -------         PROC          INITLIZE_AUTO_CLRMETER_VAR
  C:F0B2H         LINE#         313
  C:F0B2H         LINE#         314
  C:F0B2H         LINE#         316
  C:F0B7H         LINE#         317
  C:F0BBH         LINE#         319
  -------         ENDPROC       INITLIZE_AUTO_CLRMETER_VAR
  -------         ENDMOD        PROC_SYSTEM_TOU

  -------         MODULE        DRV_E2P_24CXXX
  C:0000H         SYMBOL        _ICE_DUMMY_
  D:0090H         PUBLIC        P1
  D:00B0H         PUBLIC        P3
  C:D19FH         PUBLIC        _Read_EEPROM_Page
  D:00A8H         PUBLIC        IE
  C:BCCEH         PUBLIC        _Read_EEPROM_Page_Sub
  C:CE68H         PUBLIC        _Write_EEPROM_Page
  D:00B8H         PUBLIC        IP
  C:C23CH         PUBLIC        _Write_EEPROM_Page_Sub
  C:C43AH         PUBLIC        _Read_EEPROM
  D:0098H         PUBLIC        SCON
  D:0088H         PUBLIC        TCON
  C:C754H         PUBLIC        _Write_EEPROM
  D:00F0H         PUBLIC        B
BL51 BANKED LINKER/LOCATER V6.22                                                      03/11/2019  14:45:04  PAGE 48


  D:00E0H         PUBLIC        ACC
  D:0080H         PUBLIC        SysCtrl
  D:00C8H         PUBLIC        T2CON
  D:00D0H         PUBLIC        PSW
  C:BCC8H         SYMBOL        L?0054
  -------         PROC          L?0053
  -------         ENDPROC       L?0053
  C:BCC8H         SYMBOL        L?0054
  -------         PROC          _READ_EEPROM_PAGE_SUB
  X:022BH         SYMBOL        Buf
  X:022EH         SYMBOL        Addr
  X:0230H         SYMBOL        Len
  -------         DO            
  X:0231H         SYMBOL        NewWrCmd
  X:0232H         SYMBOL        NewRdCmd
  X:0233H         SYMBOL        err_cnt
  -------         ENDDO         
  C:BCCEH         LINE#         30
  C:BCDFH         LINE#         31
  C:BCDFH         LINE#         36
  C:BCE4H         LINE#         47
  C:BCEAH         LINE#         48
  C:BCEDH         LINE#         52
  C:BCEDH         LINE#         53
  C:BCF0H         LINE#         54
  C:BCF6H         LINE#         55
  C:BCFFH         LINE#         56
  C:BD02H         LINE#         57
  C:BD0DH         LINE#         62
  C:BD1DH         LINE#         63
  C:BD2EH         LINE#         66
  C:BD31H         LINE#         68
  C:BD41H         LINE#         70
  C:BD4BH         LINE#         71
  C:BD4BH         LINE#         72
  C:BD65H         LINE#         73
  C:BD6FH         LINE#         74
  C:BD71H         LINE#         75
  C:BD74H         LINE#         76
  C:BD76H         LINE#         77
  -------         ENDPROC       _READ_EEPROM_PAGE_SUB
  -------         PROC          _WRITE_EEPROM_PAGE_SUB
  X:01E0H         SYMBOL        Addr
  X:01E2H         SYMBOL        Buf
  X:01E5H         SYMBOL        Len
  -------         DO            
  X:01E6H         SYMBOL        NewWrCmd
  X:01E7H         SYMBOL        NewRdCmd
  X:01E8H         SYMBOL        err_cnt
  -------         ENDDO         
  C:C23CH         LINE#         88
  C:C24DH         LINE#         89
  C:C24DH         LINE#         95
  C:C252H         LINE#         104
  C:C258H         LINE#         105
  C:C25BH         LINE#         108
  C:C25CH         LINE#         110
BL51 BANKED LINKER/LOCATER V6.22                                                      03/11/2019  14:45:04  PAGE 49


  C:C25CH         LINE#         111
  C:C25FH         LINE#         112
  C:C265H         LINE#         113
  C:C26EH         LINE#         114
  C:C271H         LINE#         115
  C:C27CH         LINE#         120
  C:C28CH         LINE#         121
  C:C29DH         LINE#         125
  C:C29DH         LINE#         126
  C:C2B4H         LINE#         127
  C:C2B4H         LINE#         128
  C:C2B5H         LINE#         129
  C:C2B8H         LINE#         130
  C:C2B8H         LINE#         131
  C:C2C2H         LINE#         132
  C:C2D0H         LINE#         133
  C:C2D6H         LINE#         134
  C:C2D9H         LINE#         136
  C:C2DCH         LINE#         138
  C:C2E3H         LINE#         140
  C:C2E4H         LINE#         142
  C:C2E6H         LINE#         143
  -------         ENDPROC       _WRITE_EEPROM_PAGE_SUB
  -------         PROC          _READ_EEPROM_PAGE
  X:01E4H         SYMBOL        u8p_dst
  X:01E7H         SYMBOL        u16_src
  X:01E9H         SYMBOL        u8_len
  -------         DO            
  X:01EAH         SYMBOL        data00
  X:022AH         SYMBOL        i
  -------         ENDDO         
  C:D19FH         LINE#         157
  C:D1B0H         LINE#         158
  C:D1B0H         LINE#         162
  C:D1BEH         LINE#         163
  C:D1BEH         LINE#         164
  C:D1C1H         LINE#         165
  C:D1C1H         LINE#         166
  C:D1C6H         LINE#         167
  C:D1C6H         LINE#         168
  C:D1D2H         LINE#         169
  C:D1E1H         LINE#         170
  C:D20BH         LINE#         171
  C:D217H         LINE#         172
  C:D219H         LINE#         173
  -------         ENDPROC       _READ_EEPROM_PAGE
  -------         PROC          _WRITE_EEPROM_PAGE
  X:0199H         SYMBOL        u16_dst
  X:019BH         SYMBOL        u8p_src
  X:019EH         SYMBOL        u8_len
  -------         DO            
  X:019FH         SYMBOL        data00
  X:01DFH         SYMBOL        i
  -------         ENDDO         
  C:CE68H         LINE#         186
  C:CE79H         LINE#         187
  C:CE79H         LINE#         191
BL51 BANKED LINKER/LOCATER V6.22                                                      03/11/2019  14:45:04  PAGE 50


  C:CE87H         LINE#         192
  C:CE87H         LINE#         193
  C:CE8AH         LINE#         194
  C:CE8AH         LINE#         195
  C:CE8FH         LINE#         196
  C:CE8FH         LINE#         197
  C:CEA9H         LINE#         198
  C:CEBCH         LINE#         199
  C:CEE6H         LINE#         200
  C:CEF2H         LINE#         201
  C:CEF4H         LINE#         202
  -------         ENDPROC       _WRITE_EEPROM_PAGE
  -------         PROC          _READ_EEPROM
  X:01DCH         SYMBOL        u8p_dst
  X:01DFH         SYMBOL        u16_src
  X:01E1H         SYMBOL        u16_len
  -------         DO            
  D:0005H         SYMBOL        tmp
  X:01E3H         SYMBOL        u8_lenth
  -------         ENDDO         
  C:C43AH         LINE#         216
  C:C44BH         LINE#         217
  C:C44BH         LINE#         221
  C:C45BH         LINE#         222
  C:C45BH         LINE#         223
  C:C463H         LINE#         224
  C:C465H         LINE#         225
  C:C465H         LINE#         226
  C:C46CH         LINE#         227
  C:C46EH         LINE#         229
  C:C46EH         LINE#         230
  C:C474H         LINE#         231
  C:C474H         LINE#         232
  C:C488H         LINE#         234
  C:C4A9H         LINE#         235
  C:C4BAH         LINE#         236
  C:C4C6H         LINE#         237
  C:C4D4H         LINE#         238
  C:C4D7H         LINE#         239
  C:C4D9H         LINE#         240
  -------         ENDPROC       _READ_EEPROM
  -------         PROC          _WRITE_EEPROM
  X:0191H         SYMBOL        u16_dst
  X:0193H         SYMBOL        u8p_src
  X:0196H         SYMBOL        u16_len
  -------         DO            
  D:0003H         SYMBOL        tmp
  X:0198H         SYMBOL        u8_lenth
  -------         ENDDO         
  C:C754H         LINE#         253
  C:C765H         LINE#         254
  C:C765H         LINE#         258
  C:C775H         LINE#         259
  C:C775H         LINE#         260
  C:C780H         LINE#         261
  C:C782H         LINE#         262
  C:C782H         LINE#         263
BL51 BANKED LINKER/LOCATER V6.22                                                      03/11/2019  14:45:04  PAGE 51


  C:C789H         LINE#         264
  C:C78BH         LINE#         266
  C:C78BH         LINE#         267
  C:C791H         LINE#         268
  C:C791H         LINE#         269
  C:C7A5H         LINE#         272
  C:C7C0H         LINE#         273
  C:C7D4H         LINE#         274
  C:C7DDH         LINE#         275
  C:C7EBH         LINE#         276
  C:C7EEH         LINE#         277
  C:C7F0H         LINE#         278
  -------         ENDPROC       _WRITE_EEPROM
  -------         ENDMOD        DRV_E2P_24CXXX

  -------         MODULE        DRV_E2P_I2CSOFT
  C:0000H         SYMBOL        _ICE_DUMMY_
  D:0090H         PUBLIC        P1
  D:00B0H         PUBLIC        P3
  C:CDDAH         PUBLIC        _E2p_RxByte_i2c
  C:C7F1H         PUBLIC        _E2p_TxByte_i2c
  D:00A8H         PUBLIC        IE
  D:00B8H         PUBLIC        IP
  D:0098H         PUBLIC        SCON
  D:0088H         PUBLIC        TCON
  C:E979H         PUBLIC        E2p_Start_i2c
  D:00F0H         PUBLIC        B
  D:00E0H         PUBLIC        ACC
  C:EE13H         PUBLIC        E2p_IIC_Initail
  C:E738H         PUBLIC        E2p_Stop_i2c
  D:0080H         PUBLIC        SysCtrl
  D:00C8H         PUBLIC        T2CON
  D:00D0H         PUBLIC        PSW
  -------         PROC          E2P_IIC_INITAIL
  C:EE13H         LINE#         28
  C:EE13H         LINE#         29
  C:EE13H         LINE#         30
  C:EE1FH         LINE#         31
  C:EE24H         LINE#         32
  C:EE30H         LINE#         33
  -------         ENDPROC       E2P_IIC_INITAIL
  -------         PROC          E2P_START_I2C
  C:E979H         LINE#         43
  C:E979H         LINE#         44
  C:E979H         LINE#         45
  C:E985H         LINE#         46
  C:E98AH         LINE#         47
  C:E990H         LINE#         48
  C:E9A2H         LINE#         49
  C:E9A8H         LINE#         50
  C:E9AFH         LINE#         51
  -------         ENDPROC       E2P_START_I2C
  -------         PROC          E2P_STOP_I2C
  C:E738H         LINE#         61
  C:E738H         LINE#         62
  C:E738H         LINE#         82
  C:E74DH         LINE#         83
BL51 BANKED LINKER/LOCATER V6.22                                                      03/11/2019  14:45:04  PAGE 52


  C:E753H         LINE#         84
  C:E75AH         LINE#         85
  C:E760H         LINE#         86
  C:E76CH         LINE#         87
  C:E772H         LINE#         88
  -------         ENDPROC       E2P_STOP_I2C
  -------         PROC          _E2P_TXBYTE_I2C
  D:0007H         SYMBOL        txData
  -------         DO            
  D:0008H         SYMBOL        i
  -------         ENDDO         
  C:C7F1H         LINE#         99
  C:C7F1H         LINE#         100
  C:C7F1H         LINE#         101
  C:C7F4H         LINE#         104
  C:C7F6H         LINE#         105
  C:C7F6H         LINE#         106
  C:C7FDH         LINE#         107
  C:C801H         LINE#         108
  C:C801H         LINE#         109
  C:C80DH         LINE#         110
  C:C80FH         LINE#         112
  C:C80FH         LINE#         113
  C:C824H         LINE#         114
  C:C824H         LINE#         115
  C:C828H         LINE#         116
  C:C82FH         LINE#         117
  C:C835H         LINE#         118
  C:C83CH         LINE#         121
  C:C843H         LINE#         122
  C:C84FH         LINE#         123
  C:C852H         LINE#         124
  C:C855H         LINE#         125
  C:C855H         LINE#         126
  C:C85CH         LINE#         127
  C:C85CH         LINE#         128
  C:C863H         LINE#         129
  C:C869H         LINE#         130
  C:C86DH         LINE#         131
  C:C870H         LINE#         132
  C:C870H         LINE#         133
  C:C877H         LINE#         136
  C:C87EH         LINE#         137
  C:C884H         LINE#         138
  C:C888H         LINE#         139
  C:C88BH         LINE#         141
  C:C88DH         LINE#         142
  -------         ENDPROC       _E2P_TXBYTE_I2C
  -------         PROC          _E2P_RXBYTE_I2C
  D:0007H         SYMBOL        u8_ack
  -------         DO            
  D:0008H         SYMBOL        i
  D:0009H         SYMBOL        rxData
  -------         ENDDO         
  C:CDDAH         LINE#         153
  C:CDDAH         LINE#         154
  C:CDDAH         LINE#         155
BL51 BANKED LINKER/LOCATER V6.22                                                      03/11/2019  14:45:04  PAGE 53


  C:CDDDH         LINE#         156
  C:CDDFH         LINE#         158
  C:CDEBH         LINE#         159
  C:CDF0H         LINE#         162
  C:CDF3H         LINE#         163
  C:CDF3H         LINE#         164
  C:CDF9H         LINE#         165
  C:CE00H         LINE#         166
  C:CE06H         LINE#         167
  C:CE0BH         LINE#         168
  C:CE0BH         LINE#         169
  C:CE0EH         LINE#         170
  C:CE0EH         LINE#         171
  C:CE15H         LINE#         172
  C:CE1BH         LINE#         173
  C:CE22H         LINE#         176
  C:CE25H         LINE#         177
  C:CE25H         LINE#         178
  C:CE3AH         LINE#         179
  C:CE3CH         LINE#         181
  C:CE3CH         LINE#         182
  C:CE48H         LINE#         183
  C:CE48H         LINE#         185
  C:CE4FH         LINE#         186
  C:CE55H         LINE#         187
  C:CE59H         LINE#         188
  C:CE65H         LINE#         190
  C:CE67H         LINE#         191
  -------         ENDPROC       _E2P_RXBYTE_I2C
  -------         ENDMOD        DRV_E2P_I2CSOFT

  -------         MODULE        DRV_EMU_HARD
  C:0000H         SYMBOL        _ICE_DUMMY_
  D:0090H         PUBLIC        P1
  C:EC61H         PUBLIC        Close_Cf
  D:00B0H         PUBLIC        P3
  C:BF85H         PUBLIC        _SetMeterCfgI
  D:00A8H         PUBLIC        IE
  C:C6B6H         PUBLIC        _SetMeterCfgACK
  C:C618H         PUBLIC        _SetMeterCfgACKPM800K
  D:00B8H         PUBLIC        IP
  C:F026H         PUBLIC        OpenCF
  D:0098H         PUBLIC        SCON
  D:0088H         PUBLIC        TCON
  C:F108H         PUBLIC        Close_EmuPwr
  B:0080H.7       PUBLIC        MEAFRQ
  D:00F0H         PUBLIC        B
  D:00E0H         PUBLIC        ACC
  D:00E8H         PUBLIC        EIE
  C:9254H         PUBLIC        _ReadMeterParaACK
  D:0080H         PUBLIC        SysCtrl
  D:00C8H         PUBLIC        T2CON
  D:00D0H         PUBLIC        PSW
  -------         PROC          CLOSE_EMUPWR
  C:F108H         LINE#         91
  C:F108H         LINE#         92
  C:F108H         LINE#         94
BL51 BANKED LINKER/LOCATER V6.22                                                      03/11/2019  14:45:04  PAGE 54


  -------         ENDPROC       CLOSE_EMUPWR
  -------         PROC          OPENCF
  C:F026H         LINE#         103
  C:F026H         LINE#         104
  C:F026H         LINE#         105
  C:F02EH         LINE#         106
  C:F039H         LINE#         108
  -------         ENDPROC       OPENCF
  -------         PROC          CLOSE_CF
  -------         DO            
  D:0004H         SYMBOL        PmPara
  -------         ENDDO         
  C:EC61H         LINE#         118
  C:EC61H         LINE#         119
  C:EC61H         LINE#         122
  C:EC68H         LINE#         123
  C:EC6CH         LINE#         124
  C:EC79H         LINE#         126
  C:EC80H         LINE#         128
  C:EC87H         LINE#         129
  -------         ENDPROC       CLOSE_CF
  -------         PROC          _SETMETERCFGACKPM800K
  X:07D3H         SYMBOL        u32PMdatal
  X:07D7H         SYMBOL        addr
  -------         DO            
  D:0007H         SYMBOL        index
  -------         ENDDO         
  C:C618H         LINE#         140
  C:C61EH         LINE#         141
  C:C61EH         LINE#         143
  C:C620H         LINE#         145
  C:C626H         LINE#         146
  C:C628H         LINE#         147
  C:C62EH         LINE#         148
  C:C62EH         LINE#         149
  C:C62FH         LINE#         150
  C:C635H         LINE#         151
  C:C635H         LINE#         152
  C:C638H         LINE#         153
  C:C638H         LINE#         154
  C:C638H         LINE#         155
  C:C645H         LINE#         156
  C:C65DH         LINE#         157
  C:C675H         LINE#         158
  C:C68DH         LINE#         159
  C:C69AH         LINE#         160
  C:C69BH         LINE#         161
  C:C6A1H         LINE#         162
  C:C6A3H         LINE#         163
  C:C6A9H         LINE#         164
  C:C6A9H         LINE#         165
  C:C6AAH         LINE#         166
  C:C6B0H         LINE#         167
  C:C6B3H         LINE#         168
  C:C6B3H         LINE#         169
  C:C6B5H         LINE#         171
  -------         ENDPROC       _SETMETERCFGACKPM800K
BL51 BANKED LINKER/LOCATER V6.22                                                      03/11/2019  14:45:04  PAGE 55


  -------         PROC          _SETMETERCFGI
  X:07C5H         SYMBOL        u32PMdatal
  X:07C9H         SYMBOL        addr
  -------         DO            
  D:0003H         SYMBOL        index
  X:07CBH         SYMBOL        i
  -------         ENDDO         
  C:BF85H         LINE#         184
  C:BF8BH         LINE#         185
  C:BF8BH         LINE#         187
  C:BF8DH         LINE#         189
  C:BF93H         LINE#         190
  C:BF95H         LINE#         191
  C:BF9BH         LINE#         192
  C:BF9BH         LINE#         193
  C:BF9CH         LINE#         194
  C:BFA2H         LINE#         195
  C:BFA2H         LINE#         196
  C:BFA5H         LINE#         197
  C:BFA5H         LINE#         198
  C:BFA5H         LINE#         199
  C:BFB2H         LINE#         200
  C:BFCAH         LINE#         201
  C:BFE2H         LINE#         202
  C:BFFAH         LINE#         204
  C:BFFCH         LINE#         205
  C:BFFFH         LINE#         206
  C:BFFFH         LINE#         207
  C:C005H         LINE#         208
  C:C00BH         LINE#         209
  C:C00BH         LINE#         210
  C:C00BH         LINE#         211
  C:C00BH         LINE#         213
  C:C018H         LINE#         214
  C:C019H         LINE#         215
  C:C01FH         LINE#         216
  C:C021H         LINE#         217
  C:C027H         LINE#         218
  C:C027H         LINE#         219
  C:C028H         LINE#         220
  C:C02EH         LINE#         221
  C:C031H         LINE#         222
  C:C031H         LINE#         224
  C:C033H         LINE#         226
  -------         ENDPROC       _SETMETERCFGI
  -------         PROC          _SETMETERCFGACK
  X:00C6H         SYMBOL        u32PMdatal
  X:00CAH         SYMBOL        addr
  -------         DO            
  D:0007H         SYMBOL        index
  -------         ENDDO         
  C:C6B6H         LINE#         237
  C:C6BCH         LINE#         238
  C:C6BCH         LINE#         240
  C:C6BEH         LINE#         242
  C:C6C4H         LINE#         243
  C:C6C6H         LINE#         244
BL51 BANKED LINKER/LOCATER V6.22                                                      03/11/2019  14:45:04  PAGE 56


  C:C6CCH         LINE#         245
  C:C6CCH         LINE#         246
  C:C6CDH         LINE#         247
  C:C6D3H         LINE#         248
  C:C6D3H         LINE#         249
  C:C6D6H         LINE#         250
  C:C6D6H         LINE#         251
  C:C6D6H         LINE#         252
  C:C6E3H         LINE#         253
  C:C6FBH         LINE#         254
  C:C713H         LINE#         255
  C:C72BH         LINE#         256
  C:C738H         LINE#         257
  C:C739H         LINE#         258
  C:C73FH         LINE#         259
  C:C741H         LINE#         260
  C:C747H         LINE#         261
  C:C747H         LINE#         262
  C:C748H         LINE#         263
  C:C74EH         LINE#         264
  C:C751H         LINE#         265
  C:C751H         LINE#         267
  C:C753H         LINE#         268
  -------         ENDPROC       _SETMETERCFGACK
  -------         PROC          _READMETERPARAACK
  D:0006H         SYMBOL        addr
  -------         DO            
  D:0008H         SYMBOL        index
  X:00C6H         SYMBOL        u32PMdatal
  X:00CAH         SYMBOL        temp
  -------         ENDDO         
  C:9254H         LINE#         279
  C:9254H         LINE#         280
  C:9254H         LINE#         284
  C:925AH         LINE#         285
  C:925CH         LINE#         286
  C:925EH         LINE#         287
  C:9264H         LINE#         288
  C:9264H         LINE#         289
  C:9266H         LINE#         290
  C:926DH         LINE#         291
  C:926DH         LINE#         292
  C:926FH         LINE#         293
  C:926FH         LINE#         294
  C:926FH         LINE#         296
  C:9276H         LINE#         297
  C:9279H         LINE#         298
  C:9281H         LINE#         299
  C:9284H         LINE#         300
  C:928AH         LINE#         301
  C:928AH         LINE#         302
  C:928CH         LINE#         303
  C:9293H         LINE#         304
  C:9293H         LINE#         305
  C:9299H         LINE#         306
  C:9299H         LINE#         307
  C:9299H         LINE#         308
BL51 BANKED LINKER/LOCATER V6.22                                                      03/11/2019  14:45:04  PAGE 57


  C:92A8H         LINE#         309
  C:92BCH         LINE#         310
  C:92E8H         LINE#         311
  C:92F7H         LINE#         312
  C:9310H         LINE#         313
  C:933CH         LINE#         314
  C:934BH         LINE#         315
  C:9364H         LINE#         316
  C:9390H         LINE#         317
  C:939EH         LINE#         319
  -------         ENDPROC       _READMETERPARAACK
  -------         ENDMOD        DRV_EMU_HARD

  -------         MODULE        LNK_EMU_ADJ
  C:0000H         SYMBOL        _ICE_DUMMY_
  D:00CEH         PUBLIC        wdt0
  D:0090H         PUBLIC        P1
  D:00CFH         PUBLIC        wdt1
  D:00B0H         PUBLIC        P3
  B:00A8H.7       PUBLIC        EA
  X:05B2H         PUBLIC        gs_adj_emu_param
  D:00A8H         PUBLIC        IE
  C:822EH         PUBLIC        _CalculateSChz
  C:66C5H         PUBLIC        Check_EMU_AdjParam
  C:A2C0H         PUBLIC        _CalculateAC
  D:00B8H         PUBLIC        IP
  C:9E74H         PUBLIC        _Calibration_Angular
  C:7490H         PUBLIC        _SoftAdjust_Phase_Process
  C:A7D8H         PUBLIC        _CalculateSC
  C:8B50H         PUBLIC        _Get_Original_Power
  C:A5C2H         PUBLIC        TimeEventProc
  C:BB53H         PUBLIC        default_adj_emu_param_tab
  C:2DF2H         PUBLIC        Hardware_AdjustDiv_Sub
  D:0098H         PUBLIC        SCON
  C:BBD6H         PUBLIC        cst_emu_constchck_tab
  D:0088H         PUBLIC        TCON
  C:BBA9H         PUBLIC        cst_emu_selfchck_tab
  C:5D3AH         PUBLIC        _Calibration_Current
  C:8CB9H         PUBLIC        _Get_Original_Irms
  C:9F98H         PUBLIC        _SoftAdjust_IB_Process
  C:E898H         PUBLIC        Save_EMU_AdjParam
  X:05ECH         PUBLIC        gs_emu_adj_var
  D:00F0H         PUBLIC        B
  D:00E0H         PUBLIC        ACC
  C:BBE2H         PUBLIC        cst_emu_constchck_tab_9260f
  C:7D3EH         PUBLIC        _Calibration_small_signal
  C:E607H         PUBLIC        Get_EMU_AdjParam
  C:5562H         PUBLIC        _Measure_Electric_Err_Gain
  D:0080H         PUBLIC        SysCtrl
  C:B90CH         PUBLIC        _Calibration_Power
  C:BB8DH         PUBLIC        cst_adj_const
  D:00C8H         PUBLIC        T2CON
  C:B444H         PUBLIC        _SoftAdjust_IB5_Process
  D:00D0H         PUBLIC        PSW
  -------         PROC          SAVE_EMU_ADJPARAM
  C:E898H         LINE#         100
  C:E898H         LINE#         101
BL51 BANKED LINKER/LOCATER V6.22                                                      03/11/2019  14:45:04  PAGE 58


  C:E898H         LINE#         102
  C:E8B7H         LINE#         103
  -------         ENDPROC       SAVE_EMU_ADJPARAM
  -------         PROC          GET_EMU_ADJPARAM
  -------         DO            
  D:0006H         SYMBOL        csck_u16
  -------         ENDDO         
  C:E607H         LINE#         114
  C:E607H         LINE#         115
  C:E607H         LINE#         119
  C:E61EH         LINE#         120
  C:E62AH         LINE#         121
  C:E62AH         LINE#         122
  C:E644H         LINE#         123
  C:E644H         LINE#         124
  -------         ENDPROC       GET_EMU_ADJPARAM
  -------         PROC          CHECK_EMU_ADJPARAM
  -------         DO            
  X:00B1H         SYMBOL        regval
  X:00B5H         SYMBOL        i
  X:00B6H         SYMBOL        tmp_tab
  X:00BBH         SYMBOL        tmp_const_tab
  X:00C1H         SYMBOL        ucSum
  X:00C5H         SYMBOL        u8_tmp
  -------         ENDDO         
  C:66C5H         LINE#         133
  C:66C5H         LINE#         134
  C:66C5H         LINE#         139
  C:66CFH         LINE#         143
  C:66D2H         LINE#         146
  C:66EAH         LINE#         147
  C:66F4H         LINE#         148
  C:66F4H         LINE#         150
  C:6706H         LINE#         151
  C:6718H         LINE#         152
  C:671AH         LINE#         154
  C:671AH         LINE#         155
  C:672CH         LINE#         156
  C:6741H         LINE#         157
  C:6741H         LINE#         161
  C:6746H         LINE#         162
  C:6746H         LINE#         163
  C:6766H         LINE#         164
  C:677DH         LINE#         165
  C:6787H         LINE#         166
  C:6798H         LINE#         167
  C:67BAH         LINE#         168
  C:67BAH         LINE#         169
  C:67CEH         LINE#         170
  C:67EEH         LINE#         171
  C:67EEH         LINE#         172
  C:67FDH         LINE#         174
  C:6802H         LINE#         175
  C:6802H         LINE#         176
  C:6822H         LINE#         177
  C:6845H         LINE#         178
  C:684FH         LINE#         179
BL51 BANKED LINKER/LOCATER V6.22                                                      03/11/2019  14:45:04  PAGE 59


  C:6860H         LINE#         180
  C:687BH         LINE#         181
  C:687BH         LINE#         182
  C:6890H         LINE#         183
  C:6890H         LINE#         184
  C:6894H         LINE#         185
  C:6894H         LINE#         186
  C:6894H         LINE#         187
  C:6896H         LINE#         189
  C:6896H         LINE#         190
  C:68B8H         LINE#         191
  C:68B8H         LINE#         192
  C:68CCH         LINE#         193
  C:68ECH         LINE#         194
  C:68ECH         LINE#         195
  C:68ECH         LINE#         196
  C:68FBH         LINE#         198
  -------         ENDPROC       CHECK_EMU_ADJPARAM
  -------         PROC          _GET_ORIGINAL_POWER
  X:073EH         SYMBOL        avr_times
  X:073FH         SYMBOL        ch
  -------         DO            
  X:0740H         SYMBOL        val
  X:0744H         SYMBOL        i
  X:0745H         SYMBOL        aery_old
  D:0004H         SYMBOL        aery_val
  X:0749H         SYMBOL        avr_aery
  X:074DH         SYMBOL        TempValue
  -------         ENDDO         
  C:8B50H         LINE#         206
  C:8B58H         LINE#         207
  C:8B58H         LINE#         208
  C:8B58H         LINE#         214
  C:8B66H         LINE#         216
  C:8B70H         LINE#         217
  C:8B75H         LINE#         218
  C:8B89H         LINE#         219
  C:8B89H         LINE#         220
  C:8B97H         LINE#         221
  C:8B9DH         LINE#         222
  C:8BA2H         LINE#         223
  C:8BB0H         LINE#         224
  C:8BB6H         LINE#         225
  C:8BB6H         LINE#         226
  C:8BBDH         LINE#         227
  C:8BBFH         LINE#         229
  C:8BBFH         LINE#         231
  C:8BCDH         LINE#         232
  C:8BCDH         LINE#         233
  C:8BE0H         LINE#         234
  C:8BEBH         LINE#         235
  C:8BFFH         LINE#         236
  C:8C01H         LINE#         238
  C:8C01H         LINE#         239
  C:8C08H         LINE#         240
  C:8C08H         LINE#         241
  C:8C08H         LINE#         243
BL51 BANKED LINKER/LOCATER V6.22                                                      03/11/2019  14:45:04  PAGE 60


  C:8C22H         LINE#         244
  C:8C22H         LINE#         245
  C:8C46H         LINE#         246
  C:8C46H         LINE#         248
  C:8C5AH         LINE#         249
  C:8C86H         LINE#         250
  C:8C8FH         LINE#         252
  C:8CA9H         LINE#         253
  C:8CB7H         LINE#         254
  C:8CB8H         LINE#         255
  C:8CB8H         LINE#         256
  -------         ENDPROC       _GET_ORIGINAL_POWER
  -------         PROC          _GET_ORIGINAL_IRMS
  X:0751H         SYMBOL        avr_times
  X:0752H         SYMBOL        ch
  -------         DO            
  X:0753H         SYMBOL        val
  X:0757H         SYMBOL        i
  X:0758H         SYMBOL        aery_old
  D:0004H         SYMBOL        aery_val
  X:075CH         SYMBOL        avr_aery
  X:0760H         SYMBOL        TempValue
  -------         ENDDO         
  C:8CB9H         LINE#         266
  C:8CC1H         LINE#         267
  C:8CC1H         LINE#         268
  C:8CC1H         LINE#         274
  C:8CCFH         LINE#         276
  C:8CD9H         LINE#         277
  C:8CDEH         LINE#         278
  C:8CF2H         LINE#         279
  C:8CF2H         LINE#         280
  C:8D00H         LINE#         281
  C:8D06H         LINE#         282
  C:8D0BH         LINE#         283
  C:8D19H         LINE#         284
  C:8D1FH         LINE#         285
  C:8D1FH         LINE#         286
  C:8D26H         LINE#         287
  C:8D28H         LINE#         289
  C:8D28H         LINE#         291
  C:8D36H         LINE#         292
  C:8D36H         LINE#         293
  C:8D49H         LINE#         294
  C:8D54H         LINE#         295
  C:8D68H         LINE#         296
  C:8D6AH         LINE#         298
  C:8D6AH         LINE#         299
  C:8D71H         LINE#         300
  C:8D71H         LINE#         301
  C:8D71H         LINE#         303
  C:8D8BH         LINE#         304
  C:8D8BH         LINE#         305
  C:8DAFH         LINE#         306
  C:8DAFH         LINE#         308
  C:8DC3H         LINE#         309
  C:8DEFH         LINE#         310
BL51 BANKED LINKER/LOCATER V6.22                                                      03/11/2019  14:45:04  PAGE 61


  C:8DF8H         LINE#         312
  C:8E12H         LINE#         313
  C:8E20H         LINE#         314
  C:8E21H         LINE#         315
  C:8E21H         LINE#         316
  -------         ENDPROC       _GET_ORIGINAL_IRMS
  C:A7B9H         SYMBOL        L?0165
  C:A7CDH         SYMBOL        L?0166
  -------         PROC          L?0164
  -------         ENDPROC       L?0164
  C:A7B9H         SYMBOL        L?0165
  C:A7CDH         SYMBOL        L?0166
  -------         PROC          _CALCULATESC
  D:0004H         SYMBOL        CurValue
  X:00C9H         SYMBOL        TarValue
  -------         DO            
  D:0004H         SYMBOL        s32_tmp0
  X:00CDH         SYMBOL        f_CurValue
  X:00D1H         SYMBOL        f_TarValue
  X:00D5H         SYMBOL        f_Error
  X:00D9H         SYMBOL        f_s32_tmp0
  X:00DDH         SYMBOL        f_s32_tmp1
  D:0004H         SYMBOL        f_s32_tmp2
  D:0004H         SYMBOL        f_s32_tmp3
  -------         ENDDO         
  C:A7D8H         LINE#         337
  C:A7D8H         LINE#         338
  C:A7D8H         LINE#         345
  C:A7E2H         LINE#         346
  C:A7FAH         LINE#         347
  C:A83CH         LINE#         349
  C:A86CH         LINE#         351
  C:A88AH         LINE#         353
  C:A8A1H         LINE#         355
  C:A8A4H         LINE#         356
  C:A8A7H         LINE#         357
  C:A8A7H         LINE#         358
  -------         ENDPROC       _CALCULATESC
  -------         PROC          _CALCULATEAC
  X:00C5H         SYMBOL        CurValue
  X:00C9H         SYMBOL        TarValue
  -------         DO            
  X:00CDH         SYMBOL        Error
  D:0007H         SYMBOL        Result
  X:00CFH         SYMBOL        JCFH
  -------         ENDDO         
  C:A2C0H         LINE#         378
  C:A2C6H         LINE#         379
  C:A2C6H         LINE#         385
  C:A2CBH         LINE#         386
  C:A2E7H         LINE#         388
  C:A307H         LINE#         389
  C:A307H         LINE#         391
  C:A34EH         LINE#         392
  C:A352H         LINE#         393
  C:A354H         LINE#         395
  C:A354H         LINE#         397
BL51 BANKED LINKER/LOCATER V6.22                                                      03/11/2019  14:45:04  PAGE 62


  C:A39EH         LINE#         398
  C:A39EH         LINE#         399
  C:A3B7H         LINE#         400
  C:A3BEH         LINE#         401
  C:A3BEH         LINE#         402
  C:A3C2H         LINE#         403
  C:A3C2H         LINE#         404
  C:A3C2H         LINE#         405
  -------         ENDPROC       _CALCULATEAC
  -------         PROC          _SOFTADJUST_IB_PROCESS
  X:07AAH         SYMBOL        jzval
  X:07AEH         SYMBOL        channel
  -------         DO            
  X:07AFH         SYMBOL        val
  D:0004H         SYMBOL        adjust_wcval
  -------         ENDDO         
  C:9F98H         LINE#         414
  C:9F9EH         LINE#         415
  C:9F9EH         LINE#         416
  C:9F9EH         LINE#         419
  C:9FACH         LINE#         420
  C:9FB2H         LINE#         421
  C:9FB2H         LINE#         422
  C:9FBAH         LINE#         423
  C:9FD5H         LINE#         424
  C:9FF0H         LINE#         425
  C:9FF2H         LINE#         427
  C:9FF2H         LINE#         428
  C:9FFCH         LINE#         429
  C:A01AH         LINE#         431
  C:A038H         LINE#         432
  C:A038H         LINE#         433
  C:A042H         LINE#         434
  C:A06FH         LINE#         436
  C:A07DH         LINE#         437
  C:A083H         LINE#         438
  C:A083H         LINE#         439
  C:A092H         LINE#         440
  C:A094H         LINE#         442
  C:A094H         LINE#         443
  C:A0A8H         LINE#         444
  C:A0A8H         LINE#         445
  -------         ENDPROC       _SOFTADJUST_IB_PROCESS
  -------         PROC          _SOFTADJUST_IB5_PROCESS
  X:07B3H         SYMBOL        jzval
  X:07B7H         SYMBOL        channel
  -------         DO            
  B:0020H.5       SYMBOL        Flag_fu
  X:07B8H         SYMBOL        val
  D:0004H         SYMBOL        adjust_wcval
  -------         ENDDO         
  C:B444H         LINE#         454
  C:B44AH         LINE#         455
  C:B44AH         LINE#         456
  C:B44CH         LINE#         462
  C:B45AH         LINE#         463
  C:B464H         LINE#         464
BL51 BANKED LINKER/LOCATER V6.22                                                      03/11/2019  14:45:04  PAGE 63


  C:B46AH         LINE#         465
  C:B46AH         LINE#         466
  C:B483H         LINE#         467
  C:B485H         LINE#         469
  C:B485H         LINE#         471
  C:B4A3H         LINE#         472
  C:B4A3H         LINE#         473
  C:B4ADH         LINE#         474
  C:B4DEH         LINE#         476
  C:B4ECH         LINE#         477
  C:B4F2H         LINE#         478
  C:B4F2H         LINE#         479
  C:B501H         LINE#         480
  C:B503H         LINE#         482
  C:B503H         LINE#         483
  C:B517H         LINE#         484
  C:B517H         LINE#         486
  -------         ENDPROC       _SOFTADJUST_IB5_PROCESS
  -------         PROC          _SOFTADJUST_PHASE_PROCESS
  X:07BCH         SYMBOL        jzval
  X:07C0H         SYMBOL        channel
  -------         DO            
  X:07C1H         SYMBOL        val
  D:0004H         SYMBOL        adjust_wcval
  -------         ENDDO         
  C:7490H         LINE#         495
  C:7496H         LINE#         496
  C:7496H         LINE#         497
  C:7496H         LINE#         502
  C:74A4H         LINE#         503
  C:74AEH         LINE#         504
  C:74B4H         LINE#         505
  C:74B4H         LINE#         506
  C:74CDH         LINE#         507
  C:74CFH         LINE#         509
  C:74CFH         LINE#         510
  C:74E5H         LINE#         511
  C:74E5H         LINE#         512
  C:74F3H         LINE#         514
  C:74F8H         LINE#         515
  C:74FEH         LINE#         516
  C:7503H         LINE#         518
  C:750DH         LINE#         519
  C:753EH         LINE#         521
  C:754CH         LINE#         522
  C:7552H         LINE#         523
  C:7552H         LINE#         524
  C:755EH         LINE#         525
  C:7561H         LINE#         527
  C:7561H         LINE#         528
  C:7571H         LINE#         529
  C:7571H         LINE#         530
  C:7585H         LINE#         531
  C:75ABH         LINE#         532
  C:75C4H         LINE#         533
  C:75D5H         LINE#         534
  C:75D7H         LINE#         536
BL51 BANKED LINKER/LOCATER V6.22                                                      03/11/2019  14:45:04  PAGE 64


  C:75D7H         LINE#         537
  C:75FAH         LINE#         538
  C:7613H         LINE#         539
  C:762CH         LINE#         540
  C:762CH         LINE#         541
  C:7636H         LINE#         542
  C:7664H         LINE#         543
  C:7664H         LINE#         545
  -------         ENDPROC       _SOFTADJUST_PHASE_PROCESS
  -------         PROC          _CALCULATESCHZ
  D:0006H         SYMBOL        error
  X:0004H         SYMBOL        LastSC
  -------         DO            
  X:0008H         SYMBOL        Error
  X:000AH         SYMBOL        Stemp0remd
  X:000CH         SYMBOL        Stemp2remd
  X:000EH         SYMBOL        Stemp0
  X:0012H         SYMBOL        Stemp1
  X:0016H         SYMBOL        Stemp2
  D:0004H         SYMBOL        Stemp3
  D:0004H         SYMBOL        Result
  -------         ENDDO         
  C:822EH         LINE#         593
  C:822EH         LINE#         594
  C:822EH         LINE#         603
  C:8236H         LINE#         604
  C:8257H         LINE#         605
  C:827FH         LINE#         606
  C:82A6H         LINE#         607
  C:82FAH         LINE#         609
  C:8326H         LINE#         610
  C:8358H         LINE#         611
  C:8378H         LINE#         612
  C:83AFH         LINE#         614
  C:83CAH         LINE#         615
  C:83CAH         LINE#         617
  -------         ENDPROC       _CALCULATESCHZ
  -------         PROC          TIMEEVENTPROC
  -------         DO            
  X:05AEH         SYMBOL        temp
  X:0000H         SYMBOL        HZ
  -------         ENDDO         
  C:A5C2H         LINE#         618
  C:A5C2H         LINE#         619
  C:A5C2H         LINE#         623
  C:A5E2H         LINE#         624
  C:A5FCH         LINE#         625
  C:A5FCH         LINE#         626
  C:A610H         LINE#         627
  C:A619H         LINE#         628
  C:A619H         LINE#         629
  C:A626H         LINE#         630
  C:A626H         LINE#         631
  C:A628H         LINE#         632
  C:A638H         LINE#         633
  C:A638H         LINE#         634
  C:A674H         LINE#         635
BL51 BANKED LINKER/LOCATER V6.22                                                      03/11/2019  14:45:04  PAGE 65


  C:A68FH         LINE#         636
  C:A68FH         LINE#         638
  C:A68FH         LINE#         639
  C:A6AAH         LINE#         640
  C:A6BEH         LINE#         641
  C:A6BEH         LINE#         642
  C:A6BEH         LINE#         644
  -------         ENDPROC       TIMEEVENTPROC
  -------         PROC          HARDWARE_ADJUSTDIV_SUB
  -------         DO            
  X:065AH         SYMBOL        i
  X:065BH         SYMBOL        val
  X:065FH         SYMBOL        tmpval
  X:0663H         SYMBOL        tmpval1
  X:0667H         SYMBOL        jzwcval
  X:066BH         SYMBOL        ajust1_type
  X:066CH         SYMBOL        ajust2_type
  X:066DH         SYMBOL        cmp_val
  X:067DH         SYMBOL        adjust1_wcval
  X:0681H         SYMBOL        TempValue
  -------         ENDDO         
  C:2DF2H         LINE#         651
  C:2DF2H         LINE#         652
  C:2DF2H         LINE#         656
  C:2DFCH         LINE#         665
  C:2E02H         LINE#         668
  C:2E08H         LINE#         670
  C:2E14H         LINE#         671
  C:2E3AH         LINE#         672
  C:2E60H         LINE#         673
  C:2E86H         LINE#         674
  C:2EACH         LINE#         676
  C:2EBAH         LINE#         679
  C:2EC7H         LINE#         680
  C:2EE9H         LINE#         681
  C:2EE9H         LINE#         682
  C:2EEEH         LINE#         683
  C:2EF1H         LINE#         684
  C:2F13H         LINE#         685
  C:2F13H         LINE#         686
  C:2F19H         LINE#         687
  C:2F1BH         LINE#         688
  C:2F3DH         LINE#         689
  C:2F3DH         LINE#         690
  C:2F43H         LINE#         691
  C:2F45H         LINE#         692
  C:2F68H         LINE#         693
  C:2F68H         LINE#         694
  C:2F6BH         LINE#         695
  C:2F6DH         LINE#         697
  C:2F6DH         LINE#         698
  C:2F70H         LINE#         699
  C:2F70H         LINE#         730
  C:2F76H         LINE#         731
  C:2F76H         LINE#         732
  C:2F80H         LINE#         733
  C:2F8AH         LINE#         734
BL51 BANKED LINKER/LOCATER V6.22                                                      03/11/2019  14:45:04  PAGE 66


  C:2F8FH         LINE#         735
  C:2F8FH         LINE#         738
  C:2F9AH         LINE#         739
  C:2F9AH         LINE#         741
  C:2FB0H         LINE#         744
  C:2FBAH         LINE#         745
  C:2FBFH         LINE#         746
  C:2FBFH         LINE#         747
  C:2FC6H         LINE#         748
  C:2FD3H         LINE#         749
  C:2FEDH         LINE#         750
  C:2FEDH         LINE#         751
  C:3011H         LINE#         752
  C:3011H         LINE#         753
  C:303DH         LINE#         754
  C:304BH         LINE#         755
  C:305AH         LINE#         756
  C:3077H         LINE#         758
  C:30ACH         LINE#         760
  C:30B6H         LINE#         761
  C:30BBH         LINE#         762
  C:30BBH         LINE#         763
  C:30C2H         LINE#         764
  C:30CFH         LINE#         765
  C:30E9H         LINE#         766
  C:30E9H         LINE#         767
  C:310DH         LINE#         768
  C:310DH         LINE#         769
  C:3139H         LINE#         770
  C:3147H         LINE#         771
  C:3156H         LINE#         772
  C:3173H         LINE#         774
  C:31A8H         LINE#         775
  C:31ADH         LINE#         777
  C:31BBH         LINE#         778
  C:31BBH         LINE#         781
  C:31C2H         LINE#         782
  C:31C2H         LINE#         783
  C:31DFH         LINE#         784
  C:31F5H         LINE#         785
  C:31FAH         LINE#         787
  C:31FAH         LINE#         789
  C:3201H         LINE#         790
  C:3201H         LINE#         791
  C:321EH         LINE#         792
  C:3234H         LINE#         793
  C:3239H         LINE#         795
  C:3239H         LINE#         801
  C:3240H         LINE#         802
  C:3240H         LINE#         803
  C:324AH         LINE#         804
  C:3254H         LINE#         805
  C:3259H         LINE#         806
  C:3259H         LINE#         809
  C:3264H         LINE#         810
  C:3264H         LINE#         812
  C:3274H         LINE#         813
BL51 BANKED LINKER/LOCATER V6.22                                                      03/11/2019  14:45:04  PAGE 67


  C:327EH         LINE#         814
  C:3283H         LINE#         815
  C:3283H         LINE#         816
  C:3291H         LINE#         817
  C:3291H         LINE#         818
  C:32A4H         LINE#         819
  C:32AFH         LINE#         820
  C:32C3H         LINE#         821
  C:32C5H         LINE#         823
  C:32C5H         LINE#         824
  C:32CCH         LINE#         825
  C:32CCH         LINE#         826
  C:32E6H         LINE#         827
  C:32E6H         LINE#         828
  C:330AH         LINE#         829
  C:330AH         LINE#         830
  C:3336H         LINE#         831
  C:3344H         LINE#         832
  C:3353H         LINE#         833
  C:3370H         LINE#         835
  C:33A5H         LINE#         838
  C:33AFH         LINE#         839
  C:33B4H         LINE#         840
  C:33B4H         LINE#         841
  C:33C2H         LINE#         842
  C:33C2H         LINE#         843
  C:33D5H         LINE#         844
  C:33E0H         LINE#         845
  C:33F4H         LINE#         846
  C:33F6H         LINE#         848
  C:33F6H         LINE#         849
  C:33FDH         LINE#         850
  C:33FDH         LINE#         851
  C:3417H         LINE#         852
  C:3417H         LINE#         853
  C:343BH         LINE#         854
  C:343BH         LINE#         855
  C:3467H         LINE#         856
  C:3475H         LINE#         857
  C:3484H         LINE#         858
  C:34A1H         LINE#         860
  C:34D6H         LINE#         861
  C:34DBH         LINE#         862
  C:34DBH         LINE#         864
  C:34E2H         LINE#         865
  C:34E2H         LINE#         866
  C:34FFH         LINE#         867
  C:3516H         LINE#         868
  C:351BH         LINE#         869
  C:351BH         LINE#         871
  C:3522H         LINE#         872
  C:3522H         LINE#         873
  C:353FH         LINE#         874
  C:3556H         LINE#         875
  C:355BH         LINE#         876
  C:355BH         LINE#         878
  C:356BH         LINE#         879
BL51 BANKED LINKER/LOCATER V6.22                                                      03/11/2019  14:45:04  PAGE 68


  C:356BH         LINE#         880
  C:356EH         LINE#         881
  C:357CH         LINE#         883
  C:358AH         LINE#         886
  C:358DH         LINE#         888
  C:35A2H         LINE#         889
  C:35B0H         LINE#         891
  C:35B5H         LINE#         892
  C:35B5H         LINE#         894
  C:35B8H         LINE#         895
  C:35BBH         LINE#         896
  C:35C9H         LINE#         897
  C:35CEH         LINE#         899
  -------         ENDPROC       HARDWARE_ADJUSTDIV_SUB
  -------         PROC          _MEASURE_ELECTRIC_ERR_GAIN
  X:0093H         SYMBOL        sptr
  -------         DO            
  X:0096H         SYMBOL        u32_tmp_U
  X:009AH         SYMBOL        u32_tmp_A
  X:009EH         SYMBOL        u32_tmp_P
  X:00A2H         SYMBOL        u32_tmp
  X:00A6H         SYMBOL        errbuf
  X:00ADH         SYMBOL        Err_Data
  -------         ENDDO         
  C:5562H         LINE#         908
  C:556DH         LINE#         909
  C:556DH         LINE#         915
  C:5572H         LINE#         916
  C:558CH         LINE#         917
  C:55C4H         LINE#         918
  C:55FCH         LINE#         919
  C:560BH         LINE#         921
  C:5610H         LINE#         922
  C:562AH         LINE#         923
  C:5662H         LINE#         924
  C:569AH         LINE#         925
  C:56A9H         LINE#         927
  C:56AEH         LINE#         928
  C:56C8H         LINE#         929
  C:5700H         LINE#         930
  C:5738H         LINE#         931
  C:5747H         LINE#         934
  C:5772H         LINE#         935
  C:5777H         LINE#         936
  C:5786H         LINE#         938
  C:57BFH         LINE#         939
  C:57BFH         LINE#         940
  C:57BFH         LINE#         941
  C:57BFH         LINE#         942
  C:57D0H         LINE#         943
  C:57DEH         LINE#         944
  C:5803H         LINE#         945
  C:5805H         LINE#         946
  C:5805H         LINE#         947
  C:5805H         LINE#         948
  C:5816H         LINE#         949
  C:5818H         LINE#         950
BL51 BANKED LINKER/LOCATER V6.22                                                      03/11/2019  14:45:04  PAGE 69


  C:5818H         LINE#         951
  C:5818H         LINE#         952
  C:5829H         LINE#         953
  C:5829H         LINE#         954
  C:5829H         LINE#         956
  C:5829H         LINE#         957
  C:582CH         LINE#         958
  C:582FH         LINE#         959
  C:583DH         LINE#         960
  -------         ENDPROC       _MEASURE_ELECTRIC_ERR_GAIN
  -------         PROC          _CALIBRATION_POWER
  X:00B1H         SYMBOL        f_err_data
  -------         DO            
  X:00B5H         SYMBOL        u32_tmp
  X:00B9H         SYMBOL        u32_PMdataltemp
  -------         ENDDO         
  C:B90CH         LINE#         966
  C:B912H         LINE#         967
  C:B912H         LINE#         969
  C:B912H         LINE#         974
  C:B920H         LINE#         976
  C:B936H         LINE#         977
  C:B936H         LINE#         978
  C:B936H         LINE#         979
  C:B936H         LINE#         981
  C:B936H         LINE#         982
  C:B962H         LINE#         983
  C:B962H         LINE#         1004
  C:B97DH         LINE#         1005
  C:B97DH         LINE#         1007
  C:B98AH         LINE#         1008
  C:B9A0H         LINE#         1009
  C:B9BBH         LINE#         1010
  C:B9CFH         LINE#         1012
  C:B9CFH         LINE#         1015
  -------         ENDPROC       _CALIBRATION_POWER
  -------         PROC          _CALIBRATION_CURRENT
  X:00B1H         SYMBOL        Current
  X:00B5H         SYMBOL        Voltage
  -------         DO            
  X:00B9H         SYMBOL        u32_tmp
  X:00BDH         SYMBOL        u32_PMdataltemp
  X:00C1H         SYMBOL        u32_PMdataltempSII1
  -------         ENDDO         
  C:5D3AH         LINE#         1024
  C:5D40H         LINE#         1025
  C:5D40H         LINE#         1028
  C:5D5EH         LINE#         1029
  C:5D5EH         LINE#         1031
  C:5D6BH         LINE#         1032
  C:5D97H         LINE#         1033
  C:5DA4H         LINE#         1034
  C:5DBDH         LINE#         1035
  C:5DBDH         LINE#         1037
  C:5DC6H         LINE#         1038
  C:5DDAH         LINE#         1039
  C:5DDAH         LINE#         1042
BL51 BANKED LINKER/LOCATER V6.22                                                      03/11/2019  14:45:04  PAGE 70


  C:5DE7H         LINE#         1043
  C:5E2DH         LINE#         1044
  C:5E3AH         LINE#         1045
  C:5E56H         LINE#         1046
  C:5E56H         LINE#         1048
  C:5E56H         LINE#         1049
  C:5E56H         LINE#         1050
  C:5E56H         LINE#         1051
  C:5E56H         LINE#         1052
  C:5E59H         LINE#         1053
  C:5E77H         LINE#         1054
  C:5E77H         LINE#         1056
  C:5E84H         LINE#         1057
  C:5EB0H         LINE#         1058
  C:5EBDH         LINE#         1059
  C:5ED6H         LINE#         1060
  C:5ED6H         LINE#         1062
  C:5EDFH         LINE#         1063
  C:5EF3H         LINE#         1064
  C:5EF3H         LINE#         1067
  C:5F00H         LINE#         1068
  C:5F46H         LINE#         1069
  C:5F53H         LINE#         1070
  C:5F6CH         LINE#         1071
  C:5F6CH         LINE#         1073
  C:5F78H         LINE#         1074
  C:5F8CH         LINE#         1075
  C:5FA7H         LINE#         1076
  C:5FA7H         LINE#         1077
  C:5FA7H         LINE#         1081
  -------         ENDPROC       _CALIBRATION_CURRENT
  -------         PROC          _CALIBRATION_ANGULAR
  X:00B1H         SYMBOL        f_err_data
  -------         DO            
  X:00B5H         SYMBOL        u32_tmp
  X:00B9H         SYMBOL        u32_PMdataltemp
  X:00BDH         SYMBOL        PHCCTRL1_adj_val
  X:00C1H         SYMBOL        PHCCTRL2_adj_val
  -------         ENDDO         
  C:9E74H         LINE#         1088
  C:9E7AH         LINE#         1089
  C:9E7AH         LINE#         1094
  C:9E90H         LINE#         1095
  C:9E90H         LINE#         1096
  C:9E90H         LINE#         1097
  C:9E90H         LINE#         1099
  C:9E90H         LINE#         1100
  C:9EBCH         LINE#         1101
  C:9EBCH         LINE#         1103
  C:9EE1H         LINE#         1140
  C:9EFCH         LINE#         1141
  C:9EFCH         LINE#         1142
  C:9F10H         LINE#         1143
  C:9F27H         LINE#         1144
  C:9F39H         LINE#         1145
  C:9F3BH         LINE#         1146
  C:9F56H         LINE#         1147
BL51 BANKED LINKER/LOCATER V6.22                                                      03/11/2019  14:45:04  PAGE 71


  C:9F56H         LINE#         1148
  C:9F6AH         LINE#         1149
  C:9F81H         LINE#         1150
  C:9F97H         LINE#         1152
  C:9F97H         LINE#         1155
  -------         ENDPROC       _CALIBRATION_ANGULAR
  -------         PROC          _CALIBRATION_SMALL_SIGNAL
  X:00B1H         SYMBOL        f_err_data
  -------         DO            
  X:00B5H         SYMBOL        u32_PMdataltemp
  X:00B9H         SYMBOL        offset
  X:00BAH         SYMBOL        s32_tmp
  X:00BEH         SYMBOL        s32_PMdataltemp
  -------         ENDDO         
  C:7D3EH         LINE#         1162
  C:7D44H         LINE#         1163
  C:7D44H         LINE#         1200
  C:7D62H         LINE#         1201
  C:7D62H         LINE#         1202
  C:7D6FH         LINE#         1204
  C:7DA5H         LINE#         1206
  C:7DAAH         LINE#         1207
  C:7DD0H         LINE#         1208
  C:7DE5H         LINE#         1211
  C:7E00H         LINE#         1212
  C:7E11H         LINE#         1213
  C:7E14H         LINE#         1215
  C:7E32H         LINE#         1216
  C:7E32H         LINE#         1217
  C:7E3FH         LINE#         1219
  C:7E75H         LINE#         1221
  C:7E7AH         LINE#         1222
  C:7EA0H         LINE#         1223
  C:7EB5H         LINE#         1226
  C:7ED0H         LINE#         1227
  C:7EE4H         LINE#         1228
  C:7EE4H         LINE#         1231
  -------         ENDPROC       _CALIBRATION_SMALL_SIGNAL
  -------         ENDMOD        LNK_EMU_ADJ

  -------         MODULE        LNK_EMU_HANDL
  C:0000H         SYMBOL        _ICE_DUMMY_
  D:0090H         PUBLIC        P1
  C:6D0AH         PUBLIC        _Lnk_get_EMU_activePower
  D:00B0H         PUBLIC        P3
  C:7EE5H         PUBLIC        lnk_CAL_EMU_constSum_per_second
  D:00A8H         PUBLIC        IE
  D:00ADH         PUBLIC        P9FC
  D:00B8H         PUBLIC        IP
  D:00A4H         PUBLIC        P9OE
  C:F0F9H         PUBLIC        Init_EMU_RAM
  C:B0E2H         PUBLIC        _Lnk_get_EMU_freq
  D:0098H         PUBLIC        SCON
  D:0088H         PUBLIC        TCON
  D:00F0H         PUBLIC        B
  D:00E0H         PUBLIC        ACC
  D:00E8H         PUBLIC        EIE
BL51 BANKED LINKER/LOCATER V6.22                                                      03/11/2019  14:45:04  PAGE 72


  D:0080H         PUBLIC        SysCtrl
  C:5AC1H         PUBLIC        _Init_EMU
  B:0080H.4       PUBLIC        PMG
  X:07ECH         PUBLIC        gs_emu_run_var
  D:00C8H         PUBLIC        T2CON
  C:8F8AH         PUBLIC        _Lnk_get_EMU_voltage
  C:3BD8H         PUBLIC        Lnk_get_EMU_ractive_const
  C:7B8FH         PUBLIC        _Lnk_get_EMU_ractivePower
  C:9C20H         PUBLIC        _Lnk_get_EMU_current
  D:00D0H         PUBLIC        PSW
  -------         PROC          INIT_EMU_RAM
  C:F0F9H         LINE#         31
  C:F0F9H         LINE#         32
  C:F0F9H         LINE#         33
  -------         ENDPROC       INIT_EMU_RAM
  -------         PROC          _INIT_EMU
  X:0000H         SYMBOL        u8_mode
  C:5AC1H         LINE#         43
  C:5AC6H         LINE#         44
  C:5AC6H         LINE#         157
  C:5AC9H         LINE#         158
  C:5AC9H         LINE#         159
  C:5ACFH         LINE#         160
  C:5AD2H         LINE#         161
  C:5AD5H         LINE#         163
  C:5AD5H         LINE#         165
  C:5AD7H         LINE#         167
  C:5AECH         LINE#         168
  C:5B01H         LINE#         170
  C:5B07H         LINE#         171
  C:5B0AH         LINE#         172
  C:5B10H         LINE#         173
  C:5B10H         LINE#         174
  C:5B18H         LINE#         175
  C:5B1FH         LINE#         176
  C:5B31H         LINE#         177
  C:5B33H         LINE#         178
  C:5B40H         LINE#         179
  C:5B40H         LINE#         180
  C:5B4BH         LINE#         181
  C:5B52H         LINE#         182
  C:5B67H         LINE#         183
  C:5B69H         LINE#         185
  C:5B69H         LINE#         186
  C:5B6CH         LINE#         187
  C:5B6CH         LINE#         188
  C:5B72H         LINE#         191
  C:5B87H         LINE#         192
  C:5B9CH         LINE#         196
  C:5BB1H         LINE#         197
  C:5BC6H         LINE#         201
  C:5BDBH         LINE#         206
  C:5BF0H         LINE#         208
  C:5C05H         LINE#         211
  C:5C1AH         LINE#         212
  C:5C2FH         LINE#         213
  C:5C44H         LINE#         214
BL51 BANKED LINKER/LOCATER V6.22                                                      03/11/2019  14:45:04  PAGE 73


  C:5C59H         LINE#         215
  C:5C6EH         LINE#         216
  C:5C83H         LINE#         217
  C:5C98H         LINE#         218
  C:5CADH         LINE#         220
  C:5CC2H         LINE#         225
  C:5CD7H         LINE#         226
  C:5CECH         LINE#         228
  C:5D01H         LINE#         231
  C:5D16H         LINE#         232
  C:5D19H         LINE#         233
  C:5D1CH         LINE#         234
  C:5D1FH         LINE#         235
  C:5D22H         LINE#         236
  C:5D25H         LINE#         237
  C:5D2CH         LINE#         238
  C:5D33H         LINE#         240
  C:5D39H         LINE#         244
  -------         ENDPROC       _INIT_EMU
  -------         PROC          _LNK_GET_EMU_VOLTAGE
  X:000CH         SYMBOL        ch
  -------         DO            
  X:000DH         SYMBOL        val
  X:0011H         SYMBOL        tmpval
  X:0015H         SYMBOL        f32_tmp
  X:0019H         SYMBOL        TempValue
  -------         ENDDO         
  C:8F8AH         LINE#         252
  C:8F8FH         LINE#         253
  C:8F8FH         LINE#         257
  C:8F93H         LINE#         258
  C:8F93H         LINE#         259
  C:8FA0H         LINE#         260
  C:8FBAH         LINE#         261
  C:8FBAH         LINE#         262
  C:8FDEH         LINE#         263
  C:8FDEH         LINE#         264
  C:8FDEH         LINE#         265
  C:8FDEH         LINE#         266
  C:8FE1H         LINE#         267
  C:8FECH         LINE#         268
  C:8FECH         LINE#         269
  C:8FF9H         LINE#         270
  C:8FF9H         LINE#         271
  C:900CH         LINE#         272
  C:9017H         LINE#         273
  C:902BH         LINE#         274
  C:902DH         LINE#         276
  C:902DH         LINE#         277
  C:9034H         LINE#         278
  C:9034H         LINE#         280
  C:904EH         LINE#         281
  C:904EH         LINE#         282
  C:9072H         LINE#         283
  C:9072H         LINE#         284
  C:909BH         LINE#         285
  C:90B2H         LINE#         286
BL51 BANKED LINKER/LOCATER V6.22                                                      03/11/2019  14:45:04  PAGE 74


  C:90B4H         LINE#         288
  C:90B4H         LINE#         289
  C:90BEH         LINE#         290
  C:90BEH         LINE#         293
  C:90E2H         LINE#         295
  C:90F0H         LINE#         298
  -------         ENDPROC       _LNK_GET_EMU_VOLTAGE
  -------         PROC          _LNK_GET_EMU_CURRENT
  X:000CH         SYMBOL        ch
  -------         DO            
  X:000DH         SYMBOL        val
  X:0011H         SYMBOL        tmpval
  X:0015H         SYMBOL        f32_tmp
  -------         ENDDO         
  C:9C20H         LINE#         306
  C:9C25H         LINE#         307
  C:9C25H         LINE#         312
  C:9C29H         LINE#         313
  C:9C29H         LINE#         314
  C:9C36H         LINE#         315
  C:9C50H         LINE#         316
  C:9C50H         LINE#         317
  C:9C74H         LINE#         318
  C:9C74H         LINE#         319
  C:9C74H         LINE#         320
  C:9C74H         LINE#         321
  C:9C76H         LINE#         322
  C:9C81H         LINE#         323
  C:9C81H         LINE#         324
  C:9C8EH         LINE#         325
  C:9CA8H         LINE#         326
  C:9CA8H         LINE#         327
  C:9CCCH         LINE#         328
  C:9CCCH         LINE#         329
  C:9CF5H         LINE#         330
  C:9D0CH         LINE#         332
  C:9D0EH         LINE#         334
  C:9D0EH         LINE#         335
  C:9D18H         LINE#         336
  C:9D18H         LINE#         338
  C:9D3CH         LINE#         340
  C:9D4AH         LINE#         342
  -------         ENDPROC       _LNK_GET_EMU_CURRENT
  -------         PROC          _LNK_GET_EMU_ACTIVEPOWER
  X:0715H         SYMBOL        ch
  -------         DO            
  X:0716H         SYMBOL        val
  X:071AH         SYMBOL        val2
  X:071EH         SYMBOL        tmpval
  X:0722H         SYMBOL        f32_tmp
  X:0726H         SYMBOL        TempValue
  -------         ENDDO         
  C:6D0AH         LINE#         350
  C:6D0FH         LINE#         351
  C:6D0FH         LINE#         356
  C:6D14H         LINE#         357
  C:6D14H         LINE#         358
BL51 BANKED LINKER/LOCATER V6.22                                                      03/11/2019  14:45:04  PAGE 75


  C:6D21H         LINE#         359
  C:6D2FH         LINE#         360
  C:6D2FH         LINE#         361
  C:6D42H         LINE#         362
  C:6D4DH         LINE#         363
  C:6D61H         LINE#         364
  C:6D63H         LINE#         366
  C:6D63H         LINE#         367
  C:6D6AH         LINE#         368
  C:6D6AH         LINE#         370
  C:6D96H         LINE#         371
  C:6D96H         LINE#         372
  C:6D9DH         LINE#         373
  C:6D9DH         LINE#         375
  C:6DAAH         LINE#         376
  C:6DC7H         LINE#         377
  C:6DC7H         LINE#         378
  C:6DC7H         LINE#         380
  C:6DC7H         LINE#         382
  C:6DC9H         LINE#         383
  C:6DD4H         LINE#         384
  C:6DD4H         LINE#         386
  C:6DE1H         LINE#         387
  C:6DE1H         LINE#         388
  C:6DF4H         LINE#         389
  C:6DFFH         LINE#         390
  C:6E13H         LINE#         391
  C:6E15H         LINE#         393
  C:6E15H         LINE#         394
  C:6E1CH         LINE#         395
  C:6E1CH         LINE#         397
  C:6E36H         LINE#         398
  C:6E36H         LINE#         399
  C:6E5AH         LINE#         401
  C:6E5AH         LINE#         402
  C:6E5CH         LINE#         404
  C:6E5CH         LINE#         405
  C:6E66H         LINE#         406
  C:6E66H         LINE#         408
  C:6E81H         LINE#         409
  C:6E81H         LINE#         410
  C:6E8BH         LINE#         413
  C:6E8DH         LINE#         415
  C:6E8DH         LINE#         416
  C:6EB3H         LINE#         417
  C:6ED9H         LINE#         418
  C:6EF0H         LINE#         419
  C:6EF0H         LINE#         422
  C:6EF0H         LINE#         423
  C:6EF0H         LINE#         425
  C:6EF0H         LINE#         427
  C:6EF0H         LINE#         429
  C:6EF0H         LINE#         432
  C:6EFEH         LINE#         433
  -------         ENDPROC       _LNK_GET_EMU_ACTIVEPOWER
  -------         PROC          _LNK_GET_EMU_FREQ
  X:000CH         SYMBOL        ch
BL51 BANKED LINKER/LOCATER V6.22                                                      03/11/2019  14:45:04  PAGE 76


  -------         DO            
  X:000DH         SYMBOL        val
  X:0011H         SYMBOL        tmpval
  X:0015H         SYMBOL        TempValue
  -------         ENDDO         
  C:B0E2H         LINE#         441
  C:B0E7H         LINE#         442
  C:B0E7H         LINE#         445
  C:B0EAH         LINE#         446
  C:B0EAH         LINE#         447
  C:B0F7H         LINE#         448
  C:B10CH         LINE#         449
  C:B10EH         LINE#         450
  C:B116H         LINE#         451
  C:B116H         LINE#         452
  C:B125H         LINE#         453
  C:B125H         LINE#         454
  C:B137H         LINE#         455
  C:B142H         LINE#         456
  C:B156H         LINE#         457
  C:B174H         LINE#         458
  C:B176H         LINE#         460
  C:B176H         LINE#         461
  C:B17DH         LINE#         462
  C:B17DH         LINE#         463
  C:B17FH         LINE#         465
  C:B17FH         LINE#         466
  C:B189H         LINE#         467
  C:B189H         LINE#         469
  C:B1AFH         LINE#         473
  C:B1BDH         LINE#         474
  -------         ENDPROC       _LNK_GET_EMU_FREQ
  -------         PROC          LNK_CAL_EMU_CONSTSUM_PER_SECOND
  -------         DO            
  X:000CH         SYMBOL        sumval0
  X:0010H         SYMBOL        val1
  -------         ENDDO         
  C:7EE5H         LINE#         483
  C:7EE5H         LINE#         484
  C:7EE5H         LINE#         499
  C:7EEFH         LINE#         529
  C:7EFCH         LINE#         530
  C:7F1AH         LINE#         531
  C:7F1AH         LINE#         532
  C:7F1DH         LINE#         533
  C:7F41H         LINE#         535
  C:7F43H         LINE#         537
  C:7F46H         LINE#         539
  C:7F5AH         LINE#         540
  C:7F75H         LINE#         541
  C:7F75H         LINE#         542
  C:7F7FH         LINE#         543
  C:7F89H         LINE#         544
  C:7F90H         LINE#         545
  C:7F90H         LINE#         546
  C:7FABH         LINE#         547
  C:7FCFH         LINE#         549
BL51 BANKED LINKER/LOCATER V6.22                                                      03/11/2019  14:45:04  PAGE 77


  C:7FDCH         LINE#         550
  C:7FF6H         LINE#         551
  C:7FF6H         LINE#         552
  C:801AH         LINE#         553
  C:801AH         LINE#         557
  C:802EH         LINE#         558
  C:8049H         LINE#         559
  C:8049H         LINE#         560
  C:8053H         LINE#         561
  C:805DH         LINE#         562
  C:805DH         LINE#         563
  -------         ENDPROC       LNK_CAL_EMU_CONSTSUM_PER_SECOND
  -------         PROC          LNK_GET_EMU_RACTIVE_CONST
  -------         DO            
  X:06C8H         SYMBOL        Temp_paraqc
  X:06CCH         SYMBOL        val1
  X:06D0H         SYMBOL        sumval1
  X:06D4H         SYMBOL        val2
  X:06D8H         SYMBOL        sumval2
  X:06DCH         SYMBOL        TempValue
  X:06E0H         SYMBOL        err_ec
  -------         ENDDO         
  C:3BD8H         LINE#         577
  C:3BD8H         LINE#         578
  C:3BD8H         LINE#         585
  C:3BE2H         LINE#         586
  C:3BECH         LINE#         587
  C:3BF6H         LINE#         589
  C:3C03H         LINE#         591
  C:3C10H         LINE#         594
  C:3C20H         LINE#         595
  C:3C20H         LINE#         596
  C:3C32H         LINE#         597
  C:3C3DH         LINE#         598
  C:3C63H         LINE#         599
  C:3C65H         LINE#         601
  C:3C65H         LINE#         602
  C:3C6DH         LINE#         604
  C:3C6DH         LINE#         606
  C:3CA3H         LINE#         607
  C:3CA3H         LINE#         608
  C:3CADH         LINE#         609
  C:3CADH         LINE#         611
  C:3CE3H         LINE#         612
  C:3CE3H         LINE#         613
  C:3CEDH         LINE#         614
  C:3CEDH         LINE#         618
  C:3CF0H         LINE#         619
  C:3CF0H         LINE#         621
  C:3CF0H         LINE#         623
  C:3CF0H         LINE#         625
  C:3CF0H         LINE#         627
  C:3CF3H         LINE#         628
  C:3CF3H         LINE#         630
  C:3CF3H         LINE#         632
  C:3CF3H         LINE#         634
  C:3CF3H         LINE#         700
BL51 BANKED LINKER/LOCATER V6.22                                                      03/11/2019  14:45:04  PAGE 78


  C:3CFDH         LINE#         701
  C:3CFDH         LINE#         702
  C:3D00H         LINE#         703
  C:3D00H         LINE#         704
  C:3D24H         LINE#         708
  C:3D4DH         LINE#         712
  C:3D50H         LINE#         714
  C:3D50H         LINE#         715
  C:3D72H         LINE#         716
  C:3D72H         LINE#         717
  C:3D9EH         LINE#         719
  C:3DBFH         LINE#         720
  C:3DC2H         LINE#         722
  C:3DC2H         LINE#         724
  C:3DEFH         LINE#         725
  C:3DFAH         LINE#         726
  C:3DFAH         LINE#         727
  C:3E1BH         LINE#         728
  C:3E1BH         LINE#         729
  C:3E1BH         LINE#         730
  C:3E1BH         LINE#         731
  C:3E1EH         LINE#         733
  C:3E1EH         LINE#         734
  C:3E28H         LINE#         735
  C:3E28H         LINE#         736
  C:3E4AH         LINE#         737
  C:3E4AH         LINE#         738
  C:3E76H         LINE#         740
  C:3E81H         LINE#         741
  C:3E81H         LINE#         742
  C:3E8CH         LINE#         743
  C:3E8EH         LINE#         745
  C:3E8EH         LINE#         746
  C:3EACH         LINE#         747
  C:3EACH         LINE#         748
  C:3EAFH         LINE#         750
  C:3EAFH         LINE#         752
  C:3EDCH         LINE#         753
  C:3EFDH         LINE#         754
  C:3EFDH         LINE#         755
  C:3EFFH         LINE#         757
  C:3EFFH         LINE#         758
  C:3F2BH         LINE#         760
  C:3F36H         LINE#         761
  C:3F36H         LINE#         762
  C:3F41H         LINE#         763
  C:3F43H         LINE#         765
  C:3F43H         LINE#         766
  C:3F64H         LINE#         767
  C:3F64H         LINE#         768
  C:3F64H         LINE#         769
  C:3F64H         LINE#         772
  C:3F99H         LINE#         774
  C:3FB8H         LINE#         775
  C:3FB8H         LINE#         776
  C:3FD7H         LINE#         777
  C:4003H         LINE#         778
BL51 BANKED LINKER/LOCATER V6.22                                                      03/11/2019  14:45:04  PAGE 79


  C:4021H         LINE#         779
  C:4023H         LINE#         780
  C:404AH         LINE#         782
  C:4065H         LINE#         786
  C:407FH         LINE#         787
  C:407FH         LINE#         788
  C:40A3H         LINE#         789
  C:40A3H         LINE#         791
  C:40BDH         LINE#         792
  C:40BDH         LINE#         793
  C:40E1H         LINE#         794
  C:40E1H         LINE#         795
  C:40FBH         LINE#         796
  C:40FBH         LINE#         797
  C:411FH         LINE#         798
  C:411FH         LINE#         799
  C:4143H         LINE#         800
  C:4167H         LINE#         801
  C:418BH         LINE#         802
  C:4195H         LINE#         804
  -------         ENDPROC       LNK_GET_EMU_RACTIVE_CONST
  -------         PROC          _LNK_GET_EMU_RACTIVEPOWER
  X:0764H         SYMBOL        ch
  -------         DO            
  X:0765H         SYMBOL        val
  X:0769H         SYMBOL        tmpval
  X:076DH         SYMBOL        f32_tmp
  X:0771H         SYMBOL        TempValue
  -------         ENDDO         
  C:7B8FH         LINE#         814
  C:7B94H         LINE#         815
  C:7B94H         LINE#         820
  C:7B97H         LINE#         821
  C:7B97H         LINE#         823
  C:7BA4H         LINE#         824
  C:7BC1H         LINE#         825
  C:7BC1H         LINE#         826
  C:7BDFH         LINE#         828
  C:7BDFH         LINE#         829
  C:7BE2H         LINE#         831
  C:7BEDH         LINE#         832
  C:7BEDH         LINE#         833
  C:7BFAH         LINE#         834
  C:7BFAH         LINE#         835
  C:7C0DH         LINE#         836
  C:7C18H         LINE#         837
  C:7C2CH         LINE#         838
  C:7C2EH         LINE#         840
  C:7C2EH         LINE#         841
  C:7C35H         LINE#         842
  C:7C35H         LINE#         845
  C:7C4FH         LINE#         846
  C:7C4FH         LINE#         847
  C:7C73H         LINE#         849
  C:7C73H         LINE#         851
  C:7C99H         LINE#         852
  C:7C9BH         LINE#         854
BL51 BANKED LINKER/LOCATER V6.22                                                      03/11/2019  14:45:04  PAGE 80


  C:7C9BH         LINE#         855
  C:7CA5H         LINE#         856
  C:7CA5H         LINE#         858
  C:7CC0H         LINE#         859
  C:7CC0H         LINE#         860
  C:7CCAH         LINE#         863
  C:7CCCH         LINE#         865
  C:7CCCH         LINE#         867
  C:7CF2H         LINE#         868
  C:7D18H         LINE#         869
  C:7D2FH         LINE#         870
  C:7D2FH         LINE#         872
  C:7D3DH         LINE#         873
  -------         ENDPROC       _LNK_GET_EMU_RACTIVEPOWER
  -------         ENDMOD        LNK_EMU_HANDL

  -------         MODULE        DRV_ADC
  C:0000H         SYMBOL        _ICE_DUMMY_
  D:0090H         PUBLIC        P1
  D:00B0H         PUBLIC        P3
  C:EA7DH         PUBLIC        Samlpe_temperatureAdc
  C:E587H         PUBLIC        InitParaRTC
  D:00A8H         PUBLIC        IE
  C:EB66H         PUBLIC        Disable_M_ADC
  D:00B8H         PUBLIC        IP
  C:E6C0H         PUBLIC        _Enable_M_ADC
  C:0056H         PUBLIC        Cal_temperature_data
  D:0098H         PUBLIC        SCON
  D:0088H         PUBLIC        TCON
  D:00F0H         PUBLIC        B
  D:00E0H         PUBLIC        ACC
  D:0080H         PUBLIC        SysCtrl
  D:00C8H         PUBLIC        T2CON
  C:E6FCH         PUBLIC        Samlpe_BatAdc
  D:00D0H         PUBLIC        PSW
  -------         PROC          _ENABLE_M_ADC
  D:0007H         SYMBOL        m_ch
  -------         DO            
  D:0004H         SYMBOL        ctmp
  -------         ENDDO         
  C:E6C0H         LINE#         65
  C:E6C0H         LINE#         66
  C:E6C0H         LINE#         70
  C:E6C4H         LINE#         71
  C:E6C4H         LINE#         72
  C:E6CAH         LINE#         73
  C:E6CCH         LINE#         74
  C:E6D1H         LINE#         75
  C:E6D1H         LINE#         77
  C:E6D7H         LINE#         78
  C:E6D7H         LINE#         80
  C:E6D7H         LINE#         82
  C:E6D7H         LINE#         84
  C:E6DEH         LINE#         85
  C:E6E3H         LINE#         87
  C:E6EAH         LINE#         88
  C:E6EEH         LINE#         89
BL51 BANKED LINKER/LOCATER V6.22                                                      03/11/2019  14:45:04  PAGE 81


  C:E6FBH         LINE#         91
  -------         ENDPROC       _ENABLE_M_ADC
  -------         PROC          DISABLE_M_ADC
  -------         DO            
  D:0004H         SYMBOL        ctmp
  -------         ENDDO         
  C:EB66H         LINE#         100
  C:EB66H         LINE#         101
  C:EB66H         LINE#         104
  C:EB6DH         LINE#         105
  C:EB73H         LINE#         107
  C:EB7AH         LINE#         108
  C:EB81H         LINE#         109
  C:EB85H         LINE#         110
  -------         ENDPROC       DISABLE_M_ADC
  -------         PROC          SAMLPE_BATADC
  -------         DO            
  D:0006H         SYMBOL        nVBAT
  D:0004H         SYMBOL        u32_PMdataltemp
  -------         ENDDO         
  C:E6FCH         LINE#         121
  C:E6FCH         LINE#         122
  C:E6FCH         LINE#         126
  C:E701H         LINE#         127
  C:E708H         LINE#         129
  C:E70FH         LINE#         130
  C:E714H         LINE#         131
  C:E718H         LINE#         132
  C:E718H         LINE#         134
  C:E725H         LINE#         135
  C:E727H         LINE#         137
  C:E727H         LINE#         138
  C:E736H         LINE#         139
  C:E736H         LINE#         141
  C:E737H         LINE#         143
  C:E737H         LINE#         144
  -------         ENDPROC       SAMLPE_BATADC
  -------         PROC          SAMLPE_TEMPERATUREADC
  -------         DO            
  X:000DH         SYMBOL        temperature
  -------         ENDDO         
  C:EA7DH         LINE#         154
  C:EA7DH         LINE#         155
  C:EA7DH         LINE#         158
  C:EA82H         LINE#         159
  C:EA89H         LINE#         160
  C:EA92H         LINE#         161
  C:EAADH         LINE#         162
  -------         ENDPROC       SAMLPE_TEMPERATUREADC
  -------         PROC          CAL_TEMPERATURE_DATA
  -------         DO            
  X:0011H         SYMBOL        i
  X:0012H         SYMBOL        p
  X:0014H         SYMBOL        s_TempPara
  D:0004H         SYMBOL        MAdcValue
  X:0029H         SYMBOL        Kpara
  X:002BH         SYMBOL        temp1
BL51 BANKED LINKER/LOCATER V6.22                                                      03/11/2019  14:45:04  PAGE 82


  X:002FH         SYMBOL        temperature
  X:0033H         SYMBOL        TempParaSum
  X:0034H         SYMBOL        temp
  -------         ENDDO         
  C:0056H         LINE#         172
  C:0056H         LINE#         173
  C:0056H         LINE#         187
  C:0060H         LINE#         188
  C:006FH         LINE#         189
  C:006FH         LINE#         190
  C:008BH         LINE#         191
  C:00A3H         LINE#         192
  C:00AAH         LINE#         193
  C:00AAH         LINE#         194
  C:00AAH         LINE#         195
  C:00AAH         LINE#         196
  C:00B2H         LINE#         197
  C:00BDH         LINE#         198
  C:00C8H         LINE#         199
  C:00D3H         LINE#         200
  C:00DEH         LINE#         201
  C:00E9H         LINE#         203
  C:00F0H         LINE#         205
  C:00FBH         LINE#         206
  C:0114H         LINE#         207
  C:0140H         LINE#         209
  C:014CH         LINE#         210
  C:014CH         LINE#         211
  C:0156H         LINE#         212
  C:0160H         LINE#         213
  C:016AH         LINE#         214
  C:0174H         LINE#         215
  C:017EH         LINE#         216
  C:017EH         LINE#         217
  C:0241H         LINE#         220
  C:024BH         LINE#         221
  C:025AH         LINE#         222
  C:025AH         LINE#         223
  C:0276H         LINE#         224
  C:028EH         LINE#         225
  C:0298H         LINE#         226
  C:0298H         LINE#         227
  C:0298H         LINE#         228
  C:0298H         LINE#         229
  C:02A0H         LINE#         231
  C:02ACH         LINE#         232
  C:02ACH         LINE#         233
  C:02B3H         LINE#         234
  C:02B3H         LINE#         236
  C:02BAH         LINE#         237
  C:02BAH         LINE#         238
  C:02D3H         LINE#         239
  C:0313H         LINE#         240
  C:0315H         LINE#         242
  C:0315H         LINE#         243
  C:0353H         LINE#         244
  C:0353H         LINE#         246
BL51 BANKED LINKER/LOCATER V6.22                                                      03/11/2019  14:45:04  PAGE 83


  C:036FH         LINE#         247
  C:036FH         LINE#         248
  C:0379H         LINE#         249
  C:0395H         LINE#         250
  C:0395H         LINE#         251
  C:039FH         LINE#         252
  C:039FH         LINE#         254
  C:03ADH         LINE#         256
  -------         ENDPROC       CAL_TEMPERATURE_DATA
  -------         ENDMOD        DRV_ADC

  -------         MODULE        DRV_CORE
  C:0000H         SYMBOL        _ICE_DUMMY_
  D:0090H         PUBLIC        P1
  D:00B0H         PUBLIC        P3
  D:00A8H         PUBLIC        IE
  D:00B8H         PUBLIC        IP
  C:AE3FH         PUBLIC        _Set_McuClock
  C:BD77H         PUBLIC        _Set_EmuClock
  B:0080H.1       PUBLIC        SLEEP0
  C:E059H         PUBLIC        Set_McuSleep
  D:0098H         PUBLIC        SCON
  D:0088H         PUBLIC        TCON
  B:0080H.7       PUBLIC        MEAFRQ
  D:00F0H         PUBLIC        B
  C:D475H         PUBLIC        Set_Sleep_out
  D:00A3H         PUBLIC        PLLLCK
  D:00E0H         PUBLIC        ACC
  B:0080H.0       PUBLIC        MCUFRQ
  D:0080H         PUBLIC        SysCtrl
  B:0080H.5       PUBLIC        FSC
  B:0080H.6       PUBLIC        FWC
  B:0080H.4       PUBLIC        PMG
  D:00C8H         PUBLIC        T2CON
  D:00A1H         PUBLIC        Systate
  D:00D0H         PUBLIC        PSW
  -------         PROC          _SET_MCUCLOCK
  X:0007H         SYMBOL        u32_freq
  -------         DO            
  X:000BH         SYMBOL        i
  -------         ENDDO         
  C:AE3FH         LINE#         30
  C:AE45H         LINE#         31
  C:AE45H         LINE#         32
  C:AE4AH         LINE#         34
  C:AE4CH         LINE#         35
  C:AE4EH         LINE#         36
  C:AE55H         LINE#         38
  C:AE59H         LINE#         43
  C:AE92H         LINE#         44
  C:AE92H         LINE#         45
  C:AE92H         LINE#         46
  C:AE98H         LINE#         47
  C:AE98H         LINE#         48
  C:AE9AH         LINE#         50
  C:AE9AH         LINE#         51
  C:AEA1H         LINE#         52
BL51 BANKED LINKER/LOCATER V6.22                                                      03/11/2019  14:45:04  PAGE 84


  C:AEA5H         LINE#         53
  C:AEA8H         LINE#         54
  C:AEAAH         LINE#         56
  C:AEAAH         LINE#         57
  C:AEB0H         LINE#         58
  C:AEB0H         LINE#         59
  C:AEB2H         LINE#         61
  C:AEB2H         LINE#         62
  C:AEB9H         LINE#         63
  C:AEBDH         LINE#         64
  C:AEBFH         LINE#         66
  C:AEBFH         LINE#         67
  C:AEC6H         LINE#         68
  C:AECAH         LINE#         69
  C:AECFH         LINE#         70
  C:AED1H         LINE#         72
  C:AED1H         LINE#         73
  C:AED8H         LINE#         74
  C:AEDCH         LINE#         75
  C:AEE1H         LINE#         76
  C:AEE3H         LINE#         78
  C:AEE3H         LINE#         79
  C:AEE6H         LINE#         80
  C:AEE6H         LINE#         81
  C:AEE6H         LINE#         83
  C:AEEBH         LINE#         84
  C:AEEBH         LINE#         85
  C:AEF1H         LINE#         86
  C:AEF7H         LINE#         87
  C:AEF7H         LINE#         88
  C:AEFAH         LINE#         89
  C:AEFAH         LINE#         90
  C:AEFAH         LINE#         91
  C:AEFCH         LINE#         92
  C:AF01H         LINE#         94
  C:AF04H         LINE#         95
  C:AF04H         LINE#         96
  C:AF0AH         LINE#         97
  C:AF10H         LINE#         98
  C:AF10H         LINE#         99
  C:AF13H         LINE#         100
  C:AF13H         LINE#         101
  C:AF13H         LINE#         103
  C:AF18H         LINE#         104
  C:AF1CH         LINE#         105
  C:AF21H         LINE#         107
  C:AF23H         LINE#         108
  -------         ENDPROC       _SET_MCUCLOCK
  -------         PROC          _SET_EMUCLOCK
  X:0001H         SYMBOL        u32_freq
  -------         DO            
  X:0005H         SYMBOL        i
  -------         ENDDO         
  C:BD77H         LINE#         118
  C:BD7DH         LINE#         119
  C:BD7DH         LINE#         120
  C:BD82H         LINE#         122
BL51 BANKED LINKER/LOCATER V6.22                                                      03/11/2019  14:45:04  PAGE 85


  C:BD84H         LINE#         123
  C:BD8BH         LINE#         125
  C:BDB8H         LINE#         126
  C:BDB8H         LINE#         127
  C:BDB8H         LINE#         128
  C:BDBAH         LINE#         129
  C:BDBDH         LINE#         131
  C:BDBDH         LINE#         132
  C:BDC4H         LINE#         133
  C:BDC8H         LINE#         134
  C:BDCAH         LINE#         136
  C:BDCAH         LINE#         137
  C:BDD1H         LINE#         138
  C:BDD5H         LINE#         140
  C:BDD9H         LINE#         141
  C:BDDDH         LINE#         142
  C:BDDFH         LINE#         144
  C:BDDFH         LINE#         145
  C:BDE6H         LINE#         146
  C:BDEAH         LINE#         148
  C:BDEEH         LINE#         149
  C:BDF2H         LINE#         150
  C:BDF4H         LINE#         152
  C:BDF4H         LINE#         153
  C:BDF7H         LINE#         154
  C:BDF7H         LINE#         155
  C:BDF7H         LINE#         157
  C:BDFCH         LINE#         158
  C:BDFCH         LINE#         159
  C:BE02H         LINE#         160
  C:BE08H         LINE#         161
  C:BE08H         LINE#         162
  C:BE0BH         LINE#         163
  C:BE0BH         LINE#         164
  C:BE0BH         LINE#         166
  C:BE0DH         LINE#         167
  C:BE12H         LINE#         168
  C:BE15H         LINE#         169
  C:BE15H         LINE#         170
  C:BE1BH         LINE#         171
  C:BE21H         LINE#         172
  C:BE21H         LINE#         173
  C:BE24H         LINE#         174
  C:BE24H         LINE#         175
  C:BE24H         LINE#         177
  C:BE26H         LINE#         178
  -------         ENDPROC       _SET_EMUCLOCK
  -------         PROC          SET_MCUSLEEP
  -------         DO            
  X:0007H         SYMBOL        i
  -------         ENDDO         
  C:E059H         LINE#         187
  C:E059H         LINE#         188
  C:E059H         LINE#         190
  C:E05BH         LINE#         191
  C:E05DH         LINE#         193
  C:E062H         LINE#         194
BL51 BANKED LINKER/LOCATER V6.22                                                      03/11/2019  14:45:04  PAGE 86


  C:E066H         LINE#         196
  C:E074H         LINE#         197
  C:E076H         LINE#         200
  C:E07BH         LINE#         201
  C:E07BH         LINE#         202
  C:E07EH         LINE#         203
  C:E07EH         LINE#         205
  C:E080H         LINE#         206
  C:E083H         LINE#         208
  C:E088H         LINE#         209
  C:E088H         LINE#         210
  C:E08BH         LINE#         211
  C:E08BH         LINE#         213
  C:E09AH         LINE#         214
  C:E09FH         LINE#         215
  C:E0A5H         LINE#         217
  C:E0A7H         LINE#         218
  C:E0ACH         LINE#         219
  C:E0ADH         LINE#         224
  -------         ENDPROC       SET_MCUSLEEP
  -------         PROC          SET_SLEEP_OUT
  -------         DO            
  D:0007H         SYMBOL        i
  -------         ENDDO         
  C:D475H         LINE#         234
  C:D475H         LINE#         235
  C:D475H         LINE#         240
  C:D483H         LINE#         241
  C:D48AH         LINE#         242
  C:D496H         LINE#         243
  C:D49BH         LINE#         246
  C:D4A0H         LINE#         247
  C:D4A4H         LINE#         248
  C:D4A8H         LINE#         249
  C:D4ACH         LINE#         251
  C:D4B0H         LINE#         252
  C:D4B7H         LINE#         254
  C:D4CCH         LINE#         255
  C:D4E1H         LINE#         257
  C:D4E8H         LINE#         259
  C:D4EAH         LINE#         262
  -------         ENDPROC       SET_SLEEP_OUT
  -------         ENDMOD        DRV_CORE

  -------         MODULE        DRV_GPIO
  C:0000H         SYMBOL        _ICE_DUMMY_
  D:0090H         PUBLIC        P1
  D:00B0H         PUBLIC        P3
  D:00A8H         PUBLIC        IE
  D:00ADH         PUBLIC        P9FC
  D:00A5H         PUBLIC        P9IE
  D:00B8H         PUBLIC        IP
  D:00A6H         PUBLIC        P9DO
  D:00A4H         PUBLIC        P9OE
  C:DFADH         PUBLIC        Init_GPIO_sleep
  D:0098H         PUBLIC        SCON
  D:0088H         PUBLIC        TCON
BL51 BANKED LINKER/LOCATER V6.22                                                      03/11/2019  14:45:04  PAGE 87


  D:00F0H         PUBLIC        B
  D:00E0H         PUBLIC        ACC
  D:0080H         PUBLIC        SysCtrl
  C:CEF5H         PUBLIC        Init_GPIO_run
  D:00C8H         PUBLIC        T2CON
  D:00D0H         PUBLIC        PSW
  -------         PROC          INIT_GPIO_RUN
  C:CEF5H         LINE#         29
  C:CEF5H         LINE#         30
  C:CEF5H         LINE#         32
  C:CEFCH         LINE#         33
  C:CF03H         LINE#         35
  C:CF06H         LINE#         36
  C:CF09H         LINE#         37
  C:CF0CH         LINE#         38
  C:CF0FH         LINE#         39
  C:CF36H         LINE#         40
  C:CF49H         LINE#         42
  C:CF52H         LINE#         44
  C:CF54H         LINE#         45
  C:CF5BH         LINE#         46
  C:CF62H         LINE#         48
  C:CF67H         LINE#         49
  C:CF6EH         LINE#         51
  C:CF73H         LINE#         52
  C:CF7AH         LINE#         54
  C:CF7DH         LINE#         55
  C:CF80H         LINE#         57
  -------         ENDPROC       INIT_GPIO_RUN
  -------         PROC          INIT_GPIO_SLEEP
  C:DFADH         LINE#         66
  C:DFADH         LINE#         67
  C:DFADH         LINE#         68
  C:DFB3H         LINE#         69
  C:DFB6H         LINE#         70
  C:DFBCH         LINE#         71
  C:DFBFH         LINE#         72
  C:DFC5H         LINE#         73
  C:DFC8H         LINE#         74
  C:DFCEH         LINE#         75
  C:DFD1H         LINE#         76
  C:DFD7H         LINE#         77
  C:DFDAH         LINE#         78
  C:DFE0H         LINE#         79
  C:DFE3H         LINE#         80
  C:DFE9H         LINE#         81
  C:DFECH         LINE#         82
  C:DFF2H         LINE#         83
  C:DFF5H         LINE#         84
  C:DFFBH         LINE#         85
  C:DFFEH         LINE#         86
  C:E001H         LINE#         87
  C:E003H         LINE#         88
  -------         ENDPROC       INIT_GPIO_SLEEP
  -------         ENDMOD        DRV_GPIO

  -------         MODULE        DRV_KEY_IO
BL51 BANKED LINKER/LOCATER V6.22                                                      03/11/2019  14:45:04  PAGE 88


  C:0000H         SYMBOL        _ICE_DUMMY_
  D:0090H         PUBLIC        P1
  D:00B0H         PUBLIC        P3
  C:EEF2H         PUBLIC        Judge_PG_DN_key
  D:00A8H         PUBLIC        IE
  D:00A7H         PUBLIC        P9DI
  C:EED8H         PUBLIC        Judge_ERR_ADJ_key
  D:00B8H         PUBLIC        IP
  D:0098H         PUBLIC        SCON
  D:0088H         PUBLIC        TCON
  D:00F0H         PUBLIC        B
  D:00E0H         PUBLIC        ACC
  C:EF89H         PUBLIC        Judge_ERR_COVER_key
  C:EF71H         PUBLIC        Judge_MD_CLEAR_key
  D:0080H         PUBLIC        SysCtrl
  C:EF0CH         PUBLIC        Judge_MAGN_CHK_key
  D:00C8H         PUBLIC        T2CON
  D:00D0H         PUBLIC        PSW
  -------         PROC          JUDGE_ERR_ADJ_KEY
  -------         DO            
  D:0007H         SYMBOL        i
  -------         ENDDO         
  C:EED8H         LINE#         31
  C:EED8H         LINE#         32
  C:EED8H         LINE#         36
  C:EEDAH         LINE#         37
  C:EEDAH         LINE#         38
  C:EEE1H         LINE#         39
  C:EEE6H         LINE#         41
  C:EEECH         LINE#         42
  C:EEECH         LINE#         43
  C:EEEFH         LINE#         44
  C:EEEFH         LINE#         46
  C:EEEFH         LINE#         47
  C:EEF1H         LINE#         48
  C:EEF1H         LINE#         50
  -------         ENDPROC       JUDGE_ERR_ADJ_KEY
  -------         PROC          JUDGE_PG_DN_KEY
  -------         DO            
  D:0007H         SYMBOL        i
  -------         ENDDO         
  C:EEF2H         LINE#         58
  C:EEF2H         LINE#         59
  C:EEF2H         LINE#         63
  C:EEF4H         LINE#         64
  C:EEF4H         LINE#         65
  C:EEFBH         LINE#         66
  C:EF00H         LINE#         68
  C:EF06H         LINE#         69
  C:EF06H         LINE#         70
  C:EF09H         LINE#         71
  C:EF09H         LINE#         73
  C:EF09H         LINE#         74
  C:EF0BH         LINE#         75
  C:EF0BH         LINE#         77
  -------         ENDPROC       JUDGE_PG_DN_KEY
  -------         PROC          JUDGE_MD_CLEAR_KEY
BL51 BANKED LINKER/LOCATER V6.22                                                      03/11/2019  14:45:04  PAGE 89


  -------         DO            
  D:0007H         SYMBOL        i
  -------         ENDDO         
  C:EF71H         LINE#         85
  C:EF71H         LINE#         86
  C:EF71H         LINE#         90
  C:EF73H         LINE#         91
  C:EF73H         LINE#         92
  C:EF78H         LINE#         93
  C:EF7DH         LINE#         95
  C:EF83H         LINE#         96
  C:EF83H         LINE#         97
  C:EF86H         LINE#         98
  C:EF86H         LINE#         100
  C:EF86H         LINE#         101
  C:EF88H         LINE#         102
  C:EF88H         LINE#         104
  -------         ENDPROC       JUDGE_MD_CLEAR_KEY
  -------         PROC          JUDGE_MAGN_CHK_KEY
  -------         DO            
  D:0007H         SYMBOL        i
  -------         ENDDO         
  C:EF0CH         LINE#         113
  C:EF0CH         LINE#         114
  C:EF0CH         LINE#         118
  C:EF0EH         LINE#         119
  C:EF0EH         LINE#         120
  C:EF15H         LINE#         121
  C:EF1AH         LINE#         123
  C:EF20H         LINE#         124
  C:EF20H         LINE#         125
  C:EF23H         LINE#         126
  C:EF23H         LINE#         128
  C:EF23H         LINE#         129
  C:EF25H         LINE#         130
  C:EF25H         LINE#         132
  -------         ENDPROC       JUDGE_MAGN_CHK_KEY
  -------         PROC          JUDGE_ERR_COVER_KEY
  -------         DO            
  D:0007H         SYMBOL        i
  -------         ENDDO         
  C:EF89H         LINE#         142
  C:EF89H         LINE#         143
  C:EF89H         LINE#         147
  C:EF8BH         LINE#         148
  C:EF8BH         LINE#         149
  C:EF90H         LINE#         150
  C:EF95H         LINE#         152
  C:EF9BH         LINE#         153
  C:EF9BH         LINE#         154
  C:EF9EH         LINE#         155
  C:EF9EH         LINE#         157
  C:EF9EH         LINE#         158
  C:EFA0H         LINE#         159
  C:EFA0H         LINE#         161
  -------         ENDPROC       JUDGE_ERR_COVER_KEY
  -------         ENDMOD        DRV_KEY_IO
BL51 BANKED LINKER/LOCATER V6.22                                                      03/11/2019  14:45:04  PAGE 90



  -------         MODULE        DRV_LCD
  C:0000H         SYMBOL        _ICE_DUMMY_
  D:0090H         PUBLIC        P1
  D:00B0H         PUBLIC        P3
  D:00A8H         PUBLIC        IE
  C:F0FCH         PUBLIC        LCD_OFF
  D:00B8H         PUBLIC        IP
  B:0080H.3       PUBLIC        LCDG
  D:0098H         PUBLIC        SCON
  D:0088H         PUBLIC        TCON
  D:00F0H         PUBLIC        B
  C:AF24H         PUBLIC        _Write_LCD
  D:00E0H         PUBLIC        ACC
  C:D8F8H         PUBLIC        Init_LCD
  C:F074H         PUBLIC        LCD_ON
  C:EE4FH         PUBLIC        Clr_all_lcd
  C:EC88H         PUBLIC        _Full_SEG
  D:0080H         PUBLIC        SysCtrl
  D:00C8H         PUBLIC        T2CON
  D:00D0H         PUBLIC        PSW
  -------         PROC          LCD_ON
  C:F074H         LINE#         29
  C:F074H         LINE#         30
  C:F074H         LINE#         31
  C:F076H         LINE#         32
  C:F07BH         LINE#         33
  C:F081H         LINE#         34
  -------         ENDPROC       LCD_ON
  -------         PROC          LCD_OFF
  C:F0FCH         LINE#         43
  C:F0FCH         LINE#         44
  C:F0FCH         LINE#         45
  C:F0FEH         LINE#         46
  -------         ENDPROC       LCD_OFF
  -------         PROC          CLR_ALL_LCD
  C:EE4FH         LINE#         54
  C:EE4FH         LINE#         55
  C:EE4FH         LINE#         56
  C:EE54H         LINE#         57
  C:EE56H         LINE#         58
  C:EE58H         LINE#         59
  C:EE5AH         LINE#         60
  C:EE5CH         LINE#         61
  C:EE5EH         LINE#         62
  C:EE60H         LINE#         63
  C:EE62H         LINE#         64
  C:EE66H         LINE#         65
  C:EE68H         LINE#         66
  C:EE6AH         LINE#         67
  -------         ENDPROC       CLR_ALL_LCD
  -------         PROC          _FULL_SEG
  D:0007H         SYMBOL        val
  C:EC88H         LINE#         76
  C:EC88H         LINE#         77
  C:EC88H         LINE#         78
  C:EC8DH         LINE#         79
BL51 BANKED LINKER/LOCATER V6.22                                                      03/11/2019  14:45:04  PAGE 91


  C:EC91H         LINE#         80
  C:EC93H         LINE#         81
  C:EC95H         LINE#         82
  C:EC97H         LINE#         83
  C:EC9BH         LINE#         84
  C:EC9DH         LINE#         85
  C:EC9FH         LINE#         86
  C:ECA3H         LINE#         87
  C:ECA5H         LINE#         88
  C:ECA9H         LINE#         89
  C:ECAEH         LINE#         90
  -------         ENDPROC       _FULL_SEG
  -------         PROC          INIT_LCD
  C:D8F8H         LINE#         99
  C:D8F8H         LINE#         100
  C:D8F8H         LINE#         103
  C:D8FFH         LINE#         104
  C:D906H         LINE#         105
  C:D90DH         LINE#         106
  C:D914H         LINE#         107
  C:D91BH         LINE#         108
  C:D922H         LINE#         110
  C:D929H         LINE#         111
  C:D930H         LINE#         112
  C:D936H         LINE#         113
  C:D93DH         LINE#         114
  C:D944H         LINE#         115
  C:D94BH         LINE#         117
  C:D94EH         LINE#         119
  C:D954H         LINE#         121
  C:D958H         LINE#         124
  C:D95CH         LINE#         126
  C:D960H         LINE#         128
  C:D964H         LINE#         130
  -------         ENDPROC       INIT_LCD
  -------         PROC          _WRITE_LCD
  D:0001H         SYMBOL        bf_i2cData
  C:AF24H         LINE#         138
  C:AF24H         LINE#         139
  C:AF24H         LINE#         141
  C:AF39H         LINE#         142
  C:AF4DH         LINE#         143
  C:AF5EH         LINE#         144
  C:AF75H         LINE#         145
  C:AF86H         LINE#         146
  C:AF9DH         LINE#         147
  C:AFAEH         LINE#         148
  C:AFC5H         LINE#         149
  C:AFD6H         LINE#         150
  C:AFEDH         LINE#         151
  C:AFF2H         LINE#         152
  C:B003H         LINE#         154
  -------         ENDPROC       _WRITE_LCD
  -------         ENDMOD        DRV_LCD

  -------         MODULE        DRV_RTC
  C:0000H         SYMBOL        _ICE_DUMMY_
BL51 BANKED LINKER/LOCATER V6.22                                                      03/11/2019  14:45:04  PAGE 92


  D:009AH         PUBLIC        RTCSC
  D:0090H         PUBLIC        P1
  D:00B0H         PUBLIC        P3
  D:009EH         PUBLIC        RTCWC
  C:86ECH         PUBLIC        _SetRTCNormal
  D:0093H         PUBLIC        RTCYC
  C:DB13H         PUBLIC        _Set_RTCTime
  D:00A8H         PUBLIC        IE
  D:00B8H         PUBLIC        IP
  D:0098H         PUBLIC        SCON
  D:0088H         PUBLIC        TCON
  D:00F0H         PUBLIC        B
  D:00E0H         PUBLIC        ACC
  D:00DFH         PUBLIC        SECINT
  D:00DBH         PUBLIC        DIVTHH
  C:E773H         PUBLIC        _SetExtRTC
  C:F061H         PUBLIC        Open_SecOut
  D:00DDH         PUBLIC        DIVTHL
  D:00DCH         PUBLIC        DIVTHM
  D:0090H         PUBLIC        RTCPEN
  C:EE87H         PUBLIC        Clr_RTC_AdjParam
  D:00E8H         PUBLIC        EIE
  D:0096H         PUBLIC        INTRTC
  D:0097H         PUBLIC        RTCPWD
  D:00DAH         PUBLIC        RTCLATCH
  D:0080H         PUBLIC        SysCtrl
  C:F09CH         PUBLIC        Init_RTC
  D:009BH         PUBLIC        RTCMiC
  D:00C8H         PUBLIC        T2CON
  C:F109H         PUBLIC        Handl_RTC_Adj_per_minu
  D:009FH         PUBLIC        RTCMoC
  D:009DH         PUBLIC        RTCDC
  D:009CH         PUBLIC        RTCHC
  D:0094H         PUBLIC        RTCCH
  D:0095H         PUBLIC        RTCCL
  D:00D0H         PUBLIC        PSW
  C:DDDEH         PUBLIC        _Get_RTCTime
  -------         PROC          OPEN_SECOUT
  C:F061H         LINE#         28
  C:F061H         LINE#         29
  C:F061H         LINE#         30
  C:F067H         LINE#         32
  C:F06EH         LINE#         33
  C:F073H         LINE#         34
  -------         ENDPROC       OPEN_SECOUT
  -------         PROC          INIT_RTC
  C:F09CH         LINE#         52
  C:F09CH         LINE#         53
  C:F09CH         LINE#         54
  C:F09FH         LINE#         55
  C:F0A6H         LINE#         56
  -------         ENDPROC       INIT_RTC
  -------         PROC          _SETEXTRTC
  X:0007H         SYMBOL        SEC
  X:0008H         SYMBOL        intRTC
  C:E773H         LINE#         67
  C:E77BH         LINE#         68
BL51 BANKED LINKER/LOCATER V6.22                                                      03/11/2019  14:45:04  PAGE 93


  C:E77BH         LINE#         70
  C:E77EH         LINE#         71
  C:E781H         LINE#         72
  C:E786H         LINE#         74
  C:E78DH         LINE#         77
  C:E791H         LINE#         78
  C:E791H         LINE#         79
  C:E794H         LINE#         80
  C:E79EH         LINE#         81
  C:E79EH         LINE#         84
  C:E7A3H         LINE#         86
  C:E7A6H         LINE#         87
  C:E7A9H         LINE#         88
  -------         ENDPROC       _SETEXTRTC
  -------         PROC          _GET_RTCTIME
  X:0021H         SYMBOL        pTime
  -------         DO            
  X:0024H         SYMBOL        RTCFLAG
  -------         ENDDO         
  C:DDDEH         LINE#         99
  C:DDE9H         LINE#         100
  C:DDE9H         LINE#         103
  C:DDEDH         LINE#         104
  C:DDF2H         LINE#         106
  C:DE02H         LINE#         107
  C:DE15H         LINE#         108
  C:DE1DH         LINE#         109
  C:DE25H         LINE#         110
  C:DE2DH         LINE#         111
  C:DE35H         LINE#         112
  -------         ENDPROC       _GET_RTCTIME
  -------         PROC          _SET_RTCTIME
  X:0093H         SYMBOL        pTime
  C:DB13H         LINE#         122
  C:DB1EH         LINE#         123
  C:DB1EH         LINE#         125
  C:DB21H         LINE#         126
  C:DB24H         LINE#         127
  C:DB29H         LINE#         129
  C:DB39H         LINE#         130
  C:DB41H         LINE#         131
  C:DB49H         LINE#         132
  C:DB51H         LINE#         133
  C:DB59H         LINE#         134
  C:DB61H         LINE#         135
  C:DB69H         LINE#         136
  C:DB6EH         LINE#         139
  C:DB71H         LINE#         140
  C:DB74H         LINE#         141
  C:DB79H         LINE#         143
  C:DB7BH         LINE#         144
  -------         ENDPROC       _SET_RTCTIME
  -------         PROC          CLR_RTC_ADJPARAM
  C:EE87H         LINE#         155
  C:EE87H         LINE#         156
  C:EE87H         LINE#         158
  C:EE8AH         LINE#         159
BL51 BANKED LINKER/LOCATER V6.22                                                      03/11/2019  14:45:04  PAGE 94


  C:EE8DH         LINE#         160
  C:EE92H         LINE#         161
  C:EE95H         LINE#         162
  C:EE97H         LINE#         165
  C:EE9AH         LINE#         166
  C:EE9DH         LINE#         167
  -------         ENDPROC       CLR_RTC_ADJPARAM
  -------         PROC          _SETRTCNORMAL
  X:078CH         SYMBOL        offset
  -------         DO            
  X:078EH         SYMBOL        temp1
  X:0792H         SYMBOL        temp2
  D:0006H         SYMBOL        temp3
  -------         ENDDO         
  C:86ECH         LINE#         178
  C:86F4H         LINE#         179
  C:86F4H         LINE#         183
  C:86FEH         LINE#         184
  C:870DH         LINE#         185
  C:8719H         LINE#         186
  C:8719H         LINE#         187
  C:8728H         LINE#         188
  C:8732H         LINE#         189
  C:8758H         LINE#         190
  C:8762H         LINE#         191
  C:87A2H         LINE#         192
  C:87A4H         LINE#         194
  C:87A4H         LINE#         195
  C:87CAH         LINE#         196
  C:87D4H         LINE#         197
  C:8824H         LINE#         198
  C:8824H         LINE#         200
  C:8833H         LINE#         201
  C:883AH         LINE#         202
  C:883DH         LINE#         203
  C:8840H         LINE#         204
  C:8845H         LINE#         205
  C:884BH         LINE#         206
  C:884FH         LINE#         207
  C:8855H         LINE#         208
  C:8859H         LINE#         209
  C:885DH         LINE#         211
  C:8862H         LINE#         212
  C:8865H         LINE#         213
  C:8868H         LINE#         214
  -------         ENDPROC       _SETRTCNORMAL
  -------         PROC          HANDL_RTC_ADJ_PER_MINU
  -------         DO            
  X:0000H         SYMBOL        i
  X:0001H         SYMBOL        p
  X:0003H         SYMBOL        temp1
  X:0007H         SYMBOL        temperature
  X:000BH         SYMBOL        delta
  D:0006H         SYMBOL        OSC
  X:000DH         SYMBOL        Bpara
  X:0011H         SYMBOL        Ti
  -------         ENDDO         
BL51 BANKED LINKER/LOCATER V6.22                                                      03/11/2019  14:45:04  PAGE 95


  C:F109H         LINE#         224
  C:F109H         LINE#         225
  -------         ENDPROC       HANDL_RTC_ADJ_PER_MINU
  -------         ENDMOD        DRV_RTC

  -------         MODULE        DRV_TMR
  C:0000H         SYMBOL        _ICE_DUMMY_
  D:0090H         PUBLIC        P1
  D:00B0H         PUBLIC        P3
  C:0016H         PUBLIC        Stop_Timer
  D:00A8H         PUBLIC        IE
  D:00B8H         PUBLIC        IP
  C:000EH         PUBLIC        Start_Timer1
  D:0098H         PUBLIC        SCON
  D:0089H         PUBLIC        TMOD
  D:0088H         PUBLIC        TCON
  D:00F0H         PUBLIC        B
  D:00E0H         PUBLIC        ACC
  B:00A8H.1       PUBLIC        ET0
  B:00A8H.3       PUBLIC        ET1
  D:008CH         PUBLIC        TH0
  D:008DH         PUBLIC        TH1
  D:008AH         PUBLIC        TL0
  D:008BH         PUBLIC        TL1
  B:0088H.4       PUBLIC        TR0
  B:0088H.6       PUBLIC        TR1
  D:0080H         PUBLIC        SysCtrl
  D:00C8H         PUBLIC        T2CON
  D:008EH         PUBLIC        CKCON
  C:0006H         PUBLIC        Start_Timer
  C:EFA1H         PUBLIC        Init_Timer
  D:00D0H         PUBLIC        PSW
  -------         PROC          START_TIMER
  C:0006H         LINE#         30
  C:0006H         LINE#         31
  C:0006H         LINE#         32
  C:0008H         LINE#         33
  C:000AH         LINE#         34
  -------         ENDPROC       START_TIMER
  -------         PROC          START_TIMER1
  C:000EH         LINE#         35
  C:000EH         LINE#         36
  C:000EH         LINE#         37
  C:0010H         LINE#         38
  C:0012H         LINE#         39
  -------         ENDPROC       START_TIMER1
  -------         PROC          STOP_TIMER
  C:0016H         LINE#         47
  C:0016H         LINE#         48
  C:0016H         LINE#         49
  C:0018H         LINE#         50
  C:001AH         LINE#         51
  -------         ENDPROC       STOP_TIMER
  -------         PROC          INIT_TIMER
  C:EFA1H         LINE#         60
  C:EFA1H         LINE#         61
  C:EFA1H         LINE#         64
BL51 BANKED LINKER/LOCATER V6.22                                                      03/11/2019  14:45:04  PAGE 96


  C:EFA4H         LINE#         65
  C:EFA7H         LINE#         66
  C:EFAAH         LINE#         67
  C:EFADH         LINE#         68
  C:EFB0H         LINE#         69
  C:EFB3H         LINE#         70
  C:EFB6H         LINE#         71
  -------         ENDPROC       INIT_TIMER
  -------         ENDMOD        DRV_TMR

  -------         MODULE        DRV_UART
  C:0000H         SYMBOL        _ICE_DUMMY_
  D:0090H         PUBLIC        P1
  D:00B0H         PUBLIC        P3
  B:00A8H.7       PUBLIC        EA
  C:E0FEH         PUBLIC        Uart4_Transmit
  D:00A8H         PUBLIC        IE
  C:A8A8H         PUBLIC        _Get_UART_rx_buff
  C:B004H         PUBLIC        _Hdl_UART_10ms_run
  D:00B8H         PUBLIC        IP
  C:EFD0H         PUBLIC        En_UART2_Tx
  C:EFE6H         PUBLIC        En_UART4_Tx
  D:0098H         PUBLIC        SCON
  D:0088H         PUBLIC        TCON
  C:F0C6H         PUBLIC        Dis_UART2_rx
  C:F0CEH         PUBLIC        Dis_UART4_rx
  D:00F0H         PUBLIC        B
  D:00E0H         PUBLIC        ACC
  C:E313H         PUBLIC        En_UART2_rx
  B:00D0H.0       PUBLIC        P
  C:E4BFH         PUBLIC        En_UART4_rx
  C:C392H         PUBLIC        _Init_UART_soft
  X:0236H         PUBLIC        gs_uart_drv_var
  D:00E8H         PUBLIC        EIE
  D:0080H         PUBLIC        SysCtrl
  C:D4EBH         PUBLIC        _Set_Uart2_badu
  C:D561H         PUBLIC        _Set_Uart4_badu
  D:00C8H         PUBLIC        T2CON
  C:F0DEH         PUBLIC        _Init_UART2_hard
  C:F0E4H         PUBLIC        _Init_UART4_hard
  C:79DCH         PUBLIC        _Tx_UART_frist
  D:00D0H         PUBLIC        PSW
  -------         PROC          _SET_UART2_BADU
  D:0006H         SYMBOL        rate
  C:D4EBH         LINE#         32
  C:D4EBH         LINE#         33
  C:D4EBH         LINE#         34
  C:D4F1H         LINE#         35
  C:D50FH         LINE#         36
  C:D50FH         LINE#         37
  C:D50FH         LINE#         39
  C:D515H         LINE#         41
  C:D51AH         LINE#         56
  C:D51CH         LINE#         58
  C:D51CH         LINE#         60
  C:D522H         LINE#         62
  C:D527H         LINE#         77
BL51 BANKED LINKER/LOCATER V6.22                                                      03/11/2019  14:45:04  PAGE 97


  C:D529H         LINE#         79
  C:D529H         LINE#         81
  C:D52FH         LINE#         83
  C:D534H         LINE#         98
  C:D536H         LINE#         100
  C:D536H         LINE#         103
  C:D53CH         LINE#         105
  C:D541H         LINE#         120
  C:D543H         LINE#         122
  C:D543H         LINE#         124
  C:D549H         LINE#         126
  C:D54EH         LINE#         141
  C:D550H         LINE#         142
  C:D550H         LINE#         143
  C:D550H         LINE#         145
  C:D556H         LINE#         147
  C:D560H         LINE#         162
  C:D560H         LINE#         164
  C:D560H         LINE#         166
  -------         ENDPROC       _SET_UART2_BADU
  -------         PROC          _SET_UART4_BADU
  D:0006H         SYMBOL        rate
  C:D561H         LINE#         176
  C:D561H         LINE#         177
  C:D561H         LINE#         178
  C:D567H         LINE#         179
  C:D585H         LINE#         180
  C:D585H         LINE#         181
  C:D585H         LINE#         183
  C:D58BH         LINE#         185
  C:D590H         LINE#         198
  C:D592H         LINE#         200
  C:D592H         LINE#         202
  C:D598H         LINE#         204
  C:D59DH         LINE#         217
  C:D59FH         LINE#         219
  C:D59FH         LINE#         221
  C:D5A5H         LINE#         223
  C:D5AAH         LINE#         236
  C:D5ACH         LINE#         238
  C:D5ACH         LINE#         240
  C:D5B2H         LINE#         242
  C:D5B7H         LINE#         255
  C:D5B9H         LINE#         257
  C:D5B9H         LINE#         259
  C:D5BFH         LINE#         261
  C:D5C4H         LINE#         274
  C:D5C6H         LINE#         275
  C:D5C6H         LINE#         276
  C:D5C6H         LINE#         278
  C:D5CCH         LINE#         280
  C:D5D6H         LINE#         293
  C:D5D6H         LINE#         295
  C:D5D6H         LINE#         297
  -------         ENDPROC       _SET_UART4_BADU
  -------         PROC          EN_UART2_RX
  C:E313H         LINE#         308
BL51 BANKED LINKER/LOCATER V6.22                                                      03/11/2019  14:45:04  PAGE 98


  C:E313H         LINE#         309
  C:E313H         LINE#         310
  C:E340H         LINE#         311
  C:E346H         LINE#         312
  C:E34DH         LINE#         313
  C:E354H         LINE#         314
  C:E358H         LINE#         315
  C:E35BH         LINE#         316
  -------         ENDPROC       EN_UART2_RX
  -------         PROC          EN_UART4_RX
  C:E4BFH         LINE#         336
  C:E4BFH         LINE#         337
  C:E4BFH         LINE#         354
  C:E4E6H         LINE#         355
  C:E4ECH         LINE#         356
  C:E4F3H         LINE#         357
  C:E4FAH         LINE#         358
  C:E4FEH         LINE#         359
  C:E501H         LINE#         360
  -------         ENDPROC       EN_UART4_RX
  -------         PROC          DIS_UART2_RX
  C:F0C6H         LINE#         369
  C:F0C6H         LINE#         370
  C:F0C6H         LINE#         371
  C:F0CDH         LINE#         372
  -------         ENDPROC       DIS_UART2_RX
  -------         PROC          DIS_UART4_RX
  C:F0CEH         LINE#         381
  C:F0CEH         LINE#         382
  C:F0CEH         LINE#         383
  C:F0D5H         LINE#         384
  -------         ENDPROC       DIS_UART4_RX
  -------         PROC          EN_UART2_TX
  C:EFD0H         LINE#         393
  C:EFD0H         LINE#         394
  C:EFD0H         LINE#         395
  C:EFD7H         LINE#         396
  C:EFDEH         LINE#         397
  C:EFE2H         LINE#         398
  C:EFE5H         LINE#         400
  -------         ENDPROC       EN_UART2_TX
  -------         PROC          EN_UART4_TX
  C:EFE6H         LINE#         410
  C:EFE6H         LINE#         411
  C:EFE6H         LINE#         412
  C:EFEDH         LINE#         413
  C:EFF4H         LINE#         414
  C:EFF8H         LINE#         415
  C:EFFBH         LINE#         416
  -------         ENDPROC       EN_UART4_TX
  -------         PROC          _INIT_UART2_HARD
  D:0006H         SYMBOL        badu
  C:F0DEH         LINE#         428
  C:F0DEH         LINE#         429
  C:F0DEH         LINE#         431
  C:F0E1H         LINE#         432
  -------         ENDPROC       _INIT_UART2_HARD
BL51 BANKED LINKER/LOCATER V6.22                                                      03/11/2019  14:45:04  PAGE 99


  -------         PROC          _INIT_UART4_HARD
  D:0006H         SYMBOL        badu
  C:F0E4H         LINE#         444
  C:F0E4H         LINE#         445
  C:F0E4H         LINE#         447
  C:F0E7H         LINE#         448
  -------         ENDPROC       _INIT_UART4_HARD
  -------         PROC          _INIT_UART_SOFT
  D:0007H         SYMBOL        ch
  -------         DO            
  D:0006H         SYMBOL        i
  -------         ENDDO         
  C:C392H         LINE#         460
  C:C392H         LINE#         461
  C:C392H         LINE#         464
  C:C39BH         LINE#         467
  C:C3AFH         LINE#         468
  C:C3C3H         LINE#         469
  C:C3D7H         LINE#         470
  C:C3EBH         LINE#         471
  C:C3FFH         LINE#         472
  C:C414H         LINE#         473
  C:C416H         LINE#         474
  C:C416H         LINE#         475
  C:C434H         LINE#         476
  C:C439H         LINE#         477
  -------         ENDPROC       _INIT_UART_SOFT
  -------         PROC          _HDL_UART_10MS_RUN
  D:0007H         SYMBOL        ch
  -------         DO            
  D:0006H         SYMBOL        rx_len
  -------         ENDDO         
  C:B004H         LINE#         486
  C:B004H         LINE#         487
  C:B004H         LINE#         490
  C:B00DH         LINE#         493
  C:B022H         LINE#         494
  C:B022H         LINE#         495
  C:B024H         LINE#         497
  C:B024H         LINE#         500
  C:B03BH         LINE#         501
  C:B03BH         LINE#         502
  C:B03DH         LINE#         504
  C:B03DH         LINE#         506
  C:B041H         LINE#         507
  C:B041H         LINE#         508
  C:B044H         LINE#         509
  C:B044H         LINE#         510
  C:B047H         LINE#         511
  C:B047H         LINE#         512
  C:B04BH         LINE#         513
  C:B04BH         LINE#         515
  C:B04CH         LINE#         516
  C:B04CH         LINE#         517
  C:B04FH         LINE#         519
  C:B04FH         LINE#         523
  C:B063H         LINE#         524
BL51 BANKED LINKER/LOCATER V6.22                                                      03/11/2019  14:45:04  PAGE 100


  C:B065H         LINE#         525
  C:B065H         LINE#         526
  C:B07AH         LINE#         528
  C:B07AH         LINE#         530
  C:B08FH         LINE#         532
  C:B0A8H         LINE#         533
  C:B0A8H         LINE#         534
  C:B0BAH         LINE#         535
  C:B0BCH         LINE#         537
  C:B0BCH         LINE#         538
  C:B0CDH         LINE#         539
  C:B0CDH         LINE#         540
  C:B0E1H         LINE#         543
  -------         ENDPROC       _HDL_UART_10MS_RUN
  -------         PROC          _TX_UART_FRIST
  X:0006H         SYMBOL        p_buf
  X:0009H         SYMBOL        len
  X:000AH         SYMBOL        badu
  X:000CH         SYMBOL        ch
  -------         DO            
  D:0007H         SYMBOL        i
  X:000DH         SYMBOL        bits_len
  -------         ENDDO         
  C:79DCH         LINE#         556
  C:79EAH         LINE#         557
  C:79EAH         LINE#         562
  C:79F0H         LINE#         564
  C:79F6H         LINE#         565
  C:79F6H         LINE#         566
  C:79FCH         LINE#         567
  C:79FCH         LINE#         569
  C:7A08H         LINE#         571
  C:7A14H         LINE#         572
  C:7A14H         LINE#         573
  C:7A4CH         LINE#         574
  C:7A4FH         LINE#         575
  C:7A6FH         LINE#         576
  C:7A86H         LINE#         577
  C:7A9CH         LINE#         578
  C:7AB3H         LINE#         580
  C:7AB9H         LINE#         581
  C:7AB9H         LINE#         582
  C:7ABBH         LINE#         583
  C:7AD4H         LINE#         584
  C:7AD4H         LINE#         586
  C:7AEDH         LINE#         587
  C:7AF3H         LINE#         588
  C:7AF3H         LINE#         589
  C:7B0CH         LINE#         590
  C:7B0EH         LINE#         592
  C:7B0EH         LINE#         593
  C:7B25H         LINE#         594
  C:7B25H         LINE#         595
  C:7B25H         LINE#         596
  C:7B27H         LINE#         597
  C:7B32H         LINE#         598
  C:7B35H         LINE#         599
BL51 BANKED LINKER/LOCATER V6.22                                                      03/11/2019  14:45:04  PAGE 101


  C:7B38H         LINE#         600
  C:7B55H         LINE#         601
  C:7B55H         LINE#         603
  C:7B5DH         LINE#         604
  C:7B5DH         LINE#         605
  C:7B65H         LINE#         606
  C:7B7BH         LINE#         607
  C:7B7EH         LINE#         608
  C:7B83H         LINE#         609
  C:7B89H         LINE#         610
  C:7B8EH         LINE#         611
  C:7B8EH         LINE#         615
  -------         ENDPROC       _TX_UART_FRIST
  -------         PROC          _GET_UART_RX_BUFF
  X:0036H         SYMBOL        p_buf
  X:0039H         SYMBOL        ch
  -------         DO            
  D:0005H         SYMBOL        len
  -------         ENDDO         
  C:A8A8H         LINE#         626
  C:A8B6H         LINE#         627
  C:A8B6H         LINE#         630
  C:A8BEH         LINE#         633
  C:A8EAH         LINE#         636
  C:A908H         LINE#         637
  C:A908H         LINE#         638
  C:A90BH         LINE#         639
  C:A90BH         LINE#         642
  C:A925H         LINE#         643
  C:A93CH         LINE#         645
  C:A93FH         LINE#         646
  C:A93FH         LINE#         648
  C:A942H         LINE#         649
  C:A942H         LINE#         651
  C:A94AH         LINE#         652
  C:A94AH         LINE#         655
  C:A94BH         LINE#         656
  C:A94BH         LINE#         658
  C:A965H         LINE#         659
  C:A97BH         LINE#         660
  C:A98FH         LINE#         662
  C:A995H         LINE#         663
  C:A995H         LINE#         664
  C:A997H         LINE#         665
  C:A997H         LINE#         667
  C:A999H         LINE#         668
  -------         ENDPROC       _GET_UART_RX_BUFF
  -------         PROC          UART4_TRANSMIT
  -------         DO            
  D:0007H         SYMBOL        i
  -------         ENDDO         
  C:E0FEH         LINE#         672
  C:E0FEH         LINE#         673
  C:E0FEH         LINE#         675
  C:E106H         LINE#         676
  C:E106H         LINE#         677
  C:E110H         LINE#         678
BL51 BANKED LINKER/LOCATER V6.22                                                      03/11/2019  14:45:04  PAGE 102


  C:E110H         LINE#         679
  C:E11FH         LINE#         680
  C:E125H         LINE#         681
  C:E125H         LINE#         682
  C:E129H         LINE#         683
  C:E12BH         LINE#         685
  C:E12BH         LINE#         686
  C:E12FH         LINE#         687
  C:E12FH         LINE#         688
  C:E145H         LINE#         689
  C:E146H         LINE#         691
  C:E146H         LINE#         692
  C:E14CH         LINE#         693
  C:E14CH         LINE#         694
  C:E14CH         LINE#         695
  -------         ENDPROC       UART4_TRANSMIT
  -------         ENDMOD        DRV_UART

  -------         MODULE        LIB_MYMATH
  C:0000H         SYMBOL        _ICE_DUMMY_
  C:EAAEH         PUBLIC        _Lib_get_csck_int16u_num
  C:E502H         PUBLIC        _Lib_bcd_arry_add1
  D:0090H         PUBLIC        P1
  D:00B0H         PUBLIC        P3
  C:EA1AH         PUBLIC        _Lib_math_get_BCC_chk
  D:00A8H         PUBLIC        IE
  D:00B8H         PUBLIC        IP
  C:ECD6H         PUBLIC        _Lib_BCDCHK
  C:E8D1H         PUBLIC        _Lib_ENOB_Get
  D:0098H         PUBLIC        SCON
  D:0088H         PUBLIC        TCON
  C:A99AH         PUBLIC        _Lib_Check_RTC_data_FORM
  X:062CH         PUBLIC        DayTab
  C:EEAEH         PUBLIC        _Lib_bcd_byte
  C:EE6BH         PUBLIC        _Lib_byte_bcd
  C:D386H         PUBLIC        _Lib_BCD_Asc
  C:D88AH         PUBLIC        _Lib_Asc_BCD
  C:E19AH         PUBLIC        _Lib_bcd_inc
  D:00F0H         PUBLIC        B
  X:0646H         PUBLIC        MonTab
  X:0653H         PUBLIC        DefaultData
  D:00E0H         PUBLIC        ACC
  C:ECAFH         PUBLIC        _Lib_get_csck_int8u_num
  D:0080H         PUBLIC        SysCtrl
  C:EBA2H         PUBLIC        _Lib_BtoA
  C:E7C2H         PUBLIC        _Lib_AtoB
  D:00C8H         PUBLIC        T2CON
  C:B6B6H         PUBLIC        _Lib_bcd4_long
  C:BC0CH         PUBLIC        _Lib_long_bcd4
  C:E232H         PUBLIC        _Lib_GetGmSec
  C:EFFCH         PUBLIC        _Lib_check_bitnum
  C:CAF4H         PUBLIC        _Lib_GetGmDay
  C:E2C9H         PUBLIC        _Lib_GetGmHour
  C:ED22H         PUBLIC        _Lib_bcd2_word
  C:D3FEH         PUBLIC        _Lib_word_bcd2
  C:E1E6H         PUBLIC        _Lib_GetGmMin
  D:00D0H         PUBLIC        PSW
BL51 BANKED LINKER/LOCATER V6.22                                                      03/11/2019  14:45:04  PAGE 103


  C:D819H         PUBLIC        _Lib_BCD_AscA
  C:D7A8H         PUBLIC        _Lib_Asc_BCDA
  -------         PROC          _LIB_BYTE_BCD
  D:0007H         SYMBOL        xx
  C:EE6BH         LINE#         37
  C:EE6BH         LINE#         38
  C:EE6BH         LINE#         39
  C:EE74H         LINE#         40
  C:EE86H         LINE#         41
  -------         ENDPROC       _LIB_BYTE_BCD
  C:EEA2H         SYMBOL        L?0101
  C:EEAAH         SYMBOL        L?0102
  -------         PROC          L?0100
  -------         ENDPROC       L?0100
  C:EEA2H         SYMBOL        L?0101
  C:EEAAH         SYMBOL        L?0102
  -------         PROC          _LIB_BCD_BYTE
  D:0007H         SYMBOL        xx
  C:EEAEH         LINE#         46
  C:EEAEH         LINE#         47
  C:EEAEH         LINE#         48
  C:EEBCH         LINE#         49
  -------         ENDPROC       _LIB_BCD_BYTE
  -------         PROC          _LIB_WORD_BCD2
  X:0102H         SYMBOL        ptr
  X:0105H         SYMBOL        xx
  C:D3FEH         LINE#         54
  C:D40FH         LINE#         55
  C:D40FH         LINE#         56
  C:D417H         LINE#         57
  C:D417H         LINE#         58
  C:D429H         LINE#         59
  C:D42DH         LINE#         61
  C:D42DH         LINE#         67
  C:D44EH         LINE#         68
  C:D474H         LINE#         71
  -------         ENDPROC       _LIB_WORD_BCD2
  -------         PROC          _LIB_BCD2_WORD
  D:0001H         SYMBOL        ptr
  C:ED22H         LINE#         76
  C:ED22H         LINE#         77
  C:ED22H         LINE#         83
  C:ED46H         LINE#         86
  -------         ENDPROC       _LIB_BCD2_WORD
  -------         PROC          _LIB_LONG_BCD4
  X:00FBH         SYMBOL        ptr
  X:00FEH         SYMBOL        xx
  C:BC0CH         LINE#         91
  C:BC1BH         LINE#         92
  C:BC1BH         LINE#         93
  C:BC37H         LINE#         94
  C:BC37H         LINE#         95
  C:BC49H         LINE#         96
  C:BC50H         LINE#         97
  C:BC57H         LINE#         98
  C:BC5BH         LINE#         100
  C:BC5BH         LINE#         106
BL51 BANKED LINKER/LOCATER V6.22                                                      03/11/2019  14:45:04  PAGE 104


  C:BC85H         LINE#         107
  C:BCC2H         LINE#         111
  -------         ENDPROC       _LIB_LONG_BCD4
  -------         PROC          _LIB_BCD4_LONG
  X:00B1H         SYMBOL        ptr
  C:B6B6H         LINE#         116
  C:B6C1H         LINE#         117
  C:B6C1H         LINE#         121
  C:B77EH         LINE#         125
  -------         ENDPROC       _LIB_BCD4_LONG
  -------         PROC          _LIB_BCD_INC
  X:07EFH         SYMBOL        ptr
  C:E19AH         LINE#         132
  C:E1A5H         LINE#         133
  C:E1A5H         LINE#         135
  C:E1B5H         LINE#         136
  C:E1C0H         LINE#         137
  C:E1C0H         LINE#         138
  C:E1C6H         LINE#         139
  C:E1D6H         LINE#         140
  C:E1E5H         LINE#         141
  C:E1E5H         LINE#         142
  -------         ENDPROC       _LIB_BCD_INC
  -------         PROC          _LIB_BCD_ARRY_ADD1
  X:07F2H         SYMBOL        ptr
  D:0005H         SYMBOL        len
  -------         DO            
  D:0006H         SYMBOL        result
  -------         ENDDO         
  C:E502H         LINE#         150
  C:E50DH         LINE#         151
  C:E50DH         LINE#         154
  C:E513H         LINE#         155
  C:E513H         LINE#         156
  C:E515H         LINE#         157
  C:E523H         LINE#         158
  C:E533H         LINE#         159
  C:E534H         LINE#         160
  C:E53EH         LINE#         161
  C:E540H         LINE#         162
  C:E542H         LINE#         163
  C:E544H         LINE#         164
  -------         ENDPROC       _LIB_BCD_ARRY_ADD1
  -------         PROC          _LIB_GET_CSCK_INT16U_NUM
  D:0001H         SYMBOL        ptr
  D:0004H         SYMBOL        len
  X:01D6H         SYMBOL        key
  C:EAAEH         LINE#         177
  C:EAAEH         LINE#         178
  C:EAAEH         LINE#         179
  C:EAB7H         LINE#         180
  C:EAB7H         LINE#         181
  C:EAC8H         LINE#         182
  C:EACFH         LINE#         183
  C:EAD4H         LINE#         184
  C:EAD6H         LINE#         185
  C:EADEH         LINE#         186
BL51 BANKED LINKER/LOCATER V6.22                                                      03/11/2019  14:45:04  PAGE 105


  -------         ENDPROC       _LIB_GET_CSCK_INT16U_NUM
  -------         PROC          _LIB_GET_CSCK_INT8U_NUM
  D:0001H         SYMBOL        ptr
  D:0004H         SYMBOL        len
  X:003DH         SYMBOL        key
  C:ECAFH         LINE#         198
  C:ECAFH         LINE#         199
  C:ECAFH         LINE#         200
  C:ECB8H         LINE#         201
  C:ECB8H         LINE#         202
  C:ECC2H         LINE#         203
  C:ECC9H         LINE#         204
  C:ECCEH         LINE#         205
  C:ECD0H         LINE#         206
  C:ECD5H         LINE#         207
  -------         ENDPROC       _LIB_GET_CSCK_INT8U_NUM
  -------         PROC          _LIB_BCDCHK
  D:0001H         SYMBOL        ptr
  D:0005H         SYMBOL        len
  -------         DO            
  D:0007H         SYMBOL        i
  D:0006H         SYMBOL        Temp
  -------         ENDDO         
  C:ECD6H         LINE#         217
  C:ECD6H         LINE#         218
  C:ECD6H         LINE#         222
  C:ECD8H         LINE#         224
  C:ECD8H         LINE#         225
  C:ECDCH         LINE#         226
  C:ECEDH         LINE#         227
  C:ECF4H         LINE#         228
  C:ECF5H         LINE#         229
  C:ECFAH         LINE#         231
  C:ECFCH         LINE#         232
  -------         ENDPROC       _LIB_BCDCHK
  -------         PROC          _LIB_GETGMDAY
  D:0001H         SYMBOL        Addr
  -------         DO            
  D:0006H         SYMBOL        Day
  X:018BH         SYMBOL        Mon
  X:018DH         SYMBOL        Year
  -------         ENDDO         
  C:CAF4H         LINE#         239
  C:CAF4H         LINE#         240
  C:CAF4H         LINE#         243
  C:CB06H         LINE#         244
  C:CB18H         LINE#         245
  C:CB71H         LINE#         246
  C:CB8AH         LINE#         247
  C:CB8AH         LINE#         248
  -------         ENDPROC       _LIB_GETGMDAY
  -------         PROC          _LIB_GETGMHOUR
  X:0188H         SYMBOL        Addr
  C:E2C9H         LINE#         255
  C:E2D4H         LINE#         256
  C:E2D4H         LINE#         258
  C:E312H         LINE#         259
BL51 BANKED LINKER/LOCATER V6.22                                                      03/11/2019  14:45:04  PAGE 106


  -------         ENDPROC       _LIB_GETGMHOUR
  -------         PROC          _LIB_GETGMMIN
  X:0185H         SYMBOL        Addr
  C:E1E6H         LINE#         266
  C:E1F1H         LINE#         267
  C:E1F1H         LINE#         269
  C:E231H         LINE#         270
  -------         ENDPROC       _LIB_GETGMMIN
  -------         PROC          _LIB_GETGMSEC
  X:0182H         SYMBOL        Addr
  C:E232H         LINE#         277
  C:E23DH         LINE#         278
  C:E23DH         LINE#         280
  C:E27DH         LINE#         281
  -------         ENDPROC       _LIB_GETGMSEC
  -------         PROC          _LIB_CHECK_RTC_DATA_FORM
  D:0001H         SYMBOL        ClkData
  C:A99AH         LINE#         295
  C:A99AH         LINE#         296
  C:A99AH         LINE#         298
  C:A9A5H         LINE#         301
  C:A9B4H         LINE#         302
  C:A9BFH         LINE#         305
  C:A9D4H         LINE#         306
  C:A9E5H         LINE#         308
  C:AA2BH         LINE#         309
  C:AA2EH         LINE#         310
  C:AA39H         LINE#         313
  C:AA48H         LINE#         314
  C:AA53H         LINE#         316
  C:AA62H         LINE#         317
  C:AA6DH         LINE#         319
  C:AA7CH         LINE#         320
  C:AA87H         LINE#         322
  C:AA89H         LINE#         323
  -------         ENDPROC       _LIB_CHECK_RTC_DATA_FORM
  -------         PROC          _LIB_ENOB_GET
  D:0001H         SYMBOL        s1
  D:0005H         SYMBOL        len
  X:07E2H         SYMBOL        ENOB_len
  -------         DO            
  D:0007H         SYMBOL        i
  -------         ENDDO         
  C:E8D1H         LINE#         348
  C:E8D1H         LINE#         349
  C:E8D1H         LINE#         351
  C:E8DBH         LINE#         352
  C:E8DBH         LINE#         353
  C:E8E6H         LINE#         354
  C:E8EAH         LINE#         355
  C:E8EAH         LINE#         356
  C:E8F2H         LINE#         357
  C:E8F9H         LINE#         358
  C:E8FBH         LINE#         360
  C:E8FBH         LINE#         361
  C:E903H         LINE#         362
  C:E903H         LINE#         363
BL51 BANKED LINKER/LOCATER V6.22                                                      03/11/2019  14:45:04  PAGE 107


  C:E906H         LINE#         364
  C:E908H         LINE#         365
  -------         ENDPROC       _LIB_ENOB_GET
  C:E7B1H         SYMBOL        L?0099
  -------         PROC          L?0098
  -------         ENDPROC       L?0098
  C:E7B1H         SYMBOL        L?0099
  -------         PROC          _LIB_ATOB
  D:0007H         SYMBOL        Asc
  -------         DO            
  D:0006H         SYMBOL        Tmp
  -------         ENDDO         
  C:E7C2H         LINE#         371
  C:E7C2H         LINE#         372
  C:E7C2H         LINE#         373
  C:E7C4H         LINE#         375
  C:E7D0H         LINE#         376
  C:E7D6H         LINE#         377
  C:E7E2H         LINE#         378
  C:E7E6H         LINE#         379
  C:E7E8H         LINE#         380
  -------         ENDPROC       _LIB_ATOB
  -------         PROC          L?0103
  -------         ENDPROC       L?0103
  -------         PROC          _LIB_BTOA
  D:0007H         SYMBOL        BCD
  -------         DO            
  D:0006H         SYMBOL        Tmp
  -------         ENDDO         
  C:EBA2H         LINE#         385
  C:EBA2H         LINE#         386
  C:EBA2H         LINE#         387
  C:EBA4H         LINE#         389
  C:EBAAH         LINE#         390
  C:EBB0H         LINE#         391
  C:EBB6H         LINE#         392
  C:EBBAH         LINE#         393
  C:EBBCH         LINE#         394
  -------         ENDPROC       _LIB_BTOA
  -------         PROC          _LIB_ASC_BCD
  X:0796H         SYMBOL        BCD
  X:0799H         SYMBOL        Asc
  X:079CH         SYMBOL        Lenth
  -------         DO            
  D:0005H         SYMBOL        i
  X:079DH         SYMBOL        Ptr
  -------         ENDDO         
  C:D88AH         LINE#         400
  C:D895H         LINE#         401
  C:D895H         LINE#         405
  C:D8A2H         LINE#         406
  C:D8A2H         LINE#         407
  C:D8CAH         LINE#         408
  C:D8E1H         LINE#         409
  C:D8F3H         LINE#         410
  C:D8F7H         LINE#         411
  -------         ENDPROC       _LIB_ASC_BCD
BL51 BANKED LINKER/LOCATER V6.22                                                      03/11/2019  14:45:04  PAGE 108


  -------         PROC          _LIB_ASC_BCDA
  X:00E6H         SYMBOL        BCD
  X:00E9H         SYMBOL        Asc
  X:00ECH         SYMBOL        Lenth
  -------         DO            
  D:0005H         SYMBOL        i
  X:00EDH         SYMBOL        Ptr
  -------         ENDDO         
  C:D7A8H         LINE#         416
  C:D7B3H         LINE#         417
  C:D7B3H         LINE#         421
  C:D7BAH         LINE#         422
  C:D7C6H         LINE#         423
  C:D7C6H         LINE#         424
  C:D7E6H         LINE#         425
  C:D800H         LINE#         426
  C:D815H         LINE#         427
  C:D818H         LINE#         428
  -------         ENDPROC       _LIB_ASC_BCDA
  -------         PROC          _LIB_BCD_ASC
  X:07A0H         SYMBOL        Asc
  X:07A3H         SYMBOL        BCD
  X:07A6H         SYMBOL        Lenth
  -------         DO            
  D:0005H         SYMBOL        i
  X:07A7H         SYMBOL        Ptr
  -------         ENDDO         
  C:D386H         LINE#         433
  C:D391H         LINE#         434
  C:D391H         LINE#         438
  C:D39CH         LINE#         439
  C:D39CH         LINE#         440
  C:D3BBH         LINE#         441
  C:D3D2H         LINE#         442
  C:D3FAH         LINE#         443
  C:D3FDH         LINE#         444
  -------         ENDPROC       _LIB_BCD_ASC
  -------         PROC          _LIB_BCD_ASCA
  X:01C9H         SYMBOL        Asc
  X:01CCH         SYMBOL        BCD
  X:01CFH         SYMBOL        Lenth
  -------         DO            
  D:0005H         SYMBOL        i
  X:01D0H         SYMBOL        Ptr
  -------         ENDDO         
  C:D819H         LINE#         449
  C:D824H         LINE#         450
  C:D824H         LINE#         454
  C:D830H         LINE#         455
  C:D830H         LINE#         456
  C:D847H         LINE#         457
  C:D85EH         LINE#         458
  C:D886H         LINE#         459
  C:D889H         LINE#         460
  -------         ENDPROC       _LIB_BCD_ASCA
  -------         PROC          _LIB_MATH_GET_BCC_CHK
  X:07E3H         SYMBOL        yourBuf
BL51 BANKED LINKER/LOCATER V6.22                                                      03/11/2019  14:45:04  PAGE 109


  D:0005H         SYMBOL        StartID
  X:07E7H         SYMBOL        EndID
  -------         DO            
  D:0006H         SYMBOL        i
  D:0007H         SYMBOL        tmp
  -------         ENDDO         
  C:EA1AH         LINE#         472
  C:EA25H         LINE#         473
  C:EA25H         LINE#         477
  C:EA27H         LINE#         478
  C:EA33H         LINE#         479
  C:EA33H         LINE#         480
  C:EA48H         LINE#         481
  C:EA4BH         LINE#         482
  C:EA4BH         LINE#         483
  -------         ENDPROC       _LIB_MATH_GET_BCC_CHK
  -------         PROC          _LIB_CHECK_BITNUM
  D:0007H         SYMBOL        value
  -------         DO            
  D:0005H         SYMBOL        i
  D:0007H         SYMBOL        temp_data
  D:0006H         SYMBOL        re_value
  -------         ENDDO         
  C:EFFCH         LINE#         490
  C:EFFCH         LINE#         491
  C:EFFCH         LINE#         493
  C:EFFCH         LINE#         494
  C:EFFEH         LINE#         495
  C:EFFFH         LINE#         496
  C:EFFFH         LINE#         497
  C:F003H         LINE#         498
  C:F003H         LINE#         499
  C:F004H         LINE#         500
  C:F004H         LINE#         501
  C:F008H         LINE#         502
  C:F00DH         LINE#         503
  C:F010H         LINE#         504
  C:F011H         LINE#         505
  -------         ENDPROC       _LIB_CHECK_BITNUM
  -------         ENDMOD        LIB_MYMATH

  -------         MODULE        LIB_MYSPRING
  C:0000H         SYMBOL        _ICE_DUMMY_
  D:0090H         PUBLIC        P1
  C:EBBDH         PUBLIC        _Lib_Set_String
  D:00B0H         PUBLIC        P3
  D:00A8H         PUBLIC        IE
  C:EE31H         PUBLIC        _Lib_Clr_String_U16
  D:00B8H         PUBLIC        IP
  C:C0E3H         PUBLIC        _Lib_Rev_Copy_Arry
  C:D5D7H         PUBLIC        _Lib_get_data_0xFF_asclen
  D:0098H         PUBLIC        SCON
  D:0088H         PUBLIC        TCON
  D:00F0H         PUBLIC        B
  D:00E0H         PUBLIC        ACC
  C:D294H         PUBLIC        _Lib_Cmp_TwoArry
  D:0080H         PUBLIC        SysCtrl
BL51 BANKED LINKER/LOCATER V6.22                                                      03/11/2019  14:45:04  PAGE 110


  C:D30DH         PUBLIC        _Lib_MVHalfByte_L
  C:E824H         PUBLIC        _Lib_FCpyTMem
  C:DE9AH         PUBLIC        _Lib_MVHalfByte_R
  D:00C8H         PUBLIC        T2CON
  C:DE3DH         PUBLIC        _Lib_Copy_Str_TwoArry
  C:EEBDH         PUBLIC        _Lib_Clr_String
  D:00D0H         PUBLIC        PSW
  -------         PROC          _LIB_CMP_TWOARRY
  X:022BH         SYMBOL        s1
  X:022EH         SYMBOL        s2
  X:0231H         SYMBOL        len
  -------         DO            
  D:0007H         SYMBOL        i
  -------         ENDDO         
  C:D294H         LINE#         33
  C:D29FH         LINE#         34
  C:D29FH         LINE#         37
  C:D2B1H         LINE#         38
  C:D2BAH         LINE#         39
  C:D2C6H         LINE#         40
  C:D2C6H         LINE#         41
  C:D2EBH         LINE#         42
  C:D2F3H         LINE#         43
  C:D2FDH         LINE#         44
  C:D307H         LINE#         45
  C:D30AH         LINE#         46
  C:D30CH         LINE#         47
  -------         ENDPROC       _LIB_CMP_TWOARRY
  -------         PROC          _LIB_REV_COPY_ARRY
  X:0038H         SYMBOL        s1
  X:003BH         SYMBOL        len
  -------         DO            
  X:003CH         SYMBOL        tmpData
  X:003DH         SYMBOL        i
  -------         ENDDO         
  C:C0E3H         LINE#         60
  C:C0F1H         LINE#         61
  C:C0F1H         LINE#         63
  C:C0F8H         LINE#         65
  C:C10DH         LINE#         66
  C:C10DH         LINE#         67
  C:C129H         LINE#         68
  C:C15EH         LINE#         69
  C:C186H         LINE#         70
  C:C18FH         LINE#         71
  -------         ENDPROC       _LIB_REV_COPY_ARRY
  -------         PROC          _LIB_COPY_STR_TWOARRY
  X:01DCH         SYMBOL        s1
  X:01DFH         SYMBOL        s2
  X:01E2H         SYMBOL        len
  C:DE3DH         LINE#         84
  C:DE48H         LINE#         85
  C:DE48H         LINE#         86
  C:DE57H         LINE#         87
  C:DE57H         LINE#         88
  C:DE75H         LINE#         89
  C:DE7FH         LINE#         90
BL51 BANKED LINKER/LOCATER V6.22                                                      03/11/2019  14:45:04  PAGE 111


  C:DE89H         LINE#         91
  C:DE97H         LINE#         92
  C:DE99H         LINE#         93
  -------         ENDPROC       _LIB_COPY_STR_TWOARRY
  -------         PROC          _LIB_SET_STRING
  D:0001H         SYMBOL        s1
  D:0005H         SYMBOL        tmp
  X:017BH         SYMBOL        len
  C:EBBDH         LINE#         106
  C:EBBDH         LINE#         107
  C:EBBDH         LINE#         108
  C:EBCCH         LINE#         109
  C:EBCCH         LINE#         110
  C:EBD0H         LINE#         111
  C:EBD7H         LINE#         112
  C:EBE5H         LINE#         113
  C:EBE7H         LINE#         114
  -------         ENDPROC       _LIB_SET_STRING
  -------         PROC          _LIB_CLR_STRING_U16
  D:0001H         SYMBOL        s1
  D:0004H         SYMBOL        len
  C:EE31H         LINE#         126
  C:EE31H         LINE#         127
  C:EE31H         LINE#         128
  C:EE3AH         LINE#         129
  C:EE3AH         LINE#         130
  C:EE40H         LINE#         131
  C:EE47H         LINE#         132
  C:EE4CH         LINE#         133
  C:EE4EH         LINE#         135
  -------         ENDPROC       _LIB_CLR_STRING_U16
  -------         PROC          _LIB_CLR_STRING
  D:0001H         SYMBOL        s1
  D:0004H         SYMBOL        len
  C:EEBDH         LINE#         146
  C:EEBDH         LINE#         147
  C:EEBDH         LINE#         148
  C:EEC6H         LINE#         149
  C:EEC6H         LINE#         150
  C:EECAH         LINE#         151
  C:EED0H         LINE#         152
  C:EED5H         LINE#         153
  C:EED7H         LINE#         155
  -------         ENDPROC       _LIB_CLR_STRING
  -------         PROC          _LIB_GET_DATA_0XFF_ASCLEN
  X:07CCH         SYMBOL        Addr
  X:07CFH         SYMBOL        numbyte
  -------         DO            
  D:0006H         SYMBOL        i
  X:07D1H         SYMBOL        asclen
  -------         ENDDO         
  C:D5D7H         LINE#         163
  C:D5E8H         LINE#         164
  C:D5E8H         LINE#         166
  C:D5EDH         LINE#         167
  C:D5FCH         LINE#         168
  C:D5FCH         LINE#         169
BL51 BANKED LINKER/LOCATER V6.22                                                      03/11/2019  14:45:04  PAGE 112


  C:D616H         LINE#         170
  C:D616H         LINE#         171
  C:D618H         LINE#         172
  C:D618H         LINE#         173
  C:D626H         LINE#         174
  C:D62DH         LINE#         175
  C:D62DH         LINE#         176
  C:D62FH         LINE#         177
  C:D62FH         LINE#         178
  C:D63DH         LINE#         179
  C:D644H         LINE#         180
  C:D64CH         LINE#         181
  -------         ENDPROC       _LIB_GET_DATA_0XFF_ASCLEN
  -------         PROC          _LIB_MVHALFBYTE_R
  X:07F5H         SYMBOL        addr
  D:0005H         SYMBOL        numbyte
  -------         DO            
  D:0007H         SYMBOL        i
  -------         ENDDO         
  C:DE9AH         LINE#         190
  C:DEA5H         LINE#         191
  C:DEA5H         LINE#         195
  C:DEAEH         LINE#         196
  C:DEAEH         LINE#         197
  C:DEE0H         LINE#         198
  C:DEE3H         LINE#         199
  -------         ENDPROC       _LIB_MVHALFBYTE_R
  -------         PROC          _LIB_MVHALFBYTE_L
  X:07F8H         SYMBOL        addr
  D:0004H         SYMBOL        numbyte
  -------         DO            
  D:0005H         SYMBOL        i
  -------         ENDDO         
  C:D30DH         LINE#         209
  C:D31AH         LINE#         210
  C:D31AH         LINE#         214
  C:D324H         LINE#         215
  C:D324H         LINE#         216
  C:D355H         LINE#         217
  C:D358H         LINE#         218
  -------         ENDPROC       _LIB_MVHALFBYTE_L
  -------         PROC          _LIB_FCPYTMEM
  X:0038H         SYMBOL        des
  X:003AH         SYMBOL        src
  D:0003H         SYMBOL        len
  C:E824H         LINE#         225
  C:E832H         LINE#         226
  C:E832H         LINE#         227
  C:E838H         LINE#         228
  C:E838H         LINE#         229
  C:E85BH         LINE#         230
  C:E85DH         LINE#         231
  -------         ENDPROC       _LIB_FCPYTMEM
  -------         ENDMOD        LIB_MYSPRING

  -------         MODULE        LIB_MYTIMER
  C:0000H         SYMBOL        _ICE_DUMMY_
BL51 BANKED LINKER/LOCATER V6.22                                                      03/11/2019  14:45:04  PAGE 113


  D:00CEH         PUBLIC        wdt0
  D:0090H         PUBLIC        P1
  D:00CFH         PUBLIC        wdt1
  D:00B0H         PUBLIC        P3
  C:ED6CH         PUBLIC        _Lib_Delay_sec
  D:00A8H         PUBLIC        IE
  D:00B8H         PUBLIC        IP
  C:EF40H         PUBLIC        _Lib_Delay_ms
  D:0098H         PUBLIC        SCON
  D:0088H         PUBLIC        TCON
  D:00F0H         PUBLIC        B
  D:00E0H         PUBLIC        ACC
  D:0080H         PUBLIC        SysCtrl
  C:F0A7H         PUBLIC        _Lib_Delay_2us
  D:00C8H         PUBLIC        T2CON
  C:EBE8H         PUBLIC        _Lib_SystemDelay
  C:F0BCH         PUBLIC        _Lib_Delay_Nop
  D:00D0H         PUBLIC        PSW
  -------         PROC          _LIB_DELAY_NOP
  D:0007H         SYMBOL        cnt
  C:F0BCH         LINE#         29
  C:F0BCH         LINE#         30
  C:F0BCH         LINE#         31
  C:F0C2H         LINE#         32
  C:F0C2H         LINE#         33
  C:F0C3H         LINE#         34
  C:F0C5H         LINE#         35
  -------         ENDPROC       _LIB_DELAY_NOP
  -------         PROC          _LIB_DELAY_2US
  D:0007H         SYMBOL        cnt
  C:F0A7H         LINE#         45
  C:F0A7H         LINE#         46
  C:F0A7H         LINE#         49
  C:F0ADH         LINE#         50
  C:F0ADH         LINE#         51
  C:F0AEH         LINE#         52
  C:F0AFH         LINE#         53
  C:F0B1H         LINE#         54
  -------         ENDPROC       _LIB_DELAY_2US
  -------         PROC          _LIB_DELAY_MS
  D:0006H         SYMBOL        cnt
  -------         DO            
  D:0006H         SYMBOL        i
  D:0005H         SYMBOL        j
  -------         ENDDO         
  C:EF40H         LINE#         87
  C:EF40H         LINE#         88
  C:EF40H         LINE#         92
  C:EF49H         LINE#         93
  C:EF49H         LINE#         94
  C:EF4BH         LINE#         95
  C:EF4BH         LINE#         96
  C:EF4CH         LINE#         97
  C:EF51H         LINE#         98
  C:EF58H         LINE#         99
  -------         ENDPROC       _LIB_DELAY_MS
  -------         PROC          _LIB_DELAY_SEC
BL51 BANKED LINKER/LOCATER V6.22                                                      03/11/2019  14:45:04  PAGE 114


  D:0004H         SYMBOL        cnt
  -------         DO            
  D:0003H         SYMBOL        i
  -------         ENDDO         
  C:ED6CH         LINE#         109
  C:ED6EH         LINE#         110
  C:ED6EH         LINE#         112
  C:ED75H         LINE#         113
  C:ED75H         LINE#         114
  C:ED83H         LINE#         115
  C:ED8AH         LINE#         116
  C:ED8DH         LINE#         117
  -------         ENDPROC       _LIB_DELAY_SEC
  -------         PROC          _LIB_SYSTEMDELAY
  D:0006H         SYMBOL        t
  -------         DO            
  D:0004H         SYMBOL        i
  -------         ENDDO         
  C:EBE8H         LINE#         129
  C:EBE8H         LINE#         130
  C:EBE8H         LINE#         132
  C:EBF2H         LINE#         133
  C:EBF2H         LINE#         134
  C:EC00H         LINE#         136
  C:EC0EH         LINE#         137
  C:EC10H         LINE#         138
  -------         ENDPROC       _LIB_SYSTEMDELAY
  -------         ENDMOD        LIB_MYTIMER

  -------         MODULE        API_ADJERR
  C:0000H         SYMBOL        _ICE_DUMMY_
  D:0090H         PUBLIC        P1
  D:00B0H         PUBLIC        P3
  D:00A8H         PUBLIC        IE
  D:00B8H         PUBLIC        IP
  X:07FFH         PUBLIC        u8_channel_fg
  D:0098H         PUBLIC        SCON
  D:0088H         PUBLIC        TCON
  D:00F0H         PUBLIC        B
  D:00E0H         PUBLIC        ACC
  D:0080H         PUBLIC        SysCtrl
  D:00C8H         PUBLIC        T2CON
  D:00D0H         PUBLIC        PSW
  -------         ENDMOD        API_ADJERR

  -------         MODULE        API_BILL_RECORD
  C:0000H         SYMBOL        _ICE_DUMMY_
  D:00CEH         PUBLIC        wdt0
  D:0090H         PUBLIC        P1
  D:00CFH         PUBLIC        wdt1
  D:00B0H         PUBLIC        P3
  C:855EH         PUBLIC        api_handl_settle_when_powerUp
  X:0463H         PUBLIC        energy_data_array
  D:00A8H         PUBLIC        IE
  D:00B8H         PUBLIC        IP
  X:0481H         PUBLIC        csck
  X:0482H         PUBLIC        st_mmd_unit_array
BL51 BANKED LINKER/LOCATER V6.22                                                      03/11/2019  14:45:04  PAGE 115


  C:F0D6H         PUBLIC        bill_info
  D:0098H         PUBLIC        SCON
  D:0088H         PUBLIC        TCON
  C:C929H         PUBLIC        api_handl_settle_per_minute
  C:ED47H         PUBLIC        _Judage_Month
  D:00F0H         PUBLIC        B
  C:72B8H         PUBLIC        _api_get_bill_record_addr
  C:EDB0H         PUBLIC        _Judage_Year
  D:00E0H         PUBLIC        ACC
  C:83CBH         PUBLIC        _api_write_bill_data
  D:0080H         PUBLIC        SysCtrl
  C:D11AH         PUBLIC        api_freeze_energy_pre_day
  C:6EFFH         PUBLIC        api_freeze_energy_Ram_pre_day
  X:04AFH         PUBLIC        d_flag
  C:A0A9H         PUBLIC        api_clr_bill_data
  X:04B0H         PUBLIC        Excsck
  X:04B1H         PUBLIC        sum_st_mmd_unit_array
  D:00C8H         PUBLIC        T2CON
  D:00D0H         PUBLIC        PSW
  -------         PROC          _JUDAGE_YEAR
  D:0007H         SYMBOL        year
  C:EDB0H         LINE#         39
  C:EDB0H         LINE#         40
  C:EDB0H         LINE#         41
  C:EDCBH         LINE#         42
  C:EDCBH         LINE#         43
  C:EDCEH         LINE#         44
  C:EDCEH         LINE#         46
  C:EDCEH         LINE#         47
  C:EDD0H         LINE#         48
  C:EDD0H         LINE#         49
  -------         ENDPROC       _JUDAGE_YEAR
  -------         PROC          _JUDAGE_MONTH
  D:0007H         SYMBOL        month
  D:0005H         SYMBOL        year
  C:ED47H         LINE#         51
  C:ED47H         LINE#         52
  C:ED47H         LINE#         53
  C:ED4BH         LINE#         54
  C:ED52H         LINE#         55
  C:ED58H         LINE#         56
  C:ED58H         LINE#         57
  C:ED5CH         LINE#         58
  C:ED5CH         LINE#         59
  C:ED5FH         LINE#         60
  C:ED5FH         LINE#         62
  C:ED5FH         LINE#         63
  C:ED62H         LINE#         64
  C:ED62H         LINE#         65
  C:ED62H         LINE#         67
  C:ED62H         LINE#         68
  C:ED66H         LINE#         69
  C:ED66H         LINE#         70
  C:ED69H         LINE#         71
  C:ED69H         LINE#         73
  C:ED69H         LINE#         74
  C:ED6BH         LINE#         75
BL51 BANKED LINKER/LOCATER V6.22                                                      03/11/2019  14:45:04  PAGE 116


  C:ED6BH         LINE#         76
  C:ED6BH         LINE#         77
  -------         ENDPROC       _JUDAGE_MONTH
  -------         PROC          _API_GET_BILL_RECORD_ADDR
  X:00E6H         SYMBOL        addr
  -------         DO            
  X:00E8H         SYMBOL        i
  X:00E9H         SYMBOL        ptr
  D:0007H         SYMBOL        temp
  D:0003H         SYMBOL        num
  X:00EAH         SYMBOL        hist_addr
  D:0006H         SYMBOL        len
  -------         ENDDO         
  C:72B8H         LINE#         92
  C:72C0H         LINE#         93
  C:72C0H         LINE#         97
  C:72D0H         LINE#         98
  C:72D0H         LINE#         99
  C:72EDH         LINE#         100
  C:7318H         LINE#         101
  C:7346H         LINE#         102
  C:734FH         LINE#         104
  C:738DH         LINE#         105
  C:73A9H         LINE#         106
  C:73A9H         LINE#         107
  C:73ABH         LINE#         108
  C:73ABH         LINE#         110
  C:73D7H         LINE#         111
  C:73F7H         LINE#         112
  C:7418H         LINE#         113
  C:7421H         LINE#         114
  C:7421H         LINE#         115
  C:743DH         LINE#         116
  C:743FH         LINE#         118
  C:743FH         LINE#         119
  C:7446H         LINE#         120
  C:7446H         LINE#         121
  C:748FH         LINE#         123
  C:748FH         LINE#         124
  -------         ENDPROC       _API_GET_BILL_RECORD_ADDR
  -------         PROC          _API_WRITE_BILL_DATA
  X:0019H         SYMBOL        id
  -------         DO            
  X:001AH         SYMBOL        adr_tmp
  X:001CH         SYMBOL        ptr_tmp
  X:001DH         SYMBOL        buff_int8u
  -------         ENDDO         
  C:83CBH         LINE#         140
  C:83D0H         LINE#         141
  C:83D0H         LINE#         147
  C:83DDH         LINE#         150
  C:8409H         LINE#         151
  C:840FH         LINE#         152
  C:842FH         LINE#         153
  C:846FH         LINE#         154
  C:8498H         LINE#         157
  C:84A1H         LINE#         158
BL51 BANKED LINKER/LOCATER V6.22                                                      03/11/2019  14:45:04  PAGE 117


  C:84A1H         LINE#         159
  C:84A1H         LINE#         160
  C:84A9H         LINE#         161
  C:84B1H         LINE#         162
  C:84B9H         LINE#         163
  C:84C1H         LINE#         164
  C:84C9H         LINE#         165
  C:84D1H         LINE#         166
  C:84EBH         LINE#         167
  C:8509H         LINE#         168
  C:8523H         LINE#         169
  C:855AH         LINE#         172
  C:855AH         LINE#         174
  C:855AH         LINE#         175
  C:855DH         LINE#         176
  C:855DH         LINE#         177
  C:855DH         LINE#         180
  -------         ENDPROC       _API_WRITE_BILL_DATA
  -------         PROC          API_HANDL_SETTLE_PER_MINUTE
  -------         DO            
  X:0000H         SYMBOL        param_settel
  X:0002H         SYMBOL        u16_hour_A
  X:0004H         SYMBOL        u16_hour_B
  -------         ENDDO         
  C:C929H         LINE#         195
  C:C929H         LINE#         196
  C:C929H         LINE#         200
  C:C932H         LINE#         202
  C:C94AH         LINE#         203
  C:C977H         LINE#         204
  C:C9A4H         LINE#         206
  C:C9BBH         LINE#         207
  C:C9BBH         LINE#         208
  C:C9BFH         LINE#         209
  C:C9C2H         LINE#         210
  C:C9C2H         LINE#         211
  -------         ENDPROC       API_HANDL_SETTLE_PER_MINUTE
  -------         PROC          API_FREEZE_ENERGY_PRE_DAY
  C:D11AH         LINE#         225
  C:D11AH         LINE#         226
  C:D11AH         LINE#         228
  C:D122H         LINE#         229
  C:D123H         LINE#         230
  C:D13CH         LINE#         231
  C:D156H         LINE#         232
  C:D16FH         LINE#         235
  C:D175H         LINE#         236
  C:D175H         LINE#         238
  C:D17BH         LINE#         239
  C:D17BH         LINE#         240
  C:D181H         LINE#         241
  C:D181H         LINE#         243
  C:D188H         LINE#         244
  C:D188H         LINE#         246
  C:D196H         LINE#         247
  C:D19BH         LINE#         248
  C:D19EH         LINE#         250
BL51 BANKED LINKER/LOCATER V6.22                                                      03/11/2019  14:45:04  PAGE 118


  C:D19EH         LINE#         251
  C:D19EH         LINE#         252
  C:D19EH         LINE#         253
  C:D19EH         LINE#         255
  C:D19EH         LINE#         258
  -------         ENDPROC       API_FREEZE_ENERGY_PRE_DAY
  -------         PROC          API_FREEZE_ENERGY_RAM_PRE_DAY
  -------         DO            
  X:0007H         SYMBOL        i
  -------         ENDDO         
  C:6EFFH         LINE#         260
  C:6EFFH         LINE#         261
  C:6EFFH         LINE#         265
  C:6F08H         LINE#         266
  C:6F08H         LINE#         268
  C:6F11H         LINE#         269
  C:6F11H         LINE#         270
  C:6F1AH         LINE#         271
  C:6F1AH         LINE#         273
  C:6F1FH         LINE#         274
  C:6F38H         LINE#         275
  C:6F4AH         LINE#         276
  C:6F4AH         LINE#         277
  C:6F91H         LINE#         278
  C:6F99H         LINE#         281
  C:6FA1H         LINE#         282
  C:6FA9H         LINE#         283
  C:6FB1H         LINE#         284
  C:6FB9H         LINE#         285
  C:6FC1H         LINE#         286
  C:6FD3H         LINE#         287
  C:6FD3H         LINE#         288
  C:701AH         LINE#         289
  C:7022H         LINE#         292
  C:7034H         LINE#         293
  C:7034H         LINE#         294
  C:707BH         LINE#         295
  C:7083H         LINE#         312
  C:7088H         LINE#         313
  C:70A5H         LINE#         314
  C:70C2H         LINE#         315
  C:70DFH         LINE#         317
  C:70DFH         LINE#         318
  C:70DFH         LINE#         319
  C:70DFH         LINE#         320
  -------         ENDPROC       API_FREEZE_ENERGY_RAM_PRE_DAY
  -------         PROC          API_HANDL_SETTLE_WHEN_POWERUP
  -------         DO            
  X:072AH         SYMBOL        last_rec_dateTime
  X:0730H         SYMBOL        param_settel
  X:0732H         SYMBOL        u16_month_A
  X:0734H         SYMBOL        u16_month_B
  X:0736H         SYMBOL        u16_hour_A
  X:0738H         SYMBOL        u16_hour_B
  X:073AH         SYMBOL        months_no_settled
  X:073CH         SYMBOL        i
  X:073DH         SYMBOL        j
BL51 BANKED LINKER/LOCATER V6.22                                                      03/11/2019  14:45:04  PAGE 119


  -------         ENDDO         
  C:855EH         LINE#         337
  C:855EH         LINE#         338
  C:855EH         LINE#         352
  C:8578H         LINE#         353
  C:85A5H         LINE#         354
  C:85D2H         LINE#         355
  C:85EAH         LINE#         356
  C:8617H         LINE#         357
  C:8644H         LINE#         365
  C:8659H         LINE#         366
  C:8659H         LINE#         367
  C:8661H         LINE#         368
  C:8663H         LINE#         370
  C:8663H         LINE#         371
  C:867EH         LINE#         372
  C:867EH         LINE#         373
  C:8683H         LINE#         374
  C:8687H         LINE#         375
  C:8687H         LINE#         376
  C:8690H         LINE#         377
  C:869BH         LINE#         378
  C:86A1H         LINE#         379
  C:86A1H         LINE#         380
  C:86B6H         LINE#         381
  C:86B6H         LINE#         382
  C:86B6H         LINE#         383
  C:86B6H         LINE#         384
  C:86B6H         LINE#         385
  C:86B6H         LINE#         386
  C:86B8H         LINE#         388
  C:86B8H         LINE#         389
  C:86B8H         LINE#         390
  C:86B8H         LINE#         391
  C:86B8H         LINE#         393
  C:86B8H         LINE#         394
  C:86BDH         LINE#         395
  C:86CBH         LINE#         396
  C:86D1H         LINE#         397
  C:86DFH         LINE#         398
  C:86DFH         LINE#         399
  C:86EBH         LINE#         400
  -------         ENDPROC       API_HANDL_SETTLE_WHEN_POWERUP
  -------         PROC          API_CLR_BILL_DATA
  -------         DO            
  X:0002H         SYMBOL        tmp_bill_var
  X:000BH         SYMBOL        tmp_bill_unit
  -------         ENDDO         
  C:A0A9H         LINE#         416
  C:A0A9H         LINE#         417
  C:A0A9H         LINE#         418
  C:A0A9H         LINE#         420
  C:A0B7H         LINE#         421
  C:A0C4H         LINE#         422
  C:A0D1H         LINE#         424
  C:A0EBH         LINE#         425
  C:A0F9H         LINE#         427
BL51 BANKED LINKER/LOCATER V6.22                                                      03/11/2019  14:45:04  PAGE 120


  C:A10AH         LINE#         428
  C:A118H         LINE#         429
  C:A12AH         LINE#         430
  C:A138H         LINE#         431
  C:A14AH         LINE#         432
  C:A158H         LINE#         433
  C:A16AH         LINE#         434
  C:A178H         LINE#         435
  C:A18AH         LINE#         436
  C:A198H         LINE#         437
  C:A1AAH         LINE#         438
  C:A1B8H         LINE#         454
  -------         ENDPROC       API_CLR_BILL_DATA
  -------         ENDMOD        API_BILL_RECORD

  -------         MODULE        API_DEMAND
  C:0000H         SYMBOL        _ICE_DUMMY_
  D:00CEH         PUBLIC        wdt0
  D:0090H         PUBLIC        P1
  X:03D4H         PUBLIC        gs_md_param
  D:00CFH         PUBLIC        wdt1
  D:00B0H         PUBLIC        P3
  D:00A8H         PUBLIC        IE
  D:00B8H         PUBLIC        IP
  C:7827H         PUBLIC        _api_cmp_save_md_data
  C:E27EH         PUBLIC        lnk_updata_md_var_power_per_second
  C:E85EH         PUBLIC        api_init_md_data_ram
  C:646FH         PUBLIC        api_updata_md_var_slid_per_minute
  C:D64DH         PUBLIC        api_updata_md_var_min_per_second
  C:D6C1H         PUBLIC        api_clr_freeze_energy
  D:0098H         PUBLIC        SCON
  D:0088H         PUBLIC        TCON
  C:B297H         PUBLIC        api_clr_current_MD_data
  X:03D6H         PUBLIC        gs_md_var
  D:00F0H         PUBLIC        B
  D:00E0H         PUBLIC        ACC
  C:E90FH         PUBLIC        _api_check_Demand_para
  D:0080H         PUBLIC        SysCtrl
  D:00C8H         PUBLIC        T2CON
  D:00D0H         PUBLIC        PSW
  -------         PROC          L?0040
  -------         ENDPROC       L?0040
  -------         PROC          _API_CHECK_DEMAND_PARA
  D:0001H         SYMBOL        s_para
  -------         DO            
  D:0007H         SYMBOL        flg
  D:0006H         SYMBOL        u8_period
  D:0005H         SYMBOL        u8_slid
  -------         ENDDO         
  C:E90FH         LINE#         37
  C:E90FH         LINE#         38
  C:E90FH         LINE#         39
  C:E911H         LINE#         42
  C:E915H         LINE#         43
  C:E91CH         LINE#         45
  C:E928H         LINE#         46
  C:E928H         LINE#         47
BL51 BANKED LINKER/LOCATER V6.22                                                      03/11/2019  14:45:04  PAGE 121


  C:E933H         LINE#         48
  C:E933H         LINE#         49
  C:E937H         LINE#         50
  C:E937H         LINE#         51
  C:E93FH         LINE#         52
  C:E93FH         LINE#         53
  C:E940H         LINE#         54
  C:E940H         LINE#         55
  C:E940H         LINE#         56
  C:E940H         LINE#         57
  C:E940H         LINE#         59
  C:E940H         LINE#         61
  -------         ENDPROC       _API_CHECK_DEMAND_PARA
  -------         PROC          API_INIT_MD_DATA_RAM
  C:E85EH         LINE#         76
  C:E85EH         LINE#         77
  C:E85EH         LINE#         80
  C:E876H         LINE#         82
  C:E87CH         LINE#         83
  C:E87CH         LINE#         85
  C:E882H         LINE#         86
  C:E884H         LINE#         87
  C:E884H         LINE#         90
  -------         ENDPROC       API_INIT_MD_DATA_RAM
  -------         PROC          _API_CMP_SAVE_MD_DATA
  X:0006H         SYMBOL        ch
  X:0007H         SYMBOL        val_hex32
  -------         DO            
  X:000BH         SYMBOL        st_mmd_unit
  X:0014H         SYMBOL        adr_offset
  -------         ENDDO         
  C:7827H         LINE#         105
  C:782CH         LINE#         106
  C:782CH         LINE#         111
  C:7834H         LINE#         112
  C:7834H         LINE#         113
  C:7843H         LINE#         114
  C:7864H         LINE#         115
  C:7889H         LINE#         116
  C:7889H         LINE#         117
  C:789BH         LINE#         118
  C:78A3H         LINE#         119
  C:78ABH         LINE#         120
  C:78B3H         LINE#         121
  C:78BBH         LINE#         122
  C:78C3H         LINE#         123
  C:78E7H         LINE#         124
  C:7901H         LINE#         125
  C:791BH         LINE#         126
  C:791BH         LINE#         129
  C:793AH         LINE#         130
  C:795BH         LINE#         131
  C:797DH         LINE#         132
  C:797DH         LINE#         133
  C:798FH         LINE#         134
  C:7997H         LINE#         135
  C:799FH         LINE#         136
BL51 BANKED LINKER/LOCATER V6.22                                                      03/11/2019  14:45:04  PAGE 122


  C:79A7H         LINE#         137
  C:79AFH         LINE#         138
  C:79B7H         LINE#         139
  C:79DBH         LINE#         140
  C:79DBH         LINE#         160
  C:79DBH         LINE#         163
  -------         ENDPROC       _API_CMP_SAVE_MD_DATA
  -------         PROC          LNK_UPDATA_MD_VAR_POWER_PER_SECOND
  -------         DO            
  X:0001H         SYMBOL        i
  -------         ENDDO         
  C:E27EH         LINE#         178
  C:E27EH         LINE#         179
  C:E27EH         LINE#         182
  C:E28DH         LINE#         183
  C:E28DH         LINE#         184
  C:E294H         LINE#         185
  C:E294H         LINE#         186
  C:E294H         LINE#         187
  C:E297H         LINE#         188
  C:E299H         LINE#         190
  C:E299H         LINE#         191
  C:E2BBH         LINE#         192
  C:E2BDH         LINE#         193
  C:E2BDH         LINE#         194
  C:E2C0H         LINE#         195
  C:E2C0H         LINE#         196
  C:E2C8H         LINE#         198
  -------         ENDPROC       LNK_UPDATA_MD_VAR_POWER_PER_SECOND
  -------         PROC          API_UPDATA_MD_VAR_MIN_PER_SECOND
  -------         DO            
  X:0000H         SYMBOL        i
  -------         ENDDO         
  C:D64DH         LINE#         213
  C:D64DH         LINE#         214
  C:D64DH         LINE#         218
  C:D650H         LINE#         222
  C:D655H         LINE#         223
  C:D655H         LINE#         224
  C:D66AH         LINE#         225
  C:D6B6H         LINE#         226
  C:D6C0H         LINE#         228
  -------         ENDPROC       API_UPDATA_MD_VAR_MIN_PER_SECOND
  -------         PROC          API_UPDATA_MD_VAR_SLID_PER_MINUTE
  -------         DO            
  X:0000H         SYMBOL        i
  X:0001H         SYMBOL        j
  X:0002H         SYMBOL        sum_hex32
  -------         ENDDO         
  C:646FH         LINE#         244
  C:646FH         LINE#         245
  C:646FH         LINE#         250
  C:6475H         LINE#         251
  C:6475H         LINE#         253
  C:647BH         LINE#         254
  C:647DH         LINE#         255
  C:647DH         LINE#         257
BL51 BANKED LINKER/LOCATER V6.22                                                      03/11/2019  14:45:04  PAGE 123


  C:648FH         LINE#         258
  C:648FH         LINE#         260
  C:64A0H         LINE#         261
  C:64A0H         LINE#         262
  C:64D9H         LINE#         263
  C:64E9H         LINE#         264
  C:64FEH         LINE#         265
  C:64FEH         LINE#         268
  C:651FH         LINE#         269
  C:651FH         LINE#         270
  C:6569H         LINE#         271
  C:657AH         LINE#         272
  C:6596H         LINE#         273
  C:6596H         LINE#         274
  C:65ABH         LINE#         275
  C:65BBH         LINE#         276
  C:65BBH         LINE#         278
  C:65D5H         LINE#         279
  C:65D5H         LINE#         280
  C:65DFH         LINE#         281
  C:65FFH         LINE#         282
  C:65FFH         LINE#         283
  C:6610H         LINE#         284
  C:6610H         LINE#         285
  C:665CH         LINE#         286
  C:6664H         LINE#         287
  C:6693H         LINE#         288
  C:66BBH         LINE#         289
  C:66BBH         LINE#         290
  C:66BBH         LINE#         291
  C:66BBH         LINE#         293
  C:66C4H         LINE#         295
  -------         ENDPROC       API_UPDATA_MD_VAR_SLID_PER_MINUTE
  -------         PROC          API_CLR_CURRENT_MD_DATA
  -------         DO            
  X:0093H         SYMBOL        tmp_ms_user_data
  X:00C2H         SYMBOL        st_mmd_unit
  -------         ENDDO         
  C:B297H         LINE#         310
  C:B297H         LINE#         311
  C:B297H         LINE#         315
  C:B2B1H         LINE#         316
  C:B2DFH         LINE#         317
  C:B2E5H         LINE#         318
  C:B2FEH         LINE#         320
  C:B30BH         LINE#         321
  C:B318H         LINE#         322
  C:B332H         LINE#         323
  C:B34CH         LINE#         324
  C:B35AH         LINE#         326
  -------         ENDPROC       API_CLR_CURRENT_MD_DATA
  -------         PROC          API_CLR_FREEZE_ENERGY
  C:D6C1H         LINE#         329
  C:D6C1H         LINE#         330
  C:D6C1H         LINE#         331
  C:D6CEH         LINE#         332
  C:D6DBH         LINE#         333
BL51 BANKED LINKER/LOCATER V6.22                                                      03/11/2019  14:45:04  PAGE 124


  C:D6E8H         LINE#         334
  C:D702H         LINE#         335
  C:D71CH         LINE#         336
  -------         ENDPROC       API_CLR_FREEZE_ENERGY
  -------         ENDMOD        API_DEMAND

  -------         MODULE        API_ENERGY
  C:0000H         SYMBOL        _ICE_DUMMY_
  D:00CEH         PUBLIC        wdt0
  D:0090H         PUBLIC        P1
  D:00CFH         PUBLIC        wdt1
  D:00B0H         PUBLIC        P3
  B:00A8H.7       PUBLIC        EA
  C:5FA8H         PUBLIC        api_accum_current_energy_data_pre_second
  D:00A8H         PUBLIC        IE
  D:00B8H         PUBLIC        IP
  C:DAA9H         PUBLIC        api_clr_current_energy_data
  D:0098H         PUBLIC        SCON
  D:0088H         PUBLIC        TCON
  D:00F0H         PUBLIC        B
  D:00E0H         PUBLIC        ACC
  C:68FCH         PUBLIC        api_init_current_energy_data_ram
  D:0080H         PUBLIC        SysCtrl
  C:DBE5H         PUBLIC        lnk_add_fac_energy_pluse
  X:04E3H         PUBLIC        gs_energy_user_data_back
  C:F0FFH         PUBLIC        lnk_add_rac_energy_pluse
  D:00C8H         PUBLIC        T2CON
  X:0521H         PUBLIC        gs_energy_user_data
  C:C034H         PUBLIC        api_check_current_energy_data
  X:055FH         PUBLIC        gs_energy_var
  D:00D0H         PUBLIC        PSW
  -------         PROC          API_INIT_CURRENT_ENERGY_DATA_RAM
  -------         DO            
  X:000DH         SYMBOL        i
  X:000EH         SYMBOL        u16_month_A
  X:0010H         SYMBOL        u16_month_B
  X:0012H         SYMBOL        last_rec_dateTime
  X:0018H         SYMBOL        max_dateTime
  -------         ENDDO         
  C:68FCH         LINE#         41
  C:68FCH         LINE#         42
  C:68FCH         LINE#         51
  C:6910H         LINE#         52
  C:6924H         LINE#         53
  C:6927H         LINE#         55
  C:693FH         LINE#         57
  C:6959H         LINE#         58
  C:6973H         LINE#         59
  C:698CH         LINE#         60
  C:6991H         LINE#         78
  C:69AAH         LINE#         79
  C:69D7H         LINE#         80
  C:6A04H         LINE#         81
  C:6A12H         LINE#         82
  C:6A2AH         LINE#         83
  C:6A2AH         LINE#         84
  C:6A47H         LINE#         85
BL51 BANKED LINKER/LOCATER V6.22                                                      03/11/2019  14:45:04  PAGE 125


  C:6A47H         LINE#         86
  C:6A4DH         LINE#         87
  C:6A4FH         LINE#         89
  C:6A4FH         LINE#         90
  C:6A6AH         LINE#         91
  C:6A87H         LINE#         93
  C:6A96H         LINE#         94
  C:6A96H         LINE#         98
  C:6A9EH         LINE#         99
  C:6A9EH         LINE#         100
  C:6AAEH         LINE#         101
  C:6AAEH         LINE#         102
  C:6ABCH         LINE#         103
  C:6ACEH         LINE#         104
  C:6ACEH         LINE#         105
  C:6AD3H         LINE#         106
  C:6AE1H         LINE#         107
  C:6AE9H         LINE#         108
  C:6AF7H         LINE#         109
  C:6AFAH         LINE#         111
  C:6B08H         LINE#         112
  C:6B08H         LINE#         113
  C:6B08H         LINE#         121
  C:6B08H         LINE#         129
  C:6B0DH         LINE#         130
  -------         ENDPROC       API_INIT_CURRENT_ENERGY_DATA_RAM
  -------         PROC          API_CHECK_CURRENT_ENERGY_DATA
  -------         DO            
  D:0006H         SYMBOL        csck_tmp
  -------         ENDDO         
  C:C034H         LINE#         144
  C:C034H         LINE#         145
  C:C034H         LINE#         149
  C:C04BH         LINE#         150
  C:C05AH         LINE#         151
  C:C05AH         LINE#         152
  C:C071H         LINE#         153
  C:C07DH         LINE#         154
  C:C07DH         LINE#         155
  C:C096H         LINE#         156
  C:C0B5H         LINE#         166
  C:C0B5H         LINE#         167
  C:C0D3H         LINE#         168
  C:C0E2H         LINE#         169
  C:C0E2H         LINE#         170
  -------         ENDPROC       API_CHECK_CURRENT_ENERGY_DATA
  -------         PROC          LNK_ADD_FAC_ENERGY_PLUSE
  -------         DO            
  D:0007H         SYMBOL        chg_fg
  D:0005H         SYMBOL        u8_tmp
  D:0006H         SYMBOL        i
  -------         ENDDO         
  C:DBE5H         LINE#         184
  C:DBE5H         LINE#         185
  C:DBE5H         LINE#         187
  C:DBE7H         LINE#         190
  C:DBE8H         LINE#         191
BL51 BANKED LINKER/LOCATER V6.22                                                      03/11/2019  14:45:04  PAGE 126


  C:DBE8H         LINE#         192
  C:DBF9H         LINE#         193
  C:DBF9H         LINE#         194
  C:DBFBH         LINE#         195
  C:DBFBH         LINE#         196
  C:DC07H         LINE#         197
  C:DC09H         LINE#         199
  C:DC1FH         LINE#         201
  C:DC45H         LINE#         203
  C:DC47H         LINE#         204
  C:DC47H         LINE#         205
  C:DC4CH         LINE#         207
  C:DC4CH         LINE#         208
  -------         ENDPROC       LNK_ADD_FAC_ENERGY_PLUSE
  -------         PROC          LNK_ADD_RAC_ENERGY_PLUSE
  -------         DO            
  D:0007H         SYMBOL        chg_fg
  -------         ENDDO         
  C:F0FFH         LINE#         224
  C:F0FFH         LINE#         225
  C:F0FFH         LINE#         227
  C:F101H         LINE#         287
  C:F101H         LINE#         288
  -------         ENDPROC       LNK_ADD_RAC_ENERGY_PLUSE
  -------         PROC          API_ACCUM_CURRENT_ENERGY_DATA_PRE_SECOND
  -------         DO            
  X:0007H         SYMBOL        save_fg
  X:0008H         SYMBOL        i
  D:0007H         SYMBOL        chg_fg1
  -------         ENDDO         
  C:5FA8H         LINE#         302
  C:5FA8H         LINE#         303
  C:5FA8H         LINE#         304
  C:5FADH         LINE#         309
  C:5FB0H         LINE#         311
  C:5FB3H         LINE#         313
  C:5FB9H         LINE#         315
  C:5FBEH         LINE#         316
  C:5FCDH         LINE#         317
  C:5FCDH         LINE#         318
  C:5FF2H         LINE#         319
  C:5FF2H         LINE#         320
  C:5FFEH         LINE#         321
  C:6018H         LINE#         322
  C:604DH         LINE#         323
  C:6074H         LINE#         324
  C:6074H         LINE#         325
  C:608CH         LINE#         326
  C:608CH         LINE#         327
  C:608CH         LINE#         329
  C:60C6H         LINE#         330
  C:60C6H         LINE#         331
  C:60F3H         LINE#         332
  C:6144H         LINE#         333
  C:6180H         LINE#         334
  C:6180H         LINE#         335
  C:61AAH         LINE#         336
BL51 BANKED LINKER/LOCATER V6.22                                                      03/11/2019  14:45:04  PAGE 127


  C:61AAH         LINE#         337
  C:61AAH         LINE#         340
  C:61B3H         LINE#         343
  C:61D2H         LINE#         344
  C:61F0H         LINE#         347
  C:61F7H         LINE#         348
  C:61F7H         LINE#         349
  C:6210H         LINE#         350
  C:6210H         LINE#         351
  -------         ENDPROC       API_ACCUM_CURRENT_ENERGY_DATA_PRE_SECOND
  -------         PROC          API_CLR_CURRENT_ENERGY_DATA
  C:DAA9H         LINE#         367
  C:DAA9H         LINE#         368
  C:DAA9H         LINE#         370
  C:DABDH         LINE#         371
  C:DADCH         LINE#         373
  C:DAFAH         LINE#         375
  -------         ENDPROC       API_CLR_CURRENT_ENERGY_DATA
  -------         ENDMOD        API_ENERGY

  -------         MODULE        API_EVENT
  C:0000H         SYMBOL        _ICE_DUMMY_
  D:00CEH         PUBLIC        wdt0
  D:0090H         PUBLIC        P1
  D:00CFH         PUBLIC        wdt1
  D:00B0H         PUBLIC        P3
  C:EDF2H         PUBLIC        api_even_Detect_NOL1
  C:EDD1H         PUBLIC        api_even_Detect_NOL2
  D:00A8H         PUBLIC        IE
  C:B9D0H         PUBLIC        _api_deal_even_class_recode
  C:E7E9H         PUBLIC        gs_even_var
  D:00B8H         PUBLIC        IP
  C:DB7CH         PUBLIC        api_even_ee_err
  C:EADFH         PUBLIC        api_even_Detect_sec
  D:0098H         PUBLIC        SCON
  D:0088H         PUBLIC        TCON
  C:9D4BH         PUBLIC        api_clr_even_by_comm
  C:A4C4H         PUBLIC        _GetTotalTime
  C:F082H         PUBLIC        api_even_Detect_lowbattery
  D:00F0H         PUBLIC        B
  X:0775H         PUBLIC        gs_even_fun_var
  D:00E0H         PUBLIC        ACC
  C:4A42H         PUBLIC        _api_pwl_cover_even_class_recode
  D:0080H         PUBLIC        SysCtrl
  D:00C8H         PUBLIC        T2CON
  C:002EH         PUBLIC        api_even_Detect_L1reverse
  C:001EH         PUBLIC        api_even_Detect_L2reverse
  C:35CFH         PUBLIC        _lnk_save_even_class1_recode
  C:E803H         PUBLIC        even_class_I_tab
  C:F105H         PUBLIC        api_even_int
  D:00D0H         PUBLIC        PSW
  -------         PROC          API_EVEN_INT
  C:F105H         LINE#         101
  C:F105H         LINE#         102
  C:F105H         LINE#         104
  C:F106H         LINE#         105
  -------         ENDPROC       API_EVEN_INT
BL51 BANKED LINKER/LOCATER V6.22                                                      03/11/2019  14:45:04  PAGE 128


  -------         PROC          _API_PWL_COVER_EVEN_CLASS_RECODE
  X:0338H         SYMBOL        even_id
  D:0005H         SYMBOL        type
  -------         DO            
  X:0339H         SYMBOL        data_class2
  X:03B9H         SYMBOL        buftmp
  X:03CFH         SYMBOL        Time
  X:03D3H         SYMBOL        i
  -------         ENDDO         
  C:4A42H         LINE#         110
  C:4A47H         LINE#         111
  C:4A47H         LINE#         120
  C:4A4FH         LINE#         121
  C:4A4FH         LINE#         122
  C:4A6FH         LINE#         123
  C:4A6FH         LINE#         124
  C:4A7FH         LINE#         125
  C:4AA2H         LINE#         126
  C:4AA4H         LINE#         128
  C:4AA4H         LINE#         129
  C:4AB4H         LINE#         130
  C:4AD5H         LINE#         132
  C:4AD5H         LINE#         133
  C:4AEFH         LINE#         136
  C:4B14H         LINE#         137
  C:4B24H         LINE#         138
  C:4B24H         LINE#         139
  C:4B5EH         LINE#         140
  C:4B66H         LINE#         141
  C:4B6EH         LINE#         142
  C:4B76H         LINE#         143
  C:4B7EH         LINE#         144
  C:4B86H         LINE#         145
  C:4B8EH         LINE#         146
  C:4B96H         LINE#         148
  C:4BA6H         LINE#         149
  C:4BA6H         LINE#         150
  C:4BE0H         LINE#         151
  C:4BE8H         LINE#         152
  C:4BF6H         LINE#         154
  C:4C0AH         LINE#         156
  C:4C29H         LINE#         158
  C:4C43H         LINE#         159
  C:4C43H         LINE#         161
  C:4C43H         LINE#         163
  C:4C59H         LINE#         164
  C:4C59H         LINE#         166
  C:4C59H         LINE#         167
  C:4C69H         LINE#         168
  C:4C69H         LINE#         169
  C:4C79H         LINE#         170
  C:4C86H         LINE#         172
  C:4C87H         LINE#         174
  C:4C87H         LINE#         177
  C:4C97H         LINE#         178
  C:4CBAH         LINE#         179
  C:4CC8H         LINE#         180
BL51 BANKED LINKER/LOCATER V6.22                                                      03/11/2019  14:45:04  PAGE 129


  C:4CE2H         LINE#         182
  C:4CEAH         LINE#         183
  C:4CF2H         LINE#         184
  C:4CFAH         LINE#         185
  C:4D02H         LINE#         186
  C:4D0AH         LINE#         187
  C:4D13H         LINE#         189
  C:4D1BH         LINE#         190
  C:4D23H         LINE#         191
  C:4D2BH         LINE#         192
  C:4D33H         LINE#         193
  C:4D3BH         LINE#         194
  C:4D43H         LINE#         196
  C:4D46H         LINE#         197
  C:4D4EH         LINE#         198
  C:4D56H         LINE#         199
  C:4D5EH         LINE#         200
  C:4D66H         LINE#         201
  C:4D6EH         LINE#         203
  C:4D77H         LINE#         205
  C:4D95H         LINE#         207
  C:4DF6H         LINE#         209
  C:4E15H         LINE#         210
  C:4E23H         LINE#         212
  C:4E3DH         LINE#         214
  C:4E4DH         LINE#         215
  C:4E59H         LINE#         216
  C:4E59H         LINE#         218
  C:4E59H         LINE#         221
  -------         ENDPROC       _API_PWL_COVER_EVEN_CLASS_RECODE
  -------         PROC          _LNK_SAVE_EVEN_CLASS1_RECODE
  X:0098H         SYMBOL        ID
  X:0099H         SYMBOL        adr
  X:009BH         SYMBOL        type
  -------         DO            
  X:009CH         SYMBOL        data_class1
  X:00DCH         SYMBOL        data_class2
  X:015CH         SYMBOL        buftmp
  X:0172H         SYMBOL        Time
  X:0176H         SYMBOL        i
  -------         ENDDO         
  C:35CFH         LINE#         237
  C:35E1H         LINE#         238
  C:35E1H         LINE#         246
  C:35ECH         LINE#         248
  C:35FEH         LINE#         249
  C:35FEH         LINE#         251
  C:3619H         LINE#         253
  C:363EH         LINE#         254
  C:364EH         LINE#         255
  C:364EH         LINE#         256
  C:3688H         LINE#         257
  C:3690H         LINE#         259
  C:3698H         LINE#         260
  C:36A0H         LINE#         261
  C:36A8H         LINE#         262
  C:36B0H         LINE#         263
BL51 BANKED LINKER/LOCATER V6.22                                                      03/11/2019  14:45:04  PAGE 130


  C:36B8H         LINE#         264
  C:36C0H         LINE#         266
  C:36DFH         LINE#         269
  C:36F8H         LINE#         271
  C:36F8H         LINE#         274
  C:3717H         LINE#         275
  C:3717H         LINE#         276
  C:3720H         LINE#         277
  C:3720H         LINE#         278
  C:3730H         LINE#         281
  C:3750H         LINE#         282
  C:3769H         LINE#         283
  C:3769H         LINE#         284
  C:3774H         LINE#         285
  C:3777H         LINE#         287
  C:3777H         LINE#         288
  C:3787H         LINE#         289
  C:37ABH         LINE#         290
  C:37B9H         LINE#         292
  C:37CFH         LINE#         293
  C:37CFH         LINE#         294
  C:37E0H         LINE#         295
  C:3800H         LINE#         296
  C:3800H         LINE#         300
  C:381EH         LINE#         303
  C:3843H         LINE#         304
  C:3853H         LINE#         305
  C:3853H         LINE#         306
  C:388DH         LINE#         307
  C:3895H         LINE#         308
  C:389DH         LINE#         309
  C:38A5H         LINE#         310
  C:38ADH         LINE#         311
  C:38B5H         LINE#         312
  C:38BDH         LINE#         313
  C:38C5H         LINE#         315
  C:38D5H         LINE#         316
  C:38D5H         LINE#         317
  C:390FH         LINE#         318
  C:3917H         LINE#         319
  C:3925H         LINE#         322
  C:3939H         LINE#         326
  C:3958H         LINE#         329
  C:396EH         LINE#         330
  C:396EH         LINE#         331
  C:3971H         LINE#         333
  C:3971H         LINE#         334
  C:398DH         LINE#         335
  C:398DH         LINE#         336
  C:39B0H         LINE#         338
  C:39B0H         LINE#         339
  C:39C0H         LINE#         340
  C:39CCH         LINE#         343
  C:39ECH         LINE#         344
  C:3A00H         LINE#         345
  C:3A00H         LINE#         347
  C:3A00H         LINE#         350
BL51 BANKED LINKER/LOCATER V6.22                                                      03/11/2019  14:45:04  PAGE 131


  C:3A10H         LINE#         351
  C:3A30H         LINE#         352
  C:3A3EH         LINE#         353
  C:3A5CH         LINE#         355
  C:3A64H         LINE#         356
  C:3A6CH         LINE#         357
  C:3A74H         LINE#         358
  C:3A7CH         LINE#         359
  C:3A84H         LINE#         360
  C:3A8DH         LINE#         362
  C:3A95H         LINE#         363
  C:3A9DH         LINE#         364
  C:3AA5H         LINE#         365
  C:3AADH         LINE#         366
  C:3AB5H         LINE#         367
  C:3ABDH         LINE#         370
  C:3AC0H         LINE#         371
  C:3AC8H         LINE#         372
  C:3AD0H         LINE#         373
  C:3AD8H         LINE#         374
  C:3AE0H         LINE#         375
  C:3AE8H         LINE#         377
  C:3AF1H         LINE#         379
  C:3B0FH         LINE#         381
  C:3B70H         LINE#         383
  C:3B8FH         LINE#         385
  C:3B9DH         LINE#         388
  C:3BBBH         LINE#         390
  C:3BBBH         LINE#         391
  C:3BBBH         LINE#         393
  C:3BBBH         LINE#         394
  C:3BCBH         LINE#         395
  C:3BD7H         LINE#         396
  C:3BD7H         LINE#         397
  C:3BD7H         LINE#         399
  C:3BD7H         LINE#         402
  -------         ENDPROC       _LNK_SAVE_EVEN_CLASS1_RECODE
  -------         PROC          _API_DEAL_EVEN_CLASS_RECODE
  D:0007H         SYMBOL        even_id
  D:0006H         SYMBOL        type
  -------         DO            
  X:0093H         SYMBOL        i
  X:0094H         SYMBOL        ID
  X:0095H         SYMBOL        tab_class
  -------         ENDDO         
  C:B9D0H         LINE#         418
  C:B9D2H         LINE#         419
  C:B9D2H         LINE#         423
  C:B9D8H         LINE#         424
  C:B9D8H         LINE#         425
  C:B9E7H         LINE#         426
  C:B9E7H         LINE#         427
  C:B9FAH         LINE#         428
  C:BA02H         LINE#         430
  C:BA0FH         LINE#         432
  C:BA1BH         LINE#         433
  C:BA1BH         LINE#         434
BL51 BANKED LINKER/LOCATER V6.22                                                      03/11/2019  14:45:04  PAGE 132


  C:BA1DH         LINE#         435
  C:BA28H         LINE#         436
  C:BA28H         LINE#         437
  C:BA37H         LINE#         438
  C:BA37H         LINE#         439
  C:BA4AH         LINE#         440
  C:BA52H         LINE#         442
  C:BA5BH         LINE#         444
  C:BA7BH         LINE#         445
  C:BA80H         LINE#         446
  C:BA80H         LINE#         449
  C:BA92H         LINE#         451
  -------         ENDPROC       _API_DEAL_EVEN_CLASS_RECODE
  -------         PROC          API_CLR_EVEN_BY_COMM
  -------         DO            
  X:0093H         SYMBOL        i
  X:0094H         SYMBOL        data_class1
  X:00D4H         SYMBOL        data_class2
  -------         ENDDO         
  C:9D4BH         LINE#         466
  C:9D4BH         LINE#         467
  C:9D4BH         LINE#         472
  C:9D5FH         LINE#         473
  C:9D73H         LINE#         474
  C:9D78H         LINE#         475
  C:9D8BH         LINE#         477
  C:9DA5H         LINE#         479
  C:9DC4H         LINE#         480
  C:9DE3H         LINE#         482
  C:9DF5H         LINE#         483
  C:9DF5H         LINE#         484
  C:9E03H         LINE#         485
  C:9E2EH         LINE#         486
  C:9E5CH         LINE#         487
  C:9E6AH         LINE#         488
  C:9E73H         LINE#         491
  -------         ENDPROC       API_CLR_EVEN_BY_COMM
  -------         PROC          _GETTOTALTIME
  X:0177H         SYMBOL        buftmp
  -------         DO            
  X:017AH         SYMBOL        temp1
  X:017EH         SYMBOL        temp2
  -------         ENDDO         
  C:A4C4H         LINE#         502
  C:A4CFH         LINE#         503
  C:A4CFH         LINE#         506
  C:A4FAH         LINE#         507
  C:A4FAH         LINE#         508
  C:A504H         LINE#         509
  C:A50EH         LINE#         510
  C:A510H         LINE#         512
  C:A510H         LINE#         513
  C:A520H         LINE#         514
  C:A539H         LINE#         518
  C:A539H         LINE#         520
  C:A55EH         LINE#         521
  C:A55EH         LINE#         522
BL51 BANKED LINKER/LOCATER V6.22                                                      03/11/2019  14:45:04  PAGE 133


  C:A589H         LINE#         523
  C:A58BH         LINE#         525
  C:A58BH         LINE#         526
  C:A592H         LINE#         527
  C:A592H         LINE#         529
  -------         ENDPROC       _GETTOTALTIME
  -------         PROC          API_EVEN_DETECT_SEC
  C:EADFH         LINE#         545
  C:EADFH         LINE#         546
  C:EADFH         LINE#         547
  C:EAE7H         LINE#         549
  C:EAEAH         LINE#         551
  C:EAF4H         LINE#         552
  C:EAFBH         LINE#         562
  C:EB05H         LINE#         563
  C:EB0CH         LINE#         572
  -------         ENDPROC       API_EVEN_DETECT_SEC
  -------         PROC          API_EVEN_DETECT_L2REVERSE
  C:001EH         LINE#         587
  C:001EH         LINE#         588
  C:001EH         LINE#         590
  C:0025H         LINE#         591
  C:0028H         LINE#         593
  C:002AH         LINE#         595
  -------         ENDPROC       API_EVEN_DETECT_L2REVERSE
  -------         PROC          API_EVEN_DETECT_L1REVERSE
  C:002EH         LINE#         611
  C:002EH         LINE#         612
  C:002EH         LINE#         613
  C:0035H         LINE#         614
  C:0038H         LINE#         616
  C:003AH         LINE#         617
  -------         ENDPROC       API_EVEN_DETECT_L1REVERSE
  -------         PROC          API_EVEN_DETECT_NOL2
  C:EDD1H         LINE#         631
  C:EDD1H         LINE#         632
  C:EDD1H         LINE#         634
  C:EDECH         LINE#         635
  C:EDECH         LINE#         637
  C:EDEFH         LINE#         638
  C:EDEFH         LINE#         640
  C:EDEFH         LINE#         642
  C:EDF1H         LINE#         643
  C:EDF1H         LINE#         644
  -------         ENDPROC       API_EVEN_DETECT_NOL2
  -------         PROC          API_EVEN_DETECT_NOL1
  C:EDF2H         LINE#         658
  C:EDF2H         LINE#         659
  C:EDF2H         LINE#         661
  C:EE0DH         LINE#         662
  C:EE0DH         LINE#         664
  C:EE10H         LINE#         665
  C:EE10H         LINE#         667
  C:EE10H         LINE#         669
  C:EE12H         LINE#         670
  C:EE12H         LINE#         671
  -------         ENDPROC       API_EVEN_DETECT_NOL1
BL51 BANKED LINKER/LOCATER V6.22                                                      03/11/2019  14:45:04  PAGE 134


  -------         PROC          API_EVEN_DETECT_LOWBATTERY
  C:F082H         LINE#         685
  C:F082H         LINE#         686
  C:F082H         LINE#         687
  C:F089H         LINE#         688
  C:F08CH         LINE#         690
  C:F08EH         LINE#         691
  -------         ENDPROC       API_EVEN_DETECT_LOWBATTERY
  -------         PROC          API_EVEN_EE_ERR
  C:DB7CH         LINE#         707
  C:DB7CH         LINE#         708
  C:DB7CH         LINE#         709
  C:DB96H         LINE#         711
  C:DBB2H         LINE#         712
  C:DBB2H         LINE#         713
  C:DBB6H         LINE#         714
  C:DBB6H         LINE#         716
  C:DBD7H         LINE#         717
  C:DBD7H         LINE#         718
  C:DBDEH         LINE#         719
  C:DBE4H         LINE#         720
  C:DBE4H         LINE#         722
  C:DBE4H         LINE#         724
  C:DBE4H         LINE#         725
  -------         ENDPROC       API_EVEN_EE_ERR
  -------         ENDMOD        API_EVENT

  -------         MODULE        API_LOADPROFILE
  C:0000H         SYMBOL        _ICE_DUMMY_
  D:00CEH         PUBLIC        wdt0
  D:0090H         PUBLIC        P1
  D:00CFH         PUBLIC        wdt1
  D:00B0H         PUBLIC        P3
  C:F102H         PUBLIC        ReadLPRunPa
  X:06E4H         PUBLIC        LPRunPa
  D:00A8H         PUBLIC        IE
  D:00B8H         PUBLIC        IP
  C:D9D1H         PUBLIC        Init_LoadPro_param
  X:06E8H         PUBLIC        LPReadPara
  C:C2E7H         PUBLIC        _LPRec_Read_1
  C:CCB5H         PUBLIC        LoadPro_Rec
  D:0098H         PUBLIC        SCON
  D:0088H         PUBLIC        TCON
  D:00F0H         PUBLIC        B
  D:00E0H         PUBLIC        ACC
  X:06EDH         PUBLIC        LPRd
  D:0080H         PUBLIC        SysCtrl
  C:6211H         PUBLIC        _LPRec_Read_Block
  D:00C8H         PUBLIC        T2CON
  C:E545H         PUBLIC        LoadProRst
  D:00D0H         PUBLIC        PSW
  C:583EH         PUBLIC        _Load_Rec
  -------         PROC          LOADPRORST
  C:E545H         LINE#         28
  C:E545H         LINE#         29
  C:E545H         LINE#         30
  C:E559H         LINE#         31
BL51 BANKED LINKER/LOCATER V6.22                                                      03/11/2019  14:45:04  PAGE 135


  C:E573H         LINE#         33
  -------         ENDPROC       LOADPRORST
  -------         PROC          READLPRUNPA
  C:F102H         LINE#         45
  C:F102H         LINE#         46
  C:F102H         LINE#         47
  C:F104H         LINE#         48
  -------         ENDPROC       READLPRUNPA
  -------         PROC          _LPREC_READ_1
  X:00E6H         SYMBOL        dst
  D:0004H         SYMBOL        idNo
  -------         DO            
  X:00E9H         SYMBOL        RecLen
  X:00EAH         SYMBOL        Buffer
  D:0004H         SYMBOL        LPAddr
  X:00FEH         SYMBOL        ptr
  -------         ENDDO         
  C:C2E7H         LINE#         58
  C:C2F2H         LINE#         59
  C:C2F2H         LINE#         66
  C:C300H         LINE#         67
  C:C300H         LINE#         68
  C:C305H         LINE#         69
  C:C307H         LINE#         71
  C:C307H         LINE#         72
  C:C329H         LINE#         73
  C:C329H         LINE#         75
  C:C32FH         LINE#         76
  C:C34DH         LINE#         77
  C:C368H         LINE#         78
  C:C38CH         LINE#         85
  C:C391H         LINE#         86
  -------         ENDPROC       _LPREC_READ_1
  -------         PROC          _LPREC_READ_BLOCK
  X:00E6H         SYMBOL        dst
  X:00E9H         SYMBOL        StartARESS
  X:00EBH         SYMBOL        EndARESS
  -------         DO            
  X:00EDH         SYMBOL        Ch
  X:00EEH         SYMBOL        RecLen
  X:00EFH         SYMBOL        Buffer
  X:01B7H         SYMBOL        LPAddr
  X:01BBH         SYMBOL        LPAddr2
  X:01BFH         SYMBOL        HGAddr
  D:0002H         SYMBOL        LWAddr
  X:01C1H         SYMBOL        ComLenth
  X:01C3H         SYMBOL        ptr
  X:01C5H         SYMBOL        ComNo
  X:01C7H         SYMBOL        TempLen
  -------         ENDDO         
  C:6211H         LINE#         94
  C:6222H         LINE#         95
  C:6222H         LINE#         104
  C:622FH         LINE#         105
  C:623DH         LINE#         106
  C:625BH         LINE#         107
  C:6265H         LINE#         109
BL51 BANKED LINKER/LOCATER V6.22                                                      03/11/2019  14:45:04  PAGE 136


  C:6281H         LINE#         110
  C:6286H         LINE#         112
  C:629FH         LINE#         114
  C:62C3H         LINE#         116
  C:62C9H         LINE#         118
  C:62D3H         LINE#         119
  C:62E1H         LINE#         120
  C:62F3H         LINE#         121
  C:62F3H         LINE#         122
  C:6339H         LINE#         123
  C:636AH         LINE#         125
  C:6373H         LINE#         127
  C:639EH         LINE#         128
  C:63A3H         LINE#         130
  C:63B2H         LINE#         131
  C:63C0H         LINE#         133
  C:63C9H         LINE#         134
  C:63D0H         LINE#         137
  C:63DEH         LINE#         138
  C:63F5H         LINE#         139
  C:63F5H         LINE#         140
  C:6441H         LINE#         149
  C:644FH         LINE#         150
  C:645DH         LINE#         151
  C:6466H         LINE#         153
  C:646EH         LINE#         154
  -------         ENDPROC       _LPREC_READ_BLOCK
  -------         PROC          _LOAD_REC
  X:0006H         SYMBOL        Ch
  -------         DO            
  X:0007H         SYMBOL        LPAddr
  X:000BH         SYMBOL        Len
  X:000CH         SYMBOL        Buffer
  -------         ENDDO         
  C:583EH         LINE#         233
  C:5843H         LINE#         234
  C:5843H         LINE#         240
  C:584DH         LINE#         248
  C:5861H         LINE#         249
  C:5866H         LINE#         250
  C:588AH         LINE#         251
  C:5891H         LINE#         256
  C:58B0H         LINE#         257
  C:58B7H         LINE#         262
  C:58D2H         LINE#         263
  C:5909H         LINE#         264
  C:5910H         LINE#         269
  C:592BH         LINE#         270
  C:5962H         LINE#         271
  C:5969H         LINE#         275
  C:5987H         LINE#         276
  C:598EH         LINE#         294
  C:59B0H         LINE#         295
  C:59E4H         LINE#         296
  C:5A02H         LINE#         297
  C:5A2BH         LINE#         300
  C:5A35H         LINE#         301
BL51 BANKED LINKER/LOCATER V6.22                                                      03/11/2019  14:45:04  PAGE 137


  C:5A82H         LINE#         303
  C:5A9CH         LINE#         312
  C:5ABEH         LINE#         314
  C:5AC0H         LINE#         315
  -------         ENDPROC       _LOAD_REC
  -------         PROC          LOADPRO_REC
  -------         DO            
  X:0000H         SYMBOL        Ch
  D:0006H         SYMBOL        Addr
  X:0001H         SYMBOL        TimeInv
  X:0003H         SYMBOL        flag
  X:0004H         SYMBOL        Buffer
  -------         ENDDO         
  C:CCB5H         LINE#         323
  C:CCB5H         LINE#         324
  C:CCB5H         LINE#         331
  C:CCC7H         LINE#         332
  C:CCC7H         LINE#         333
  C:CCD3H         LINE#         335
  C:CCEAH         LINE#         336
  C:CCFBH         LINE#         337
  C:CCFEH         LINE#         338
  C:CCFEH         LINE#         339
  C:CD01H         LINE#         340
  C:CD10H         LINE#         341
  C:CD10H         LINE#         348
  C:CD1DH         LINE#         349
  C:CD31H         LINE#         350
  C:CD31H         LINE#         351
  C:CD37H         LINE#         352
  C:CD37H         LINE#         353
  C:CD3FH         LINE#         354
  C:CD3FH         LINE#         355
  C:CD3FH         LINE#         356
  C:CD48H         LINE#         357
  -------         ENDPROC       LOADPRO_REC
  -------         PROC          INIT_LOADPRO_PARAM
  C:D9D1H         LINE#         366
  C:D9D1H         LINE#         367
  C:D9D1H         LINE#         370
  C:D9EBH         LINE#         372
  C:DA03H         LINE#         373
  C:DA13H         LINE#         374
  C:DA13H         LINE#         375
  C:DA19H         LINE#         376
  C:DA19H         LINE#         379
  C:DA23H         LINE#         381
  -------         ENDPROC       INIT_LOADPRO_PARAM
  -------         ENDMOD        API_LOADPROFILE

  -------         MODULE        API_MEASURE
  C:0000H         SYMBOL        _ICE_DUMMY_
  D:00CEH         PUBLIC        wdt0
  D:0090H         PUBLIC        P1
  D:00CFH         PUBLIC        wdt1
  D:00B0H         PUBLIC        P3
  D:00A8H         PUBLIC        IE
BL51 BANKED LINKER/LOCATER V6.22                                                      03/11/2019  14:45:04  PAGE 138


  C:8E22H         PUBLIC        api_measure_deal_pre_second
  D:00B8H         PUBLIC        IP
  C:EC11H         PUBLIC        api_Measure_ram_INIT
  D:0098H         PUBLIC        SCON
  D:0088H         PUBLIC        TCON
  D:00F0H         PUBLIC        B
  D:00E0H         PUBLIC        ACC
  D:0080H         PUBLIC        SysCtrl
  X:0685H         PUBLIC        gs_measure_status_judge_var
  X:068BH         PUBLIC        gs_measure_var_data
  D:00C8H         PUBLIC        T2CON
  C:E9B0H         PUBLIC        api_measure_VBAT_pre_min
  C:EF26H         PUBLIC        api_measure_temperature_pre_min
  D:00D0H         PUBLIC        PSW
  -------         PROC          API_MEASURE_RAM_INIT
  C:EC11H         LINE#         37
  C:EC11H         LINE#         38
  C:EC11H         LINE#         39
  C:EC25H         LINE#         40
  -------         ENDPROC       API_MEASURE_RAM_INIT
  -------         PROC          API_MEASURE_DEAL_PRE_SECOND
  -------         DO            
  X:0000H         SYMBOL        u32_UI
  X:0004H         SYMBOL        u32_P
  X:0008H         SYMBOL        u32_PF
  -------         ENDDO         
  C:8E22H         LINE#         55
  C:8E22H         LINE#         56
  C:8E22H         LINE#         57
  C:8E22H         LINE#         58
  C:8E30H         LINE#         61
  C:8E33H         LINE#         64
  C:8E3EH         LINE#         68
  C:8E48H         LINE#         69
  C:8E7DH         LINE#         70
  C:8EB2H         LINE#         72
  C:8EBFH         LINE#         78
  C:8EDDH         LINE#         79
  C:8F0CH         LINE#         80
  C:8F25H         LINE#         81
  C:8F25H         LINE#         82
  C:8F2FH         LINE#         83
  C:8F30H         LINE#         85
  C:8F30H         LINE#         86
  C:8F53H         LINE#         87
  C:8F78H         LINE#         88
  C:8F89H         LINE#         89
  C:8F89H         LINE#         90
  -------         ENDPROC       API_MEASURE_DEAL_PRE_SECOND
  -------         PROC          API_MEASURE_VBAT_PRE_MIN
  C:E9B0H         LINE#         103
  C:E9B0H         LINE#         104
  C:E9B0H         LINE#         105
  C:E9BBH         LINE#         107
  C:E9C3H         LINE#         108
  C:E9C3H         LINE#         109
  C:E9CEH         LINE#         110
BL51 BANKED LINKER/LOCATER V6.22                                                      03/11/2019  14:45:04  PAGE 139


  C:E9D6H         LINE#         111
  C:E9D6H         LINE#         112
  C:E9DDH         LINE#         114
  C:E9DDH         LINE#         115
  C:E9DEH         LINE#         117
  C:E9DEH         LINE#         118
  C:E9E5H         LINE#         119
  C:E9E5H         LINE#         120
  -------         ENDPROC       API_MEASURE_VBAT_PRE_MIN
  -------         PROC          API_MEASURE_TEMPERATURE_PRE_MIN
  C:EF26H         LINE#         135
  C:EF26H         LINE#         136
  C:EF26H         LINE#         137
  C:EF2BH         LINE#         138
  C:EF32H         LINE#         140
  C:EF3DH         LINE#         142
  -------         ENDPROC       API_MEASURE_TEMPERATURE_PRE_MIN
  -------         ENDMOD        API_MEASURE

  -------         MODULE        API_TRIFF
  C:0000H         SYMBOL        _ICE_DUMMY_
  C:DEF7H         PUBLIC        api_update_triffNo_pre_minute
  D:0090H         PUBLIC        P1
  C:9769H         PUBLIC        api_get_seasonTab_No
  D:00B0H         PUBLIC        P3
  D:00A8H         PUBLIC        IE
  C:C9DDH         PUBLIC        default_triff_week_tab
  D:00B8H         PUBLIC        IP
  C:C9FBH         PUBLIC        default_triff_day_tab
  D:0098H         PUBLIC        SCON
  C:C4DAH         PUBLIC        _api_get_dayTab_No
  D:0088H         PUBLIC        TCON
  D:00F0H         PUBLIC        B
  D:00E0H         PUBLIC        ACC
  D:0080H         PUBLIC        SysCtrl
  D:00C8H         PUBLIC        T2CON
  X:07E8H         PUBLIC        gs_current_triff_var
  C:C9C3H         PUBLIC        default_triff_season_tab
  C:808CH         PUBLIC        _api_get_triff_No
  D:00D0H         PUBLIC        PSW
  -------         PROC          API_GET_SEASONTAB_NO
  -------         DO            
  X:0094H         SYMBOL        s_season_data
  D:0006H         SYMBOL        i
  D:0005H         SYMBOL        result
  D:0007H         SYMBOL        table_ok_len
  -------         ENDDO         
  C:9769H         LINE#         639
  C:9769H         LINE#         640
  C:9769H         LINE#         648
  C:9783H         LINE#         651
  C:9785H         LINE#         652
  C:9786H         LINE#         653
  C:9786H         LINE#         654
  C:979CH         LINE#         655
  C:97B2H         LINE#         656
  C:97C8H         LINE#         657
BL51 BANKED LINKER/LOCATER V6.22                                                      03/11/2019  14:45:04  PAGE 140


  C:97C9H         LINE#         658
  C:97CEH         LINE#         660
  C:97D6H         LINE#         661
  C:97D6H         LINE#         662
  C:97D9H         LINE#         663
  C:97D9H         LINE#         666
  C:97DBH         LINE#         667
  C:97E0H         LINE#         668
  C:97E9H         LINE#         669
  C:97E9H         LINE#         670
  C:9805H         LINE#         671
  C:981BH         LINE#         674
  C:9835H         LINE#         675
  C:9835H         LINE#         676
  C:9835H         LINE#         677
  C:9835H         LINE#         678
  C:9837H         LINE#         679
  C:983BH         LINE#         680
  C:983BH         LINE#         681
  C:9855H         LINE#         682
  C:9855H         LINE#         683
  C:985BH         LINE#         684
  C:986BH         LINE#         685
  C:986DH         LINE#         687
  C:986DH         LINE#         688
  C:9870H         LINE#         689
  C:9870H         LINE#         690
  C:9870H         LINE#         691
  C:9870H         LINE#         692
  C:9872H         LINE#         693
  C:9872H         LINE#         695
  C:9872H         LINE#         696
  C:9872H         LINE#         697
  C:9872H         LINE#         698
  C:9872H         LINE#         699
  C:9872H         LINE#         701
  C:9872H         LINE#         702
  C:9875H         LINE#         703
  C:9875H         LINE#         704
  C:987AH         LINE#         705
  C:9889H         LINE#         706
  C:988BH         LINE#         707
  C:988BH         LINE#         709
  C:988BH         LINE#         710
  C:988BH         LINE#         711
  C:988BH         LINE#         712
  C:988BH         LINE#         713
  C:988FH         LINE#         715
  C:9895H         LINE#         716
  C:9897H         LINE#         718
  -------         ENDPROC       API_GET_SEASONTAB_NO
  -------         PROC          _API_GET_DAYTAB_NO
  D:0007H         SYMBOL        weekTab_no
  -------         DO            
  X:0094H         SYMBOL        s_weekTab_data
  X:009BH         SYMBOL        result
  -------         ENDDO         
BL51 BANKED LINKER/LOCATER V6.22                                                      03/11/2019  14:45:04  PAGE 141


  C:C4DAH         LINE#         734
  C:C4DAH         LINE#         735
  C:C4DAH         LINE#         740
  C:C4E2H         LINE#         741
  C:C4E2H         LINE#         742
  C:C4E8H         LINE#         743
  C:C4E9H         LINE#         744
  C:C4E9H         LINE#         746
  C:C510H         LINE#         750
  C:C535H         LINE#         751
  C:C535H         LINE#         752
  C:C535H         LINE#         753
  C:C538H         LINE#         754
  C:C53AH         LINE#         755
  C:C53AH         LINE#         756
  C:C53DH         LINE#         757
  C:C53FH         LINE#         758
  C:C53FH         LINE#         759
  C:C542H         LINE#         760
  C:C544H         LINE#         761
  C:C544H         LINE#         762
  C:C547H         LINE#         763
  C:C549H         LINE#         764
  C:C549H         LINE#         765
  C:C54CH         LINE#         766
  C:C54EH         LINE#         767
  C:C54EH         LINE#         768
  C:C556H         LINE#         769
  C:C558H         LINE#         770
  C:C558H         LINE#         771
  C:C55EH         LINE#         772
  C:C560H         LINE#         773
  C:C560H         LINE#         774
  C:C563H         LINE#         775
  C:C563H         LINE#         776
  C:C563H         LINE#         778
  C:C56EH         LINE#         779
  C:C56EH         LINE#         780
  C:C574H         LINE#         781
  C:C574H         LINE#         783
  C:C579H         LINE#         785
  -------         ENDPROC       _API_GET_DAYTAB_NO
  -------         PROC          _API_GET_TRIFF_NO
  D:0007H         SYMBOL        dayTab_no
  -------         DO            
  X:0094H         SYMBOL        s_dayTab_data
  X:00ACH         SYMBOL        i
  X:00ADH         SYMBOL        table_ok_len
  X:00AEH         SYMBOL        result
  -------         ENDDO         
  C:808CH         LINE#         800
  C:808CH         LINE#         801
  C:808CH         LINE#         809
  C:8094H         LINE#         810
  C:8094H         LINE#         811
  C:809AH         LINE#         812
  C:809BH         LINE#         813
BL51 BANKED LINKER/LOCATER V6.22                                                      03/11/2019  14:45:04  PAGE 142


  C:809BH         LINE#         816
  C:80C2H         LINE#         819
  C:80C7H         LINE#         820
  C:80D5H         LINE#         821
  C:80D5H         LINE#         822
  C:80ECH         LINE#         823
  C:8104H         LINE#         824
  C:8118H         LINE#         825
  C:8131H         LINE#         826
  C:8137H         LINE#         827
  C:813FH         LINE#         829
  C:814AH         LINE#         830
  C:814AH         LINE#         831
  C:814DH         LINE#         832
  C:814DH         LINE#         836
  C:8153H         LINE#         837
  C:8158H         LINE#         838
  C:816DH         LINE#         839
  C:816DH         LINE#         840
  C:8187H         LINE#         841
  C:81A3H         LINE#         842
  C:81B8H         LINE#         845
  C:81C2H         LINE#         846
  C:81C2H         LINE#         847
  C:81C2H         LINE#         848
  C:81C4H         LINE#         849
  C:81D9H         LINE#         850
  C:81D9H         LINE#         851
  C:81E3H         LINE#         852
  C:81E3H         LINE#         853
  C:81F9H         LINE#         854
  C:81FBH         LINE#         856
  C:81FBH         LINE#         857
  C:8201H         LINE#         858
  C:8201H         LINE#         859
  C:8201H         LINE#         860
  C:8203H         LINE#         861
  C:8203H         LINE#         863
  C:8203H         LINE#         864
  C:8203H         LINE#         865
  C:8203H         LINE#         866
  C:8203H         LINE#         867
  C:8203H         LINE#         869
  C:8203H         LINE#         870
  C:8209H         LINE#         871
  C:8209H         LINE#         872
  C:821DH         LINE#         873
  C:821FH         LINE#         874
  C:821FH         LINE#         876
  C:821FH         LINE#         877
  C:821FH         LINE#         878
  C:821FH         LINE#         879
  C:821FH         LINE#         880
  C:8228H         LINE#         882
  C:822DH         LINE#         884
  -------         ENDPROC       _API_GET_TRIFF_NO
  -------         PROC          API_UPDATE_TRIFFNO_PRE_MINUTE
BL51 BANKED LINKER/LOCATER V6.22                                                      03/11/2019  14:45:04  PAGE 143


  -------         DO            
  X:0093H         SYMBOL        u8_temp
  -------         ENDDO         
  C:DEF7H         LINE#         899
  C:DEF7H         LINE#         900
  C:DEF7H         LINE#         907
  C:DEFDH         LINE#         909
  C:DF00H         LINE#         910
  C:DF00H         LINE#         912
  C:DF05H         LINE#         914
  C:DF07H         LINE#         916
  C:DF07H         LINE#         918
  C:DF0FH         LINE#         919
  C:DF12H         LINE#         920
  C:DF12H         LINE#         921
  C:DF18H         LINE#         922
  C:DF18H         LINE#         923
  C:DF1AH         LINE#         925
  C:DF1AH         LINE#         926
  C:DF22H         LINE#         927
  C:DF22H         LINE#         928
  C:DF2FH         LINE#         930
  C:DF2FH         LINE#         932
  C:DF3CH         LINE#         933
  C:DF44H         LINE#         934
  C:DF44H         LINE#         935
  C:DF4AH         LINE#         936
  C:DF4AH         LINE#         938
  C:DF52H         LINE#         940
  -------         ENDPROC       API_UPDATE_TRIFFNO_PRE_MINUTE
  -------         ENDMOD        API_TRIFF

  -------         MODULE        API_RELAY
  C:0000H         SYMBOL        _ICE_DUMMY_
  D:00CEH         PUBLIC        wdt0
  D:0090H         PUBLIC        P1
  D:00CFH         PUBLIC        wdt1
  D:00B0H         PUBLIC        P3
  C:CB8BH         PUBLIC        Drv_relay_powerup_check
  D:00A8H         PUBLIC        IE
  D:00B8H         PUBLIC        IP
  C:E3EDH         PUBLIC        _Drv_relay_COMM_CMD_operating
  D:0098H         PUBLIC        SCON
  D:0088H         PUBLIC        TCON
  D:00F0H         PUBLIC        B
  C:F10AH         PUBLIC        Drv_relay_run_check
  D:00E0H         PUBLIC        ACC
  X:07FBH         PUBLIC        gs_relay_manage_var
  D:0080H         PUBLIC        SysCtrl
  D:00C8H         PUBLIC        T2CON
  D:00D0H         PUBLIC        PSW
  -------         PROC          DRV_RELAY_RUN_CHECK
  C:F10AH         LINE#         52
  C:F10AH         LINE#         53
  C:F10AH         LINE#         99
  -------         ENDPROC       DRV_RELAY_RUN_CHECK
  -------         PROC          DRV_RELAY_POWERUP_CHECK
BL51 BANKED LINKER/LOCATER V6.22                                                      03/11/2019  14:45:04  PAGE 144


  C:CB8BH         LINE#         116
  C:CB8BH         LINE#         117
  C:CB8BH         LINE#         119
  C:CB97H         LINE#         120
  C:CBA2H         LINE#         121
  C:CBA9H         LINE#         124
  C:CBB4H         LINE#         125
  C:CBBBH         LINE#         126
  C:CBC6H         LINE#         129
  C:CBDEH         LINE#         130
  C:CBE3H         LINE#         133
  C:CBEDH         LINE#         134
  C:CBEDH         LINE#         135
  C:CBF0H         LINE#         136
  C:CC07H         LINE#         137
  C:CC07H         LINE#         138
  C:CC0CH         LINE#         139
  C:CC12H         LINE#         140
  C:CC20H         LINE#         141
  -------         ENDPROC       DRV_RELAY_POWERUP_CHECK
  -------         PROC          _DRV_RELAY_COMM_CMD_OPERATING
  D:0001H         SYMBOL        ptr_cmd
  -------         DO            
  D:0007H         SYMBOL        u8_cmd
  D:0006H         SYMBOL        u8_sta
  -------         ENDDO         
  C:E3EDH         LINE#         160
  C:E3EDH         LINE#         161
  C:E3EDH         LINE#         164
  C:E3F1H         LINE#         165
  C:E3F8H         LINE#         169
  C:E3FEH         LINE#         171
  C:E401H         LINE#         172
  C:E401H         LINE#         174
  C:E405H         LINE#         175
  C:E409H         LINE#         176
  C:E40AH         LINE#         177
  C:E40AH         LINE#         178
  C:E40CH         LINE#         179
  C:E410H         LINE#         180
  C:E410H         LINE#         182
  C:E416H         LINE#         183
  C:E419H         LINE#         184
  C:E41BH         LINE#         185
  C:E41EH         LINE#         186
  C:E420H         LINE#         188
  C:E420H         LINE#         189
  C:E423H         LINE#         190
  C:E423H         LINE#         192
  C:E431H         LINE#         193
  C:E433H         LINE#         194
  -------         ENDPROC       _DRV_RELAY_COMM_CMD_OPERATING
  -------         ENDMOD        API_RELAY

  -------         MODULE        API_LCD_DISPLAY
  C:0000H         SYMBOL        _ICE_DUMMY_
  C:4E73H         PUBLIC        _api_get_energy_LCD
BL51 BANKED LINKER/LOCATER V6.22                                                      03/11/2019  14:45:04  PAGE 145


  D:0090H         PUBLIC        P1
  C:ED8EH         PUBLIC        Link_Get_Dis_RealChar_buff
  C:03AEH         PUBLIC        _api_chg_LCDDisplay_adj_item
  D:00B0H         PUBLIC        P3
  C:45EEH         PUBLIC        Link_Get_Dis_Data_Num_buff
  D:00A8H         PUBLIC        IE
  D:00B8H         PUBLIC        IP
  C:DCB3H         PUBLIC        default_dis_param_tab
  C:DCC3H         PUBLIC        NumSegD1_D6
  C:6B0EH         PUBLIC        Link_Get_Dis_Drv_buff
  C:B518H         PUBLIC        api_updated_LCDDisplayPixel_per_second
  C:DCD3H         PUBLIC        NumSegD7_D9
  C:E9E6H         PUBLIC        api_init_display
  X:05EEH         PUBLIC        gs_dis_pixel_var
  C:E43CH         PUBLIC        api_get_next_dis_item
  C:B36EH         PUBLIC        api_updated_LCDDisplayItem_per_second
  D:0098H         PUBLIC        SCON
  D:0088H         PUBLIC        TCON
  C:A6BFH         PUBLIC        _Link_Get_DisTab_Var
  C:5241H         PUBLIC        Link_Get_Dis_OBIS_Num_buff
  D:00F0H         PUBLIC        B
  C:EC39H         PUBLIC        api_handl_dis_sleep
  D:00E0H         PUBLIC        ACC
  C:F10BH         PUBLIC        api_updated_LED_per_second
  X:0606H         PUBLIC        gs_dis_ctl_var
  C:DCE3H         PUBLIC        LcdDisTab
  D:0080H         PUBLIC        SysCtrl
  X:0610H         PUBLIC        dis_data_sec
  X:0611H         PUBLIC        dis_data_type
  D:00C8H         PUBLIC        T2CON
  C:90F1H         PUBLIC        _api_LCDDisplay_adj_item
  X:0612H         PUBLIC        gs_dis_param
  C:E645H         PUBLIC        api_handl_dis_key
  X:0622H         PUBLIC        dis_num_char
  X:0623H         PUBLIC        gs_LCDDISTAB_var
  C:B846H         PUBLIC        Link_Get_Dis_Char_buff
  D:00D0H         PUBLIC        PSW
  -------         PROC          API_INIT_DISPLAY
  C:E9E6H         LINE#         105
  C:E9E6H         LINE#         106
  C:E9E6H         LINE#         107
  C:EA00H         LINE#         108
  C:EA06H         LINE#         109
  C:EA09H         LINE#         110
  C:EA0CH         LINE#         111
  C:EA11H         LINE#         112
  C:EA13H         LINE#         113
  C:EA15H         LINE#         114
  C:EA19H         LINE#         115
  -------         ENDPROC       API_INIT_DISPLAY
  -------         PROC          API_HANDL_DIS_KEY
  C:E645H         LINE#         130
  C:E645H         LINE#         131
  C:E645H         LINE#         133
  C:E652H         LINE#         134
  C:E652H         LINE#         135
  C:E658H         LINE#         136
BL51 BANKED LINKER/LOCATER V6.22                                                      03/11/2019  14:45:04  PAGE 146


  C:E672H         LINE#         138
  C:E672H         LINE#         140
  C:E67AH         LINE#         141
  C:E682H         LINE#         143
  -------         ENDPROC       API_HANDL_DIS_KEY
  -------         PROC          API_HANDL_DIS_SLEEP
  C:EC39H         LINE#         157
  C:EC39H         LINE#         158
  C:EC39H         LINE#         159
  C:EC3FH         LINE#         160
  C:EC44H         LINE#         161
  C:EC5EH         LINE#         162
  -------         ENDPROC       API_HANDL_DIS_SLEEP
  -------         PROC          API_UPDATED_LCDDISPLAYPIXEL_PER_SECOND
  C:B518H         LINE#         179
  C:B518H         LINE#         180
  C:B518H         LINE#         181
  C:B52CH         LINE#         182
  C:B540H         LINE#         183
  C:B554H         LINE#         184
  C:B568H         LINE#         187
  C:B578H         LINE#         188
  C:B578H         LINE#         189
  C:B57BH         LINE#         193
  C:B57BH         LINE#         194
  C:B57DH         LINE#         196
  C:B57DH         LINE#         197
  C:B585H         LINE#         198
  C:B585H         LINE#         199
  C:B588H         LINE#         200
  C:B58BH         LINE#         201
  C:B58EH         LINE#         202
  C:B599H         LINE#         203
  C:B59CH         LINE#         204
  C:B59EH         LINE#         206
  C:B59EH         LINE#         207
  C:B5A7H         LINE#         208
  C:B5A7H         LINE#         209
  C:B5AAH         LINE#         210
  C:B5AAH         LINE#         212
  C:B5B0H         LINE#         213
  C:B5B0H         LINE#         214
  C:B5C3H         LINE#         215
  C:B5C5H         LINE#         217
  C:B5C5H         LINE#         218
  C:B5CDH         LINE#         219
  C:B5D0H         LINE#         221
  C:B5D3H         LINE#         222
  C:B5DEH         LINE#         223
  C:B5E1H         LINE#         224
  C:B5E1H         LINE#         226
  C:B5EAH         LINE#         227
  -------         ENDPROC       API_UPDATED_LCDDISPLAYPIXEL_PER_SECOND
  -------         PROC          API_UPDATED_LED_PER_SECOND
  C:F10BH         LINE#         242
  C:F10BH         LINE#         243
  C:F10BH         LINE#         245
BL51 BANKED LINKER/LOCATER V6.22                                                      03/11/2019  14:45:04  PAGE 147


  C:F10BH         LINE#         246
  C:F10BH         LINE#         248
  C:F10BH         LINE#         250
  C:F10BH         LINE#         252
  C:F10BH         LINE#         253
  -------         ENDPROC       API_UPDATED_LED_PER_SECOND
  -------         PROC          API_UPDATED_LCDDISPLAYITEM_PER_SECOND
  C:B36EH         LINE#         268
  C:B36EH         LINE#         269
  C:B36EH         LINE#         270
  C:B37CH         LINE#         271
  C:B37CH         LINE#         272
  C:B37CH         LINE#         273
  C:B382H         LINE#         274
  C:B388H         LINE#         275
  C:B388H         LINE#         276
  C:B38EH         LINE#         277
  C:B396H         LINE#         278
  C:B39BH         LINE#         279
  C:B3AAH         LINE#         280
  C:B3AFH         LINE#         281
  C:B3AFH         LINE#         282
  C:B3B0H         LINE#         284
  C:B3B0H         LINE#         285
  C:B3B8H         LINE#         286
  C:B3B8H         LINE#         288
  C:B3B9H         LINE#         289
  C:B3C2H         LINE#         290
  C:B3C2H         LINE#         291
  C:B3C5H         LINE#         292
  C:B3C5H         LINE#         293
  C:B3CCH         LINE#         294
  C:B3CCH         LINE#         295
  C:B3CFH         LINE#         296
  C:B3D1H         LINE#         298
  C:B3D1H         LINE#         299
  C:B3D7H         LINE#         300
  C:B3D7H         LINE#         302
  C:B3D7H         LINE#         303
  C:B3D7H         LINE#         304
  C:B3D9H         LINE#         305
  C:B3E1H         LINE#         306
  C:B3E1H         LINE#         307
  C:B3E2H         LINE#         308
  C:B3EBH         LINE#         309
  C:B3EBH         LINE#         310
  C:B3EEH         LINE#         311
  C:B3EEH         LINE#         312
  C:B3F5H         LINE#         313
  C:B3F5H         LINE#         314
  C:B3F8H         LINE#         315
  C:B3FAH         LINE#         317
  C:B3FAH         LINE#         318
  C:B400H         LINE#         319
  C:B400H         LINE#         321
  C:B400H         LINE#         322
  C:B408H         LINE#         323
BL51 BANKED LINKER/LOCATER V6.22                                                      03/11/2019  14:45:04  PAGE 148


  C:B409H         LINE#         325
  C:B409H         LINE#         326
  C:B416H         LINE#         327
  C:B416H         LINE#         328
  C:B418H         LINE#         329
  C:B419H         LINE#         331
  C:B419H         LINE#         332
  C:B41FH         LINE#         333
  C:B422H         LINE#         334
  C:B422H         LINE#         335
  C:B422H         LINE#         336
  C:B42AH         LINE#         338
  C:B433H         LINE#         339
  C:B433H         LINE#         340
  C:B435H         LINE#         341
  C:B436H         LINE#         343
  C:B436H         LINE#         344
  C:B43CH         LINE#         345
  C:B43CH         LINE#         346
  C:B43CH         LINE#         347
  C:B43CH         LINE#         348
  C:B43CH         LINE#         349
  C:B43DH         LINE#         351
  C:B43DH         LINE#         352
  C:B443H         LINE#         353
  C:B443H         LINE#         355
  C:B443H         LINE#         356
  -------         ENDPROC       API_UPDATED_LCDDISPLAYITEM_PER_SECOND
  -------         PROC          L?0185
  -------         ENDPROC       L?0185
  -------         PROC          API_GET_NEXT_DIS_ITEM
  -------         DO            
  D:0007H         SYMBOL        item
  -------         ENDDO         
  C:E43CH         LINE#         370
  C:E43CH         LINE#         371
  C:E43CH         LINE#         375
  C:E43EH         LINE#         376
  C:E446H         LINE#         377
  C:E446H         LINE#         378
  C:E44CH         LINE#         379
  C:E45FH         LINE#         380
  C:E45FH         LINE#         381
  C:E464H         LINE#         382
  C:E464H         LINE#         384
  C:E473H         LINE#         385
  C:E478H         LINE#         386
  C:E478H         LINE#         387
  C:E47AH         LINE#         388
  C:E47AH         LINE#         389
  C:E47AH         LINE#         390
  C:E47AH         LINE#         391
  -------         ENDPROC       API_GET_NEXT_DIS_ITEM
  -------         PROC          _LINK_GET_DISTAB_VAR
  D:0007H         SYMBOL        u8_dis_itm
  -------         DO            
  D:0005H         SYMBOL        i
BL51 BANKED LINKER/LOCATER V6.22                                                      03/11/2019  14:45:04  PAGE 149


  D:0006H         SYMBOL        u8_result
  -------         ENDDO         
  C:A6BFH         LINE#         401
  C:A6BFH         LINE#         402
  C:A6BFH         LINE#         404
  C:A6C1H         LINE#         406
  C:A6C7H         LINE#         407
  C:A6C7H         LINE#         408
  C:A6C9H         LINE#         409
  C:A6C9H         LINE#         412
  C:A6CBH         LINE#         413
  C:A6CBH         LINE#         414
  C:A6E1H         LINE#         415
  C:A6E1H         LINE#         416
  C:A6E6H         LINE#         417
  C:A702H         LINE#         418
  C:A71EH         LINE#         419
  C:A73AH         LINE#         420
  C:A74EH         LINE#         421
  C:A762H         LINE#         422
  C:A762H         LINE#         423
  C:A765H         LINE#         424
  C:A765H         LINE#         425
  C:A76EH         LINE#         427
  C:A771H         LINE#         428
  C:A771H         LINE#         429
  C:A777H         LINE#         430
  C:A788H         LINE#         431
  C:A799H         LINE#         432
  C:A7AAH         LINE#         433
  C:A7B3H         LINE#         434
  C:A7B3H         LINE#         435
  C:A7B5H         LINE#         437
  -------         ENDPROC       _LINK_GET_DISTAB_VAR
  -------         PROC          LINK_GET_DIS_OBIS_NUM_BUFF
  -------         DO            
  X:0781H         SYMBOL        u8_len
  X:0782H         SYMBOL        u8_mem_type
  X:0783H         SYMBOL        lib_len
  X:0784H         SYMBOL        u32_tmp
  X:0788H         SYMBOL        buffer
  -------         ENDDO         
  C:5241H         LINE#         448
  C:5241H         LINE#         449
  C:5241H         LINE#         453
  C:524DH         LINE#         455
  C:5255H         LINE#         456
  C:525AH         LINE#         458
  C:5261H         LINE#         459
  C:5261H         LINE#         460
  C:5267H         LINE#         461
  C:5270H         LINE#         462
  C:5273H         LINE#         464
  C:5273H         LINE#         466
  C:5292H         LINE#         467
  C:5292H         LINE#         468
  C:5292H         LINE#         469
BL51 BANKED LINKER/LOCATER V6.22                                                      03/11/2019  14:45:04  PAGE 150


  C:52B4H         LINE#         470
  C:52C5H         LINE#         471
  C:52C8H         LINE#         473
  C:52C8H         LINE#         474
  C:52EAH         LINE#         475
  C:52FBH         LINE#         476
  C:52FBH         LINE#         477
  C:52FEH         LINE#         479
  C:52FEH         LINE#         480
  C:5320H         LINE#         481
  C:5331H         LINE#         482
  C:5331H         LINE#         483
  C:5334H         LINE#         485
  C:5334H         LINE#         486
  C:5356H         LINE#         487
  C:536DH         LINE#         488
  C:5383H         LINE#         489
  C:538AH         LINE#         490
  C:538AH         LINE#         491
  C:53A2H         LINE#         492
  C:53A2H         LINE#         493
  C:53A5H         LINE#         494
  C:53A9H         LINE#         495
  C:53A9H         LINE#         496
  C:53C6H         LINE#         497
  C:53C6H         LINE#         498
  C:53C9H         LINE#         499
  C:53D1H         LINE#         500
  C:53D1H         LINE#         501
  C:53E4H         LINE#         502
  C:53E7H         LINE#         503
  C:53EEH         LINE#         504
  C:53EEH         LINE#         505
  C:5402H         LINE#         506
  C:5404H         LINE#         508
  C:5404H         LINE#         509
  C:5410H         LINE#         510
  C:5410H         LINE#         511
  C:5413H         LINE#         512
  C:5413H         LINE#         513
  C:5435H         LINE#         514
  C:544CH         LINE#         515
  C:5462H         LINE#         516
  C:5469H         LINE#         517
  C:5469H         LINE#         518
  C:5486H         LINE#         519
  C:548DH         LINE#         520
  C:5490H         LINE#         521
  C:5494H         LINE#         522
  C:5494H         LINE#         523
  C:54ADH         LINE#         524
  C:54B4H         LINE#         525
  C:54B6H         LINE#         526
  C:54C0H         LINE#         527
  C:54C0H         LINE#         528
  C:54D4H         LINE#         529
  C:54D6H         LINE#         531
BL51 BANKED LINKER/LOCATER V6.22                                                      03/11/2019  14:45:04  PAGE 151


  C:54D6H         LINE#         532
  C:54E8H         LINE#         533
  C:54E8H         LINE#         534
  C:54EAH         LINE#         537
  C:54EAH         LINE#         538
  C:5510H         LINE#         539
  C:5510H         LINE#         540
  C:5510H         LINE#         548
  C:551AH         LINE#         549
  C:551AH         LINE#         550
  C:551AH         LINE#         551
  C:552BH         LINE#         552
  C:5539H         LINE#         553
  C:5540H         LINE#         554
  C:5542H         LINE#         555
  C:5542H         LINE#         556
  C:5553H         LINE#         557
  C:5561H         LINE#         558
  C:5561H         LINE#         559
  C:5561H         LINE#         560
  C:5561H         LINE#         561
  C:5561H         LINE#         564
  -------         ENDPROC       LINK_GET_DIS_OBIS_NUM_BUFF
  -------         PROC          LINK_GET_DIS_DATA_NUM_BUFF
  -------         DO            
  X:0007H         SYMBOL        buffer
  X:000BH         SYMBOL        temp
  X:0011H         SYMBOL        t
  X:001AH         SYMBOL        rtc_data_tmp
  -------         ENDDO         
  C:45EEH         LINE#         576
  C:45EEH         LINE#         577
  C:45EEH         LINE#         584
  C:45FCH         LINE#         585
  C:45FCH         LINE#         586
  C:4605H         LINE#         588
  C:4615H         LINE#         589
  C:4620H         LINE#         590
  C:4630H         LINE#         591
  C:463BH         LINE#         592
  C:464BH         LINE#         593
  C:4656H         LINE#         594
  C:465CH         LINE#         595
  C:4664H         LINE#         596
  C:4665H         LINE#         598
  C:4665H         LINE#         599
  C:466EH         LINE#         600
  C:466EH         LINE#         602
  C:4686H         LINE#         604
  C:4689H         LINE#         609
  C:469AH         LINE#         610
  C:46A8H         LINE#         611
  C:46B9H         LINE#         612
  C:46C7H         LINE#         613
  C:46D9H         LINE#         614
  C:46E1H         LINE#         615
  C:46E1H         LINE#         616
BL51 BANKED LINKER/LOCATER V6.22                                                      03/11/2019  14:45:04  PAGE 152


  C:46EFH         LINE#         617
  C:46EFH         LINE#         620
  C:46F8H         LINE#         621
  C:4701H         LINE#         622
  C:4701H         LINE#         623
  C:470CH         LINE#         624
  C:470CH         LINE#         627
  C:4725H         LINE#         628
  C:473CH         LINE#         635
  C:474AH         LINE#         636
  C:475BH         LINE#         637
  C:4769H         LINE#         638
  C:477AH         LINE#         639
  C:4788H         LINE#         642
  C:479AH         LINE#         647
  C:47A3H         LINE#         648
  C:47ACH         LINE#         649
  C:47ACH         LINE#         650
  C:47B7H         LINE#         651
  C:47B7H         LINE#         654
  C:47CFH         LINE#         655
  C:47E6H         LINE#         661
  C:47F4H         LINE#         662
  C:4805H         LINE#         663
  C:4813H         LINE#         664
  C:4824H         LINE#         665
  C:4832H         LINE#         668
  C:4844H         LINE#         673
  C:484DH         LINE#         674
  C:4856H         LINE#         675
  C:4856H         LINE#         676
  C:4861H         LINE#         677
  C:4861H         LINE#         680
  C:4879H         LINE#         681
  C:487CH         LINE#         686
  C:488DH         LINE#         687
  C:489BH         LINE#         688
  C:48ACH         LINE#         689
  C:48BAH         LINE#         690
  C:48CCH         LINE#         691
  C:48D4H         LINE#         692
  C:48D4H         LINE#         693
  C:48E2H         LINE#         694
  C:48E2H         LINE#         698
  C:48EBH         LINE#         699
  C:48F4H         LINE#         700
  C:48F4H         LINE#         701
  C:48FFH         LINE#         702
  C:48FFH         LINE#         705
  C:4918H         LINE#         706
  C:492FH         LINE#         712
  C:493DH         LINE#         713
  C:494EH         LINE#         714
  C:495CH         LINE#         715
  C:496DH         LINE#         716
  C:497BH         LINE#         719
  C:498DH         LINE#         724
BL51 BANKED LINKER/LOCATER V6.22                                                      03/11/2019  14:45:04  PAGE 153


  C:4996H         LINE#         725
  C:4998H         LINE#         726
  C:4998H         LINE#         727
  C:49A3H         LINE#         728
  C:49A3H         LINE#         731
  C:49BBH         LINE#         732
  C:49D2H         LINE#         738
  C:49E0H         LINE#         739
  C:49F1H         LINE#         740
  C:49FFH         LINE#         741
  C:4A10H         LINE#         742
  C:4A1EH         LINE#         745
  C:4A2FH         LINE#         750
  C:4A38H         LINE#         751
  C:4A41H         LINE#         752
  C:4A41H         LINE#         753
  C:4A41H         LINE#         754
  -------         ENDPROC       LINK_GET_DIS_DATA_NUM_BUFF
  -------         PROC          LINK_GET_DIS_CHAR_BUFF
  C:B846H         LINE#         763
  C:B846H         LINE#         764
  C:B846H         LINE#         769
  C:B84EH         LINE#         770
  C:B84EH         LINE#         771
  C:B860H         LINE#         772
  C:B860H         LINE#         773
  C:B860H         LINE#         774
  C:B867H         LINE#         775
  C:B869H         LINE#         776
  C:B869H         LINE#         777
  C:B870H         LINE#         778
  C:B872H         LINE#         779
  C:B872H         LINE#         780
  C:B879H         LINE#         781
  C:B87BH         LINE#         782
  C:B87BH         LINE#         783
  C:B882H         LINE#         784
  C:B882H         LINE#         785
  C:B882H         LINE#         786
  C:B882H         LINE#         787
  C:B889H         LINE#         788
  C:B889H         LINE#         789
  C:B890H         LINE#         790
  C:B893H         LINE#         791
  C:B895H         LINE#         793
  C:B895H         LINE#         794
  C:B89EH         LINE#         795
  C:B89EH         LINE#         796
  C:B8A6H         LINE#         797
  C:B8A6H         LINE#         798
  C:B8ADH         LINE#         799
  C:B8ADH         LINE#         800
  C:B8B4H         LINE#         801
  C:B8B6H         LINE#         803
  C:B8B6H         LINE#         808
  C:B8BDH         LINE#         809
  C:B8C2H         LINE#         810
BL51 BANKED LINKER/LOCATER V6.22                                                      03/11/2019  14:45:04  PAGE 154


  C:B8C7H         LINE#         811
  C:B8C7H         LINE#         812
  C:B8C7H         LINE#         813
  C:B8CFH         LINE#         814
  C:B8CFH         LINE#         816
  C:B8CFH         LINE#         817
  C:B8D7H         LINE#         818
  C:B8D7H         LINE#         820
  C:B8D7H         LINE#         824
  C:B8ECH         LINE#         825
  C:B8ECH         LINE#         826
  C:B8ECH         LINE#         827
  C:B8F3H         LINE#         828
  C:B8F4H         LINE#         829
  C:B8F4H         LINE#         830
  C:B8FBH         LINE#         831
  C:B8FCH         LINE#         832
  C:B8FCH         LINE#         833
  C:B903H         LINE#         834
  C:B904H         LINE#         835
  C:B904H         LINE#         836
  C:B90BH         LINE#         837
  C:B90BH         LINE#         838
  C:B90BH         LINE#         839
  C:B90BH         LINE#         840
  C:B90BH         LINE#         843
  -------         ENDPROC       LINK_GET_DIS_CHAR_BUFF
  -------         PROC          LINK_GET_DIS_REALCHAR_BUFF
  C:ED8EH         LINE#         853
  C:ED8EH         LINE#         854
  C:ED8EH         LINE#         856
  C:ED9CH         LINE#         857
  C:EDA6H         LINE#         858
  C:EDA6H         LINE#         859
  C:EDAAH         LINE#         860
  C:EDABH         LINE#         862
  C:EDABH         LINE#         863
  C:EDAFH         LINE#         864
  C:EDAFH         LINE#         865
  -------         ENDPROC       LINK_GET_DIS_REALCHAR_BUFF
  -------         PROC          LINK_GET_DIS_DRV_BUFF
  C:6B0EH         LINE#         876
  C:6B0EH         LINE#         877
  C:6B0EH         LINE#         878
  C:6B20H         LINE#         879
  C:6B30H         LINE#         880
  C:6B40H         LINE#         881
  C:6B50H         LINE#         882
  C:6B60H         LINE#         883
  C:6B70H         LINE#         885
  C:6B80H         LINE#         886
  C:6B90H         LINE#         887
  C:6BA0H         LINE#         891
  C:6BB3H         LINE#         892
  C:6BC1H         LINE#         893
  C:6BD6H         LINE#         894
  C:6BE4H         LINE#         895
BL51 BANKED LINKER/LOCATER V6.22                                                      03/11/2019  14:45:04  PAGE 155


  C:6BF2H         LINE#         896
  C:6C00H         LINE#         897
  C:6C0EH         LINE#         899
  C:6C1FH         LINE#         900
  C:6C2DH         LINE#         901
  C:6C3BH         LINE#         902
  C:6C49H         LINE#         903
  C:6C57H         LINE#         904
  C:6C65H         LINE#         906
  C:6C73H         LINE#         907
  C:6C81H         LINE#         909
  C:6C8FH         LINE#         910
  C:6C96H         LINE#         911
  C:6C96H         LINE#         912
  C:6C9DH         LINE#         913
  C:6CA0H         LINE#         914
  C:6CA5H         LINE#         915
  C:6CA8H         LINE#         916
  C:6CA8H         LINE#         917
  C:6CB9H         LINE#         918
  C:6CC0H         LINE#         919
  C:6CC0H         LINE#         920
  C:6CC7H         LINE#         921
  C:6CCEH         LINE#         922
  C:6CD1H         LINE#         923
  C:6CD1H         LINE#         924
  C:6CDFH         LINE#         925
  C:6CEDH         LINE#         926
  C:6CFBH         LINE#         927
  C:6D09H         LINE#         929
  -------         ENDPROC       LINK_GET_DIS_DRV_BUFF
  -------         PROC          L?0184
  -------         ENDPROC       L?0184
  -------         PROC          _API_GET_ENERGY_LCD
  X:00E6H         SYMBOL        temp
  X:00E9H         SYMBOL        type
  X:00EAH         SYMBOL        result
  -------         DO            
  X:00EDH         SYMBOL        u32_result
  X:00F1H         SYMBOL        BCD_temp
  X:00F5H         SYMBOL        ec_tmp
  -------         ENDDO         
  C:4E73H         LINE#         944
  C:4E81H         LINE#         945
  C:4E81H         LINE#         951
  C:4EA6H         LINE#         953
  C:4EB0H         LINE#         955
  C:4EB7H         LINE#         956
  C:4EB7H         LINE#         957
  C:4EF5H         LINE#         958
  C:4F0CH         LINE#         959
  C:4F0CH         LINE#         961
  C:4F17H         LINE#         962
  C:4F17H         LINE#         964
  C:4F54H         LINE#         965
  C:4F6BH         LINE#         966
  C:4F73H         LINE#         967
BL51 BANKED LINKER/LOCATER V6.22                                                      03/11/2019  14:45:04  PAGE 156


  C:4F7BH         LINE#         968
  C:4F83H         LINE#         971
  C:4F9AH         LINE#         972
  C:4FA9H         LINE#         974
  C:4FA9H         LINE#         975
  C:4FB0H         LINE#         976
  C:4FB0H         LINE#         977
  C:4FEEH         LINE#         978
  C:5005H         LINE#         979
  C:5005H         LINE#         981
  C:5010H         LINE#         982
  C:5010H         LINE#         984
  C:504DH         LINE#         985
  C:5064H         LINE#         986
  C:506CH         LINE#         987
  C:5074H         LINE#         988
  C:507CH         LINE#         991
  C:5093H         LINE#         992
  C:50A2H         LINE#         994
  C:50A2H         LINE#         995
  C:50ADH         LINE#         996
  C:50ADH         LINE#         998
  C:50EAH         LINE#         999
  C:5101H         LINE#         1000
  C:5106H         LINE#         1001
  C:511CH         LINE#         1002
  C:5132H         LINE#         1003
  C:5145H         LINE#         1006
  C:515CH         LINE#         1007
  C:517BH         LINE#         1008
  C:517BH         LINE#         1009
  C:5186H         LINE#         1010
  C:5186H         LINE#         1012
  C:51C3H         LINE#         1013
  C:51DAH         LINE#         1014
  C:51DFH         LINE#         1015
  C:51F5H         LINE#         1016
  C:520BH         LINE#         1017
  C:521EH         LINE#         1018
  C:521EH         LINE#         1020
  -------         ENDPROC       _API_GET_ENERGY_LCD
  -------         PROC          _API_CHG_LCDDISPLAY_ADJ_ITEM
  D:0007H         SYMBOL        u8_item
  C:03AEH         LINE#         1037
  C:03AEH         LINE#         1038
  C:03AEH         LINE#         1039
  C:03BAH         LINE#         1040
  C:03BAH         LINE#         1042
  C:03C0H         LINE#         1043
  C:03C7H         LINE#         1044
  C:03C7H         LINE#         1045
  C:03CAH         LINE#         1046
  C:03CCH         LINE#         1048
  C:03CCH         LINE#         1049
  C:03CFH         LINE#         1050
  C:03CFH         LINE#         1052
  C:03D4H         LINE#         1053
BL51 BANKED LINKER/LOCATER V6.22                                                      03/11/2019  14:45:04  PAGE 157


  C:03D9H         LINE#         1054
  C:03DBH         LINE#         1056
  C:03DBH         LINE#         1058
  C:03E1H         LINE#         1059
  C:03E9H         LINE#         1060
  C:03EEH         LINE#         1061
  C:03FDH         LINE#         1062
  C:03FDH         LINE#         1064
  -------         ENDPROC       _API_CHG_LCDDISPLAY_ADJ_ITEM
  -------         PROC          _API_LCDDISPLAY_ADJ_ITEM
  X:0007H         SYMBOL        u8_item
  -------         DO            
  X:0008H         SYMBOL        adr
  -------         ENDDO         
  C:90F1H         LINE#         1079
  C:90F6H         LINE#         1080
  C:90F6H         LINE#         1082
  C:9103H         LINE#         1083
  C:9103H         LINE#         1085
  C:9103H         LINE#         1087
  C:9117H         LINE#         1088
  C:912BH         LINE#         1089
  C:913FH         LINE#         1092
  C:9156H         LINE#         1093
  C:9156H         LINE#         1094
  C:9156H         LINE#         1095
  C:9156H         LINE#         1096
  C:9156H         LINE#         1097
  C:9156H         LINE#         1098
  C:915FH         LINE#         1099
  C:9163H         LINE#         1100
  C:916CH         LINE#         1101
  C:9170H         LINE#         1102
  C:9176H         LINE#         1103
  C:9178H         LINE#         1105
  C:9178H         LINE#         1106
  C:9178H         LINE#         1107
  C:9178H         LINE#         1108
  C:9178H         LINE#         1109
  C:9181H         LINE#         1110
  C:9185H         LINE#         1111
  C:918EH         LINE#         1112
  C:9192H         LINE#         1113
  C:91A0H         LINE#         1114
  C:91A1H         LINE#         1116
  C:91A1H         LINE#         1117
  C:91AAH         LINE#         1118
  C:91AEH         LINE#         1119
  C:91B2H         LINE#         1120
  C:91B3H         LINE#         1122
  C:91B3H         LINE#         1123
  C:91CDH         LINE#         1124
  C:91DBH         LINE#         1125
  C:91EDH         LINE#         1126
  C:91F8H         LINE#         1127
  C:920AH         LINE#         1128
  C:9215H         LINE#         1129
BL51 BANKED LINKER/LOCATER V6.22                                                      03/11/2019  14:45:04  PAGE 158


  C:9227H         LINE#         1130
  C:9232H         LINE#         1131
  C:9244H         LINE#         1132
  C:924FH         LINE#         1133
  C:9250H         LINE#         1134
  C:9250H         LINE#         1135
  C:9253H         LINE#         1136
  C:9253H         LINE#         1137
  C:9253H         LINE#         1139
  -------         ENDPROC       _API_LCDDISPLAY_ADJ_ITEM
  -------         ENDMOD        API_LCD_DISPLAY

  -------         MODULE        API_USER_COMM
  C:0000H         SYMBOL        _ICE_DUMMY_
  C:0600H         PUBLIC        _IEC_Cmd_Read_Deal
  C:A1B9H         PUBLIC        _api_handl_COMM_pre_10ms
  D:00CEH         PUBLIC        wdt0
  D:0090H         PUBLIC        P1
  D:00CFH         PUBLIC        wdt1
  D:00B0H         PUBLIC        P3
  B:00A8H.7       PUBLIC        EA
  X:0561H         PUBLIC        P_IEC_BUFF
  C:25FFH         PUBLIC        IEC_ComDisTab
  D:00A8H         PUBLIC        IE
  C:1D1DH         PUBLIC        _IEC_Cmd_Write_Deal
  D:00B8H         PUBLIC        IP
  C:B1BEH         PUBLIC        _lnk_tx_comm_ready
  C:E5C7H         PUBLIC        RF_comm_deal
  X:0564H         PUBLIC        g_ch_comm
  X:0565H         PUBLIC        meter_info_IR
  X:0575H         PUBLIC        comm_data
  X:0581H         PUBLIC        Super_mima_iec
  C:8877H         PUBLIC        _get_IEC_comm_var
  X:0589H         PUBLIC        meter_info
  D:0098H         PUBLIC        SCON
  X:0599H         PUBLIC        mima_info
  D:0088H         PUBLIC        TCON
  X:05A3H         PUBLIC        clr_flag
  D:00F0H         PUBLIC        B
  D:00E0H         PUBLIC        ACC
  C:E683H         PUBLIC        _get_meter_id_asclen
  D:0080H         PUBLIC        SysCtrl
  C:AA8AH         PUBLIC        _IEC_Cmd_Password_Deal
  X:05A4H         PUBLIC        gs_uart_iec_app_var
  C:4196H         PUBLIC        _process_iec62056_21
  D:00C8H         PUBLIC        T2CON
  C:EB0DH         PUBLIC        _IEC_Cmd_Break_Deal
  C:F08FH         PUBLIC        SecurityCK
  C:DA3DH         PUBLIC        _api_handl_COMM_FRAME_ERROR
  D:00D0H         PUBLIC        PSW
  -------         PROC          _GET_METER_ID_ASCLEN
  X:00E6H         SYMBOL        Addr
  D:0005H         SYMBOL        numbyte
  -------         DO            
  D:0006H         SYMBOL        i
  D:0007H         SYMBOL        asclen
  -------         ENDDO         
BL51 BANKED LINKER/LOCATER V6.22                                                      03/11/2019  14:45:04  PAGE 159


  C:E683H         LINE#         323
  C:E68EH         LINE#         324
  C:E68EH         LINE#         326
  C:E690H         LINE#         327
  C:E696H         LINE#         328
  C:E696H         LINE#         329
  C:E6B1H         LINE#         330
  C:E6B1H         LINE#         331
  C:E6B2H         LINE#         332
  C:E6B2H         LINE#         333
  C:E6B3H         LINE#         334
  C:E6BAH         LINE#         335
  C:E6BAH         LINE#         336
  C:E6BBH         LINE#         337
  C:E6BBH         LINE#         338
  C:E6BCH         LINE#         339
  C:E6BFH         LINE#         340
  C:E6BFH         LINE#         341
  -------         ENDPROC       _GET_METER_ID_ASCLEN
  -------         PROC          L?0232
  -------         ENDPROC       L?0232
  -------         PROC          _GET_IEC_COMM_VAR
  X:00E6H         SYMBOL        id
  -------         DO            
  X:00EAH         SYMBOL        i
  -------         ENDDO         
  C:8877H         LINE#         352
  C:887DH         LINE#         353
  C:887DH         LINE#         356
  C:88B0H         LINE#         357
  C:88B0H         LINE#         358
  C:88B0H         LINE#         359
  C:88B0H         LINE#         360
  C:88B0H         LINE#         361
  C:88B0H         LINE#         362
  C:88B2H         LINE#         363
  C:88B2H         LINE#         364
  C:88E5H         LINE#         365
  C:88E5H         LINE#         366
  C:88EEH         LINE#         367
  C:88F7H         LINE#         368
  C:88FBH         LINE#         369
  C:88FCH         LINE#         370
  C:88FFH         LINE#         371
  C:88FFH         LINE#         372
  C:8919H         LINE#         373
  C:8919H         LINE#         374
  C:8946H         LINE#         375
  C:8946H         LINE#         376
  C:8975H         LINE#         377
  C:8996H         LINE#         378
  C:89B4H         LINE#         379
  C:89CDH         LINE#         380
  C:89D0H         LINE#         381
  C:89D0H         LINE#         382
  C:89E1H         LINE#         383
  C:89E3H         LINE#         496
BL51 BANKED LINKER/LOCATER V6.22                                                      03/11/2019  14:45:04  PAGE 160


  -------         ENDPROC       _GET_IEC_COMM_VAR
  -------         PROC          SECURITYCK
  -------         DO            
  X:0093H         SYMBOL        secType
  -------         ENDDO         
  C:F08FH         LINE#         506
  C:F08FH         LINE#         507
  C:F08FH         LINE#         509
  C:F099H         LINE#         519
  C:F09BH         LINE#         520
  -------         ENDPROC       SECURITYCK
  -------         PROC          _IEC_CMD_PASSWORD_DEAL
  X:0043H         SYMBOL        sptr
  -------         DO            
  X:0046H         SYMBOL        tmp_8u_01
  X:004AH         SYMBOL        tmp_8u_02
  -------         ENDDO         
  C:AA8AH         LINE#         529
  C:AA95H         LINE#         530
  C:AA95H         LINE#         534
  C:AAB0H         LINE#         536
  C:AACAH         LINE#         537
  C:AAE5H         LINE#         540
  C:AB0DH         LINE#         541
  C:AB0DH         LINE#         542
  C:AB0DH         LINE#         543
  C:AB0DH         LINE#         544
  C:AB0DH         LINE#         545
  C:AB0FH         LINE#         546
  C:AB0FH         LINE#         548
  C:AB0FH         LINE#         549
  C:AB37H         LINE#         550
  C:AB37H         LINE#         551
  C:AB4CH         LINE#         552
  C:AB5AH         LINE#         553
  C:AB6EH         LINE#         554
  C:AB70H         LINE#         555
  C:AB70H         LINE#         556
  C:AB70H         LINE#         557
  C:AB77H         LINE#         558
  C:AB79H         LINE#         559
  -------         ENDPROC       _IEC_CMD_PASSWORD_DEAL
  -------         PROC          _IEC_CMD_READ_DEAL
  X:0043H         SYMBOL        sptr
  -------         DO            
  X:0046H         SYMBOL        i
  D:0007H         SYMBOL        j
  X:0047H         SYMBOL        mem_type
  X:0048H         SYMBOL        data_buff
  X:00C8H         SYMBOL        ptr_adr
  D:0006H         SYMBOL        ctmp1
  X:00CBH         SYMBOL        long_tmp
  X:00CFH         SYMBOL        LPRecStart
  X:00D1H         SYMBOL        LPRecEnd
  X:00D3H         SYMBOL        t
  X:00DDH         SYMBOL        te
  -------         ENDDO         
BL51 BANKED LINKER/LOCATER V6.22                                                      03/11/2019  14:45:04  PAGE 161


  C:0600H         LINE#         569
  C:060BH         LINE#         570
  C:060BH         LINE#         581
  C:0626H         LINE#         583
  C:064EH         LINE#         586
  C:0656H         LINE#         587
  C:0660H         LINE#         589
  C:066DH         LINE#         591
  C:068FH         LINE#         593
  C:06A4H         LINE#         597
  C:06DDH         LINE#         598
  C:06DDH         LINE#         599
  C:06EDH         LINE#         600
  C:06FAH         LINE#         601
  C:06FAH         LINE#         602
  C:0716H         LINE#         603
  C:071AH         LINE#         604
  C:071CH         LINE#         606
  C:071CH         LINE#         610
  C:0721H         LINE#         611
  C:0721H         LINE#         616
  C:073BH         LINE#         617
  C:074BH         LINE#         618
  C:075EH         LINE#         619
  C:0783H         LINE#         620
  C:07B2H         LINE#         621
  C:07C0H         LINE#         623
  C:07C3H         LINE#         624
  C:07C3H         LINE#         627
  C:07FCH         LINE#         628
  C:07FCH         LINE#         629
  C:0829H         LINE#         630
  C:083DH         LINE#         632
  C:0843H         LINE#         633
  C:0843H         LINE#         634
  C:0852H         LINE#         635
  C:0861H         LINE#         636
  C:0861H         LINE#         638
  C:0890H         LINE#         641
  C:0898H         LINE#         643
  C:08B2H         LINE#         644
  C:08C0H         LINE#         645
  C:08D0H         LINE#         646
  C:08F1H         LINE#         647
  C:0908H         LINE#         648
  C:0945H         LINE#         649
  C:0997H         LINE#         650
  C:09A5H         LINE#         651
  C:09A8H         LINE#         653
  C:09A8H         LINE#         656
  C:0A2FH         LINE#         657
  C:0A2FH         LINE#         658
  C:0A2FH         LINE#         659
  C:0A2FH         LINE#         660
  C:0A46H         LINE#         661
  C:0A53H         LINE#         662
  C:0A53H         LINE#         663
BL51 BANKED LINKER/LOCATER V6.22                                                      03/11/2019  14:45:04  PAGE 162


  C:0A55H         LINE#         665
  C:0A55H         LINE#         666
  C:0A55H         LINE#         667
  C:0A5EH         LINE#         668
  C:0A5EH         LINE#         669
  C:0A5EH         LINE#         670
  C:0A60H         LINE#         672
  C:0A60H         LINE#         673
  C:0A69H         LINE#         674
  C:0A69H         LINE#         675
  C:0A69H         LINE#         676
  C:0A6BH         LINE#         678
  C:0A6BH         LINE#         679
  C:0A6BH         LINE#         680
  C:0A74H         LINE#         681
  C:0A74H         LINE#         682
  C:0A74H         LINE#         683
  C:0A76H         LINE#         685
  C:0A76H         LINE#         686
  C:0A8DH         LINE#         687
  C:0AA1H         LINE#         688
  C:0AA1H         LINE#         689
  C:0AA3H         LINE#         691
  C:0AA3H         LINE#         692
  C:0AA3H         LINE#         693
  C:0AB4H         LINE#         694
  C:0AC8H         LINE#         695
  C:0AC8H         LINE#         696
  C:0ACAH         LINE#         698
  C:0ACAH         LINE#         699
  C:0ADBH         LINE#         700
  C:0AF9H         LINE#         701
  C:0AF9H         LINE#         702
  C:0AFBH         LINE#         704
  C:0AFBH         LINE#         705
  C:0B26H         LINE#         706
  C:0B2EH         LINE#         707
  C:0B36H         LINE#         708
  C:0B3EH         LINE#         709
  C:0B46H         LINE#         710
  C:0B4EH         LINE#         711
  C:0B51H         LINE#         712
  C:0B54H         LINE#         713
  C:0B57H         LINE#         714
  C:0B7CH         LINE#         715
  C:0B7FH         LINE#         717
  C:0B7FH         LINE#         718
  C:0BA6H         LINE#         719
  C:0BB6H         LINE#         720
  C:0BBEH         LINE#         721
  C:0BDEH         LINE#         722
  C:0BE1H         LINE#         724
  C:0BE1H         LINE#         725
  C:0C1EH         LINE#         726
  C:0C21H         LINE#         728
  C:0C21H         LINE#         730
  C:0C3AH         LINE#         731
BL51 BANKED LINKER/LOCATER V6.22                                                      03/11/2019  14:45:04  PAGE 163


  C:0C53H         LINE#         732
  C:0C78H         LINE#         734
  C:0C90H         LINE#         735
  C:0CB5H         LINE#         736
  C:0CD3H         LINE#         737
  C:0CF4H         LINE#         738
  C:0CF7H         LINE#         740
  C:0CF7H         LINE#         741
  C:0CF7H         LINE#         742
  C:0CF7H         LINE#         743
  C:0CF7H         LINE#         744
  C:0CFFH         LINE#         745
  C:0D23H         LINE#         746
  C:0D3CH         LINE#         747
  C:0D61H         LINE#         749
  C:0D89H         LINE#         750
  C:0DA6H         LINE#         751
  C:0DC4H         LINE#         752
  C:0DF4H         LINE#         753
  C:0E22H         LINE#         754
  C:0E3EH         LINE#         755
  C:0E40H         LINE#         756
  C:0E40H         LINE#         757
  C:0E51H         LINE#         758
  C:0E51H         LINE#         759
  C:0E68H         LINE#         760
  C:0E68H         LINE#         761
  C:0E6DH         LINE#         762
  C:0E92H         LINE#         765
  C:0EBAH         LINE#         766
  C:0ED7H         LINE#         767
  C:0EF5H         LINE#         768
  C:0F25H         LINE#         769
  C:0F53H         LINE#         770
  C:0F6FH         LINE#         771
  C:0F71H         LINE#         772
  C:0F71H         LINE#         773
  C:0F82H         LINE#         774
  C:0F82H         LINE#         775
  C:0F99H         LINE#         776
  C:0F99H         LINE#         777
  C:0F9EH         LINE#         778
  C:0FC3H         LINE#         780
  C:0FCBH         LINE#         781
  C:0FD3H         LINE#         782
  C:0FDBH         LINE#         783
  C:0FE3H         LINE#         784
  C:0FEBH         LINE#         785
  C:1010H         LINE#         786
  C:1019H         LINE#         787
  C:1019H         LINE#         788
  C:1026H         LINE#         789
  C:1026H         LINE#         790
  C:1050H         LINE#         791
  C:1053H         LINE#         793
  C:1053H         LINE#         795
  C:1059H         LINE#         796
BL51 BANKED LINKER/LOCATER V6.22                                                      03/11/2019  14:45:04  PAGE 164


  C:1059H         LINE#         797
  C:105FH         LINE#         798
  C:105FH         LINE#         801
  C:1069H         LINE#         802
  C:1069H         LINE#         803
  C:1096H         LINE#         804
  C:1099H         LINE#         805
  C:10A3H         LINE#         806
  C:10A3H         LINE#         807
  C:10CCH         LINE#         808
  C:10F7H         LINE#         809
  C:10F9H         LINE#         812
  C:10F9H         LINE#         813
  C:1100H         LINE#         814
  C:1100H         LINE#         815
  C:112BH         LINE#         816
  C:112DH         LINE#         818
  C:112DH         LINE#         819
  C:1154H         LINE#         820
  C:1154H         LINE#         821
  C:1154H         LINE#         823
  C:115AH         LINE#         824
  C:115AH         LINE#         825
  C:1177H         LINE#         826
  C:1190H         LINE#         827
  C:1196H         LINE#         828
  C:1196H         LINE#         832
  C:119DH         LINE#         833
  C:119DH         LINE#         834
  C:11BBH         LINE#         835
  C:11D2H         LINE#         836
  C:11D2H         LINE#         843
  C:11DAH         LINE#         844
  C:11DAH         LINE#         845
  C:11F6H         LINE#         846
  C:120EH         LINE#         847
  C:1210H         LINE#         849
  C:1210H         LINE#         850
  C:1239H         LINE#         851
  C:1239H         LINE#         852
  C:1239H         LINE#         853
  C:1239H         LINE#         856
  C:1253H         LINE#         857
  C:1263H         LINE#         858
  C:1276H         LINE#         859
  C:128DH         LINE#         860
  C:12BCH         LINE#         861
  C:130EH         LINE#         863
  C:1310H         LINE#         864
  -------         ENDPROC       _IEC_CMD_READ_DEAL
  -------         PROC          _IEC_CMD_WRITE_DEAL
  X:0043H         SYMBOL        sptr
  X:0046H         SYMBOL        len
  -------         DO            
  X:0047H         SYMBOL        mem_type
  X:0048H         SYMBOL        data_buff
  D:0007H         SYMBOL        sectemp
BL51 BANKED LINKER/LOCATER V6.22                                                      03/11/2019  14:45:04  PAGE 165


  X:008EH         SYMBOL        i
  X:008FH         SYMBOL        MeterID_LenTmp
  X:0090H         SYMBOL        ptr_adr
  -------         ENDDO         
  C:1D1DH         LINE#         874
  C:1D2BH         LINE#         875
  C:1D2BH         LINE#         883
  C:1D46H         LINE#         885
  C:1D6EH         LINE#         887
  C:1D76H         LINE#         889
  C:1D80H         LINE#         891
  C:1D8EH         LINE#         892
  C:1D91H         LINE#         893
  C:1D98H         LINE#         896
  C:1DB0H         LINE#         897
  C:1DCCH         LINE#         898
  C:1DCCH         LINE#         899
  C:1DECH         LINE#         900
  C:1DEFH         LINE#         901
  C:1DEFH         LINE#         903
  C:1DEFH         LINE#         904
  C:1E03H         LINE#         905
  C:1E06H         LINE#         906
  C:1E06H         LINE#         908
  C:1E1BH         LINE#         911
  C:1EA2H         LINE#         912
  C:1EA2H         LINE#         914
  C:1EA2H         LINE#         915
  C:1ECEH         LINE#         916
  C:1ED6H         LINE#         917
  C:1EDEH         LINE#         918
  C:1EE6H         LINE#         919
  C:1EEEH         LINE#         920
  C:1EF6H         LINE#         921
  C:1EFEH         LINE#         922
  C:1F06H         LINE#         923
  C:1F08H         LINE#         924
  C:1F11H         LINE#         925
  C:1F13H         LINE#         926
  C:1F2DH         LINE#         927
  C:1F34H         LINE#         928
  C:1F37H         LINE#         930
  C:1F3AH         LINE#         932
  C:1F3DH         LINE#         936
  C:1F3DH         LINE#         937
  C:1F48H         LINE#         938
  C:1F4BH         LINE#         939
  C:1F4BH         LINE#         940
  C:1F59H         LINE#         941
  C:1F59H         LINE#         942
  C:1F89H         LINE#         943
  C:1F91H         LINE#         944
  C:1FA4H         LINE#         945
  C:1FAEH         LINE#         946
  C:1FAEH         LINE#         947
  C:1FB6H         LINE#         948
  C:1FCAH         LINE#         949
BL51 BANKED LINKER/LOCATER V6.22                                                      03/11/2019  14:45:04  PAGE 166


  C:1FF6H         LINE#         950
  C:1FF6H         LINE#         951
  C:1FF9H         LINE#         954
  C:1FF9H         LINE#         955
  C:2025H         LINE#         956
  C:203BH         LINE#         957
  C:203BH         LINE#         958
  C:203EH         LINE#         959
  C:203EH         LINE#         960
  C:203EH         LINE#         961
  C:2041H         LINE#         970
  C:2041H         LINE#         971
  C:206DH         LINE#         972
  C:208AH         LINE#         973
  C:208AH         LINE#         974
  C:208DH         LINE#         975
  C:208DH         LINE#         976
  C:20B4H         LINE#         977
  C:20B7H         LINE#         978
  C:20BAH         LINE#         982
  C:20BAH         LINE#         983
  C:20BAH         LINE#         984
  C:20BAH         LINE#         985
  C:20BAH         LINE#         986
  C:20BAH         LINE#         987
  C:20BAH         LINE#         988
  C:20C8H         LINE#         989
  C:20CBH         LINE#         991
  C:20CBH         LINE#         992
  C:20F7H         LINE#         993
  C:20F7H         LINE#         994
  C:2101H         LINE#         995
  C:2101H         LINE#         998
  C:210BH         LINE#         1005
  C:2119H         LINE#         1006
  C:2119H         LINE#         1007
  C:211DH         LINE#         1008
  C:211DH         LINE#         1009
  C:2127H         LINE#         1010
  C:2131H         LINE#         1011
  C:213BH         LINE#         1012
  C:2145H         LINE#         1013
  C:214FH         LINE#         1014
  C:215DH         LINE#         1015
  C:215DH         LINE#         1016
  C:2160H         LINE#         1017
  C:2160H         LINE#         1018
  C:2163H         LINE#         1020
  C:2163H         LINE#         1021
  C:2166H         LINE#         1022
  C:2166H         LINE#         1023
  C:2166H         LINE#         1025
  C:2166H         LINE#         1026
  C:2197H         LINE#         1027
  C:2197H         LINE#         1029
  C:219DH         LINE#         1030
  C:21B5H         LINE#         1031
BL51 BANKED LINKER/LOCATER V6.22                                                      03/11/2019  14:45:04  PAGE 167


  C:21B5H         LINE#         1032
  C:21B7H         LINE#         1033
  C:21E8H         LINE#         1034
  C:21E8H         LINE#         1036
  C:21EDH         LINE#         1037
  C:2204H         LINE#         1038
  C:2207H         LINE#         1039
  C:220AH         LINE#         1041
  C:220AH         LINE#         1042
  C:220DH         LINE#         1043
  C:220DH         LINE#         1044
  C:220DH         LINE#         1046
  C:220DH         LINE#         1047
  C:222AH         LINE#         1048
  C:222AH         LINE#         1049
  C:222DH         LINE#         1050
  C:222DH         LINE#         1051
  C:222FH         LINE#         1053
  C:222FH         LINE#         1054
  C:2232H         LINE#         1055
  C:2232H         LINE#         1056
  C:2232H         LINE#         1058
  C:2232H         LINE#         1059
  C:225EH         LINE#         1060
  C:2267H         LINE#         1061
  C:226AH         LINE#         1062
  C:2271H         LINE#         1063
  C:2271H         LINE#         1064
  C:2273H         LINE#         1066
  C:2273H         LINE#         1069
  C:2290H         LINE#         1070
  C:2290H         LINE#         1071
  C:2293H         LINE#         1072
  C:22A1H         LINE#         1073
  C:22A4H         LINE#         1075
  C:22A4H         LINE#         1076
  C:22A7H         LINE#         1077
  C:22A7H         LINE#         1078
  C:22A7H         LINE#         1081
  C:22A7H         LINE#         1082
  C:22D3H         LINE#         1083
  C:22E8H         LINE#         1084
  C:22F6H         LINE#         1085
  C:22FCH         LINE#         1086
  C:22FFH         LINE#         1088
  C:22FFH         LINE#         1089
  C:232BH         LINE#         1090
  C:2333H         LINE#         1091
  C:2336H         LINE#         1092
  C:2339H         LINE#         1094
  C:2339H         LINE#         1095
  C:2365H         LINE#         1096
  C:2373H         LINE#         1097
  C:239AH         LINE#         1098
  C:23A8H         LINE#         1099
  C:23A8H         LINE#         1100
  C:23A8H         LINE#         1101
BL51 BANKED LINKER/LOCATER V6.22                                                      03/11/2019  14:45:04  PAGE 168


  C:23A9H         LINE#         1102
  C:23ABH         LINE#         1103
  C:23ABH         LINE#         1104
  C:23ABH         LINE#         1107
  C:23ABH         LINE#         1108
  C:23DBH         LINE#         1109
  C:23DBH         LINE#         1110
  C:23E0H         LINE#         1112
  C:23E3H         LINE#         1114
  C:23E3H         LINE#         1115
  C:23E3H         LINE#         1116
  C:23E4H         LINE#         1117
  C:23E6H         LINE#         1118
  C:23E6H         LINE#         1119
  C:23E6H         LINE#         1120
  C:2416H         LINE#         1121
  C:2416H         LINE#         1122
  C:241BH         LINE#         1123
  C:241BH         LINE#         1124
  C:241BH         LINE#         1125
  C:241CH         LINE#         1126
  C:241EH         LINE#         1127
  C:241EH         LINE#         1128
  C:241EH         LINE#         1130
  C:241EH         LINE#         1131
  C:2421H         LINE#         1132
  C:2421H         LINE#         1133
  C:2421H         LINE#         1135
  C:2421H         LINE#         1136
  C:244DH         LINE#         1138
  C:2457H         LINE#         1139
  C:2457H         LINE#         1140
  C:247BH         LINE#         1141
  C:247DH         LINE#         1143
  C:247DH         LINE#         1144
  C:24A1H         LINE#         1145
  C:24A1H         LINE#         1147
  C:24A1H         LINE#         1149
  C:24A1H         LINE#         1153
  C:2506H         LINE#         1155
  C:2506H         LINE#         1157
  C:2509H         LINE#         1158
  C:2509H         LINE#         1162
  C:2525H         LINE#         1163
  C:2525H         LINE#         1164
  C:253CH         LINE#         1165
  C:253CH         LINE#         1167
  C:2558H         LINE#         1168
  C:2558H         LINE#         1169
  C:256FH         LINE#         1170
  C:256FH         LINE#         1172
  C:25B9H         LINE#         1173
  C:25B9H         LINE#         1174
  C:25D3H         LINE#         1175
  C:25D3H         LINE#         1177
  C:25DAH         LINE#         1178
  C:25EEH         LINE#         1179
BL51 BANKED LINKER/LOCATER V6.22                                                      03/11/2019  14:45:04  PAGE 169


  C:25FCH         LINE#         1180
  C:25FEH         LINE#         1181
  -------         ENDPROC       _IEC_CMD_WRITE_DEAL
  -------         PROC          _IEC_CMD_BREAK_DEAL
  D:0001H         SYMBOL        sptr
  C:EB0DH         LINE#         1191
  C:EB0DH         LINE#         1192
  C:EB0DH         LINE#         1194
  C:EB23H         LINE#         1195
  C:EB34H         LINE#         1196
  C:EB37H         LINE#         1197
  C:EB39H         LINE#         1198
  -------         ENDPROC       _IEC_CMD_BREAK_DEAL
  -------         PROC          _LNK_TX_COMM_READY
  X:0002H         SYMBOL        ch
  X:0003H         SYMBOL        start_index
  -------         DO            
  X:0004H         SYMBOL        u16_badu
  -------         ENDDO         
  C:B1BEH         LINE#         1212
  C:B1C8H         LINE#         1213
  C:B1C8H         LINE#         1216
  C:B1E8H         LINE#         1217
  C:B1E8H         LINE#         1218
  C:B1E8H         LINE#         1219
  C:B1E8H         LINE#         1220
  C:B1EAH         LINE#         1221
  C:B1EAH         LINE#         1222
  C:B1F4H         LINE#         1223
  C:B1F6H         LINE#         1224
  C:B1F6H         LINE#         1225
  C:B200H         LINE#         1226
  C:B202H         LINE#         1227
  C:B202H         LINE#         1228
  C:B20CH         LINE#         1229
  C:B20EH         LINE#         1230
  C:B20EH         LINE#         1231
  C:B218H         LINE#         1232
  C:B21AH         LINE#         1233
  C:B21AH         LINE#         1234
  C:B224H         LINE#         1235
  C:B226H         LINE#         1237
  C:B230H         LINE#         1239
  C:B230H         LINE#         1240
  C:B230H         LINE#         1242
  C:B252H         LINE#         1244
  -------         ENDPROC       _LNK_TX_COMM_READY
  -------         PROC          _API_HANDL_COMM_FRAME_ERROR
  X:0036H         SYMBOL        ch
  C:DA3DH         LINE#         1260
  C:DA42H         LINE#         1261
  C:DA42H         LINE#         1262
  C:DA44H         LINE#         1263
  C:DA44H         LINE#         1264
  C:DA5AH         LINE#         1265
  C:DA61H         LINE#         1266
  C:DA69H         LINE#         1267
BL51 BANKED LINKER/LOCATER V6.22                                                      03/11/2019  14:45:04  PAGE 170


  C:DA7DH         LINE#         1268
  C:DA7DH         LINE#         1270
  C:DA85H         LINE#         1271
  C:DA85H         LINE#         1272
  C:DA9AH         LINE#         1273
  C:DAA2H         LINE#         1274
  C:DAA5H         LINE#         1275
  C:DAA8H         LINE#         1276
  C:DAA8H         LINE#         1279
  -------         ENDPROC       _API_HANDL_COMM_FRAME_ERROR
  -------         PROC          _PROCESS_IEC62056_21
  X:0002H         SYMBOL        ch
  -------         DO            
  X:0003H         SYMBOL        buff_size
  X:0004H         SYMBOL        start_index
  X:0005H         SYMBOL        meterID_len
  X:0006H         SYMBOL        tmp_8u_01
  X:0016H         SYMBOL        tmp_8u_02
  -------         ENDDO         
  C:4196H         LINE#         1288
  C:419BH         LINE#         1289
  C:419BH         LINE#         1300
  C:41A3H         LINE#         1302
  C:41BDH         LINE#         1303
  C:41BDH         LINE#         1305
  C:41BDH         LINE#         1307
  C:41CBH         LINE#         1308
  C:41D0H         LINE#         1311
  C:41E5H         LINE#         1312
  C:41E5H         LINE#         1313
  C:41F3H         LINE#         1314
  C:4201H         LINE#         1315
  C:4201H         LINE#         1319
  C:4210H         LINE#         1320
  C:4210H         LINE#         1321
  C:4232H         LINE#         1322
  C:423AH         LINE#         1324
  C:4243H         LINE#         1325
  C:4243H         LINE#         1327
  C:4246H         LINE#         1329
  C:4246H         LINE#         1331
  C:425AH         LINE#         1332
  C:426CH         LINE#         1333
  C:427CH         LINE#         1334
  C:4281H         LINE#         1336
  C:42B5H         LINE#         1337
  C:42B5H         LINE#         1338
  C:42C4H         LINE#         1340
  C:42E0H         LINE#         1341
  C:42E0H         LINE#         1342
  C:42E0H         LINE#         1343
  C:42F6H         LINE#         1344
  C:42F6H         LINE#         1345
  C:42F9H         LINE#         1347
  C:42F9H         LINE#         1348
  C:4313H         LINE#         1349
  C:4323H         LINE#         1350
BL51 BANKED LINKER/LOCATER V6.22                                                      03/11/2019  14:45:04  PAGE 171


  C:433EH         LINE#         1351
  C:437CH         LINE#         1352
  C:437CH         LINE#         1353
  C:4382H         LINE#         1354
  C:4382H         LINE#         1355
  C:43ADH         LINE#         1356
  C:43ADH         LINE#         1357
  C:43B4H         LINE#         1358
  C:43B4H         LINE#         1359
  C:43DFH         LINE#         1360
  C:43DFH         LINE#         1361
  C:43F4H         LINE#         1362
  C:4400H         LINE#         1363
  C:4403H         LINE#         1365
  C:4403H         LINE#         1367
  C:440BH         LINE#         1369
  C:440BH         LINE#         1370
  C:440BH         LINE#         1372
  C:440BH         LINE#         1373
  C:4421H         LINE#         1374
  C:4421H         LINE#         1375
  C:4424H         LINE#         1377
  C:4424H         LINE#         1378
  C:4449H         LINE#         1379
  C:4449H         LINE#         1380
  C:447CH         LINE#         1381
  C:4495H         LINE#         1382
  C:44AAH         LINE#         1383
  C:44BCH         LINE#         1384
  C:44BFH         LINE#         1386
  C:44BFH         LINE#         1387
  C:44D4H         LINE#         1388
  C:44D4H         LINE#         1389
  C:44D4H         LINE#         1390
  C:44D4H         LINE#         1392
  C:44D6H         LINE#         1394
  C:44D6H         LINE#         1395
  C:44ECH         LINE#         1396
  C:44ECH         LINE#         1397
  C:44EFH         LINE#         1399
  C:44EFH         LINE#         1401
  C:4514H         LINE#         1402
  C:4514H         LINE#         1405
  C:452FH         LINE#         1406
  C:4543H         LINE#         1407
  C:4543H         LINE#         1408
  C:4545H         LINE#         1410
  C:4545H         LINE#         1411
  C:4554H         LINE#         1412
  C:4556H         LINE#         1413
  C:4556H         LINE#         1415
  C:4556H         LINE#         1417
  C:4556H         LINE#         1418
  C:456BH         LINE#         1419
  C:456BH         LINE#         1421
  C:4581H         LINE#         1422
  C:4581H         LINE#         1424
BL51 BANKED LINKER/LOCATER V6.22                                                      03/11/2019  14:45:04  PAGE 172


  C:4584H         LINE#         1426
  C:4584H         LINE#         1428
  C:4584H         LINE#         1429
  C:4599H         LINE#         1430
  C:45ABH         LINE#         1431
  C:45BDH         LINE#         1432
  C:45BDH         LINE#         1433
  C:45D5H         LINE#         1434
  C:45D5H         LINE#         1435
  C:45EDH         LINE#         1436
  C:45EDH         LINE#         1437
  -------         ENDPROC       _PROCESS_IEC62056_21
  -------         PROC          _API_HANDL_COMM_PRE_10MS
  X:0001H         SYMBOL        ch
  C:A1B9H         LINE#         1452
  C:A1BEH         LINE#         1453
  C:A1BEH         LINE#         1455
  C:A1C1H         LINE#         1457
  C:A1DFH         LINE#         1458
  C:A1DFH         LINE#         1460
  C:A1E2H         LINE#         1461
  C:A1E2H         LINE#         1463
  C:A20DH         LINE#         1464
  C:A20DH         LINE#         1466
  C:A220H         LINE#         1467
  C:A233H         LINE#         1468
  C:A233H         LINE#         1470
  C:A23EH         LINE#         1471
  C:A23EH         LINE#         1472
  C:A23FH         LINE#         1473
  C:A24DH         LINE#         1474
  C:A250H         LINE#         1475
  C:A25EH         LINE#         1476
  C:A261H         LINE#         1477
  C:A26FH         LINE#         1479
  C:A272H         LINE#         1481
  C:A287H         LINE#         1482
  C:A28AH         LINE#         1483
  C:A298H         LINE#         1484
  C:A29BH         LINE#         1485
  C:A2A9H         LINE#         1487
  C:A2ACH         LINE#         1488
  C:A2BAH         LINE#         1489
  C:A2BFH         LINE#         1490
  C:A2BFH         LINE#         1492
  -------         ENDPROC       _API_HANDL_COMM_PRE_10MS
  -------         PROC          RF_COMM_DEAL
  C:E5C7H         LINE#         1503
  C:E5C7H         LINE#         1504
  C:E5C7H         LINE#         1506
  C:E5CEH         LINE#         1507
  C:E5D3H         LINE#         1508
  C:E5DAH         LINE#         1511
  C:E5E3H         LINE#         1512
  C:E5F1H         LINE#         1513
  C:E5F8H         LINE#         1514
  C:E5FEH         LINE#         1516
BL51 BANKED LINKER/LOCATER V6.22                                                      03/11/2019  14:45:04  PAGE 173


  C:E606H         LINE#         1518
  -------         ENDPROC       RF_COMM_DEAL
  -------         ENDMOD        API_USER_COMM

  -------         MODULE        IEC62056_21
  C:0000H         SYMBOL        _ICE_DUMMY_
  D:0090H         PUBLIC        P1
  C:E947H         PUBLIC        _Get_Bcc_Chk
  D:00B0H         PUBLIC        P3
  C:DD19H         PUBLIC        _IEC_Comm_Acknowledgement_Cmd_Judge
  D:00A8H         PUBLIC        IE
  D:00B8H         PUBLIC        IP
  C:0046H         PUBLIC        _Get_ACK_Answer
  C:9898H         PUBLIC        _IEC_Comm_Command_Cmd_Judge
  D:0098H         PUBLIC        SCON
  D:0088H         PUBLIC        TCON
  D:00F0H         PUBLIC        B
  C:B5EBH         PUBLIC        _Get_IEC_Comm_Operand_Answer
  D:00E0H         PUBLIC        ACC
  C:99C7H         PUBLIC        _IEC_Comm_Request_Cmd_Judge
  D:0080H         PUBLIC        SysCtrl
  C:D00CH         PUBLIC        _Get_IEC_Comm_Request_Cmd_Answer
  C:003EH         PUBLIC        _Get_Error_Answer
  D:00C8H         PUBLIC        T2CON
  D:00D0H         PUBLIC        PSW
  -------         PROC          _IEC_COMM_REQUEST_CMD_JUDGE
  X:0036H         SYMBOL        sptr
  D:0005H         SYMBOL        len
  X:003AH         SYMBOL        id_ptr
  X:003DH         SYMBOL        meter_id_lenth
  -------         DO            
  D:0007H         SYMBOL        i
  -------         ENDDO         
  C:99C7H         LINE#         34
  C:99D2H         LINE#         35
  C:99D2H         LINE#         38
  C:99D7H         LINE#         39
  C:99D7H         LINE#         40
  C:99ECH         LINE#         41
  C:99F9H         LINE#         42
  C:9A06H         LINE#         43
  C:9A13H         LINE#         44
  C:9A20H         LINE#         45
  C:9A23H         LINE#         46
  C:9A23H         LINE#         48
  C:9A23H         LINE#         49
  C:9A38H         LINE#         50
  C:9A45H         LINE#         51
  C:9A51H         LINE#         52
  C:9A51H         LINE#         53
  C:9A83H         LINE#         54
  C:9A83H         LINE#         55
  C:9A86H         LINE#         56
  C:9A86H         LINE#         57
  C:9A89H         LINE#         58
  C:9AACH         LINE#         59
  C:9ACCH         LINE#         60
BL51 BANKED LINKER/LOCATER V6.22                                                      03/11/2019  14:45:04  PAGE 174


  C:9AF1H         LINE#         62
  -------         ENDPROC       _IEC_COMM_REQUEST_CMD_JUDGE
  -------         PROC          _IEC_COMM_ACKNOWLEDGEMENT_CMD_JUDGE
  D:0001H         SYMBOL        sptr
  D:0005H         SYMBOL        len
  C:DD19H         LINE#         81
  C:DD19H         LINE#         82
  C:DD19H         LINE#         83
  C:DD21H         LINE#         85
  C:DD2BH         LINE#         86
  C:DD38H         LINE#         87
  C:DD4DH         LINE#         88
  C:DD60H         LINE#         89
  C:DD6DH         LINE#         90
  C:DD7AH         LINE#         92
  C:DD7CH         LINE#         94
  -------         ENDPROC       _IEC_COMM_ACKNOWLEDGEMENT_CMD_JUDGE
  -------         PROC          _IEC_COMM_COMMAND_CMD_JUDGE
  X:0036H         SYMBOL        sptr
  X:0039H         SYMBOL        len
  -------         DO            
  X:003AH         SYMBOL        u8_a
  -------         ENDDO         
  C:9898H         LINE#         107
  C:98A8H         LINE#         108
  C:98A8H         LINE#         111
  C:98B2H         LINE#         112
  C:98D6H         LINE#         114
  C:9909H         LINE#         117
  C:991FH         LINE#         118
  C:9929H         LINE#         119
  C:9933H         LINE#         120
  C:993DH         LINE#         121
  C:9947H         LINE#         122
  C:9951H         LINE#         123
  C:995BH         LINE#         124
  C:9965H         LINE#         125
  C:996FH         LINE#         127
  C:9980H         LINE#         128
  C:9980H         LINE#         129
  C:9980H         LINE#         130
  C:998EH         LINE#         131
  C:998EH         LINE#         133
  C:998EH         LINE#         135
  C:999CH         LINE#         136
  C:999CH         LINE#         138
  C:999CH         LINE#         139
  C:99ADH         LINE#         140
  C:99ADH         LINE#         143
  C:99ADH         LINE#         145
  C:99ADH         LINE#         146
  C:99AFH         LINE#         147
  C:99AFH         LINE#         153
  C:99AFH         LINE#         154
  C:99C4H         LINE#         155
  -------         ENDPROC       _IEC_COMM_COMMAND_CMD_JUDGE
  -------         PROC          _GET_IEC_COMM_REQUEST_CMD_ANSWER
BL51 BANKED LINKER/LOCATER V6.22                                                      03/11/2019  14:45:04  PAGE 175


  X:0036H         SYMBOL        sptr
  X:0039H         SYMBOL        len
  X:003AH         SYMBOL        info_ptr
  -------         DO            
  D:0007H         SYMBOL        i
  -------         ENDDO         
  C:D00CH         LINE#         176
  C:D01CH         LINE#         177
  C:D01CH         LINE#         180
  C:D021H         LINE#         182
  C:D02DH         LINE#         183
  C:D02DH         LINE#         184
  C:D05BH         LINE#         185
  C:D05EH         LINE#         187
  C:D07DH         LINE#         188
  -------         ENDPROC       _GET_IEC_COMM_REQUEST_CMD_ANSWER
  -------         PROC          _GET_IEC_COMM_OPERAND_ANSWER
  X:0036H         SYMBOL        sptr
  X:0039H         SYMBOL        len
  X:003AH         SYMBOL        info_ptr
  -------         DO            
  D:0007H         SYMBOL        i
  -------         ENDDO         
  C:B5EBH         LINE#         203
  C:B5F9H         LINE#         204
  C:B5F9H         LINE#         207
  C:B609H         LINE#         208
  C:B61CH         LINE#         209
  C:B624H         LINE#         210
  C:B62CH         LINE#         212
  C:B638H         LINE#         213
  C:B638H         LINE#         214
  C:B666H         LINE#         215
  C:B669H         LINE#         217
  C:B688H         LINE#         218
  -------         ENDPROC       _GET_IEC_COMM_OPERAND_ANSWER
  -------         PROC          _GET_ERROR_ANSWER
  D:0001H         SYMBOL        sptr
  C:003EH         LINE#         233
  C:003EH         LINE#         234
  C:003EH         LINE#         235
  -------         ENDPROC       _GET_ERROR_ANSWER
  -------         PROC          _GET_ACK_ANSWER
  D:0001H         SYMBOL        sptr
  C:0046H         LINE#         250
  C:0046H         LINE#         251
  C:0046H         LINE#         252
  -------         ENDPROC       _GET_ACK_ANSWER
  -------         PROC          L?0052
  -------         ENDPROC       L?0052
  -------         PROC          _GET_BCC_CHK
  X:00E6H         SYMBOL        yourBuf
  D:0005H         SYMBOL        StartID
  X:00EAH         SYMBOL        EndID
  -------         DO            
  D:0006H         SYMBOL        i
  D:0007H         SYMBOL        tmp
BL51 BANKED LINKER/LOCATER V6.22                                                      03/11/2019  14:45:04  PAGE 176


  -------         ENDDO         
  C:E947H         LINE#         266
  C:E952H         LINE#         267
  C:E952H         LINE#         271
  C:E954H         LINE#         272
  C:E960H         LINE#         273
  C:E960H         LINE#         274
  C:E975H         LINE#         275
  C:E978H         LINE#         276
  C:E978H         LINE#         277
  -------         ENDPROC       _GET_BCC_CHK
  -------         ENDMOD        IEC62056_21

  -------         MODULE        ?C?FPADD
  C:1318H         PUBLIC        ?C?FPADD
  C:1314H         PUBLIC        ?C?FPSUB
  -------         ENDMOD        ?C?FPADD

  -------         MODULE        ?C?FPMUL
  C:1409H         PUBLIC        ?C?FPMUL
  -------         ENDMOD        ?C?FPMUL

  -------         MODULE        ?C?FPDIV
  C:1512H         PUBLIC        ?C?FPDIV
  -------         ENDMOD        ?C?FPDIV

  -------         MODULE        ?C?FPCMP
  C:15B1H         PUBLIC        ?C?FPCMP
  C:15AFH         PUBLIC        ?C?FPCMP3
  -------         ENDMOD        ?C?FPCMP

  -------         MODULE        ?C?FCAST
  C:1626H         PUBLIC        ?C?FCASTC
  C:1621H         PUBLIC        ?C?FCASTI
  C:161CH         PUBLIC        ?C?FCASTL
  -------         ENDMOD        ?C?FCAST

  -------         MODULE        ?C?CASTF
  C:165AH         PUBLIC        ?C?CASTF
  -------         ENDMOD        ?C?CASTF

  -------         MODULE        ATOF
  C:E35CH         PUBLIC        _ATOF
  -------         ENDMOD        ATOF

  -------         MODULE        SQRT
  C:C194H         PUBLIC        _SQRT
  -------         ENDMOD        SQRT

  -------         MODULE        FLOOR
  C:AB7AH         PUBLIC        _floor
  -------         ENDMOD        FLOOR

  -------         MODULE        ?C?FPNEG
  C:16DBH         PUBLIC        ?C?FPNEG
  -------         ENDMOD        ?C?FPNEG

BL51 BANKED LINKER/LOCATER V6.22                                                      03/11/2019  14:45:04  PAGE 177


  -------         MODULE        ?C?FTNPWR
  C:171CH         PUBLIC        ?C?FTNPWR
  -------         ENDMOD        ?C?FTNPWR

  -------         MODULE        ?C?COPY
  C:182CH         PUBLIC        ?C?COPY
  -------         ENDMOD        ?C?COPY

  -------         MODULE        ?C?CLDPTR
  C:1852H         PUBLIC        ?C?CLDPTR
  -------         ENDMOD        ?C?CLDPTR

  -------         MODULE        ?C?CLDOPTR
  C:186BH         PUBLIC        ?C?CLDOPTR
  -------         ENDMOD        ?C?CLDOPTR

  -------         MODULE        ?C?CILDPTR
  C:1898H         PUBLIC        ?C?CILDPTR
  -------         ENDMOD        ?C?CILDPTR

  -------         MODULE        ?C?CSTPTR
  C:18BAH         PUBLIC        ?C?CSTPTR
  -------         ENDMOD        ?C?CSTPTR

  -------         MODULE        ?C?CSTOPTR
  C:18CCH         PUBLIC        ?C?CSTOPTR
  -------         ENDMOD        ?C?CSTOPTR

  -------         MODULE        ?C?IMUL
  C:18EEH         PUBLIC        ?C?IMUL
  -------         ENDMOD        ?C?IMUL

  -------         MODULE        ?C?UIDIV
  C:1900H         PUBLIC        ?C?UIDIV
  -------         ENDMOD        ?C?UIDIV

  -------         MODULE        ?C?SIDIV
  C:1955H         PUBLIC        ?C?SIDIV
  -------         ENDMOD        ?C?SIDIV

  -------         MODULE        ?C?IILDX
  C:198BH         PUBLIC        ?C?IILDX
  -------         ENDMOD        ?C?IILDX

  -------         MODULE        ?C?ILDIX
  C:19A1H         PUBLIC        ?C?ILDIX
  -------         ENDMOD        ?C?ILDIX

  -------         MODULE        ?C?ISTPTR
  C:19B7H         PUBLIC        ?C?ISTPTR
  -------         ENDMOD        ?C?ISTPTR

  -------         MODULE        ?C?LMUL
  C:19D6H         PUBLIC        ?C?LMUL
  -------         ENDMOD        ?C?LMUL

  -------         MODULE        ?C?ULDIV
BL51 BANKED LINKER/LOCATER V6.22                                                      03/11/2019  14:45:04  PAGE 178


  C:1A61H         PUBLIC        ?C?ULDIV
  -------         ENDMOD        ?C?ULDIV

  -------         MODULE        ?C?SLDIV
  C:E47BH         PUBLIC        ?C?SLDIV
  -------         ENDMOD        ?C?SLDIV

  -------         MODULE        ?C?LNOT
  C:1AF3H         PUBLIC        ?C?LNOT
  -------         ENDMOD        ?C?LNOT

  -------         MODULE        ?C?LNEG
  C:1B00H         PUBLIC        ?C?LNEG
  -------         ENDMOD        ?C?LNEG

  -------         MODULE        ?C?SLCMP
  C:1B0EH         PUBLIC        ?C?SLCMP
  -------         ENDMOD        ?C?SLCMP

  -------         MODULE        ?C?ULCMP
  C:1B24H         PUBLIC        ?C?ULCMP
  -------         ENDMOD        ?C?ULCMP

  -------         MODULE        ?C?ULSHR
  C:1B35H         PUBLIC        ?C?ULSHR
  -------         ENDMOD        ?C?ULSHR

  -------         MODULE        ?C?LSHL
  C:1B48H         PUBLIC        ?C?LSHL
  -------         ENDMOD        ?C?LSHL

  -------         MODULE        ?C?LLDPTR
  C:1B5BH         PUBLIC        ?C?LLDPTR
  -------         ENDMOD        ?C?LLDPTR

  -------         MODULE        ?C?LLDXDATA
  C:1B7BH         PUBLIC        ?C?LLDXDATA
  -------         ENDMOD        ?C?LLDXDATA

  -------         MODULE        ?C?LLDCODE
  C:1B87H         PUBLIC        ?C?LLDCODE
  -------         ENDMOD        ?C?LLDCODE

  -------         MODULE        ?C?LLDCODE0
  C:1B97H         PUBLIC        ?C?LLDCODE0
  -------         ENDMOD        ?C?LLDCODE0

  -------         MODULE        ?C?LSTXDATA
  C:1BA7H         PUBLIC        ?C?LSTXDATA
  -------         ENDMOD        ?C?LSTXDATA

  -------         MODULE        ?C?LSTKXDATA
  C:1BB3H         PUBLIC        ?C?LSTKXDATA
  -------         ENDMOD        ?C?LSTKXDATA

  -------         MODULE        ?C?OFFXADD
  C:1BE4H         PUBLIC        ?C?OFFXADD
BL51 BANKED LINKER/LOCATER V6.22                                                      03/11/2019  14:45:04  PAGE 179


  -------         ENDMOD        ?C?OFFXADD

  -------         MODULE        ?C?PLDIXDATA
  C:1BF0H         PUBLIC        ?C?PLDIXDATA
  -------         ENDMOD        ?C?PLDIXDATA

  -------         MODULE        ?C?PSTXDATA
  C:1C07H         PUBLIC        ?C?PSTXDATA
  -------         ENDMOD        ?C?PSTXDATA

  -------         MODULE        ?C?PSTPTR
  C:1C10H         PUBLIC        ?C?PSTPTR
  -------         ENDMOD        ?C?PSTPTR

  -------         MODULE        ?C?ICASE
  C:1C5FH         PUBLIC        ?C?ICASE
  -------         ENDMOD        ?C?ICASE

  -------         MODULE        ?C?LCASE
  C:1C8CH         PUBLIC        ?C?LCASE
  -------         ENDMOD        ?C?LCASE

  -------         MODULE        ?C?LIMUL
  C:1CC6H         PUBLIC        ?C?LIMUL
  -------         ENDMOD        ?C?LIMUL

  -------         MODULE        ISSPACE
  C:F03AH         PUBLIC        _isspace
  -------         ENDMOD        ISSPACE

  -------         MODULE        ?C?LLDIDATA
  C:1CF3H         PUBLIC        ?C?LLDIDATA
  -------         ENDMOD        ?C?LLDIDATA

  -------         MODULE        ?C?LLDPDATA
  C:1CFFH         PUBLIC        ?C?LLDPDATA
  -------         ENDMOD        ?C?LLDPDATA

  -------         MODULE        ?C?PSTIDATA
  C:1D0BH         PUBLIC        ?C?PSTIDATA
  -------         ENDMOD        ?C?PSTIDATA

  -------         MODULE        ?C?PSTPDATA
  C:1D14H         PUBLIC        ?C?PSTPDATA
  -------         ENDMOD        ?C?PSTPDATA

*** WARNING L1: UNRESOLVED EXTERNAL SYMBOL
    SYMBOL:  _READRACCOON
    MODULE:  .\Lnk_EMU_Adj.obj (LNK_EMU_ADJ)

*** WARNING L1: UNRESOLVED EXTERNAL SYMBOL
    SYMBOL:  _WRITERACCOON
    MODULE:  .\Lnk_EMU_Adj.obj (LNK_EMU_ADJ)

*** WARNING L1: UNRESOLVED EXTERNAL SYMBOL
    SYMBOL:  ?_WRITERACCOON?BYTE
    MODULE:  .\Lnk_EMU_Adj.obj (LNK_EMU_ADJ)
BL51 BANKED LINKER/LOCATER V6.22                                                      03/11/2019  14:45:04  PAGE 180



*** WARNING L1: UNRESOLVED EXTERNAL SYMBOL
    SYMBOL:  GS_RACCTRL
    MODULE:  .\Lnk_EMU_Adj.obj (LNK_EMU_ADJ)

*** WARNING L2: REFERENCE MADE TO UNRESOLVED EXTERNAL
    SYMBOL:  _READRACCOON
    MODULE:  .\Lnk_EMU_Adj.obj (LNK_EMU_ADJ)
    ADDRESS: 8BC8H

*** WARNING L2: REFERENCE MADE TO UNRESOLVED EXTERNAL
    SYMBOL:  GS_RACCTRL
    MODULE:  .\Lnk_EMU_Adj.obj (LNK_EMU_ADJ)
    ADDRESS: 8BD6H

*** WARNING L2: REFERENCE MADE TO UNRESOLVED EXTERNAL
    SYMBOL:  GS_RACCTRL
    MODULE:  .\Lnk_EMU_Adj.obj (LNK_EMU_ADJ)
    ADDRESS: 8BD8H

*** WARNING L2: REFERENCE MADE TO UNRESOLVED EXTERNAL
    SYMBOL:  _READRACCOON
    MODULE:  .\Lnk_EMU_Adj.obj (LNK_EMU_ADJ)
    ADDRESS: 8D31H

*** WARNING L2: REFERENCE MADE TO UNRESOLVED EXTERNAL
    SYMBOL:  GS_RACCTRL
    MODULE:  .\Lnk_EMU_Adj.obj (LNK_EMU_ADJ)
    ADDRESS: 8D3FH

*** WARNING L2: REFERENCE MADE TO UNRESOLVED EXTERNAL
    SYMBOL:  GS_RACCTRL
    MODULE:  .\Lnk_EMU_Adj.obj (LNK_EMU_ADJ)
    ADDRESS: 8D41H

*** WARNING L2: REFERENCE MADE TO UNRESOLVED EXTERNAL
    SYMBOL:  ?_WRITERACCOON?BYTE
    MODULE:  .\Lnk_EMU_Adj.obj (LNK_EMU_ADJ)
    ADDRESS: A00BH

*** WARNING L2: REFERENCE MADE TO UNRESOLVED EXTERNAL
    SYMBOL:  _WRITERACCOON
    MODULE:  .\Lnk_EMU_Adj.obj (LNK_EMU_ADJ)
    ADDRESS: A018H

*** WARNING L2: REFERENCE MADE TO UNRESOLVED EXTERNAL
    SYMBOL:  ?_WRITERACCOON?BYTE
    MODULE:  .\Lnk_EMU_Adj.obj (LNK_EMU_ADJ)
    ADDRESS: A029H

*** WARNING L2: REFERENCE MADE TO UNRESOLVED EXTERNAL
    SYMBOL:  _WRITERACCOON
    MODULE:  .\Lnk_EMU_Adj.obj (LNK_EMU_ADJ)
    ADDRESS: A036H

*** WARNING L2: REFERENCE MADE TO UNRESOLVED EXTERNAL
    SYMBOL:  ?_WRITERACCOON?BYTE
BL51 BANKED LINKER/LOCATER V6.22                                                      03/11/2019  14:45:04  PAGE 181


    MODULE:  .\Lnk_EMU_Adj.obj (LNK_EMU_ADJ)
    ADDRESS: B494H

*** WARNING L2: REFERENCE MADE TO UNRESOLVED EXTERNAL
    SYMBOL:  _WRITERACCOON
    MODULE:  .\Lnk_EMU_Adj.obj (LNK_EMU_ADJ)
    ADDRESS: B4A1H

*** WARNING L2: REFERENCE MADE TO UNRESOLVED EXTERNAL
    SYMBOL:  ?_WRITERACCOON?BYTE
    MODULE:  .\Lnk_EMU_Adj.obj (LNK_EMU_ADJ)
    ADDRESS: 74D0H

*** WARNING L2: REFERENCE MADE TO UNRESOLVED EXTERNAL
    SYMBOL:  _WRITERACCOON
    MODULE:  .\Lnk_EMU_Adj.obj (LNK_EMU_ADJ)
    ADDRESS: 74E3H

*** WARNING L2: REFERENCE MADE TO UNRESOLVED EXTERNAL
    SYMBOL:  _READRACCOON
    MODULE:  .\Lnk_EMU_Adj.obj (LNK_EMU_ADJ)
    ADDRESS: 328CH

*** WARNING L2: REFERENCE MADE TO UNRESOLVED EXTERNAL
    SYMBOL:  GS_RACCTRL
    MODULE:  .\Lnk_EMU_Adj.obj (LNK_EMU_ADJ)
    ADDRESS: 329AH

*** WARNING L2: REFERENCE MADE TO UNRESOLVED EXTERNAL
    SYMBOL:  GS_RACCTRL
    MODULE:  .\Lnk_EMU_Adj.obj (LNK_EMU_ADJ)
    ADDRESS: 329CH

*** WARNING L2: REFERENCE MADE TO UNRESOLVED EXTERNAL
    SYMBOL:  _READRACCOON
    MODULE:  .\Lnk_EMU_Adj.obj (LNK_EMU_ADJ)
    ADDRESS: 33BDH

*** WARNING L2: REFERENCE MADE TO UNRESOLVED EXTERNAL
    SYMBOL:  GS_RACCTRL
    MODULE:  .\Lnk_EMU_Adj.obj (LNK_EMU_ADJ)
    ADDRESS: 33CBH

*** WARNING L2: REFERENCE MADE TO UNRESOLVED EXTERNAL
    SYMBOL:  GS_RACCTRL
    MODULE:  .\Lnk_EMU_Adj.obj (LNK_EMU_ADJ)
    ADDRESS: 33CDH

*** WARNING L1: UNRESOLVED EXTERNAL SYMBOL
    SYMBOL:  _READRACCOON
    MODULE:  .\Lnk_EMU_handl.obj (LNK_EMU_HANDL)

*** WARNING L1: UNRESOLVED EXTERNAL SYMBOL
    SYMBOL:  GS_RACCTRL
    MODULE:  .\Lnk_EMU_handl.obj (LNK_EMU_HANDL)

*** WARNING L2: REFERENCE MADE TO UNRESOLVED EXTERNAL
BL51 BANKED LINKER/LOCATER V6.22                                                      03/11/2019  14:45:04  PAGE 182


    SYMBOL:  _READRACCOON
    MODULE:  .\Lnk_EMU_handl.obj (LNK_EMU_HANDL)
    ADDRESS: 8FF4H

*** WARNING L2: REFERENCE MADE TO UNRESOLVED EXTERNAL
    SYMBOL:  GS_RACCTRL
    MODULE:  .\Lnk_EMU_handl.obj (LNK_EMU_HANDL)
    ADDRESS: 9002H

*** WARNING L2: REFERENCE MADE TO UNRESOLVED EXTERNAL
    SYMBOL:  GS_RACCTRL
    MODULE:  .\Lnk_EMU_handl.obj (LNK_EMU_HANDL)
    ADDRESS: 9004H

*** WARNING L2: REFERENCE MADE TO UNRESOLVED EXTERNAL
    SYMBOL:  _READRACCOON
    MODULE:  .\Lnk_EMU_handl.obj (LNK_EMU_HANDL)
    ADDRESS: 6D2AH

*** WARNING L2: REFERENCE MADE TO UNRESOLVED EXTERNAL
    SYMBOL:  GS_RACCTRL
    MODULE:  .\Lnk_EMU_handl.obj (LNK_EMU_HANDL)
    ADDRESS: 6D38H

*** WARNING L2: REFERENCE MADE TO UNRESOLVED EXTERNAL
    SYMBOL:  GS_RACCTRL
    MODULE:  .\Lnk_EMU_handl.obj (LNK_EMU_HANDL)
    ADDRESS: 6D3AH

*** WARNING L2: REFERENCE MADE TO UNRESOLVED EXTERNAL
    SYMBOL:  _READRACCOON
    MODULE:  .\Lnk_EMU_handl.obj (LNK_EMU_HANDL)
    ADDRESS: 6DDCH

*** WARNING L2: REFERENCE MADE TO UNRESOLVED EXTERNAL
    SYMBOL:  GS_RACCTRL
    MODULE:  .\Lnk_EMU_handl.obj (LNK_EMU_HANDL)
    ADDRESS: 6DEAH

*** WARNING L2: REFERENCE MADE TO UNRESOLVED EXTERNAL
    SYMBOL:  GS_RACCTRL
    MODULE:  .\Lnk_EMU_handl.obj (LNK_EMU_HANDL)
    ADDRESS: 6DECH

*** WARNING L2: REFERENCE MADE TO UNRESOLVED EXTERNAL
    SYMBOL:  _READRACCOON
    MODULE:  .\Lnk_EMU_handl.obj (LNK_EMU_HANDL)
    ADDRESS: B11EH

*** WARNING L2: REFERENCE MADE TO UNRESOLVED EXTERNAL
    SYMBOL:  GS_RACCTRL
    MODULE:  .\Lnk_EMU_handl.obj (LNK_EMU_HANDL)
    ADDRESS: B12EH

*** WARNING L2: REFERENCE MADE TO UNRESOLVED EXTERNAL
    SYMBOL:  GS_RACCTRL
    MODULE:  .\Lnk_EMU_handl.obj (LNK_EMU_HANDL)
BL51 BANKED LINKER/LOCATER V6.22                                                      03/11/2019  14:45:04  PAGE 183


    ADDRESS: B130H

*** WARNING L2: REFERENCE MADE TO UNRESOLVED EXTERNAL
    SYMBOL:  _READRACCOON
    MODULE:  .\Lnk_EMU_handl.obj (LNK_EMU_HANDL)
    ADDRESS: 3C19H

*** WARNING L2: REFERENCE MADE TO UNRESOLVED EXTERNAL
    SYMBOL:  GS_RACCTRL
    MODULE:  .\Lnk_EMU_handl.obj (LNK_EMU_HANDL)
    ADDRESS: 3C29H

*** WARNING L2: REFERENCE MADE TO UNRESOLVED EXTERNAL
    SYMBOL:  GS_RACCTRL
    MODULE:  .\Lnk_EMU_handl.obj (LNK_EMU_HANDL)
    ADDRESS: 3C2BH

*** WARNING L2: REFERENCE MADE TO UNRESOLVED EXTERNAL
    SYMBOL:  _READRACCOON
    MODULE:  .\Lnk_EMU_handl.obj (LNK_EMU_HANDL)
    ADDRESS: 7BF5H

*** WARNING L2: REFERENCE MADE TO UNRESOLVED EXTERNAL
    SYMBOL:  GS_RACCTRL
    MODULE:  .\Lnk_EMU_handl.obj (LNK_EMU_HANDL)
    ADDRESS: 7C03H

*** WARNING L2: REFERENCE MADE TO UNRESOLVED EXTERNAL
    SYMBOL:  GS_RACCTRL
    MODULE:  .\Lnk_EMU_handl.obj (LNK_EMU_HANDL)
    ADDRESS: 7C05H

*** WARNING L1: UNRESOLVED EXTERNAL SYMBOL
    SYMBOL:  _SX1276_TXPACKET
    MODULE:  .\Drv_UART.obj (DRV_UART)

*** WARNING L1: UNRESOLVED EXTERNAL SYMBOL
    SYMBOL:  RX_MODE
    MODULE:  .\Drv_UART.obj (DRV_UART)

*** WARNING L1: UNRESOLVED EXTERNAL SYMBOL
    SYMBOL:  GS_RACCTRL
    MODULE:  .\Drv_UART.obj (DRV_UART)

*** WARNING L1: UNRESOLVED EXTERNAL SYMBOL
    SYMBOL:  G_LORACONFIG
    MODULE:  .\Drv_UART.obj (DRV_UART)

*** WARNING L2: REFERENCE MADE TO UNRESOLVED EXTERNAL
    SYMBOL:  G_LORACONFIG
    MODULE:  .\Drv_UART.obj (DRV_UART)
    ADDRESS: 7B62H

*** WARNING L2: REFERENCE MADE TO UNRESOLVED EXTERNAL
    SYMBOL:  _SX1276_TXPACKET
    MODULE:  .\Drv_UART.obj (DRV_UART)
    ADDRESS: 7B79H
BL51 BANKED LINKER/LOCATER V6.22                                                      03/11/2019  14:45:04  PAGE 184



*** WARNING L2: REFERENCE MADE TO UNRESOLVED EXTERNAL
    SYMBOL:  RX_MODE
    MODULE:  .\Drv_UART.obj (DRV_UART)
    ADDRESS: 7B7CH

*** WARNING L2: REFERENCE MADE TO UNRESOLVED EXTERNAL
    SYMBOL:  GS_RACCTRL
    MODULE:  .\Drv_UART.obj (DRV_UART)
    ADDRESS: E0FFH

*** WARNING L2: REFERENCE MADE TO UNRESOLVED EXTERNAL
    SYMBOL:  GS_RACCTRL
    MODULE:  .\Drv_UART.obj (DRV_UART)
    ADDRESS: E111H

*** WARNING L2: REFERENCE MADE TO UNRESOLVED EXTERNAL
    SYMBOL:  GS_RACCTRL
    MODULE:  .\Drv_UART.obj (DRV_UART)
    ADDRESS: E117H

*** WARNING L2: REFERENCE MADE TO UNRESOLVED EXTERNAL
    SYMBOL:  GS_RACCTRL
    MODULE:  .\Drv_UART.obj (DRV_UART)
    ADDRESS: E130H

*** WARNING L2: REFERENCE MADE TO UNRESOLVED EXTERNAL
    SYMBOL:  GS_RACCTRL
    MODULE:  .\Drv_UART.obj (DRV_UART)
    ADDRESS: E137H

*** WARNING L2: REFERENCE MADE TO UNRESOLVED EXTERNAL
    SYMBOL:  GS_RACCTRL
    MODULE:  .\Drv_UART.obj (DRV_UART)
    ADDRESS: E13DH

*** WARNING L2: REFERENCE MADE TO UNRESOLVED EXTERNAL
    SYMBOL:  GS_RACCTRL
    MODULE:  .\Drv_UART.obj (DRV_UART)
    ADDRESS: E147H

*** WARNING L1: UNRESOLVED EXTERNAL SYMBOL
    SYMBOL:  RX_MODE
    MODULE:  .\Api_User_Comm.obj (API_USER_COMM)

*** WARNING L1: UNRESOLVED EXTERNAL SYMBOL
    SYMBOL:  SX127X_INIT
    MODULE:  .\Api_User_Comm.obj (API_USER_COMM)

*** WARNING L1: UNRESOLVED EXTERNAL SYMBOL
    SYMBOL:  _LSD_RF_RXPACKET
    MODULE:  .\Api_User_Comm.obj (API_USER_COMM)

*** WARNING L1: UNRESOLVED EXTERNAL SYMBOL
    SYMBOL:  G_LORACONFIG
    MODULE:  .\Api_User_Comm.obj (API_USER_COMM)

BL51 BANKED LINKER/LOCATER V6.22                                                      03/11/2019  14:45:04  PAGE 185


*** WARNING L2: REFERENCE MADE TO UNRESOLVED EXTERNAL
    SYMBOL:  SX127X_INIT
    MODULE:  .\Api_User_Comm.obj (API_USER_COMM)
    ADDRESS: DAA3H

*** WARNING L2: REFERENCE MADE TO UNRESOLVED EXTERNAL
    SYMBOL:  RX_MODE
    MODULE:  .\Api_User_Comm.obj (API_USER_COMM)
    ADDRESS: DAA6H

*** WARNING L2: REFERENCE MADE TO UNRESOLVED EXTERNAL
    SYMBOL:  _LSD_RF_RXPACKET
    MODULE:  .\Api_User_Comm.obj (API_USER_COMM)
    ADDRESS: E5E1H

*** WARNING L2: REFERENCE MADE TO UNRESOLVED EXTERNAL
    SYMBOL:  G_LORACONFIG
    MODULE:  .\Api_User_Comm.obj (API_USER_COMM)
    ADDRESS: E5FFH

Program Size: data=19.6 xdata=2048 code=61708
LINK/LOCATE RUN COMPLETE.  66 WARNING(S),  0 ERROR(S)
