BL51 BANKED LINKER/LOCATER V6.22                                                        03/05/2019  13:48:08  PAGE 1


BL51 BANKED LINKER/LOCATER V6.22, INVOKED BY:
C:\KEIL\C51\BIN\BL51.EXE .\STARTUP.obj, .\main.obj, .\Proc_Data.obj, .\Proc_EXmem.obj, .\Proc_System_Check.obj, .\Proc_S
>> ystem_Initialize.obj, .\Proc_System_Interrupt.obj, .\Proc_System_Tou.obj, .\Drv_E2P_24CXXX.obj, .\Drv_E2P_i2cSoft.obj
>> , .\Drv_EMU_hard.obj, .\Lnk_EMU_Adj.obj, .\Lnk_EMU_handl.obj, .\Drv_ADC.obj, .\Drv_core.obj, .\Drv_GPIO.obj, .\Drv_KE
>> Y_IO.obj, .\Drv_LCD.obj, .\Drv_RTC.obj, .\Drv_TMR.obj, .\Drv_UART.obj, .\Lib_myMath.obj, .\Lib_mySpring.obj, .\Lib_my
>> Timer.obj, .\Api_AdjErr.obj, .\Api_Bill_Record.obj, .\Api_Demand.obj, .\Api_Energy.obj, .\Api_Event.obj, .\Api_LoadPr
>> ofile.obj, .\Api_Measure.obj, .\Api_Triff.obj, .\API_Relay.obj, .\Api_Lcd_Display.obj, .\Api_User_Comm.obj, .\IEC6205
>> 6_21.obj TO DI03B_9811A_V10 RAMSIZE (256) DISABLEWARNING (16) CODE (0X0000-0XFFFE) XDATA (0X0000-0X0F7E)


MEMORY MODEL: LARGE WITH FLOATING POINT ARITHMETIC


INPUT MODULES INCLUDED:
  .\STARTUP.obj (?C_STARTUP)
  .\main.obj (MAIN)
  .\Proc_Data.obj (PROC_DATA)
  .\Proc_EXmem.obj (PROC_EXMEM)
  .\Proc_System_Check.obj (PROC_SYSTEM_CHECK)
  .\Proc_System_Initialize.obj (PROC_SYSTEM_INITIALIZE)
  .\Proc_System_Interrupt.obj (PROC_SYSTEM_INTERRUPT)
  .\Proc_System_Tou.obj (PROC_SYSTEM_TOU)
  .\Drv_E2P_24CXXX.obj (DRV_E2P_24CXXX)
  .\Drv_E2P_i2cSoft.obj (DRV_E2P_I2CSOFT)
  .\Drv_EMU_hard.obj (DRV_EMU_HARD)
  .\Lnk_EMU_Adj.obj (LNK_EMU_ADJ)
  .\Lnk_EMU_handl.obj (LNK_EMU_HANDL)
  .\Drv_ADC.obj (DRV_ADC)
  .\Drv_core.obj (DRV_CORE)
  .\Drv_GPIO.obj (DRV_GPIO)
  .\Drv_KEY_IO.obj (DRV_KEY_IO)
  .\Drv_LCD.obj (DRV_LCD)
  .\Drv_RTC.obj (DRV_RTC)
  .\Drv_TMR.obj (DRV_TMR)
  .\Drv_UART.obj (DRV_UART)
  .\Lib_myMath.obj (LIB_MYMATH)
  .\Lib_mySpring.obj (LIB_MYSPRING)
  .\Lib_myTimer.obj (LIB_MYTIMER)
  .\Api_AdjErr.obj (API_ADJERR)
  .\Api_Bill_Record.obj (API_BILL_RECORD)
  .\Api_Demand.obj (API_DEMAND)
  .\Api_Energy.obj (API_ENERGY)
  .\Api_Event.obj (API_EVENT)
  .\Api_LoadProfile.obj (API_LOADPROFILE)
  .\Api_Measure.obj (API_MEASURE)
  .\Api_Triff.obj (API_TRIFF)
  .\API_Relay.obj (API_RELAY)
  .\Api_Lcd_Display.obj (API_LCD_DISPLAY)
  .\Api_User_Comm.obj (API_USER_COMM)
  .\IEC62056_21.obj (IEC62056_21)
  C:\KEIL\C51\LIB\C51FPL.LIB (?C?FPADD)
  C:\KEIL\C51\LIB\C51FPL.LIB (?C?FPMUL)
  C:\KEIL\C51\LIB\C51FPL.LIB (?C?FPDIV)
  C:\KEIL\C51\LIB\C51FPL.LIB (?C?FPCMP)
  C:\KEIL\C51\LIB\C51FPL.LIB (?C?FCAST)
  C:\KEIL\C51\LIB\C51FPL.LIB (?C?CASTF)
  C:\KEIL\C51\LIB\C51FPL.LIB (ATOF)
  C:\KEIL\C51\LIB\C51FPL.LIB (SQRT)
BL51 BANKED LINKER/LOCATER V6.22                                                      03/05/2019  13:48:08  PAGE 2


  C:\KEIL\C51\LIB\C51FPL.LIB (FLOOR)
  C:\KEIL\C51\LIB\C51FPL.LIB (?C?FPGETOPN)
  C:\KEIL\C51\LIB\C51FPL.LIB (?C?ATOF)
  C:\KEIL\C51\LIB\C51FPL.LIB (?C?FPNEG)
  C:\KEIL\C51\LIB\C51FPL.LIB (?C?FTNPWR)
  C:\KEIL\C51\LIB\C51L.LIB (?C_INIT)
  C:\KEIL\C51\LIB\C51L.LIB (?C?COPY)
  C:\KEIL\C51\LIB\C51L.LIB (?C?CLDPTR)
  C:\KEIL\C51\LIB\C51L.LIB (?C?CLDOPTR)
  C:\KEIL\C51\LIB\C51L.LIB (?C?CILDPTR)
  C:\KEIL\C51\LIB\C51L.LIB (?C?CSTPTR)
  C:\KEIL\C51\LIB\C51L.LIB (?C?CSTOPTR)
  C:\KEIL\C51\LIB\C51L.LIB (?C?IMUL)
  C:\KEIL\C51\LIB\C51L.LIB (?C?UIDIV)
  C:\KEIL\C51\LIB\C51L.LIB (?C?SIDIV)
  C:\KEIL\C51\LIB\C51L.LIB (?C?IILDX)
  C:\KEIL\C51\LIB\C51L.LIB (?C?ILDIX)
  C:\KEIL\C51\LIB\C51L.LIB (?C?ISTPTR)
  C:\KEIL\C51\LIB\C51L.LIB (?C?LMUL)
  C:\KEIL\C51\LIB\C51L.LIB (?C?ULDIV)
  C:\KEIL\C51\LIB\C51L.LIB (?C?SLDIV)
  C:\KEIL\C51\LIB\C51L.LIB (?C?LNOT)
  C:\KEIL\C51\LIB\C51L.LIB (?C?LNEG)
  C:\KEIL\C51\LIB\C51L.LIB (?C?SLCMP)
  C:\KEIL\C51\LIB\C51L.LIB (?C?ULCMP)
  C:\KEIL\C51\LIB\C51L.LIB (?C?ULSHR)
  C:\KEIL\C51\LIB\C51L.LIB (?C?LSHL)
  C:\KEIL\C51\LIB\C51L.LIB (?C?LLDPTR)
  C:\KEIL\C51\LIB\C51L.LIB (?C?LLDXDATA)
  C:\KEIL\C51\LIB\C51L.LIB (?C?LLDCODE)
  C:\KEIL\C51\LIB\C51L.LIB (?C?LLDCODE0)
  C:\KEIL\C51\LIB\C51L.LIB (?C?LSTXDATA)
  C:\KEIL\C51\LIB\C51L.LIB (?C?LSTKXDATA)
  C:\KEIL\C51\LIB\C51L.LIB (?C?OFFXADD)
  C:\KEIL\C51\LIB\C51L.LIB (?C?PLDIXDATA)
  C:\KEIL\C51\LIB\C51L.LIB (?C?PSTXDATA)
  C:\KEIL\C51\LIB\C51L.LIB (?C?PSTPTR)
  C:\KEIL\C51\LIB\C51L.LIB (?C?ICASE)
  C:\KEIL\C51\LIB\C51L.LIB (?C?LCASE)
  C:\KEIL\C51\LIB\C51L.LIB (?C?LIMUL)
  C:\KEIL\C51\LIB\C51L.LIB (ISSPACE)
  C:\KEIL\C51\LIB\C51L.LIB (?C?LLDIDATA)
  C:\KEIL\C51\LIB\C51L.LIB (?C?LLDPDATA)
  C:\KEIL\C51\LIB\C51L.LIB (?C?PSTIDATA)
  C:\KEIL\C51\LIB\C51L.LIB (?C?PSTPDATA)


LINK MAP OF MODULE:  DI03B_9811A_V10 (?C_STARTUP)


            TYPE    BASE      LENGTH    RELOCATION   SEGMENT NAME
            -----------------------------------------------------

            * * * * * * *   D A T A   M E M O R Y   * * * * * * *
            REG     0000H     0008H     ABSOLUTE     "REG BANK 0"
            DATA    0008H     0002H     UNIT         _DATA_GROUP_
                    000AH     0006H                  *** GAP ***
BL51 BANKED LINKER/LOCATER V6.22                                                      03/05/2019  13:48:08  PAGE 3


            REG     0010H     0008H     ABSOLUTE     "REG BANK 2"
                    0018H     0008H                  *** GAP ***
            BIT     0020H.0   0000H.5   UNIT         _BIT_GROUP_
            BIT     0020H.5   0000H.1   UNIT         ?BI?_SOFTADJUST_IB5_PROCESS?LNK_EMU_ADJ
                    0020H.6   0000H.2                *** GAP ***
            IDATA   0021H     0001H     UNIT         ?STACK

            * * * * * * *  X D A T A   M E M O R Y  * * * * * * *
            XDATA   0000H     0238H     UNIT         _XDATA_GROUP_
            XDATA   0238H     0102H     UNIT         ?XD?DRV_UART
            XDATA   033AH     008FH     UNIT         ?XD?API_DEMAND
            XDATA   03C9H     0080H     UNIT         ?XD?API_BILL_RECORD
            XDATA   0449H     007EH     UNIT         ?XD?API_ENERGY
            XDATA   04C7H     004DH     UNIT         ?XD?API_USER_COMM
            XDATA   0514H     0044H     UNIT         ?XD?LNK_EMU_ADJ
            XDATA   0558H     003EH     UNIT         ?XD?API_LCD_DISPLAY
            XDATA   0596H     002FH     UNIT         ?XD?HARDWARE_ADJUSTDIV_SUB?LNK_EMU_ADJ
            XDATA   05C5H     002EH     UNIT         ?XD?LIB_MYMATH
            XDATA   05F3H     0026H     UNIT         ?XD?API_MEASURE
            XDATA   0619H     001CH     UNIT         ?XD?LNK_GET_EMU_RACTIVE_CONST?LNK_EMU_HANDL
            XDATA   0635H     0019H     UNIT         ?XD?API_LOADPROFILE
            XDATA   064EH     0018H     UNIT         ?XD?PROC_DATA
            XDATA   0666H     0018H     UNIT         ?XD?PROC_SYSTEM_TOU
            XDATA   067EH     0018H     UNIT         ?XD?_CALCULATESCHZ?LNK_EMU_ADJ
            XDATA   0696H     0015H     UNIT         ?XD?_LNK_GET_EMU_ACTIVEPOWER?LNK_EMU_HANDL
            XDATA   06ABH     0014H     UNIT         ?XD?API_HANDL_SETTLE_WHEN_POWERUP?API_BILL_RECORD
            XDATA   06BFH     0013H     UNIT         ?XD?_GET_ORIGINAL_POWER?LNK_EMU_ADJ
            XDATA   06D2H     0013H     UNIT         ?XD?_GET_ORIGINAL_IRMS?LNK_EMU_ADJ
            XDATA   06E5H     0011H     UNIT         ?XD?_LNK_GET_EMU_RACTIVEPOWER?LNK_EMU_HANDL
            XDATA   06F6H     000CH     UNIT         ?XD?API_EVENT
            XDATA   0702H     000BH     UNIT         ?XD?LINK_GET_DIS_OBIS_NUM_BUFF?API_LCD_DISPLAY
            XDATA   070DH     000AH     UNIT         ?XD?_SETRTCNORMAL?DRV_RTC
            XDATA   0717H     000AH     UNIT         ?XD?_LIB_ASC_BCD?LIB_MYMATH
            XDATA   0721H     000AH     UNIT         ?XD?_LIB_BCD_ASC?LIB_MYMATH
            XDATA   072BH     0009H     UNIT         ?XD?_SOFTADJUST_IB_PROCESS?LNK_EMU_ADJ
            XDATA   0734H     0009H     UNIT         ?XD?_SOFTADJUST_IB5_PROCESS?LNK_EMU_ADJ
            XDATA   073DH     0009H     UNIT         ?XD?_SOFTADJUST_PHASE_PROCESS?LNK_EMU_ADJ
            XDATA   0746H     0007H     UNIT         ?XD?_SETMETERCFGI?DRV_EMU_HARD
            XDATA   074DH     0007H     UNIT         ?XD?_LIB_GET_DATA_0XFF_ASCLEN?LIB_MYSPRING
            XDATA   0754H     0006H     UNIT         ?XD?_SETMETERCFGACKPM800K?DRV_EMU_HARD
            XDATA   075AH     0005H     UNIT         ?XD?PROC_SYSTEM_CHECK
            XDATA   075FH     0005H     UNIT         ?XD?_LIB_ENOB_GET?LIB_MYMATH
            XDATA   0764H     0005H     UNIT         ?XD?_LIB_MATH_GET_BCC_CHK?LIB_MYMATH
            XDATA   0769H     0004H     UNIT         ?XD?API_TRIFF
            XDATA   076DH     0003H     UNIT         ?XD?LNK_EMU_HANDL
            XDATA   0770H     0003H     UNIT         ?XD?_LIB_BCD_INC?LIB_MYMATH
            XDATA   0773H     0003H     UNIT         ?XD?_LIB_BCD_ARRY_ADD1?LIB_MYMATH
            XDATA   0776H     0003H     UNIT         ?XD?_LIB_MVHALFBYTE_R?LIB_MYSPRING
            XDATA   0779H     0003H     UNIT         ?XD?_LIB_MVHALFBYTE_L?LIB_MYSPRING
            XDATA   077CH     0003H     UNIT         ?XD?API_RELAY
            XDATA   077FH     0002H     UNIT         ?XD?TIMEEVENTPROC?LNK_EMU_ADJ
            XDATA   0781H     0001H     UNIT         ?XD?MAIN
            XDATA   0782H     0001H     UNIT         ?XD?API_ADJERR

            * * * * * * *   C O D E   M E M O R Y   * * * * * * *
            CODE    0000H     0003H     ABSOLUTE     
            CODE    0003H     0003H     ABSOLUTE     
BL51 BANKED LINKER/LOCATER V6.22                                                      03/05/2019  13:48:08  PAGE 4


            CODE    0006H     0005H     UNIT         ?PR?START_TIMER?DRV_TMR
            CODE    000BH     0003H     ABSOLUTE     
            CODE    000EH     0005H     UNIT         ?PR?STOP_TIMER?DRV_TMR
            CODE    0013H     0003H     ABSOLUTE     
            CODE    0016H     0005H     UNIT         ?PR?_GET_ERROR_ANSWER?IEC62056_21
            CODE    001BH     0003H     ABSOLUTE     
            CODE    001EH     000DH     UNIT         ?PR?API_EVEN_DETECT_L2REVERSE?API_EVENT
            CODE    002BH     0003H     ABSOLUTE     
            CODE    002EH     000DH     UNIT         ?PR?API_EVEN_DETECT_L1REVERSE?API_EVENT
            CODE    003BH     0003H     ABSOLUTE     
            CODE    003EH     0005H     UNIT         ?PR?_GET_ACK_ANSWER?IEC62056_21
            CODE    0043H     0003H     ABSOLUTE     
            CODE    0046H     0004H     UNIT         ?PR?INTERRUPT_INT0?PROC_SYSTEM_INTERRUPT
            CODE    004AH     0001H     UNIT         ?PR?PROC_CHECK_SYSTEM_PRE_CYCLE?PROC_SYSTEM_CHECK
            CODE    004BH     0003H     ABSOLUTE     
            CODE    004EH     0004H     UNIT         ?PR?INTERRUPT_INT1?PROC_SYSTEM_INTERRUPT
            CODE    0052H     0001H     UNIT         ?PR?PROC_AUTO_CLRMETER_PRE_SEC?PROC_SYSTEM_TOU
            CODE    0053H     0003H     ABSOLUTE     
            CODE    0056H     0358H     UNIT         ?PR?CAL_TEMPERATURE_DATA?DRV_ADC
            CODE    03AEH     0052H     UNIT         ?PR?_API_CHG_LCDDISPLAY_ADJ_ITEM?API_LCD_DISPLAY
            CODE    0400H     0001H     ABSOLUTE     
            CODE    0401H     01FFH     ABSOLUTE     
            CODE    0600H     0D11H     UNIT         ?PR?_IEC_CMD_READ_DEAL?API_USER_COMM
            CODE    1311H     0A0CH     UNIT         ?C?LIB_CODE
            CODE    1D1DH     08E2H     UNIT         ?PR?_IEC_CMD_WRITE_DEAL?API_USER_COMM
            CODE    25FFH     07F3H     UNIT         ?CO?API_USER_COMM
            CODE    2DF2H     07DDH     UNIT         ?PR?HARDWARE_ADJUSTDIV_SUB?LNK_EMU_ADJ
            CODE    35CFH     0609H     UNIT         ?PR?_LNK_SAVE_EVEN_CLASS1_RECODE?API_EVENT
            CODE    3BD8H     05BEH     UNIT         ?PR?LNK_GET_EMU_RACTIVE_CONST?LNK_EMU_HANDL
            CODE    4196H     0458H     UNIT         ?PR?_PROCESS_IEC62056_21?API_USER_COMM
            CODE    45EEH     0454H     UNIT         ?PR?LINK_GET_DIS_DATA_NUM_BUFF?API_LCD_DISPLAY
            CODE    4A42H     0418H     UNIT         ?PR?_API_PWL_COVER_EVEN_CLASS_RECODE?API_EVENT
            CODE    4E5AH     03E7H     UNIT         ?PR?_API_GET_ENERGY_LCD?API_LCD_DISPLAY
            CODE    5241H     0321H     UNIT         ?PR?LINK_GET_DIS_OBIS_NUM_BUFF?API_LCD_DISPLAY
            CODE    5562H     02DCH     UNIT         ?PR?_MEASURE_ELECTRIC_ERR_GAIN?LNK_EMU_ADJ
            CODE    583EH     0283H     UNIT         ?PR?_LOAD_REC?API_LOADPROFILE
            CODE    5AC1H     026EH     UNIT         ?PR?_CALIBRATION_CURRENT?LNK_EMU_ADJ
            CODE    5D2FH     026CH     UNIT         ?PR?_INIT_EMU?LNK_EMU_HANDL
            CODE    5F9BH     0269H     UNIT         ?PR?API_ACCUM_CURRENT_ENERGY_DATA_PRE_SECOND?API_ENERGY
            CODE    6204H     025EH     UNIT         ?PR?_LPREC_READ_BLOCK?API_LOADPROFILE
            CODE    6462H     0256H     UNIT         ?PR?API_UPDATA_MD_VAR_SLID_PER_MINUTE?API_DEMAND
            CODE    66B8H     0237H     UNIT         ?PR?CHECK_EMU_ADJPARAM?LNK_EMU_ADJ
            CODE    68EFH     0212H     UNIT         ?PR?API_INIT_CURRENT_ENERGY_DATA_RAM?API_ENERGY
            CODE    6B01H     01FCH     UNIT         ?PR?LINK_GET_DIS_DRV_BUFF?API_LCD_DISPLAY
            CODE    6CFDH     01F5H     UNIT         ?PR?_LNK_GET_EMU_ACTIVEPOWER?LNK_EMU_HANDL
            CODE    6EF2H     01E1H     UNIT         ?PR?API_FREEZE_ENERGY_RAM_PRE_DAY?API_BILL_RECORD
            CODE    70D3H     01D8H     UNIT         ?PR?MEM_DB_CHECK?PROC_EXMEM
            CODE    72ABH     01D8H     UNIT         ?PR?_API_GET_BILL_RECORD_ADDR?API_BILL_RECORD
            CODE    7483H     01D5H     UNIT         ?PR?_SOFTADJUST_PHASE_PROCESS?LNK_EMU_ADJ
            CODE    7658H     01B5H     UNIT         ?PR?_API_CMP_SAVE_MD_DATA?API_DEMAND
            CODE    780DH     01B3H     UNIT         ?PR?_TX_UART_FRIST?DRV_UART
            CODE    79C0H     01AFH     UNIT         ?PR?_LNK_GET_EMU_RACTIVEPOWER?LNK_EMU_HANDL
            CODE    7B6FH     01A7H     UNIT         ?PR?_CALIBRATION_SMALL_SIGNAL?LNK_EMU_ADJ
            CODE    7D16H     01A2H     UNIT         ?PR?_API_GET_TRIFF_NO?API_TRIFF
            CODE    7EB8H     019DH     UNIT         ?PR?_CALCULATESCHZ?LNK_EMU_ADJ
            CODE    8055H     0193H     UNIT         ?PR?_API_WRITE_BILL_DATA?API_BILL_RECORD
            CODE    81E8H     018EH     UNIT         ?PR?API_HANDL_SETTLE_WHEN_POWERUP?API_BILL_RECORD
BL51 BANKED LINKER/LOCATER V6.22                                                      03/05/2019  13:48:08  PAGE 5


            CODE    8376H     018BH     UNIT         ?PR?PROC_JUDGE_POWER_DOWN_PROCESS?PROC_SYSTEM_INITIALIZE
            CODE    8501H     017DH     UNIT         ?PR?_SETRTCNORMAL?DRV_RTC
            CODE    867EH     017BH     UNIT         ?PR?_GET_IEC_COMM_VAR?API_USER_COMM
            CODE    87F9H     0169H     UNIT         ?PR?_GET_ORIGINAL_POWER?LNK_EMU_ADJ
            CODE    8962H     0169H     UNIT         ?PR?_GET_ORIGINAL_IRMS?LNK_EMU_ADJ
            CODE    8ACBH     0168H     UNIT         ?PR?LNK_CAL_EMU_CONSTSUM_PER_SECOND?LNK_EMU_HANDL
            CODE    8C33H     0168H     UNIT         ?PR?API_MEASURE_DEAL_PRE_SECOND?API_MEASURE
            CODE    8D9BH     0167H     UNIT         ?PR?_LNK_GET_EMU_VOLTAGE?LNK_EMU_HANDL
            CODE    8F02H     0163H     UNIT         ?PR?_API_LCDDISPLAY_ADJ_ITEM?API_LCD_DISPLAY
            CODE    9065H     014BH     UNIT         ?PR?_READMETERPARAACK?DRV_EMU_HARD
            CODE    91B0H     0142H     UNIT         ?PR?INTERRUPT_EXINT2?PROC_SYSTEM_INTERRUPT
            CODE    92F2H     0138H     UNIT         ?C_INITSEG
            CODE    942AH     0130H     UNIT         ?PR?_CALIBRATION_POWER?LNK_EMU_ADJ
            CODE    955AH     012FH     UNIT         ?PR?API_GET_SEASONTAB_NO?API_TRIFF
            CODE    9689H     012FH     UNIT         ?PR?_IEC_COMM_COMMAND_CMD_JUDGE?IEC62056_21
            CODE    97B8H     012DH     UNIT         ?PR?_IEC_COMM_REQUEST_CMD_JUDGE?IEC62056_21
            CODE    98E5H     012CH     UNIT         ?PR?_MEM_DB_WRITE?PROC_EXMEM
            CODE    9A11H     012BH     UNIT         ?PR?_LNK_GET_EMU_CURRENT?LNK_EMU_HANDL
            CODE    9B3CH     012AH     UNIT         ?PR?PROC_HANDL_TOU_1S?PROC_SYSTEM_TOU
            CODE    9C66H     0129H     UNIT         ?PR?API_CLR_EVEN_BY_COMM?API_EVENT
            CODE    9D8FH     0124H     UNIT         ?PR?_CALIBRATION_ANGULAR?LNK_EMU_ADJ
            CODE    9EB3H     0111H     UNIT         ?PR?_SOFTADJUST_IB_PROCESS?LNK_EMU_ADJ
            CODE    9FC4H     0110H     UNIT         ?PR?API_CLR_BILL_DATA?API_BILL_RECORD
            CODE    A0D4H     0107H     UNIT         ?PR?_API_HANDL_COMM_PRE_10MS?API_USER_COMM
            CODE    A1DBH     0103H     UNIT         ?PR?_CALCULATEAC?LNK_EMU_ADJ
            CODE    A2DEH     0101H     UNIT         ?PR?_GET_DEFAULT_MEM_DATA?PROC_EXMEM
            CODE    A3DFH     00FEH     UNIT         ?PR?_GETTOTALTIME?API_EVENT
            CODE    A4DDH     00FDH     UNIT         ?PR?TIMEEVENTPROC?LNK_EMU_ADJ
            CODE    A5DAH     00F7H     UNIT         ?PR?_LINK_GET_DISTAB_VAR?API_LCD_DISPLAY
            CODE    A6D1H     00F2H     UNIT         ?PR?_CALCULATESC?LNK_EMU_ADJ
            CODE    A7C3H     00F2H     UNIT         ?PR?_GET_UART_RX_BUFF?DRV_UART
            CODE    A8B5H     00F0H     UNIT         ?PR?_LIB_CHECK_RTC_DATA_FORM?LIB_MYMATH
            CODE    A9A5H     00F0H     UNIT         ?PR?_IEC_CMD_PASSWORD_DEAL?API_USER_COMM
            CODE    AA95H     00F0H     UNIT         ?PR?_FLOOR?FLOOR
            CODE    AB85H     00EFH     UNIT         ?PR?_MEM_TO_MEM?PROC_EXMEM
            CODE    AC74H     00E6H     UNIT         ?PR??C?ATOF??C?ATOF
            CODE    AD5AH     00E5H     UNIT         ?PR?PROC_INITIALIZE_INRAM?PROC_SYSTEM_INITIALIZE
            CODE    AE3FH     00E5H     UNIT         ?PR?_SET_MCUCLOCK?DRV_CORE
            CODE    AF24H     00E0H     UNIT         ?PR?_WRITE_LCD?DRV_LCD
            CODE    B004H     00DEH     UNIT         ?PR?_HDL_UART_10MS_RUN?DRV_UART
            CODE    B0E2H     00DCH     UNIT         ?PR?_LNK_GET_EMU_FREQ?LNK_EMU_HANDL
            CODE    B1BEH     00D9H     UNIT         ?PR?_LNK_TX_COMM_READY?API_USER_COMM
            CODE    B297H     00D7H     UNIT         ?PR?API_CLR_CURRENT_MD_DATA?API_DEMAND
            CODE    B36EH     00D6H     UNIT         ?PR?API_UPDATED_LCDDISPLAYITEM_PER_SECOND?API_LCD_DISPLAY
            CODE    B444H     00D4H     UNIT         ?PR?_SOFTADJUST_IB5_PROCESS?LNK_EMU_ADJ
            CODE    B518H     00D3H     UNIT         ?PR?API_UPDATED_LCDDISPLAYPIXEL_PER_SECOND?API_LCD_DISPLAY
            CODE    B5EBH     00CBH     UNIT         ?PR?_GET_IEC_COMM_OPERAND_ANSWER?IEC62056_21
            CODE    B6B6H     00C9H     UNIT         ?PR?_LIB_BCD4_LONG?LIB_MYMATH
            CODE    B77FH     00C7H     UNIT         ?PR?_GET_MEM_CK_DATA?PROC_EXMEM
            CODE    B846H     00C6H     UNIT         ?PR?LINK_GET_DIS_CHAR_BUFF?API_LCD_DISPLAY
            CODE    B90CH     00C3H     UNIT         ?PR?_API_DEAL_EVEN_CLASS_RECODE?API_EVENT
            CODE    B9CFH     00C0H     UNIT         ?PR?_MEM_DB_CLR?PROC_EXMEM
            CODE    BA8FH     00B9H     UNIT         ?CO?LNK_EMU_ADJ
            CODE    BB48H     00B7H     UNIT         ?PR?_LIB_LONG_BCD4?LIB_MYMATH
            CODE    BBFFH     00B5H     UNIT         ?PR?MAIN?MAIN
            CODE    BCB4H     00B4H     UNIT         ?PR?_READ_EEPROM_PAGE_SUB?DRV_E2P_24CXXX
            CODE    BD68H     00B0H     UNIT         ?PR?_SET_EMUCLOCK?DRV_CORE
BL51 BANKED LINKER/LOCATER V6.22                                                      03/05/2019  13:48:08  PAGE 6


            CODE    BE18H     00AFH     UNIT         ?PR?PROC_CHECK_PROKEY_PRE_SEC?PROC_SYSTEM_CHECK
            CODE    BEC7H     00AFH     UNIT         ?PR?_SETMETERCFGI?DRV_EMU_HARD
            CODE    BF76H     00AFH     UNIT         ?PR?API_CHECK_CURRENT_ENERGY_DATA?API_ENERGY
            CODE    C025H     00ADH     UNIT         ?PR?_LIB_REV_COPY_ARRY?LIB_MYSPRING
            CODE    C0D2H     00ACH     UNIT         ?PR?SQRT?SQRT
            CODE    C17EH     00ABH     UNIT         ?PR?_WRITE_EEPROM_PAGE_SUB?DRV_E2P_24CXXX
            CODE    C229H     00ABH     UNIT         ?PR?_LPREC_READ_1?API_LOADPROFILE
            CODE    C2D4H     00A8H     UNIT         ?PR?_INIT_UART_SOFT?DRV_UART
            CODE    C37CH     00A0H     UNIT         ?PR?_READ_EEPROM?DRV_E2P_24CXXX
            CODE    C41CH     00A0H     UNIT         ?PR?_API_GET_DAYTAB_NO?API_TRIFF
            CODE    C4BCH     009FH     UNIT         ?PR?API_FREEZE_ENERGY_PRE_DAY?API_BILL_RECORD
            CODE    C55BH     009EH     UNIT         ?PR?_MEM_FILL?PROC_EXMEM
            CODE    C5F9H     009EH     UNIT         ?PR?_SETMETERCFGACKPM800K?DRV_EMU_HARD
            CODE    C697H     009EH     UNIT         ?PR?_SETMETERCFGACK?DRV_EMU_HARD
            CODE    C735H     009DH     UNIT         ?PR?_WRITE_EEPROM?DRV_E2P_24CXXX
            CODE    C7D2H     009DH     UNIT         ?PR?_E2P_TXBYTE_I2C?DRV_E2P_I2CSOFT
            CODE    C86FH     009BH     UNIT         ?PR?_MEM_WRITE?PROC_EXMEM
            CODE    C90AH     009AH     UNIT         ?PR?API_HANDL_SETTLE_PER_MINUTE?API_BILL_RECORD
            CODE    C9A4H     009AH     UNIT         ?CO?API_TRIFF
            CODE    CA3EH     0097H     UNIT         ?PR?PROC_GET_CLOCK?PROC_SYSTEM_TOU
            CODE    CAD5H     0097H     UNIT         ?PR?_LIB_GETGMDAY?LIB_MYMATH
            CODE    CB6CH     0096H     UNIT         ?PR?DRV_RELAY_POWERUP_CHECK?API_RELAY
            CODE    CC02H     0094H     UNIT         ?PR?_MEM_READ?PROC_EXMEM
            CODE    CC96H     0094H     UNIT         ?PR?LOADPRO_REC?API_LOADPROFILE
            CODE    CD2AH     0091H     UNIT         ?PR?_GET_MEM_TABLE_INDEX?PROC_EXMEM
            CODE    CDBBH     008EH     UNIT         ?PR?_E2P_RXBYTE_I2C?DRV_E2P_I2CSOFT
            CODE    CE49H     008DH     UNIT         ?PR?_WRITE_EEPROM_PAGE?DRV_E2P_24CXXX
            CODE    CED6H     008CH     UNIT         ?PR?INIT_GPIO_RUN?DRV_GPIO
            CODE    CF62H     0088H     UNIT         ?PR?_GET_IEC_COMM_REQUEST_CMD_ANSWER?IEC62056_21
            CODE    CFEAH     0086H     UNIT         ?C_C51STARTUP
            CODE    D070H     007BH     UNIT         ?PR?_READ_EEPROM_PAGE?DRV_E2P_24CXXX
            CODE    D0EBH     007AH     UNIT         ?PR?PROC_INITIALIZE_SYSTERM_NORMAL_MODE?PROC_SYSTEM_INITIALIZE
            CODE    D165H     0079H     UNIT         ?PR?_LIB_CMP_TWOARRY?LIB_MYSPRING
            CODE    D1DEH     0079H     UNIT         ?PR?_LIB_MVHALFBYTE_L?LIB_MYSPRING
            CODE    D257H     0078H     UNIT         ?PR?_LIB_BCD_ASC?LIB_MYMATH
            CODE    D2CFH     0077H     UNIT         ?PR?_LIB_WORD_BCD2?LIB_MYMATH
            CODE    D346H     0076H     UNIT         ?PR?SET_SLEEP_OUT?DRV_CORE
            CODE    D3BCH     0076H     UNIT         ?PR?_SET_UART2_BADU?DRV_UART
            CODE    D432H     0076H     UNIT         ?PR?_SET_UART4_BADU?DRV_UART
            CODE    D4A8H     0076H     UNIT         ?PR?_LIB_GET_DATA_0XFF_ASCLEN?LIB_MYSPRING
            CODE    D51EH     0074H     UNIT         ?PR?API_UPDATA_MD_VAR_MIN_PER_SECOND?API_DEMAND
            CODE    D592H     0074H     UNIT         ?PR?API_CLR_FREEZE_ENERGY?API_DEMAND
            CODE    D606H     0073H     UNIT         ?PR?PROC_SYS_DATA_INIT?PROC_DATA
            CODE    D679H     0071H     UNIT         ?PR?_LIB_ASC_BCDA?LIB_MYMATH
            CODE    D6EAH     0071H     UNIT         ?PR?_LIB_BCD_ASCA?LIB_MYMATH
            CODE    D75BH     006EH     UNIT         ?PR?_LIB_ASC_BCD?LIB_MYMATH
            CODE    D7C9H     006DH     UNIT         ?PR?INIT_LCD?DRV_LCD
            CODE    D836H     006CH     UNIT         ?CO?PROC_EXMEM
            CODE    D8A2H     006CH     UNIT         ?PR?INIT_LOADPRO_PARAM?API_LOADPROFILE
            CODE    D90EH     006CH     UNIT         ?PR?_API_HANDL_COMM_FRAME_ERROR?API_USER_COMM
            CODE    D97AH     006AH     UNIT         ?PR?API_CLR_CURRENT_ENERGY_DATA?API_ENERGY
            CODE    D9E4H     0069H     UNIT         ?PR?_SET_RTCTIME?DRV_RTC
            CODE    DA4DH     0069H     UNIT         ?PR?API_EVEN_EE_ERR?API_EVENT
            CODE    DAB6H     0068H     UNIT         ?PR?API_HANDL_BUTTON_PRE_10MS?PROC_SYSTEM_TOU
            CODE    DB1EH     0068H     UNIT         ?PR?LNK_ADD_FAC_ENERGY_PLUSE?API_ENERGY
            CODE    DB86H     0066H     UNIT         ?PR?INTERRUPT_EXINT3?PROC_SYSTEM_INTERRUPT
            CODE    DBECH     0066H     UNIT         ?CO?API_LCD_DISPLAY
BL51 BANKED LINKER/LOCATER V6.22                                                      03/05/2019  13:48:08  PAGE 7


            CODE    DC52H     0064H     UNIT         ?PR?_IEC_COMM_ACKNOWLEDGEMENT_CMD_JUDGE?IEC62056_21
            CODE    DCB6H     0061H     UNIT         ?CO?PROC_DATA
            CODE    DD17H     005FH     UNIT         ?PR?_GET_RTCTIME?DRV_RTC
            CODE    DD76H     005DH     UNIT         ?PR?_LIB_COPY_STR_TWOARRY?LIB_MYSPRING
            CODE    DDD3H     005DH     UNIT         ?PR?_LIB_MVHALFBYTE_R?LIB_MYSPRING
            CODE    DE30H     005CH     UNIT         ?PR?API_UPDATE_TRIFFNO_PRE_MINUTE?API_TRIFF
            CODE    DE8CH     005AH     UNIT         ?PR?INTERRUPT_TIMER0?PROC_SYSTEM_INTERRUPT
            CODE    DEE6H     0057H     UNIT         ?PR?INIT_GPIO_SLEEP?DRV_GPIO
            CODE    DF3DH     0055H     UNIT         ?PR?PROC_CHECK_COVER_PRE_SEC?PROC_SYSTEM_CHECK
            CODE    DF92H     0055H     UNIT         ?PR?SET_MCUSLEEP?DRV_CORE
            CODE    DFE7H     0050H     UNIT         ?PR?PROC_HANDLE_WHEN_SYSTERM_RESET?PROC_SYSTEM_INITIALIZE
            CODE    E037H     004FH     UNIT         ?PR?UART4_TRANSMIT?DRV_UART
            CODE    E086H     004DH     UNIT         ?PR?PROC_DISPLAY_POWER_DOWN_PROCESS?PROC_SYSTEM_INITIALIZE
            CODE    E0D3H     004CH     UNIT         ?PR?_LIB_BCD_INC?LIB_MYMATH
            CODE    E11FH     004CH     UNIT         ?PR?_LIB_GETGMMIN?LIB_MYMATH
            CODE    E16BH     004CH     UNIT         ?PR?_LIB_GETGMSEC?LIB_MYMATH
            CODE    E1B7H     004BH     UNIT         ?PR?LNK_UPDATA_MD_VAR_POWER_PER_SECOND?API_DEMAND
            CODE    E202H     004AH     UNIT         ?PR?_LIB_GETGMHOUR?LIB_MYMATH
            CODE    E24CH     0049H     UNIT         ?PR?EN_UART2_RX?DRV_UART
            CODE    E295H     0049H     UNIT         ?PR?ATOF?ATOF
            CODE    E2DEH     0048H     UNIT         ?PR?PROC_SLEEP_WHEN_RESET?PROC_SYSTEM_INITIALIZE
            CODE    E326H     0047H     UNIT         ?PR?_DRV_RELAY_COMM_CMD_OPERATING?API_RELAY
            CODE    E36DH     0047H     UNIT         ?PR?API_GET_NEXT_DIS_ITEM?API_LCD_DISPLAY
            CODE    E3B4H     0044H     UNIT         ?C?LDIV
            CODE    E3F8H     0043H     UNIT         ?PR?EN_UART4_RX?DRV_UART
            CODE    E43BH     0043H     UNIT         ?PR?_LIB_BCD_ARRY_ADD1?LIB_MYMATH
            CODE    E47EH     0042H     UNIT         ?PR?LOADPRORST?API_LOADPROFILE
            CODE    E4C0H     0040H     UNIT         ?CO?DRV_ADC
            CODE    E500H     0040H     UNIT         ?PR?RF_COMM_DEAL?API_USER_COMM
            CODE    E540H     003FH     UNIT         ?PR?API_EVEN_DETECT_SEC?API_EVENT
            CODE    E57FH     003EH     UNIT         ?PR?GET_EMU_ADJPARAM?LNK_EMU_ADJ
            CODE    E5BDH     003EH     UNIT         ?PR?API_HANDL_DIS_KEY?API_LCD_DISPLAY
            CODE    E5FBH     003DH     UNIT         ?PR?_GET_METER_ID_ASCLEN?API_USER_COMM
            CODE    E638H     003CH     UNIT         ?PR?_ENABLE_M_ADC?DRV_ADC
            CODE    E674H     003CH     UNIT         ?PR?SAMLPE_BATADC?DRV_ADC
            CODE    E6B0H     003BH     UNIT         ?PR?E2P_STOP_I2C?DRV_E2P_I2CSOFT
            CODE    E6EBH     003BH     UNIT         ?PR?_SETEXTRTC?DRV_RTC
            CODE    E726H     003BH     UNIT         ?PR?_LIB_ATOB?LIB_MYMATH
            CODE    E761H     003BH     UNIT         ?CO?API_EVENT
            CODE    E79CH     003AH     UNIT         ?PR?_LIB_FCPYTMEM?LIB_MYSPRING
            CODE    E7D6H     003AH     UNIT         ?PR?API_INIT_MD_DATA_RAM?API_DEMAND
            CODE    E810H     0039H     UNIT         ?PR?SAVE_EMU_ADJPARAM?LNK_EMU_ADJ
            CODE    E849H     0038H     UNIT         ?PR?_LIB_ENOB_GET?LIB_MYMATH
            CODE    E881H     0038H     UNIT         ?PR?_API_CHECK_DEMAND_PARA?API_DEMAND
            CODE    E8B9H     0038H     UNIT         ?PR?_GET_BCC_CHK?IEC62056_21
            CODE    E8F1H     0037H     UNIT         ?PR?E2P_START_I2C?DRV_E2P_I2CSOFT
            CODE    E928H     0036H     UNIT         ?PR?API_MEASURE_VBAT_PRE_MIN?API_MEASURE
            CODE    E95EH     0034H     UNIT         ?PR?API_INIT_DISPLAY?API_LCD_DISPLAY
            CODE    E992H     0032H     UNIT         ?PR?_LIB_MATH_GET_BCC_CHK?LIB_MYMATH
            CODE    E9C4H     0031H     UNIT         ?PR?PROC_INITIALIZE_SYSTERM_RESET?PROC_SYSTEM_INITIALIZE
            CODE    E9F5H     0031H     UNIT         ?PR?SAMLPE_TEMPERATUREADC?DRV_ADC
            CODE    EA26H     0031H     UNIT         ?PR?_LIB_GET_CSCK_INT16U_NUM?LIB_MYMATH
            CODE    EA57H     002DH     UNIT         ?PR?_IEC_CMD_BREAK_DEAL?API_USER_COMM
            CODE    EA84H     002CH     UNIT         ?PR?INTERRUPT_EXINT4?PROC_SYSTEM_INTERRUPT
            CODE    EAB0H     002CH     UNIT         ?PR?DISABLE_M_ADC?DRV_ADC
            CODE    EADCH     002BH     UNIT         ?PR?_LIB_BTOA?LIB_MYMATH
            CODE    EB07H     002BH     UNIT         ?PR?_LIB_SET_STRING?LIB_MYSPRING
BL51 BANKED LINKER/LOCATER V6.22                                                      03/05/2019  13:48:08  PAGE 8


            CODE    EB32H     0029H     UNIT         ?PR?_LIB_SYSTEMDELAY?LIB_MYTIMER
            CODE    EB5BH     0028H     UNIT         ?PR?API_MEASURE_RAM_INIT?API_MEASURE
            CODE    EB83H     0028H     UNIT         ?PR?API_HANDL_DIS_SLEEP?API_LCD_DISPLAY
            CODE    EBABH     0027H     UNIT         ?PR?CLOSE_CF?DRV_EMU_HARD
            CODE    EBD2H     0027H     UNIT         ?PR?_FULL_SEG?DRV_LCD
            CODE    EBF9H     0027H     UNIT         ?PR?_LIB_GET_CSCK_INT8U_NUM?LIB_MYMATH
            CODE    EC20H     0027H     UNIT         ?PR?_LIB_BCDCHK?LIB_MYMATH
            CODE    EC47H     0025H     UNIT         ?PR?PROC_HANDL_TOU_10MS?PROC_SYSTEM_TOU
            CODE    EC6CH     0025H     UNIT         ?PR?_LIB_BCD2_WORD?LIB_MYMATH
            CODE    EC91H     0025H     UNIT         ?PR?_JUDAGE_MONTH?API_BILL_RECORD
            CODE    ECB6H     0022H     UNIT         ?PR?_LIB_DELAY_SEC?LIB_MYTIMER
            CODE    ECD8H     0022H     UNIT         ?PR?LINK_GET_DIS_REALCHAR_BUFF?API_LCD_DISPLAY
            CODE    ECFAH     0021H     UNIT         ?PR?_JUDAGE_YEAR?API_BILL_RECORD
            CODE    ED1BH     0021H     UNIT         ?PR?API_EVEN_DETECT_NOL2?API_EVENT
            CODE    ED3CH     0021H     UNIT         ?PR?API_EVEN_DETECT_NOL1?API_EVENT
            CODE    ED5DH     001EH     UNIT         ?PR?E2P_IIC_INITAIL?DRV_E2P_I2CSOFT
            CODE    ED7BH     001EH     UNIT         ?PR?_LIB_CLR_STRING_U16?LIB_MYSPRING
            CODE    ED99H     001CH     UNIT         ?PR?CLR_ALL_LCD?DRV_LCD
            CODE    EDB5H     001CH     UNIT         ?PR?_LIB_BYTE_BCD?LIB_MYMATH
            CODE    EDD1H     001BH     UNIT         ?PR?CLR_RTC_ADJPARAM?DRV_RTC
            CODE    EDECH     001BH     UNIT         ?PR?_LIB_BCD_BYTE?LIB_MYMATH
            CODE    EE07H     001BH     UNIT         ?PR?_LIB_CLR_STRING?LIB_MYSPRING
            CODE    EE22H     001AH     UNIT         ?PR?JUDGE_ERR_ADJ_KEY?DRV_KEY_IO
            CODE    EE3CH     001AH     UNIT         ?PR?JUDGE_PG_DN_KEY?DRV_KEY_IO
            CODE    EE56H     001AH     UNIT         ?PR?JUDGE_MAGN_CHK_KEY?DRV_KEY_IO
            CODE    EE70H     001AH     UNIT         ?PR?API_MEASURE_TEMPERATURE_PRE_MIN?API_MEASURE
            CODE    EE8AH     0019H     UNIT         ?PR?_LIB_DELAY_MS?LIB_MYTIMER
            CODE    EEA3H     0018H     UNIT         ?PR?CHECKPOWERUP?PROC_SYSTEM_CHECK
            CODE    EEBBH     0018H     UNIT         ?PR?JUDGE_MD_CLEAR_KEY?DRV_KEY_IO
            CODE    EED3H     0018H     UNIT         ?PR?JUDGE_ERR_COVER_KEY?DRV_KEY_IO
            CODE    EEEBH     0017H     UNIT         ?PR?INTERRUPT_UART1?PROC_SYSTEM_INTERRUPT
            CODE    EF02H     0016H     UNIT         ?PR?EN_UART2_TX?DRV_UART
            CODE    EF18H     0016H     UNIT         ?PR?EN_UART4_TX?DRV_UART
            CODE    EF2EH     0016H     UNIT         ?PR?_LIB_CHECK_BITNUM?LIB_MYMATH
            CODE    EF44H     0014H     UNIT         ?PR?PROC_INIT_CHECK_VAR?PROC_SYSTEM_CHECK
            CODE    EF58H     0014H     UNIT         ?PR?OPENCF?DRV_EMU_HARD
            CODE    EF6CH     0014H     UNIT         ?PR?_ISSPACE?ISSPACE
            CODE    EF80H     0013H     UNIT         ?PR?SYS_ERR?PROC_SYSTEM_INITIALIZE
            CODE    EF93H     0013H     UNIT         ?PR?OPEN_SECOUT?DRV_RTC
            CODE    EFA6H     000FH     UNIT         ?PR?INIT_TIMER?DRV_TMR
            CODE    EFB5H     000EH     UNIT         ?PR?LCD_ON?DRV_LCD
            CODE    EFC3H     000DH     UNIT         ?PR?API_EVEN_DETECT_LOWBATTERY?API_EVENT
            CODE    EFD0H     000DH     UNIT         ?PR?SECURITYCK?API_USER_COMM
            CODE    EFDDH     000BH     UNIT         ?PR?INIT_RTC?DRV_RTC
            CODE    EFE8H     000BH     UNIT         ?PR?_LIB_DELAY_2US?LIB_MYTIMER
            CODE    EFF3H     000AH     UNIT         ?PR?INITLIZE_AUTO_CLRMETER_VAR?PROC_SYSTEM_TOU
            CODE    EFFDH     000AH     UNIT         ?PR?_LIB_DELAY_NOP?LIB_MYTIMER
            CODE    F007H     0008H     UNIT         ?PR?DIS_UART2_RX?DRV_UART
            CODE    F00FH     0008H     UNIT         ?PR?DIS_UART4_RX?DRV_UART
            CODE    F017H     0008H     UNIT         ?CO?API_BILL_RECORD
            CODE    F01FH     0006H     UNIT         ?PR?_INIT_UART2_HARD?DRV_UART
            CODE    F025H     0006H     UNIT         ?PR?_INIT_UART4_HARD?DRV_UART
            CODE    F02BH     0004H     UNIT         ?PR?INTERRUPT_TIMER1?PROC_SYSTEM_INTERRUPT
            CODE    F02FH     0004H     UNIT         ?PR?INTERRUPT_TIMER2?PROC_SYSTEM_INTERRUPT
            CODE    F033H     0003H     UNIT         ?PR?PROC_INIT_TOU_VAR?PROC_SYSTEM_TOU
            CODE    F036H     0003H     UNIT         ?PR?INIT_EMU_RAM?LNK_EMU_HANDL
            CODE    F039H     0003H     UNIT         ?PR?LCD_OFF?DRV_LCD
BL51 BANKED LINKER/LOCATER V6.22                                                      03/05/2019  13:48:08  PAGE 9


            CODE    F03CH     0003H     UNIT         ?PR?LNK_ADD_RAC_ENERGY_PLUSE?API_ENERGY
            CODE    F03FH     0003H     UNIT         ?PR?READLPRUNPA?API_LOADPROFILE
            CODE    F042H     0002H     UNIT         ?PR?API_EVEN_INT?API_EVENT
            CODE    F044H     0001H     UNIT         ?PR?CLOSE_EMUPWR?DRV_EMU_HARD
            CODE    F045H     0001H     UNIT         ?PR?HANDL_RTC_ADJ_PER_MINU?DRV_RTC
            CODE    F046H     0001H     UNIT         ?PR?DRV_RELAY_RUN_CHECK?API_RELAY
            CODE    F047H     0001H     UNIT         ?PR?API_UPDATED_LED_PER_SECOND?API_LCD_DISPLAY



OVERLAY MAP OF MODULE:   DI03B_9811A_V10 (?C_STARTUP)


SEGMENT                                             BIT_GROUP          DATA_GROUP          XDATA_GROUP
  +--> CALLED SEGMENT                            START    LENGTH     START    LENGTH     START    LENGTH
--------------------------------------------------------------------------------------------------------
?C_C51STARTUP                                    -----    -----      -----    -----      -----    -----
  +--> ?PR?MAIN?MAIN
  +--> ?C_INITSEG

?PR?MAIN?MAIN                                    -----    -----      -----    -----      -----    -----
  +--> ?PR?PROC_INITIALIZE_SYSTERM_RESET?PRO...
  +--> ?PR?CHECKPOWERUP?PROC_SYSTEM_CHECK
  +--> ?PR?PROC_HANDL_TOU_10MS?PROC_SYSTEM_TOU
  +--> ?PR?PROC_JUDGE_POWER_DOWN_PROCESS?PRO...
  +--> ?PR?PROC_HANDL_TOU_1S?PROC_SYSTEM_TOU
  +--> ?PR?API_UPDATED_LCDDISPLAYITEM_PER_SE...
  +--> ?PR?API_CLR_CURRENT_MD_DATA?API_DEMAND
  +--> ?PR?_API_DEAL_EVEN_CLASS_RECODE?API_E...
  +--> ?PR?_FULL_SEG?DRV_LCD
  +--> ?PR?DRV_RELAY_RUN_CHECK?API_RELAY

?PR?PROC_INITIALIZE_SYSTERM_RESET?PRO...         -----    -----      -----    -----      -----    -----
  +--> ?PR?PROC_HANDLE_WHEN_SYSTERM_RESET?PR...
  +--> ?PR?CHECKPOWERUP?PROC_SYSTEM_CHECK
  +--> ?PR?_LIB_DELAY_MS?LIB_MYTIMER
  +--> ?PR?PROC_SLEEP_WHEN_RESET?PROC_SYSTEM...
  +--> ?PR?PROC_INITIALIZE_SYSTERM_NORMAL_MO...

?PR?PROC_HANDLE_WHEN_SYSTERM_RESET?PR...         -----    -----      -----    -----      -----    -----
  +--> ?PR?_SET_MCUCLOCK?DRV_CORE
  +--> ?PR?INIT_GPIO_SLEEP?DRV_GPIO
  +--> ?PR?E2P_IIC_INITAIL?DRV_E2P_I2CSOFT
  +--> ?PR?E2P_STOP_I2C?DRV_E2P_I2CSOFT

?PR?_SET_MCUCLOCK?DRV_CORE                       -----    -----      -----    -----      0007H    0005H
  +--> ?PR?SYS_ERR?PROC_SYSTEM_INITIALIZE

?PR?PROC_SLEEP_WHEN_RESET?PROC_SYSTEM...         -----    -----      -----    -----      0000H    0002H
  +--> ?PR?API_MEASURE_RAM_INIT?API_MEASURE
  +--> ?PR?API_INIT_CURRENT_ENERGY_DATA_RAM?...
  +--> ?PR?INIT_LCD?DRV_LCD
  +--> ?PR?API_HANDL_DIS_SLEEP?API_LCD_DISPLAY
  +--> ?PR?INIT_GPIO_SLEEP?DRV_GPIO
  +--> ?PR?_SETEXTRTC?DRV_RTC
  +--> ?PR?SET_MCUSLEEP?DRV_CORE
  +--> ?PR?SYS_ERR?PROC_SYSTEM_INITIALIZE
BL51 BANKED LINKER/LOCATER V6.22                                                      03/05/2019  13:48:08  PAGE 10



?PR?API_MEASURE_RAM_INIT?API_MEASURE             -----    -----      -----    -----      -----    -----
  +--> ?PR?_LIB_SET_STRING?LIB_MYSPRING

?PR?_LIB_SET_STRING?LIB_MYSPRING                 -----    -----      -----    -----      0179H    0006H

?PR?API_INIT_CURRENT_ENERGY_DATA_RAM?...         -----    -----      -----    -----      0003H    0011H
  +--> ?PR?_LIB_SET_STRING?LIB_MYSPRING
  +--> ?PR?API_CHECK_CURRENT_ENERGY_DATA?API...
  +--> ?PR?_MEM_READ?PROC_EXMEM
  +--> ?PR?_LIB_BCD_BYTE?LIB_MYMATH
  +--> ?PR?_JUDAGE_MONTH?API_BILL_RECORD
  +--> ?PR?_API_WRITE_BILL_DATA?API_BILL_RECORD
  +--> ?PR?API_CLR_CURRENT_MD_DATA?API_DEMAND

?PR?API_CHECK_CURRENT_ENERGY_DATA?API...         -----    -----      -----    -----      -----    -----
  +--> ?PR?_LIB_GET_CSCK_INT16U_NUM?LIB_MYMATH
  +--> ?PR?_MEM_READ?PROC_EXMEM
  +--> ?PR?_LIB_COPY_STR_TWOARRY?LIB_MYSPRING

?PR?_LIB_GET_CSCK_INT16U_NUM?LIB_MYMATH          -----    -----      -----    -----      01D3H    0007H

?PR?_MEM_READ?PROC_EXMEM                         -----    -----      -----    -----      01D3H    000BH
  +--> ?PR?_LIB_COPY_STR_TWOARRY?LIB_MYSPRING
  +--> ?PR?_READ_EEPROM?DRV_E2P_24CXXX
  +--> ?PR?SYS_ERR?PROC_SYSTEM_INITIALIZE

?PR?_LIB_COPY_STR_TWOARRY?LIB_MYSPRING           -----    -----      -----    -----      01DEH    0008H

?PR?_READ_EEPROM?DRV_E2P_24CXXX                  -----    -----      -----    -----      01DEH    0008H
  +--> ?PR?_READ_EEPROM_PAGE?DRV_E2P_24CXXX

?PR?_READ_EEPROM_PAGE?DRV_E2P_24CXXX             -----    -----      -----    -----      01E6H    0047H
  +--> ?PR?_READ_EEPROM_PAGE_SUB?DRV_E2P_24CXXX
  +--> ?PR?_LIB_CMP_TWOARRY?LIB_MYSPRING

?PR?_READ_EEPROM_PAGE_SUB?DRV_E2P_24CXXX         -----    -----      -----    -----      022DH    0009H
  +--> ?PR?E2P_STOP_I2C?DRV_E2P_I2CSOFT
  +--> ?PR?E2P_START_I2C?DRV_E2P_I2CSOFT
  +--> ?PR?_E2P_TXBYTE_I2C?DRV_E2P_I2CSOFT
  +--> ?PR?_E2P_RXBYTE_I2C?DRV_E2P_I2CSOFT

?PR?_E2P_TXBYTE_I2C?DRV_E2P_I2CSOFT              -----    -----      0008H    0001H      -----    -----
  +--> ?PR?E2P_STOP_I2C?DRV_E2P_I2CSOFT

?PR?_E2P_RXBYTE_I2C?DRV_E2P_I2CSOFT              -----    -----      0008H    0002H      -----    -----

?PR?_LIB_CMP_TWOARRY?LIB_MYSPRING                -----    -----      -----    -----      022DH    0007H

?PR?_JUDAGE_MONTH?API_BILL_RECORD                -----    -----      -----    -----      -----    -----
  +--> ?PR?_JUDAGE_YEAR?API_BILL_RECORD

?PR?_API_WRITE_BILL_DATA?API_BILL_RECORD         -----    -----      -----    -----      0014H    0073H
  +--> ?PR?_LIB_CLR_STRING?LIB_MYSPRING
  +--> ?CO?API_BILL_RECORD
  +--> ?PR?_MEM_READ?PROC_EXMEM
  +--> ?PR?_MEM_DB_WRITE?PROC_EXMEM
BL51 BANKED LINKER/LOCATER V6.22                                                      03/05/2019  13:48:08  PAGE 11


  +--> ?PR?_LIB_COPY_STR_TWOARRY?LIB_MYSPRING
  +--> ?PR?SYS_ERR?PROC_SYSTEM_INITIALIZE

?PR?_MEM_DB_WRITE?PROC_EXMEM                     -----    -----      -----    -----      0179H    0012H
  +--> ?PR?_GET_MEM_TABLE_INDEX?PROC_EXMEM
  +--> ?PR?SYS_ERR?PROC_SYSTEM_INITIALIZE
  +--> ?CO?PROC_EXMEM
  +--> ?PR?_MEM_WRITE?PROC_EXMEM
  +--> ?PR?_GET_MEM_CK_DATA?PROC_EXMEM

?PR?_GET_MEM_TABLE_INDEX?PROC_EXMEM              -----    -----      -----    -----      018BH    0004H
  +--> ?CO?PROC_EXMEM

?PR?_MEM_WRITE?PROC_EXMEM                        -----    -----      -----    -----      018BH    0008H
  +--> ?PR?_LIB_COPY_STR_TWOARRY?LIB_MYSPRING
  +--> ?PR?_WRITE_EEPROM?DRV_E2P_24CXXX
  +--> ?PR?SYS_ERR?PROC_SYSTEM_INITIALIZE

?PR?_WRITE_EEPROM?DRV_E2P_24CXXX                 -----    -----      -----    -----      0193H    0008H
  +--> ?PR?_WRITE_EEPROM_PAGE?DRV_E2P_24CXXX

?PR?_WRITE_EEPROM_PAGE?DRV_E2P_24CXXX            -----    -----      -----    -----      019BH    0047H
  +--> ?PR?SYS_ERR?PROC_SYSTEM_INITIALIZE
  +--> ?PR?_WRITE_EEPROM_PAGE_SUB?DRV_E2P_24...
  +--> ?PR?_READ_EEPROM_PAGE_SUB?DRV_E2P_24CXXX
  +--> ?PR?_LIB_CMP_TWOARRY?LIB_MYSPRING

?PR?_WRITE_EEPROM_PAGE_SUB?DRV_E2P_24...         -----    -----      -----    -----      01E2H    0009H
  +--> ?PR?E2P_STOP_I2C?DRV_E2P_I2CSOFT
  +--> ?PR?E2P_START_I2C?DRV_E2P_I2CSOFT
  +--> ?PR?_E2P_TXBYTE_I2C?DRV_E2P_I2CSOFT
  +--> ?PR?_LIB_DELAY_MS?LIB_MYTIMER

?PR?_GET_MEM_CK_DATA?PROC_EXMEM                  -----    -----      -----    -----      018BH    0048H
  +--> ?PR?_MEM_READ?PROC_EXMEM
  +--> ?PR?_LIB_GET_CSCK_INT16U_NUM?LIB_MYMATH

?PR?API_CLR_CURRENT_MD_DATA?API_DEMAND           -----    -----      -----    -----      0095H    0038H
  +--> ?PR?_MEM_READ?PROC_EXMEM
  +--> ?PR?_MEM_WRITE?PROC_EXMEM
  +--> ?PR?_LIB_CLR_STRING?LIB_MYSPRING
  +--> ?PR?_MEM_DB_WRITE?PROC_EXMEM
  +--> ?PR?_LIB_SET_STRING?LIB_MYSPRING

?PR?INIT_LCD?DRV_LCD                             -----    -----      -----    -----      -----    -----
  +--> ?PR?LCD_ON?DRV_LCD

?PR?API_HANDL_DIS_SLEEP?API_LCD_DISPLAY          -----    -----      -----    -----      -----    -----
  +--> ?PR?_MEM_READ?PROC_EXMEM
  +--> ?PR?API_UPDATED_LCDDISPLAYPIXEL_PER_S...

?PR?API_UPDATED_LCDDISPLAYPIXEL_PER_S...         -----    -----      -----    -----      -----    -----
  +--> ?PR?_LIB_SET_STRING?LIB_MYSPRING
  +--> ?PR?_API_LCDDISPLAY_ADJ_ITEM?API_LCD_...
  +--> ?PR?LINK_GET_DIS_DATA_NUM_BUFF?API_LC...
  +--> ?PR?LINK_GET_DIS_CHAR_BUFF?API_LCD_DI...
  +--> ?PR?LINK_GET_DIS_REALCHAR_BUFF?API_LC...
BL51 BANKED LINKER/LOCATER V6.22                                                      03/05/2019  13:48:08  PAGE 12


  +--> ?PR?LINK_GET_DIS_DRV_BUFF?API_LCD_DIS...
  +--> ?PR?_LINK_GET_DISTAB_VAR?API_LCD_DISPLAY
  +--> ?PR?_WRITE_LCD?DRV_LCD

?PR?_API_LCDDISPLAY_ADJ_ITEM?API_LCD_...         -----    -----      -----    -----      0007H    0007H
  +--> ?PR?_LIB_SET_STRING?LIB_MYSPRING
  +--> ?CO?API_LCD_DISPLAY
  +--> ?PR?_MEM_READ?PROC_EXMEM
  +--> ?PR?SYS_ERR?PROC_SYSTEM_INITIALIZE

?PR?LINK_GET_DIS_DATA_NUM_BUFF?API_LC...         -----    -----      -----    -----      0007H    001AH
  +--> ?PR?_GET_RTCTIME?DRV_RTC
  +--> ?CO?API_LCD_DISPLAY
  +--> ?PR?_MEM_READ?PROC_EXMEM
  +--> ?PR?_API_GET_ENERGY_LCD?API_LCD_DISPLAY
  +--> ?PR?_LIB_LONG_BCD4?LIB_MYMATH

?PR?_GET_RTCTIME?DRV_RTC                         -----    -----      -----    -----      0021H    0004H
  +--> ?PR?_LIB_DELAY_2US?LIB_MYTIMER

?PR?_API_GET_ENERGY_LCD?API_LCD_DISPLAY          -----    -----      -----    -----      00E8H    0015H
  +--> ?PR?_LIB_COPY_STR_TWOARRY?LIB_MYSPRING
  +--> ?PR?_LIB_LONG_BCD4?LIB_MYMATH
  +--> ?PR?_LIB_BYTE_BCD?LIB_MYMATH

?PR?_LIB_LONG_BCD4?LIB_MYMATH                    -----    -----      -----    -----      00FDH    0007H
  +--> ?PR?_LIB_WORD_BCD2?LIB_MYMATH

?PR?_LIB_WORD_BCD2?LIB_MYMATH                    -----    -----      -----    -----      0104H    0005H
  +--> ?PR?_LIB_BYTE_BCD?LIB_MYMATH

?PR?_LINK_GET_DISTAB_VAR?API_LCD_DISPLAY         -----    -----      -----    -----      -----    -----
  +--> ?CO?API_LCD_DISPLAY

?PR?_SETEXTRTC?DRV_RTC                           -----    -----      -----    -----      0007H    0002H
  +--> ?PR?_LIB_DELAY_2US?LIB_MYTIMER

?PR?SET_MCUSLEEP?DRV_CORE                        -----    -----      -----    -----      0007H    0001H
  +--> ?PR?SYS_ERR?PROC_SYSTEM_INITIALIZE
  +--> ?PR?_LIB_DELAY_2US?LIB_MYTIMER

?PR?PROC_INITIALIZE_SYSTERM_NORMAL_MO...         -----    -----      -----    -----      -----    -----
  +--> ?PR?_SET_MCUCLOCK?DRV_CORE
  +--> ?PR?INIT_GPIO_RUN?DRV_GPIO
  +--> ?PR?INIT_LCD?DRV_LCD
  +--> ?PR?_FULL_SEG?DRV_LCD
  +--> ?PR?PROC_INITIALIZE_INRAM?PROC_SYSTEM...
  +--> ?PR?INIT_TIMER?DRV_TMR
  +--> ?PR?_API_HANDL_COMM_FRAME_ERROR?API_U...
  +--> ?PR?INIT_RTC?DRV_RTC
  +--> ?PR?_INIT_EMU?LNK_EMU_HANDL
  +--> ?PR?CHECK_EMU_ADJPARAM?LNK_EMU_ADJ
  +--> ?PR?_LIB_SET_STRING?LIB_MYSPRING
  +--> ?PR?_API_DEAL_EVEN_CLASS_RECODE?API_E...

?PR?PROC_INITIALIZE_INRAM?PROC_SYSTEM...         -----    -----      -----    -----      0000H    0003H
  +--> ?PR?_MEM_READ?PROC_EXMEM
BL51 BANKED LINKER/LOCATER V6.22                                                      03/05/2019  13:48:08  PAGE 13


  +--> ?PR?API_FREEZE_ENERGY_PRE_DAY?API_BIL...
  +--> ?PR?_MEM_FILL?PROC_EXMEM
  +--> ?PR?_MEM_DB_CLR?PROC_EXMEM
  +--> ?PR?MEM_DB_CHECK?PROC_EXMEM
  +--> ?PR?PROC_SYS_DATA_INIT?PROC_DATA
  +--> ?PR?PROC_INIT_CHECK_VAR?PROC_SYSTEM_C...
  +--> ?PR?INIT_EMU_RAM?LNK_EMU_HANDL
  +--> ?PR?PROC_INIT_TOU_VAR?PROC_SYSTEM_TOU
  +--> ?PR?INIT_LOADPRO_PARAM?API_LOADPROFILE
  +--> ?PR?API_INIT_MD_DATA_RAM?API_DEMAND
  +--> ?PR?API_INIT_CURRENT_ENERGY_DATA_RAM?...
  +--> ?PR?API_MEASURE_RAM_INIT?API_MEASURE
  +--> ?PR?API_MEASURE_VBAT_PRE_MIN?API_MEASURE
  +--> ?PR?API_MEASURE_TEMPERATURE_PRE_MIN?A...
  +--> ?PR?API_UPDATE_TRIFFNO_PRE_MINUTE?API...
  +--> ?PR?API_INIT_DISPLAY?API_LCD_DISPLAY

?PR?API_FREEZE_ENERGY_PRE_DAY?API_BIL...         -----    -----      -----    -----      0003H    0001H
  +--> ?PR?_MEM_WRITE?PROC_EXMEM
  +--> ?PR?_MEM_READ?PROC_EXMEM
  +--> ?PR?_API_WRITE_BILL_DATA?API_BILL_RECORD
  +--> ?PR?API_CLR_CURRENT_MD_DATA?API_DEMAND

?PR?_MEM_FILL?PROC_EXMEM                         -----    -----      -----    -----      007AH    0047H
  +--> ?PR?_LIB_SET_STRING?LIB_MYSPRING
  +--> ?PR?_MEM_WRITE?PROC_EXMEM

?PR?_MEM_DB_CLR?PROC_EXMEM                       -----    -----      -----    -----      0095H    0007H
  +--> ?CO?PROC_EXMEM
  +--> ?PR?_MEM_WRITE?PROC_EXMEM

?PR?MEM_DB_CHECK?PROC_EXMEM                      -----    -----      -----    -----      0003H    000DH
  +--> ?CO?PROC_EXMEM
  +--> ?PR?_GET_MEM_CK_DATA?PROC_EXMEM
  +--> ?PR?_MEM_READ?PROC_EXMEM
  +--> ?PR?_MEM_TO_MEM?PROC_EXMEM
  +--> ?PR?_GET_DEFAULT_MEM_DATA?PROC_EXMEM
  +--> ?PR?_MEM_WRITE?PROC_EXMEM
  +--> ?PR?SYS_ERR?PROC_SYSTEM_INITIALIZE

?PR?_MEM_TO_MEM?PROC_EXMEM                       -----    -----      -----    -----      0010H    0048H
  +--> ?PR?_MEM_READ?PROC_EXMEM
  +--> ?PR?_MEM_WRITE?PROC_EXMEM

?PR?_GET_DEFAULT_MEM_DATA?PROC_EXMEM             -----    -----      -----    -----      0010H    0004H
  +--> ?CO?PROC_EXMEM
  +--> ?CO?PROC_DATA
  +--> ?CO?API_LCD_DISPLAY
  +--> ?CO?LNK_EMU_ADJ
  +--> ?CO?API_TRIFF
  +--> ?PR?_MEM_WRITE?PROC_EXMEM
  +--> ?PR?_MEM_FILL?PROC_EXMEM

?PR?PROC_SYS_DATA_INIT?PROC_DATA                 -----    -----      -----    -----      -----    -----
  +--> ?PR?_MEM_READ?PROC_EXMEM

?PR?PROC_INIT_CHECK_VAR?PROC_SYSTEM_C...         -----    -----      -----    -----      -----    -----
BL51 BANKED LINKER/LOCATER V6.22                                                      03/05/2019  13:48:08  PAGE 14


  +--> ?PR?_LIB_SET_STRING?LIB_MYSPRING

?PR?INIT_EMU_RAM?LNK_EMU_HANDL                   -----    -----      -----    -----      -----    -----
  +--> ?PR?GET_EMU_ADJPARAM?LNK_EMU_ADJ

?PR?GET_EMU_ADJPARAM?LNK_EMU_ADJ                 -----    -----      -----    -----      -----    -----
  +--> ?PR?_LIB_GET_CSCK_INT16U_NUM?LIB_MYMATH
  +--> ?PR?_MEM_READ?PROC_EXMEM

?PR?PROC_INIT_TOU_VAR?PROC_SYSTEM_TOU            -----    -----      -----    -----      -----    -----
  +--> ?PR?PROC_GET_CLOCK?PROC_SYSTEM_TOU

?PR?PROC_GET_CLOCK?PROC_SYSTEM_TOU               -----    -----      -----    -----      0003H    0007H
  +--> ?PR?_GET_RTCTIME?DRV_RTC
  +--> ?PR?_LIB_CHECK_RTC_DATA_FORM?LIB_MYMATH
  +--> ?PR?_MEM_READ?PROC_EXMEM
  +--> ?PR?_MEM_DB_WRITE?PROC_EXMEM
  +--> ?PR?_SET_RTCTIME?DRV_RTC
  +--> ?PR?_LIB_COPY_STR_TWOARRY?LIB_MYSPRING

?PR?_LIB_CHECK_RTC_DATA_FORM?LIB_MYMATH          -----    -----      -----    -----      -----    -----
  +--> ?PR?_LIB_BCD_BYTE?LIB_MYMATH
  +--> ?PR?_LIB_BYTE_BCD?LIB_MYMATH

?PR?_SET_RTCTIME?DRV_RTC                         -----    -----      -----    -----      0095H    0003H
  +--> ?PR?_LIB_DELAY_2US?LIB_MYTIMER

?PR?INIT_LOADPRO_PARAM?API_LOADPROFILE           -----    -----      -----    -----      -----    -----
  +--> ?PR?_MEM_READ?PROC_EXMEM

?PR?API_INIT_MD_DATA_RAM?API_DEMAND              -----    -----      -----    -----      -----    -----
  +--> ?PR?_MEM_READ?PROC_EXMEM
  +--> ?PR?_API_CHECK_DEMAND_PARA?API_DEMAND
  +--> ?PR?_LIB_SET_STRING?LIB_MYSPRING

?PR?API_MEASURE_VBAT_PRE_MIN?API_MEASURE         -----    -----      -----    -----      -----    -----
  +--> ?PR?SAMLPE_BATADC?DRV_ADC

?PR?SAMLPE_BATADC?DRV_ADC                        -----    -----      -----    -----      -----    -----
  +--> ?PR?_ENABLE_M_ADC?DRV_ADC
  +--> ?PR?_LIB_DELAY_MS?LIB_MYTIMER
  +--> ?PR?_READMETERPARAACK?DRV_EMU_HARD

?PR?_ENABLE_M_ADC?DRV_ADC                        -----    -----      -----    -----      -----    -----
  +--> ?PR?_READMETERPARAACK?DRV_EMU_HARD
  +--> ?PR?_SETMETERCFGACK?DRV_EMU_HARD

?PR?_READMETERPARAACK?DRV_EMU_HARD               -----    -----      0008H    0001H      00C8H    0008H

?PR?_SETMETERCFGACK?DRV_EMU_HARD                 -----    -----      -----    -----      00C8H    0006H

?PR?API_MEASURE_TEMPERATURE_PRE_MIN?A...         -----    -----      -----    -----      -----    -----
  +--> ?PR?_ENABLE_M_ADC?DRV_ADC
  +--> ?PR?_LIB_DELAY_MS?LIB_MYTIMER
  +--> ?PR?SAMLPE_TEMPERATUREADC?DRV_ADC
  +--> ?PR?DISABLE_M_ADC?DRV_ADC

BL51 BANKED LINKER/LOCATER V6.22                                                      03/05/2019  13:48:08  PAGE 15


?PR?SAMLPE_TEMPERATUREADC?DRV_ADC                -----    -----      -----    -----      0003H    0004H
  +--> ?PR?_ENABLE_M_ADC?DRV_ADC
  +--> ?PR?_LIB_DELAY_MS?LIB_MYTIMER
  +--> ?PR?CAL_TEMPERATURE_DATA?DRV_ADC

?PR?CAL_TEMPERATURE_DATA?DRV_ADC                 -----    -----      -----    -----      0007H    0027H
  +--> ?PR?_LIB_FCPYTMEM?LIB_MYSPRING
  +--> ?PR?_LIB_GET_CSCK_INT8U_NUM?LIB_MYMATH
  +--> ?PR?_LIB_REV_COPY_ARRY?LIB_MYSPRING
  +--> ?PR?_READMETERPARAACK?DRV_EMU_HARD
  +--> ?CO?DRV_ADC
  +--> ?PR?SQRT?SQRT

?PR?_LIB_FCPYTMEM?LIB_MYSPRING                   -----    -----      -----    -----      002EH    0004H

?PR?_LIB_GET_CSCK_INT8U_NUM?LIB_MYMATH           -----    -----      -----    -----      002EH    0006H

?PR?_LIB_REV_COPY_ARRY?LIB_MYSPRING              -----    -----      -----    -----      002EH    0006H

?PR?SQRT?SQRT                                    -----    -----      -----    -----      002EH    0004H

?PR?DISABLE_M_ADC?DRV_ADC                        -----    -----      -----    -----      -----    -----
  +--> ?PR?_READMETERPARAACK?DRV_EMU_HARD
  +--> ?PR?_SETMETERCFGACK?DRV_EMU_HARD

?PR?API_UPDATE_TRIFFNO_PRE_MINUTE?API...         -----    -----      -----    -----      0095H    0001H
  +--> ?PR?API_GET_SEASONTAB_NO?API_TRIFF
  +--> ?PR?_API_GET_DAYTAB_NO?API_TRIFF
  +--> ?PR?_API_GET_TRIFF_NO?API_TRIFF

?PR?API_GET_SEASONTAB_NO?API_TRIFF               -----    -----      -----    -----      0096H    0018H
  +--> ?PR?_MEM_READ?PROC_EXMEM

?PR?_API_GET_DAYTAB_NO?API_TRIFF                 -----    -----      -----    -----      0096H    0008H
  +--> ?PR?_MEM_READ?PROC_EXMEM
  +--> ?PR?SYS_ERR?PROC_SYSTEM_INITIALIZE

?PR?_API_GET_TRIFF_NO?API_TRIFF                  -----    -----      -----    -----      0096H    001BH
  +--> ?PR?_MEM_READ?PROC_EXMEM
  +--> ?PR?_LIB_BCDCHK?LIB_MYMATH

?PR?API_INIT_DISPLAY?API_LCD_DISPLAY             -----    -----      -----    -----      -----    -----
  +--> ?PR?_MEM_READ?PROC_EXMEM

?PR?INIT_TIMER?DRV_TMR                           -----    -----      -----    -----      -----    -----
  +--> ?PR?START_TIMER?DRV_TMR

?PR?_API_HANDL_COMM_FRAME_ERROR?API_U...         -----    -----      -----    -----      0038H    0001H
  +--> ?PR?_LIB_CLR_STRING?LIB_MYSPRING
  +--> ?PR?_INIT_UART4_HARD?DRV_UART
  +--> ?PR?_INIT_UART_SOFT?DRV_UART
  +--> ?PR?_LIB_SET_STRING?LIB_MYSPRING

?PR?_INIT_UART4_HARD?DRV_UART                    -----    -----      -----    -----      -----    -----
  +--> ?PR?_SET_UART4_BADU?DRV_UART
  +--> ?PR?EN_UART4_RX?DRV_UART

BL51 BANKED LINKER/LOCATER V6.22                                                      03/05/2019  13:48:08  PAGE 16


?PR?_INIT_EMU?LNK_EMU_HANDL                      -----    -----      -----    -----      0000H    0001H
  +--> ?PR?_SETMETERCFGACK?DRV_EMU_HARD
  +--> ?PR?_SET_EMUCLOCK?DRV_CORE
  +--> ?PR?SYS_ERR?PROC_SYSTEM_INITIALIZE

?PR?_SET_EMUCLOCK?DRV_CORE                       -----    -----      -----    -----      0001H    0005H
  +--> ?PR?SYS_ERR?PROC_SYSTEM_INITIALIZE

?PR?CHECK_EMU_ADJPARAM?LNK_EMU_ADJ               -----    -----      -----    -----      00B3H    0015H
  +--> ?PR?GET_EMU_ADJPARAM?LNK_EMU_ADJ
  +--> ?PR?_MEM_READ?PROC_EXMEM
  +--> ?PR?_SETMETERCFGACK?DRV_EMU_HARD
  +--> ?CO?LNK_EMU_ADJ
  +--> ?PR?_READMETERPARAACK?DRV_EMU_HARD

?PR?_API_DEAL_EVEN_CLASS_RECODE?API_E...         -----    -----      -----    -----      0095H    0005H
  +--> ?CO?API_EVENT
  +--> ?PR?_LNK_SAVE_EVEN_CLASS1_RECODE?API_...

?PR?_LNK_SAVE_EVEN_CLASS1_RECODE?API_...         -----    -----      -----    -----      009AH    00DFH
  +--> ?PR?_MEM_READ?PROC_EXMEM
  +--> ?PR?_LIB_COPY_STR_TWOARRY?LIB_MYSPRING
  +--> ?PR?_LIB_GET_CSCK_INT16U_NUM?LIB_MYMATH
  +--> ?CO?API_EVENT
  +--> ?PR?_MEM_DB_WRITE?PROC_EXMEM
  +--> ?PR?_LIB_SET_STRING?LIB_MYSPRING
  +--> ?PR?_GETTOTALTIME?API_EVENT
  +--> ?PR?_MEM_WRITE?PROC_EXMEM

?PR?_GETTOTALTIME?API_EVENT                      -----    -----      -----    -----      0179H    000BH
  +--> ?PR?_LIB_GETGMSEC?LIB_MYMATH
  +--> ?PR?_LIB_COPY_STR_TWOARRY?LIB_MYSPRING

?PR?_LIB_GETGMSEC?LIB_MYMATH                     -----    -----      -----    -----      0184H    0003H
  +--> ?PR?_LIB_GETGMMIN?LIB_MYMATH
  +--> ?PR?_LIB_BCD_BYTE?LIB_MYMATH

?PR?_LIB_GETGMMIN?LIB_MYMATH                     -----    -----      -----    -----      0187H    0003H
  +--> ?PR?_LIB_GETGMHOUR?LIB_MYMATH
  +--> ?PR?_LIB_BCD_BYTE?LIB_MYMATH

?PR?_LIB_GETGMHOUR?LIB_MYMATH                    -----    -----      -----    -----      018AH    0003H
  +--> ?PR?_LIB_GETGMDAY?LIB_MYMATH
  +--> ?PR?_LIB_BCD_BYTE?LIB_MYMATH

?PR?_LIB_GETGMDAY?LIB_MYMATH                     -----    -----      -----    -----      018DH    0004H
  +--> ?PR?_LIB_BCD_BYTE?LIB_MYMATH

?PR?PROC_HANDL_TOU_10MS?PROC_SYSTEM_TOU          -----    -----      -----    -----      0000H    0001H
  +--> ?PR?_HDL_UART_10MS_RUN?DRV_UART
  +--> ?PR?_API_HANDL_COMM_PRE_10MS?API_USER...
  +--> ?PR?API_HANDL_BUTTON_PRE_10MS?PROC_SY...

?PR?_HDL_UART_10MS_RUN?DRV_UART                  -----    -----      -----    -----      -----    -----
  +--> ?PR?EN_UART4_RX?DRV_UART
  +--> ?PR?_INIT_UART_SOFT?DRV_UART

BL51 BANKED LINKER/LOCATER V6.22                                                      03/05/2019  13:48:08  PAGE 17


?PR?_API_HANDL_COMM_PRE_10MS?API_USER...         -----    -----      -----    -----      0001H    0001H
  +--> ?PR?_PROCESS_IEC62056_21?API_USER_COMM
  +--> ?PR?_API_HANDL_COMM_FRAME_ERROR?API_U...
  +--> ?PR?_LNK_TX_COMM_READY?API_USER_COMM
  +--> ?PR?API_CLR_CURRENT_ENERGY_DATA?API_E...
  +--> ?PR?API_CLR_CURRENT_MD_DATA?API_DEMAND
  +--> ?PR?API_CLR_BILL_DATA?API_BILL_RECORD
  +--> ?PR?LOADPRORST?API_LOADPROFILE
  +--> ?PR?API_CLR_EVEN_BY_COMM?API_EVENT
  +--> ?PR?API_CLR_FREEZE_ENERGY?API_DEMAND
  +--> ?PR?_API_CHG_LCDDISPLAY_ADJ_ITEM?API_...

?PR?_PROCESS_IEC62056_21?API_USER_COMM           -----    -----      -----    -----      0002H    0036H
  +--> ?PR?_GET_UART_RX_BUFF?DRV_UART
  +--> ?PR?_MEM_READ?PROC_EXMEM
  +--> ?PR?_GET_METER_ID_ASCLEN?API_USER_COMM
  +--> ?PR?_LIB_BCD_ASCA?LIB_MYMATH
  +--> ?PR?_IEC_COMM_REQUEST_CMD_JUDGE?IEC62...
  +--> ?PR?_GET_IEC_COMM_REQUEST_CMD_ANSWER?...
  +--> ?PR?_IEC_COMM_ACKNOWLEDGEMENT_CMD_JUD...
  +--> ?PR?_GET_IEC_COMM_OPERAND_ANSWER?IEC6...
  +--> ?PR?_IEC_COMM_COMMAND_CMD_JUDGE?IEC62...
  +--> ?PR?_GET_ERROR_ANSWER?IEC62056_21
  +--> ?PR?_API_HANDL_COMM_FRAME_ERROR?API_U...

?PR?_GET_UART_RX_BUFF?DRV_UART                   -----    -----      -----    -----      0038H    0004H
  +--> ?PR?DIS_UART4_RX?DRV_UART

?PR?_GET_METER_ID_ASCLEN?API_USER_COMM           -----    -----      -----    -----      00E8H    0003H

?PR?_LIB_BCD_ASCA?LIB_MYMATH                     -----    -----      -----    -----      01CBH    000AH
  +--> ?PR?_LIB_BTOA?LIB_MYMATH

?PR?_IEC_COMM_REQUEST_CMD_JUDGE?IEC62...         -----    -----      -----    -----      0038H    0008H

?PR?_GET_IEC_COMM_REQUEST_CMD_ANSWER?...         -----    -----      -----    -----      0038H    0007H

?PR?_GET_IEC_COMM_OPERAND_ANSWER?IEC6...         -----    -----      -----    -----      0038H    0007H
  +--> ?PR?_GET_BCC_CHK?IEC62056_21

?PR?_GET_BCC_CHK?IEC62056_21                     -----    -----      -----    -----      00E8H    0005H

?PR?_IEC_COMM_COMMAND_CMD_JUDGE?IEC62...         -----    -----      -----    -----      0038H    000DH
  +--> ?PR?_GET_BCC_CHK?IEC62056_21
  +--> ?PR?_IEC_CMD_PASSWORD_DEAL?API_USER_COMM
  +--> ?PR?_IEC_CMD_READ_DEAL?API_USER_COMM
  +--> ?PR?_IEC_CMD_WRITE_DEAL?API_USER_COMM

?PR?_IEC_CMD_PASSWORD_DEAL?API_USER_COMM         -----    -----      -----    -----      0045H    000FH
  +--> ?PR?_MEM_READ?PROC_EXMEM
  +--> ?PR?_LIB_BCD_ASCA?LIB_MYMATH
  +--> ?PR?_LIB_CMP_TWOARRY?LIB_MYSPRING
  +--> ?PR?_GET_ACK_ANSWER?IEC62056_21
  +--> ?PR?_API_DEAL_EVEN_CLASS_RECODE?API_E...

?PR?_IEC_CMD_READ_DEAL?API_USER_COMM             -----    -----      -----    -----      0045H    00A3H
  +--> ?PR?_LIB_ASC_BCDA?LIB_MYMATH
BL51 BANKED LINKER/LOCATER V6.22                                                      03/05/2019  13:48:08  PAGE 18


  +--> ?PR?_GET_IEC_COMM_VAR?API_USER_COMM
  +--> ?PR?_LIB_SET_STRING?LIB_MYSPRING
  +--> ?PR?_LPREC_READ_1?API_LOADPROFILE
  +--> ?PR?_LPREC_READ_BLOCK?API_LOADPROFILE
  +--> ?PR?_GET_BCC_CHK?IEC62056_21
  +--> ?PR?_LIB_LONG_BCD4?LIB_MYMATH
  +--> ?PR?_LIB_WORD_BCD2?LIB_MYMATH
  +--> ?PR?_LIB_COPY_STR_TWOARRY?LIB_MYSPRING
  +--> ?PR?_MEM_READ?PROC_EXMEM
  +--> ?PR?_GET_METER_ID_ASCLEN?API_USER_COMM
  +--> ?PR?_API_GET_ENERGY_LCD?API_LCD_DISPLAY
  +--> ?PR?_LIB_BCD_ASCA?LIB_MYMATH
  +--> ?PR?_API_GET_BILL_RECORD_ADDR?API_BIL...
  +--> ?PR?_LIB_BTOA?LIB_MYMATH

?PR?_LIB_ASC_BCDA?LIB_MYMATH                     -----    -----      -----    -----      00E8H    000AH
  +--> ?PR?_LIB_ATOB?LIB_MYMATH

?PR?_GET_IEC_COMM_VAR?API_USER_COMM              -----    -----      -----    -----      00E8H    0006H
  +--> ?CO?API_USER_COMM

?CO?API_USER_COMM                                -----    -----      -----    -----      -----    -----
  +--> ?CO?PROC_DATA

?PR?_LPREC_READ_1?API_LOADPROFILE                -----    -----      -----    -----      00E8H    001AH
  +--> ?PR?_MEM_READ?PROC_EXMEM
  +--> ?PR?_LIB_BCD_ASCA?LIB_MYMATH

?PR?_LPREC_READ_BLOCK?API_LOADPROFILE            -----    -----      -----    -----      00E8H    00E3H
  +--> ?PR?_MEM_READ?PROC_EXMEM
  +--> ?PR?_LIB_BCD_ASCA?LIB_MYMATH

?PR?_API_GET_BILL_RECORD_ADDR?API_BIL...         -----    -----      -----    -----      00E8H    0006H
  +--> ?CO?API_BILL_RECORD
  +--> ?PR?_MEM_READ?PROC_EXMEM

?PR?_IEC_CMD_WRITE_DEAL?API_USER_COMM            -----    -----      -----    -----      0045H    0050H
  +--> ?PR?_LIB_ASC_BCDA?LIB_MYMATH
  +--> ?PR?_GET_IEC_COMM_VAR?API_USER_COMM
  +--> ?PR?SECURITYCK?API_USER_COMM
  +--> ?PR?_LIB_SET_STRING?LIB_MYSPRING
  +--> ?PR?_SET_RTCTIME?DRV_RTC
  +--> ?PR?_MEM_DB_WRITE?PROC_EXMEM
  +--> ?PR?_API_DEAL_EVEN_CLASS_RECODE?API_E...
  +--> ?PR?API_INIT_MD_DATA_RAM?API_DEMAND
  +--> ?PR?API_UPDATE_TRIFFNO_PRE_MINUTE?API...
  +--> ?PR?_MEASURE_ELECTRIC_ERR_GAIN?LNK_EM...
  +--> ?PR?SAVE_EMU_ADJPARAM?LNK_EMU_ADJ
  +--> ?PR?CHECK_EMU_ADJPARAM?LNK_EMU_ADJ
  +--> ?PR?API_CLR_EVEN_BY_COMM?API_EVENT
  +--> ?PR?API_CLR_CURRENT_MD_DATA?API_DEMAND
  +--> ?PR?LOADPRORST?API_LOADPROFILE
  +--> ?PR?_MEM_DB_CLR?PROC_EXMEM
  +--> ?PR?API_CLR_FREEZE_ENERGY?API_DEMAND
  +--> ?PR?_MEM_WRITE?PROC_EXMEM
  +--> ?PR?_MEM_READ?PROC_EXMEM
  +--> ?PR?_GET_ACK_ANSWER?IEC62056_21
BL51 BANKED LINKER/LOCATER V6.22                                                      03/05/2019  13:48:08  PAGE 19



?PR?SECURITYCK?API_USER_COMM                     -----    -----      -----    -----      0095H    0001H

?PR?_MEASURE_ELECTRIC_ERR_GAIN?LNK_EM...         -----    -----      -----    -----      0095H    001EH
  +--> ?PR?_LIB_ATOB?LIB_MYMATH
  +--> ?PR?_LIB_BCD4_LONG?LIB_MYMATH
  +--> ?PR?_LIB_COPY_STR_TWOARRY?LIB_MYSPRING
  +--> ?PR?ATOF?ATOF
  +--> ?PR?_CALIBRATION_POWER?LNK_EMU_ADJ
  +--> ?PR?_CALIBRATION_CURRENT?LNK_EMU_ADJ
  +--> ?PR?_CALIBRATION_ANGULAR?LNK_EMU_ADJ
  +--> ?PR?_CALIBRATION_SMALL_SIGNAL?LNK_EMU...
  +--> ?PR?SAVE_EMU_ADJPARAM?LNK_EMU_ADJ
  +--> ?PR?CHECK_EMU_ADJPARAM?LNK_EMU_ADJ

?PR?_LIB_BCD4_LONG?LIB_MYMATH                    -----    -----      -----    -----      00B3H    0003H
  +--> ?PR?_LIB_BCD_BYTE?LIB_MYMATH

?PR?ATOF?ATOF                                    -----    -----      -----    -----      00B3H    0003H
  +--> ?PR?_ISSPACE?ISSPACE
  +--> ?PR??C?ATOF??C?ATOF

?PR??C?ATOF??C?ATOF                              0020H.0  0000H.5    0008H    0002H      -----    -----

?PR?_CALIBRATION_POWER?LNK_EMU_ADJ               -----    -----      -----    -----      00B3H    000FH
  +--> ?PR?_READMETERPARAACK?DRV_EMU_HARD
  +--> ?PR?_CALCULATESC?LNK_EMU_ADJ
  +--> ?PR?_SETMETERCFGACK?DRV_EMU_HARD

?PR?_CALCULATESC?LNK_EMU_ADJ                     -----    -----      -----    -----      00C7H    001CH
  +--> ?PR?_FLOOR?FLOOR

?PR?_FLOOR?FLOOR                                 -----    -----      -----    -----      00E3H    0008H

?PR?_CALIBRATION_CURRENT?LNK_EMU_ADJ             -----    -----      -----    -----      00B3H    0014H
  +--> ?PR?_READMETERPARAACK?DRV_EMU_HARD
  +--> ?PR?_CALCULATESC?LNK_EMU_ADJ
  +--> ?PR?_SETMETERCFGACK?DRV_EMU_HARD

?PR?_CALIBRATION_ANGULAR?LNK_EMU_ADJ             -----    -----      -----    -----      00B3H    0015H
  +--> ?PR?_CALCULATEAC?LNK_EMU_ADJ
  +--> ?PR?_LIB_LONG_BCD4?LIB_MYMATH
  +--> ?PR?_SETMETERCFGACK?DRV_EMU_HARD

?PR?_CALCULATEAC?LNK_EMU_ADJ                     -----    -----      -----    -----      00C8H    000BH

?PR?_CALIBRATION_SMALL_SIGNAL?LNK_EMU...         -----    -----      -----    -----      00B3H    0011H
  +--> ?PR?_READMETERPARAACK?DRV_EMU_HARD
  +--> ?PR?_SETMETERCFGACK?DRV_EMU_HARD

?PR?SAVE_EMU_ADJPARAM?LNK_EMU_ADJ                -----    -----      -----    -----      -----    -----
  +--> ?PR?_LIB_GET_CSCK_INT16U_NUM?LIB_MYMATH
  +--> ?PR?_MEM_DB_WRITE?PROC_EXMEM

?PR?API_CLR_EVEN_BY_COMM?API_EVENT               -----    -----      -----    -----      0095H    00C1H
  +--> ?PR?_LIB_SET_STRING?LIB_MYSPRING
  +--> ?PR?_MEM_DB_WRITE?PROC_EXMEM
BL51 BANKED LINKER/LOCATER V6.22                                                      03/05/2019  13:48:08  PAGE 20


  +--> ?PR?_LIB_GET_CSCK_INT16U_NUM?LIB_MYMATH
  +--> ?CO?API_EVENT
  +--> ?PR?_MEM_WRITE?PROC_EXMEM

?PR?LOADPRORST?API_LOADPROFILE                   -----    -----      -----    -----      -----    -----
  +--> ?PR?_LIB_SET_STRING?LIB_MYSPRING
  +--> ?PR?_MEM_DB_WRITE?PROC_EXMEM

?PR?API_CLR_FREEZE_ENERGY?API_DEMAND             -----    -----      -----    -----      -----    -----
  +--> ?PR?_LIB_CLR_STRING?LIB_MYSPRING
  +--> ?PR?_MEM_WRITE?PROC_EXMEM

?PR?_LNK_TX_COMM_READY?API_USER_COMM             -----    -----      -----    -----      0002H    0004H
  +--> ?PR?_TX_UART_FRIST?DRV_UART

?PR?_TX_UART_FRIST?DRV_UART                      -----    -----      -----    -----      0006H    0008H
  +--> ?PR?_SET_UART4_BADU?DRV_UART
  +--> ?PR?DIS_UART4_RX?DRV_UART
  +--> ?PR?EN_UART4_TX?DRV_UART

?PR?API_CLR_CURRENT_ENERGY_DATA?API_E...         -----    -----      -----    -----      -----    -----
  +--> ?PR?_LIB_SET_STRING?LIB_MYSPRING
  +--> ?PR?_LIB_GET_CSCK_INT16U_NUM?LIB_MYMATH
  +--> ?PR?_LIB_COPY_STR_TWOARRY?LIB_MYSPRING
  +--> ?PR?_MEM_DB_WRITE?PROC_EXMEM

?PR?API_CLR_BILL_DATA?API_BILL_RECORD            -----    -----      -----    -----      0002H    0078H
  +--> ?PR?_LIB_CLR_STRING?LIB_MYSPRING
  +--> ?PR?_MEM_DB_WRITE?PROC_EXMEM
  +--> ?PR?_MEM_FILL?PROC_EXMEM

?PR?_API_CHG_LCDDISPLAY_ADJ_ITEM?API_...         -----    -----      -----    -----      -----    -----
  +--> ?PR?API_UPDATED_LCDDISPLAYPIXEL_PER_S...

?PR?API_HANDL_BUTTON_PRE_10MS?PROC_SY...         -----    -----      -----    -----      -----    -----
  +--> ?PR?JUDGE_PG_DN_KEY?DRV_KEY_IO
  +--> ?PR?JUDGE_MD_CLEAR_KEY?DRV_KEY_IO
  +--> ?PR?JUDGE_MAGN_CHK_KEY?DRV_KEY_IO

?PR?PROC_JUDGE_POWER_DOWN_PROCESS?PRO...         -----    -----      -----    -----      0000H    0007H
  +--> ?PR?CHECKPOWERUP?PROC_SYSTEM_CHECK
  +--> ?PR?API_ACCUM_CURRENT_ENERGY_DATA_PRE...
  +--> ?PR?_MEM_DB_WRITE?PROC_EXMEM
  +--> ?PR?_API_DEAL_EVEN_CLASS_RECODE?API_E...
  +--> ?PR?_MEM_READ?PROC_EXMEM
  +--> ?PR?API_CHECK_CURRENT_ENERGY_DATA?API...
  +--> ?PR?API_HANDL_DIS_SLEEP?API_LCD_DISPLAY
  +--> ?PR?INIT_GPIO_SLEEP?DRV_GPIO
  +--> ?PR?E2P_IIC_INITAIL?DRV_E2P_I2CSOFT
  +--> ?PR?E2P_STOP_I2C?DRV_E2P_I2CSOFT
  +--> ?PR?API_MEASURE_RAM_INIT?API_MEASURE
  +--> ?PR?_SETEXTRTC?DRV_RTC
  +--> ?PR?INIT_RTC?DRV_RTC
  +--> ?PR?SET_MCUSLEEP?DRV_CORE
  +--> ?PR?_SET_MCUCLOCK?DRV_CORE
  +--> ?PR?_GET_RTCTIME?DRV_RTC
  +--> ?PR?_LIB_COPY_STR_TWOARRY?LIB_MYSPRING
BL51 BANKED LINKER/LOCATER V6.22                                                      03/05/2019  13:48:08  PAGE 21


  +--> ?PR?JUDGE_ERR_COVER_KEY?DRV_KEY_IO
  +--> ?PR?_API_PWL_COVER_EVEN_CLASS_RECODE?...
  +--> ?PR?INIT_GPIO_RUN?DRV_GPIO
  +--> ?PR?E2P_START_I2C?DRV_E2P_I2CSOFT
  +--> ?PR?_MEM_WRITE?PROC_EXMEM
  +--> ?PR?SYS_ERR?PROC_SYSTEM_INITIALIZE
  +--> ?PR?API_FREEZE_ENERGY_RAM_PRE_DAY?API...
  +--> ?PR?PROC_DISPLAY_POWER_DOWN_PROCESS?P...

?PR?API_ACCUM_CURRENT_ENERGY_DATA_PRE...         -----    -----      -----    -----      0007H    0002H
  +--> ?PR?API_CHECK_CURRENT_ENERGY_DATA?API...
  +--> ?PR?LNK_ADD_FAC_ENERGY_PLUSE?API_ENERGY
  +--> ?PR?_LIB_GET_CSCK_INT16U_NUM?LIB_MYMATH
  +--> ?PR?_LIB_COPY_STR_TWOARRY?LIB_MYSPRING
  +--> ?PR?_MEM_DB_WRITE?PROC_EXMEM

?PR?_API_PWL_COVER_EVEN_CLASS_RECODE?...         -----    -----      -----    -----      0007H    009CH
  +--> ?PR?_MEM_DB_WRITE?PROC_EXMEM
  +--> ?PR?_MEM_READ?PROC_EXMEM
  +--> ?PR?_LIB_COPY_STR_TWOARRY?LIB_MYSPRING
  +--> ?PR?_LIB_SET_STRING?LIB_MYSPRING
  +--> ?PR?_LIB_GET_CSCK_INT16U_NUM?LIB_MYMATH
  +--> ?PR?_MEM_WRITE?PROC_EXMEM
  +--> ?PR?_GETTOTALTIME?API_EVENT

?PR?API_FREEZE_ENERGY_RAM_PRE_DAY?API...         -----    -----      -----    -----      0007H    0001H
  +--> ?PR?_MEM_READ?PROC_EXMEM
  +--> ?PR?_MEM_WRITE?PROC_EXMEM
  +--> ?PR?_LIB_GET_CSCK_INT16U_NUM?LIB_MYMATH

?PR?PROC_DISPLAY_POWER_DOWN_PROCESS?P...         -----    -----      -----    -----      -----    -----
  +--> ?PR?JUDGE_PG_DN_KEY?DRV_KEY_IO
  +--> ?PR?API_UPDATED_LCDDISPLAYPIXEL_PER_S...

?PR?PROC_HANDL_TOU_1S?PROC_SYSTEM_TOU            -----    -----      -----    -----      0000H    0001H
  +--> ?PR?PROC_GET_CLOCK?PROC_SYSTEM_TOU
  +--> ?PR?API_MEASURE_RAM_INIT?API_MEASURE
  +--> ?PR?API_MEASURE_DEAL_PRE_SECOND?API_M...
  +--> ?PR?API_ACCUM_CURRENT_ENERGY_DATA_PRE...
  +--> ?PR?API_EVEN_DETECT_SEC?API_EVENT
  +--> ?PR?API_UPDATA_MD_VAR_MIN_PER_SECOND?...
  +--> ?PR?PROC_CHECK_PROKEY_PRE_SEC?PROC_SY...
  +--> ?PR?API_UPDATED_LED_PER_SECOND?API_LC...
  +--> ?PR?API_MEASURE_VBAT_PRE_MIN?API_MEASURE
  +--> ?PR?API_UPDATED_LCDDISPLAYITEM_PER_SE...
  +--> ?PR?API_UPDATED_LCDDISPLAYPIXEL_PER_S...
  +--> ?PR?CHECK_EMU_ADJPARAM?LNK_EMU_ADJ
  +--> ?PR?API_UPDATA_MD_VAR_SLID_PER_MINUTE...
  +--> ?PR?API_FREEZE_ENERGY_RAM_PRE_DAY?API...
  +--> ?PR?API_FREEZE_ENERGY_PRE_DAY?API_BIL...
  +--> ?PR?_MEM_READ?PROC_EXMEM
  +--> ?PR?API_HANDL_SETTLE_PER_MINUTE?API_B...
  +--> ?PR?LOADPRO_REC?API_LOADPROFILE
  +--> ?PR?API_UPDATE_TRIFFNO_PRE_MINUTE?API...
  +--> ?PR?HANDL_RTC_ADJ_PER_MINU?DRV_RTC
  +--> ?PR?API_MEASURE_TEMPERATURE_PRE_MIN?A...

BL51 BANKED LINKER/LOCATER V6.22                                                      03/05/2019  13:48:08  PAGE 22


?PR?API_MEASURE_DEAL_PRE_SECOND?API_M...         -----    -----      -----    -----      0001H    000CH
  +--> ?PR?LNK_CAL_EMU_CONSTSUM_PER_SECOND?L...
  +--> ?PR?_LNK_GET_EMU_VOLTAGE?LNK_EMU_HANDL
  +--> ?PR?_LNK_GET_EMU_CURRENT?LNK_EMU_HANDL
  +--> ?PR?_LNK_GET_EMU_FREQ?LNK_EMU_HANDL

?PR?LNK_CAL_EMU_CONSTSUM_PER_SECOND?L...         -----    -----      -----    -----      000DH    0010H
  +--> ?PR?_READMETERPARAACK?DRV_EMU_HARD
  +--> ?PR?_SETMETERCFGACK?DRV_EMU_HARD
  +--> ?CO?LNK_EMU_ADJ

?PR?_LNK_GET_EMU_VOLTAGE?LNK_EMU_HANDL           -----    -----      -----    -----      000DH    0011H
  +--> ?PR?_READMETERPARAACK?DRV_EMU_HARD
  +--> ?PR?_LIB_REV_COPY_ARRY?LIB_MYSPRING

?PR?_LNK_GET_EMU_CURRENT?LNK_EMU_HANDL           -----    -----      -----    -----      000DH    0011H
  +--> ?PR?_READMETERPARAACK?DRV_EMU_HARD

?PR?_LNK_GET_EMU_FREQ?LNK_EMU_HANDL              -----    -----      -----    -----      000DH    000DH
  +--> ?PR?_READMETERPARAACK?DRV_EMU_HARD
  +--> ?PR?_LIB_REV_COPY_ARRY?LIB_MYSPRING

?PR?API_EVEN_DETECT_SEC?API_EVENT                -----    -----      -----    -----      -----    -----
  +--> ?PR?CHECKPOWERUP?PROC_SYSTEM_CHECK
  +--> ?PR?API_EVEN_EE_ERR?API_EVENT
  +--> ?PR?API_EVEN_DETECT_LOWBATTERY?API_EVENT
  +--> ?PR?_API_DEAL_EVEN_CLASS_RECODE?API_E...
  +--> ?PR?API_EVEN_DETECT_L1REVERSE?API_EVENT
  +--> ?PR?JUDGE_ERR_COVER_KEY?DRV_KEY_IO

?PR?API_EVEN_EE_ERR?API_EVENT                    -----    -----      -----    -----      -----    -----
  +--> ?PR?_MEM_READ?PROC_EXMEM
  +--> ?PR?_API_DEAL_EVEN_CLASS_RECODE?API_E...

?PR?API_UPDATA_MD_VAR_MIN_PER_SECOND?...         -----    -----      -----    -----      0001H    0001H
  +--> ?PR?LNK_UPDATA_MD_VAR_POWER_PER_SECON...

?PR?LNK_UPDATA_MD_VAR_POWER_PER_SECON...         -----    -----      -----    -----      0002H    0001H
  +--> ?PR?SYS_ERR?PROC_SYSTEM_INITIALIZE

?PR?PROC_CHECK_PROKEY_PRE_SEC?PROC_SY...         -----    -----      -----    -----      -----    -----
  +--> ?PR?JUDGE_ERR_ADJ_KEY?DRV_KEY_IO
  +--> ?PR?API_CLR_CURRENT_ENERGY_DATA?API_E...
  +--> ?PR?API_CLR_CURRENT_MD_DATA?API_DEMAND
  +--> ?PR?API_CLR_FREEZE_ENERGY?API_DEMAND
  +--> ?PR?API_CLR_BILL_DATA?API_BILL_RECORD
  +--> ?PR?LOADPRORST?API_LOADPROFILE
  +--> ?PR?API_CLR_EVEN_BY_COMM?API_EVENT
  +--> ?PR?_API_CHG_LCDDISPLAY_ADJ_ITEM?API_...

?PR?API_UPDATED_LCDDISPLAYITEM_PER_SE...         -----    -----      -----    -----      -----    -----
  +--> ?PR?API_GET_NEXT_DIS_ITEM?API_LCD_DIS...

?PR?API_UPDATA_MD_VAR_SLID_PER_MINUTE...         -----    -----      -----    -----      0001H    0006H
  +--> ?PR?_API_CHECK_DEMAND_PARA?API_DEMAND
  +--> ?PR?_API_CMP_SAVE_MD_DATA?API_DEMAND

BL51 BANKED LINKER/LOCATER V6.22                                                      03/05/2019  13:48:08  PAGE 23


?PR?_API_CMP_SAVE_MD_DATA?API_DEMAND             -----    -----      -----    -----      0007H    0010H
  +--> ?PR?_MEM_READ?PROC_EXMEM
  +--> ?PR?_MEM_DB_WRITE?PROC_EXMEM
  +--> ?PR?_MEM_WRITE?PROC_EXMEM

?PR?API_HANDL_SETTLE_PER_MINUTE?API_B...         -----    -----      -----    -----      0001H    0006H
  +--> ?PR?_MEM_READ?PROC_EXMEM
  +--> ?PR?_LIB_BCD_BYTE?LIB_MYMATH
  +--> ?PR?_API_WRITE_BILL_DATA?API_BILL_RECORD
  +--> ?PR?API_CLR_CURRENT_MD_DATA?API_DEMAND

?PR?LOADPRO_REC?API_LOADPROFILE                  -----    -----      -----    -----      0001H    0006H
  +--> ?PR?_MEM_READ?PROC_EXMEM
  +--> ?PR?_LIB_BCD2_WORD?LIB_MYMATH
  +--> ?PR?_LIB_BCD_BYTE?LIB_MYMATH
  +--> ?PR?_LOAD_REC?API_LOADPROFILE

?PR?_LIB_BCD2_WORD?LIB_MYMATH                    -----    -----      -----    -----      -----    -----
  +--> ?PR?_LIB_BCD_BYTE?LIB_MYMATH

?PR?_LOAD_REC?API_LOADPROFILE                    -----    -----      -----    -----      0007H    001AH
  +--> ?PR?_LIB_SET_STRING?LIB_MYSPRING
  +--> ?PR?_LIB_COPY_STR_TWOARRY?LIB_MYSPRING
  +--> ?PR?_API_GET_ENERGY_LCD?API_LCD_DISPLAY
  +--> ?PR?_LIB_LONG_BCD4?LIB_MYMATH
  +--> ?PR?_MEM_READ?PROC_EXMEM
  +--> ?PR?_MEM_DB_WRITE?PROC_EXMEM
  +--> ?PR?_MEM_WRITE?PROC_EXMEM

?PR?HANDL_RTC_ADJ_PER_MINU?DRV_RTC               -----    -----      -----    -----      0001H    0012H

*** NEW ROOT ***************************************************

?PR?INTERRUPT_EXINT2?PROC_SYSTEM_INTE...         -----    -----      -----    -----      0236H    0002H
  +--> ?PR?EN_UART4_RX?DRV_UART
  +--> ?PR?_INIT_UART_SOFT?DRV_UART



UNRESOLVED EXTERNAL SYMBOLS:
   ?_WRITERACCOON?BYTE
   GS_RACCTRL
   G_LORACONFIG
   RX_MODE
   SX127X_INIT
   _LSD_RF_RXPACKET
   _READRACCOON
   _SX1276_TXPACKET
   _WRITERACCOON



SYMBOL TABLE OF MODULE:  DI03B_9811A_V10 (?C_STARTUP)

  VALUE           TYPE          NAME
  ----------------------------------

BL51 BANKED LINKER/LOCATER V6.22                                                      03/05/2019  13:48:08  PAGE 24


  -------         MODULE        ?C_STARTUP
  C:CFEAH         SEGMENT       ?C_C51STARTUP
  I:0021H         SEGMENT       ?STACK
  C:0000H         PUBLIC        ?C_STARTUP
  D:00E0H         SYMBOL        ACC
  D:00F0H         SYMBOL        B
  D:0083H         SYMBOL        DPH
  D:0082H         SYMBOL        DPL
  N:0000H         SYMBOL        IBPSTACK
  N:0100H         SYMBOL        IBPSTACKTOP
  N:0080H         SYMBOL        IDATALEN
  N:0000H         SYMBOL        PBPSTACK
  N:0000H         SYMBOL        PBPSTACKTOP
  N:0000H         SYMBOL        PDATALEN
  N:0000H         SYMBOL        PDATASTART
  N:0000H         SYMBOL        PPAGE
  N:0000H         SYMBOL        PPAGEENABLE
  D:00A0H         SYMBOL        PPAGE_SFR
  D:0081H         SYMBOL        SP
  C:CFEAH         SYMBOL        STARTUP1
  N:0000H         SYMBOL        XBPSTACK
  N:0000H         SYMBOL        XBPSTACKTOP
  N:0000H         SYMBOL        XDATALEN
  N:0000H         SYMBOL        XDATASTART
  C:0400H         LINE#         82
  C:0000H         LINE#         105
  C:CFEAH         LINE#         163
  C:CFEDH         LINE#         167
  -------         ENDMOD        ?C_STARTUP

  -------         MODULE        MAIN
  C:0000H         SYMBOL        _ICE_DUMMY_
  D:00CEH         PUBLIC        wdt0
  D:0090H         PUBLIC        P1
  D:00CFH         PUBLIC        wdt1
  D:00B0H         PUBLIC        P3
  B:00A8H.7       PUBLIC        EA
  D:00A8H         PUBLIC        IE
  D:00B8H         PUBLIC        IP
  C:BBFFH         PUBLIC        main
  D:0098H         PUBLIC        SCON
  D:0088H         PUBLIC        TCON
  D:00F0H         PUBLIC        B
  D:00E0H         PUBLIC        ACC
  D:0080H         PUBLIC        SysCtrl
  D:00C8H         PUBLIC        T2CON
  X:0781H         PUBLIC        debug_tmp1
  D:00D0H         PUBLIC        PSW
  -------         PROC          MAIN
  C:BBFFH         LINE#         30
  C:BBFFH         LINE#         31
  C:BBFFH         LINE#         33
  C:BC00H         LINE#         34
  C:BC0EH         LINE#         35
  C:BC10H         LINE#         36
  C:BC13H         LINE#         37
  C:BC15H         LINE#         38
BL51 BANKED LINKER/LOCATER V6.22                                                      03/05/2019  13:48:08  PAGE 25


  C:BC16H         LINE#         39
  C:BC16H         LINE#         40
  C:BC16H         LINE#         41
  C:BC24H         LINE#         42
  C:BC2FH         LINE#         43
  C:BC2FH         LINE#         44
  C:BC3DH         LINE#         45
  C:BC45H         LINE#         46
  C:BC45H         LINE#         47
  C:BC48H         LINE#         48
  C:BC4BH         LINE#         49
  C:BC4BH         LINE#         51
  C:BC4EH         LINE#         52
  C:BC56H         LINE#         53
  C:BC56H         LINE#         54
  C:BC59H         LINE#         55
  C:BC5CH         LINE#         56
  C:BC5CH         LINE#         57
  C:BC6BH         LINE#         58
  C:BC6BH         LINE#         59
  C:BC6EH         LINE#         60
  C:BC6EH         LINE#         61
  C:BC76H         LINE#         62
  C:BC76H         LINE#         63
  C:BC77H         LINE#         64
  C:BC7AH         LINE#         65
  C:BC88H         LINE#         66
  C:BC8FH         LINE#         67
  C:BC94H         LINE#         68
  C:BC9AH         LINE#         69
  C:BC9AH         LINE#         71
  C:BC9DH         LINE#         72
  C:BCA0H         LINE#         73
  C:BCAEH         LINE#         74
  C:BCAEH         LINE#         76
  C:BCB1H         LINE#         77
  -------         ENDPROC       MAIN
  -------         ENDMOD        MAIN

  -------         MODULE        PROC_DATA
  C:0000H         SYMBOL        _ICE_DUMMY_
  D:0090H         PUBLIC        P1
  D:00B0H         PUBLIC        P3
  D:00A8H         PUBLIC        IE
  D:00B8H         PUBLIC        IP
  D:0098H         PUBLIC        SCON
  D:0088H         PUBLIC        TCON
  D:00F0H         PUBLIC        B
  D:00E0H         PUBLIC        ACC
  C:DCC5H         PUBLIC        default_meter_parm1_tab
  X:064EH         PUBLIC        gs_sys_run
  D:0080H         PUBLIC        SysCtrl
  D:00C8H         PUBLIC        T2CON
  C:D606H         PUBLIC        Proc_sys_data_init
  C:DCB6H         PUBLIC        sys_parm
  D:00D0H         PUBLIC        PSW
  X:0650H         PUBLIC        gs_sys_globaL_var
BL51 BANKED LINKER/LOCATER V6.22                                                      03/05/2019  13:48:08  PAGE 26


  -------         PROC          PROC_SYS_DATA_INIT
  C:D606H         LINE#         82
  C:D606H         LINE#         83
  C:D606H         LINE#         84
  C:D60BH         LINE#         85
  C:D60DH         LINE#         86
  C:D613H         LINE#         87
  C:D618H         LINE#         88
  C:D62FH         LINE#         89
  C:D647H         LINE#         90
  C:D65FH         LINE#         92
  -------         ENDPROC       PROC_SYS_DATA_INIT
  -------         ENDMOD        PROC_DATA

  -------         MODULE        PROC_EXMEM
  C:0000H         SYMBOL        _ICE_DUMMY_
  D:00CEH         PUBLIC        wdt0
  D:0090H         PUBLIC        P1
  D:00CFH         PUBLIC        wdt1
  D:00B0H         PUBLIC        P3
  C:B9CFH         PUBLIC        _mem_db_clr
  D:00A8H         PUBLIC        IE
  C:B791H         PUBLIC        _get_mem_ck_data
  D:00B8H         PUBLIC        IP
  C:ABA8H         PUBLIC        _mem_to_mem
  C:A2DEH         PUBLIC        _get_default_mem_data
  C:CD2AH         PUBLIC        _get_mem_table_Index
  C:D836H         PUBLIC        mem_table
  D:0098H         PUBLIC        SCON
  D:0088H         PUBLIC        TCON
  C:CC0DH         PUBLIC        _mem_read
  D:00F0H         PUBLIC        B
  D:00E0H         PUBLIC        ACC
  C:70D3H         PUBLIC        mem_db_check
  C:C55BH         PUBLIC        _mem_fill
  C:C890H         PUBLIC        _mem_write
  D:0080H         PUBLIC        SysCtrl
  D:00C8H         PUBLIC        T2CON
  C:98E5H         PUBLIC        _mem_db_write
  D:00D0H         PUBLIC        PSW
  C:B787H         SYMBOL        L?0090
  C:B78AH         SYMBOL        L?0091
  -------         PROC          L?0089
  -------         ENDPROC       L?0089
  C:B787H         SYMBOL        L?0090
  C:B78AH         SYMBOL        L?0091
  -------         PROC          _GET_MEM_CK_DATA
  X:018BH         SYMBOL        src
  X:018DH         SYMBOL        lenth
  X:018FH         SYMBOL        memType
  -------         DO            
  X:0190H         SYMBOL        size
  X:0191H         SYMBOL        tmpBuf
  X:01D1H         SYMBOL        sum
  -------         ENDDO         
  C:B791H         LINE#         77
  C:B7A2H         LINE#         78
BL51 BANKED LINKER/LOCATER V6.22                                                      03/05/2019  13:48:08  PAGE 27


  C:B7A2H         LINE#         81
  C:B7ACH         LINE#         83
  C:B7BFH         LINE#         84
  C:B7BFH         LINE#         85
  C:B7CAH         LINE#         86
  C:B7CAH         LINE#         87
  C:B7CDH         LINE#         88
  C:B7CFH         LINE#         90
  C:B7CFH         LINE#         91
  C:B7D1H         LINE#         92
  C:B7D1H         LINE#         93
  C:B7F7H         LINE#         94
  C:B81AH         LINE#         95
  C:B82DH         LINE#         96
  C:B83AH         LINE#         97
  C:B83DH         LINE#         99
  C:B845H         LINE#         100
  -------         ENDPROC       _GET_MEM_CK_DATA
  -------         PROC          _GET_MEM_TABLE_INDEX
  X:018BH         SYMBOL        adr
  D:0005H         SYMBOL        memType
  -------         DO            
  D:0007H         SYMBOL        i
  D:0001H         SYMBOL        len
  X:018DH         SYMBOL        blkAddr
  -------         ENDDO         
  C:CD2AH         LINE#         109
  C:CD32H         LINE#         110
  C:CD32H         LINE#         115
  C:CD34H         LINE#         116
  C:CD34H         LINE#         117
  C:CD47H         LINE#         118
  C:CD47H         LINE#         119
  C:CD4CH         LINE#         120
  C:CD4CH         LINE#         121
  C:CD4FH         LINE#         122
  C:CD4FH         LINE#         124
  C:CD4FH         LINE#         125
  C:CD6BH         LINE#         126
  C:CD6BH         LINE#         127
  C:CD7DH         LINE#         129
  C:CDAEH         LINE#         130
  C:CDAEH         LINE#         131
  C:CDAFH         LINE#         132
  C:CDAFH         LINE#         133
  C:CDAFH         LINE#         134
  C:CDB8H         LINE#         135
  C:CDBAH         LINE#         136
  -------         ENDPROC       _GET_MEM_TABLE_INDEX
  C:AB94H         SYMBOL        L?0088
  -------         PROC          L?0087
  -------         ENDPROC       L?0087
  C:AB94H         SYMBOL        L?0088
  -------         PROC          _MEM_TO_MEM
  X:0010H         SYMBOL        dst
  X:0012H         SYMBOL        src
  X:0014H         SYMBOL        lenth
BL51 BANKED LINKER/LOCATER V6.22                                                      03/05/2019  13:48:08  PAGE 28


  X:0016H         SYMBOL        mode
  -------         DO            
  X:0017H         SYMBOL        tmp_Buffer
  X:0057H         SYMBOL        size
  -------         ENDDO         
  C:ABA8H         LINE#         142
  C:ABBCH         LINE#         143
  C:ABBCH         LINE#         147
  C:ABCFH         LINE#         148
  C:ABCFH         LINE#         149
  C:ABDBH         LINE#         150
  C:ABDBH         LINE#         151
  C:ABDEH         LINE#         152
  C:ABE0H         LINE#         154
  C:ABE0H         LINE#         155
  C:ABE2H         LINE#         156
  C:ABE2H         LINE#         157
  C:AC0CH         LINE#         158
  C:AC1AH         LINE#         159
  C:AC42H         LINE#         160
  C:AC56H         LINE#         161
  C:AC62H         LINE#         162
  C:AC70H         LINE#         163
  C:AC73H         LINE#         165
  -------         ENDPROC       _MEM_TO_MEM
  -------         PROC          _MEM_FILL
  X:007AH         SYMBOL        dst
  X:007CH         SYMBOL        lenth
  D:0007H         SYMBOL        xx
  X:007FH         SYMBOL        memType
  -------         DO            
  X:0080H         SYMBOL        tmp_Buffer
  X:00C0H         SYMBOL        size
  -------         ENDDO         
  C:C55BH         LINE#         171
  C:C56BH         LINE#         172
  C:C56BH         LINE#         176
  C:C57FH         LINE#         178
  C:C58FH         LINE#         179
  C:C58FH         LINE#         180
  C:C59BH         LINE#         181
  C:C59BH         LINE#         182
  C:C59EH         LINE#         183
  C:C5A0H         LINE#         185
  C:C5A0H         LINE#         186
  C:C5A2H         LINE#         187
  C:C5A2H         LINE#         188
  C:C5C8H         LINE#         189
  C:C5D6H         LINE#         190
  C:C5E9H         LINE#         191
  C:C5F6H         LINE#         192
  C:C5F8H         LINE#         193
  -------         ENDPROC       _MEM_FILL
  -------         PROC          L?0092
  -------         ENDPROC       L?0092
  -------         PROC          _MEM_READ
  X:01D3H         SYMBOL        dst
BL51 BANKED LINKER/LOCATER V6.22                                                      03/05/2019  13:48:08  PAGE 29


  X:01D6H         SYMBOL        src
  X:01D8H         SYMBOL        lenth
  X:01DAH         SYMBOL        memType
  -------         DO            
  X:01DBH         SYMBOL        ptr_adr
  -------         ENDDO         
  C:CC0DH         LINE#         198
  C:CC1EH         LINE#         199
  C:CC1EH         LINE#         202
  C:CC29H         LINE#         203
  C:CC29H         LINE#         204
  C:CC29H         LINE#         205
  C:CC3FH         LINE#         206
  C:CC71H         LINE#         208
  C:CC71H         LINE#         210
  C:CC71H         LINE#         211
  C:CC92H         LINE#         212
  C:CC92H         LINE#         214
  C:CC92H         LINE#         215
  C:CC95H         LINE#         216
  C:CC95H         LINE#         217
  C:CC95H         LINE#         218
  -------         ENDPROC       _MEM_READ
  C:C87EH         SYMBOL        L?0085
  C:C885H         SYMBOL        L?0086
  -------         PROC          L?0084
  -------         ENDPROC       L?0084
  C:C87EH         SYMBOL        L?0085
  C:C885H         SYMBOL        L?0086
  -------         PROC          _MEM_WRITE
  X:018BH         SYMBOL        dst
  X:018DH         SYMBOL        src
  X:0190H         SYMBOL        lenth
  X:0192H         SYMBOL        memType
  -------         DO            
  D:0001H         SYMBOL        ptr_adr
  -------         ENDDO         
  C:C890H         LINE#         223
  C:C8A1H         LINE#         224
  C:C8A1H         LINE#         227
  C:C8ACH         LINE#         228
  C:C8ACH         LINE#         229
  C:C8ACH         LINE#         230
  C:C8B8H         LINE#         231
  C:C8E5H         LINE#         232
  C:C8E5H         LINE#         234
  C:C8E5H         LINE#         235
  C:C906H         LINE#         236
  C:C906H         LINE#         238
  C:C906H         LINE#         239
  C:C909H         LINE#         241
  C:C909H         LINE#         242
  C:C909H         LINE#         243
  -------         ENDPROC       _MEM_WRITE
  -------         PROC          _MEM_DB_WRITE
  X:0179H         SYMBOL        dst
  X:017BH         SYMBOL        src
BL51 BANKED LINKER/LOCATER V6.22                                                      03/05/2019  13:48:08  PAGE 30


  X:017EH         SYMBOL        len
  X:0180H         SYMBOL        memType
  -------         DO            
  X:0181H         SYMBOL        index
  X:0182H         SYMBOL        checkNum
  X:0184H         SYMBOL        adr_dst
  X:0186H         SYMBOL        adr_csck
  X:0188H         SYMBOL        lenth
  X:018AH         SYMBOL        id_No
  -------         ENDDO         
  C:98E5H         LINE#         259
  C:98F8H         LINE#         260
  C:98F8H         LINE#         269
  C:9905H         LINE#         271
  C:990AH         LINE#         272
  C:990AH         LINE#         273
  C:990DH         LINE#         274
  C:990DH         LINE#         275
  C:992DH         LINE#         276
  C:994DH         LINE#         277
  C:995FH         LINE#         278
  C:9976H         LINE#         280
  C:999FH         LINE#         281
  C:99B5H         LINE#         282
  C:99BFH         LINE#         283
  C:99C8H         LINE#         284
  C:99C8H         LINE#         285
  C:99F9H         LINE#         286
  C:9A10H         LINE#         287
  C:9A10H         LINE#         289
  -------         ENDPROC       _MEM_DB_WRITE
  -------         PROC          _GET_DEFAULT_MEM_DATA
  D:0007H         SYMBOL        index
  -------         DO            
  X:0010H         SYMBOL        adrAry
  X:0012H         SYMBOL        lenth
  D:0006H         SYMBOL        i
  -------         ENDDO         
  C:A2DEH         LINE#         300
  C:A2DEH         LINE#         301
  C:A2DEH         LINE#         306
  C:A2E0H         LINE#         307
  C:A2E0H         LINE#         308
  C:A2F3H         LINE#         309
  C:A2F8H         LINE#         311
  C:A301H         LINE#         314
  C:A31DH         LINE#         315
  C:A33CH         LINE#         317
  C:A353H         LINE#         318
  C:A353H         LINE#         319
  C:A353H         LINE#         320
  C:A361H         LINE#         321
  C:A363H         LINE#         323
  C:A363H         LINE#         324
  C:A371H         LINE#         325
  C:A373H         LINE#         328
  C:A373H         LINE#         329
BL51 BANKED LINKER/LOCATER V6.22                                                      03/05/2019  13:48:08  PAGE 31


  C:A381H         LINE#         330
  C:A383H         LINE#         337
  C:A383H         LINE#         338
  C:A391H         LINE#         339
  C:A393H         LINE#         341
  C:A393H         LINE#         342
  C:A3A1H         LINE#         343
  C:A3A3H         LINE#         345
  C:A3A3H         LINE#         346
  C:A3C5H         LINE#         347
  C:A3C5H         LINE#         353
  C:A3C5H         LINE#         354
  C:A3DEH         LINE#         355
  C:A3DEH         LINE#         356
  C:A3DEH         LINE#         357
  -------         ENDPROC       _GET_DEFAULT_MEM_DATA
  -------         PROC          MEM_DB_CHECK
  -------         DO            
  X:0003H         SYMBOL        i
  X:0004H         SYMBOL        checkNum0
  X:0006H         SYMBOL        checkNum1
  X:0008H         SYMBOL        adr_dst
  X:000AH         SYMBOL        adr_csck
  X:000CH         SYMBOL        lenth
  X:000EH         SYMBOL        staus
  X:000FH         SYMBOL        u8_No
  -------         ENDDO         
  C:70D3H         LINE#         372
  C:70D3H         LINE#         373
  C:70D3H         LINE#         383
  C:70E5H         LINE#         384
  C:70E5H         LINE#         385
  C:70EAH         LINE#         386
  C:710AH         LINE#         387
  C:7129H         LINE#         388
  C:7142H         LINE#         389
  C:7156H         LINE#         391
  C:7164H         LINE#         393
  C:7179H         LINE#         394
  C:718AH         LINE#         395
  C:71A5H         LINE#         397
  C:71AEH         LINE#         398
  C:71AEH         LINE#         400
  C:71C7H         LINE#         401
  C:71DEH         LINE#         402
  C:71F9H         LINE#         403
  C:71F9H         LINE#         409
  C:7207H         LINE#         410
  C:721BH         LINE#         411
  C:721BH         LINE#         412
  C:721BH         LINE#         414
  C:721BH         LINE#         416
  C:721BH         LINE#         417
  C:7224H         LINE#         418
  C:7224H         LINE#         419
  C:7236H         LINE#         420
  C:7239H         LINE#         422
BL51 BANKED LINKER/LOCATER V6.22                                                      03/05/2019  13:48:08  PAGE 32


  C:7239H         LINE#         423
  C:7241H         LINE#         424
  C:7244H         LINE#         425
  C:7247H         LINE#         426
  C:7247H         LINE#         427
  C:7247H         LINE#         428
  C:724AH         LINE#         430
  C:724AH         LINE#         431
  C:7253H         LINE#         432
  C:7253H         LINE#         433
  C:7256H         LINE#         434
  C:7256H         LINE#         435
  C:7256H         LINE#         437
  C:7258H         LINE#         439
  C:7258H         LINE#         440
  C:7260H         LINE#         441
  C:7263H         LINE#         442
  C:7266H         LINE#         443
  C:7274H         LINE#         444
  C:727DH         LINE#         445
  C:727DH         LINE#         446
  C:7280H         LINE#         447
  C:728EH         LINE#         448
  C:728EH         LINE#         449
  C:7290H         LINE#         451
  C:7290H         LINE#         452
  C:7293H         LINE#         453
  C:7293H         LINE#         454
  C:7293H         LINE#         455
  C:72A1H         LINE#         457
  C:72AAH         LINE#         459
  -------         ENDPROC       MEM_DB_CHECK
  -------         PROC          _MEM_DB_CLR
  X:0095H         SYMBOL        type
  -------         DO            
  X:0096H         SYMBOL        i
  X:0097H         SYMBOL        checkNum0
  D:0004H         SYMBOL        adr_dst
  X:0099H         SYMBOL        adr_csck
  D:0006H         SYMBOL        lenth
  X:009BH         SYMBOL        u8_No
  -------         ENDDO         
  C:B9CFH         LINE#         475
  C:B9D4H         LINE#         476
  C:B9D4H         LINE#         484
  C:B9E4H         LINE#         485
  C:B9E4H         LINE#         486
  C:B9FAH         LINE#         487
  C:BA0DH         LINE#         488
  C:BA18H         LINE#         489
  C:BA2DH         LINE#         491
  C:BA38H         LINE#         492
  C:BA38H         LINE#         493
  C:BA46H         LINE#         495
  C:BA4DH         LINE#         496
  C:BA5EH         LINE#         498
  C:BA67H         LINE#         499
BL51 BANKED LINKER/LOCATER V6.22                                                      03/05/2019  13:48:08  PAGE 33


  C:BA67H         LINE#         501
  C:BA6EH         LINE#         502
  C:BA85H         LINE#         503
  C:BA85H         LINE#         504
  C:BA85H         LINE#         506
  C:BA8EH         LINE#         508
  -------         ENDPROC       _MEM_DB_CLR
  -------         ENDMOD        PROC_EXMEM

  -------         MODULE        PROC_SYSTEM_CHECK
  C:0000H         SYMBOL        _ICE_DUMMY_
  D:00CEH         PUBLIC        wdt0
  D:0090H         PUBLIC        P1
  D:00CFH         PUBLIC        wdt1
  D:00B0H         PUBLIC        P3
  D:00A8H         PUBLIC        IE
  C:EEA3H         PUBLIC        CheckPOWERUP
  D:00B8H         PUBLIC        IP
  C:EF44H         PUBLIC        Proc_init_Check_var
  C:004AH         PUBLIC        Proc_Check_System_Pre_Cycle
  X:075AH         PUBLIC        gs_sys_check_var
  D:0098H         PUBLIC        SCON
  D:0088H         PUBLIC        TCON
  C:BE18H         PUBLIC        Proc_Check_PROKEY_Pre_sec
  D:00F0H         PUBLIC        B
  D:00E0H         PUBLIC        ACC
  D:0080H         PUBLIC        SysCtrl
  C:DF3DH         PUBLIC        Proc_Check_COVER_Pre_sec
  D:00C8H         PUBLIC        T2CON
  D:00A1H         PUBLIC        Systate
  D:00D0H         PUBLIC        PSW
  -------         PROC          PROC_CHECK_PROKEY_PRE_SEC
  C:BE18H         LINE#         31
  C:BE18H         LINE#         32
  C:BE18H         LINE#         33
  C:BE23H         LINE#         34
  C:BE23H         LINE#         35
  C:BE2FH         LINE#         36
  C:BE2FH         LINE#         37
  C:BE32H         LINE#         38
  C:BE3BH         LINE#         39
  C:BE3BH         LINE#         40
  C:BE46H         LINE#         41
  C:BE46H         LINE#         42
  C:BE4EH         LINE#         43
  C:BE4EH         LINE#         46
  C:BE51H         LINE#         47
  C:BE5FH         LINE#         48
  C:BE62H         LINE#         49
  C:BE70H         LINE#         50
  C:BE73H         LINE#         51
  C:BE81H         LINE#         53
  C:BE84H         LINE#         55
  C:BE87H         LINE#         56
  C:BE95H         LINE#         57
  C:BE98H         LINE#         58
  C:BEA6H         LINE#         59
BL51 BANKED LINKER/LOCATER V6.22                                                      03/05/2019  13:48:08  PAGE 34


  C:BEABH         LINE#         60
  C:BEB1H         LINE#         61
  C:BEB1H         LINE#         62
  C:BEB1H         LINE#         63
  C:BEB1H         LINE#         64
  C:BEB1H         LINE#         65
  C:BEB2H         LINE#         67
  C:BEB2H         LINE#         68
  C:BEBEH         LINE#         69
  C:BEC6H         LINE#         70
  C:BEC6H         LINE#         71
  -------         ENDPROC       PROC_CHECK_PROKEY_PRE_SEC
  -------         PROC          PROC_CHECK_COVER_PRE_SEC
  C:DF3DH         LINE#         73
  C:DF3DH         LINE#         74
  C:DF3DH         LINE#         75
  C:DF45H         LINE#         76
  C:DF45H         LINE#         77
  C:DF4EH         LINE#         78
  C:DF4EH         LINE#         79
  C:DF51H         LINE#         80
  C:DF57H         LINE#         81
  C:DF57H         LINE#         83
  C:DF57H         LINE#         84
  C:DF5DH         LINE#         85
  C:DF5DH         LINE#         86
  C:DF64H         LINE#         87
  C:DF6AH         LINE#         89
  C:DF6AH         LINE#         90
  C:DF6AH         LINE#         91
  C:DF6AH         LINE#         92
  C:DF6AH         LINE#         93
  C:DF6BH         LINE#         95
  C:DF6BH         LINE#         96
  C:DF7AH         LINE#         97
  C:DF80H         LINE#         98
  C:DF80H         LINE#         99
  C:DF85H         LINE#         100
  C:DF85H         LINE#         101
  C:DF8CH         LINE#         102
  C:DF91H         LINE#         103
  C:DF91H         LINE#         105
  C:DF91H         LINE#         106
  C:DF91H         LINE#         107
  -------         ENDPROC       PROC_CHECK_COVER_PRE_SEC
  -------         PROC          PROC_INIT_CHECK_VAR
  C:EF44H         LINE#         121
  C:EF44H         LINE#         122
  C:EF44H         LINE#         123
  -------         ENDPROC       PROC_INIT_CHECK_VAR
  -------         PROC          PROC_CHECK_SYSTEM_PRE_CYCLE
  C:004AH         LINE#         135
  C:004AH         LINE#         136
  C:004AH         LINE#         140
  -------         ENDPROC       PROC_CHECK_SYSTEM_PRE_CYCLE
  -------         PROC          CHECKPOWERUP
  -------         DO            
BL51 BANKED LINKER/LOCATER V6.22                                                      03/05/2019  13:48:08  PAGE 35


  D:0007H         SYMBOL        i
  -------         ENDDO         
  C:EEA3H         LINE#         151
  C:EEA3H         LINE#         152
  C:EEA3H         LINE#         155
  C:EEA5H         LINE#         156
  C:EEA5H         LINE#         163
  C:EEAAH         LINE#         166
  C:EEAAH         LINE#         167
  C:EEAFH         LINE#         168
  C:EEB5H         LINE#         169
  C:EEB8H         LINE#         171
  C:EEBAH         LINE#         173
  -------         ENDPROC       CHECKPOWERUP
  -------         ENDMOD        PROC_SYSTEM_CHECK

  -------         MODULE        PROC_SYSTEM_INITIALIZE
  C:0000H         SYMBOL        _ICE_DUMMY_
  C:DFE7H         PUBLIC        Proc_handle_when_systerm_reset
  D:00CEH         PUBLIC        wdt0
  D:0090H         PUBLIC        P1
  D:00CFH         PUBLIC        wdt1
  C:D0EBH         PUBLIC        Proc_Initialize_systerm_normal_mode
  D:00B0H         PUBLIC        P3
  B:00A8H.7       PUBLIC        EA
  C:EF80H         PUBLIC        sys_err
  D:00A8H         PUBLIC        IE
  C:E9C4H         PUBLIC        Proc_Initialize_systerm_reset
  D:00A5H         PUBLIC        P9IE
  D:00B8H         PUBLIC        IP
  D:00A4H         PUBLIC        P9OE
  C:AD5AH         PUBLIC        Proc_Initialize_INRam
  C:E2DEH         PUBLIC        Proc_sleep_when_reset
  D:0098H         PUBLIC        SCON
  D:0088H         PUBLIC        TCON
  D:00C9H         PUBLIC        IOWK
  D:008FH         PUBLIC        SPCFNC
  D:00F0H         PUBLIC        B
  D:00E0H         PUBLIC        ACC
  D:0090H         PUBLIC        RTCPEN
  D:0097H         PUBLIC        RTCPWD
  D:0080H         PUBLIC        SysCtrl
  D:00A0H         PUBLIC        CBANK
  C:E086H         PUBLIC        Proc_display_Power_down_process
  B:0080H.4       PUBLIC        PMG
  D:00C8H         PUBLIC        T2CON
  D:00A1H         PUBLIC        Systate
  D:0094H         PUBLIC        RTCCH
  C:8376H         PUBLIC        Proc_judge_Power_down_process
  D:0095H         PUBLIC        RTCCL
  D:00D0H         PUBLIC        PSW
  -------         PROC          PROC_HANDLE_WHEN_SYSTERM_RESET
  C:DFE7H         LINE#         30
  C:DFE7H         LINE#         31
  C:DFE7H         LINE#         40
  C:DFEDH         LINE#         42
  C:E005H         LINE#         43
BL51 BANKED LINKER/LOCATER V6.22                                                      03/05/2019  13:48:08  PAGE 36


  C:E005H         LINE#         44
  C:E008H         LINE#         45
  C:E00BH         LINE#         46
  C:E00EH         LINE#         47
  C:E010H         LINE#         48
  C:E013H         LINE#         49
  C:E016H         LINE#         50
  C:E016H         LINE#         51
  C:E017H         LINE#         54
  C:E01AH         LINE#         55
  C:E020H         LINE#         56
  C:E023H         LINE#         57
  C:E026H         LINE#         58
  C:E02EH         LINE#         62
  C:E031H         LINE#         63
  C:E034H         LINE#         64
  -------         ENDPROC       PROC_HANDLE_WHEN_SYSTERM_RESET
  -------         PROC          PROC_INITIALIZE_INRAM
  -------         DO            
  X:0000H         SYMBOL        eeprom_flg
  -------         ENDDO         
  C:AD5AH         LINE#         77
  C:AD5AH         LINE#         78
  C:AD5AH         LINE#         93
  C:AD73H         LINE#         94
  C:AD85H         LINE#         95
  C:AD85H         LINE#         96
  C:AD8BH         LINE#         97
  C:AD8EH         LINE#         98
  C:AD9FH         LINE#         99
  C:ADA4H         LINE#         100
  C:ADB2H         LINE#         101
  C:ADB2H         LINE#         106
  C:ADB8H         LINE#         107
  C:ADB8H         LINE#         108
  C:ADBBH         LINE#         109
  C:ADC9H         LINE#         110
  C:ADC9H         LINE#         114
  C:ADCCH         LINE#         115
  C:ADCFH         LINE#         116
  C:ADDDH         LINE#         120
  C:ADF7H         LINE#         121
  C:ADFAH         LINE#         122
  C:ADFDH         LINE#         127
  C:AE00H         LINE#         128
  C:AE0EH         LINE#         129
  C:AE11H         LINE#         130
  C:AE14H         LINE#         131
  C:AE17H         LINE#         132
  C:AE1AH         LINE#         133
  C:AE1DH         LINE#         134
  C:AE2BH         LINE#         140
  C:AE2EH         LINE#         141
  C:AE3CH         LINE#         171
  -------         ENDPROC       PROC_INITIALIZE_INRAM
  -------         PROC          PROC_SLEEP_WHEN_RESET
  -------         DO            
BL51 BANKED LINKER/LOCATER V6.22                                                      03/05/2019  13:48:08  PAGE 37


  X:0000H         SYMBOL        check_cnt
  X:0001H         SYMBOL        check_cnt2
  -------         ENDDO         
  C:E2DEH         LINE#         183
  C:E2DEH         LINE#         184
  C:E2DEH         LINE#         188
  C:E2E3H         LINE#         189
  C:E2E5H         LINE#         191
  C:E2F3H         LINE#         259
  C:E301H         LINE#         260
  C:E304H         LINE#         261
  C:E307H         LINE#         263
  C:E30AH         LINE#         264
  C:E30DH         LINE#         265
  C:E310H         LINE#         266
  C:E317H         LINE#         268
  C:E31AH         LINE#         269
  C:E31DH         LINE#         270
  C:E322H         LINE#         271
  C:E322H         LINE#         272
  C:E325H         LINE#         273
  C:E325H         LINE#         275
  -------         ENDPROC       PROC_SLEEP_WHEN_RESET
  -------         PROC          PROC_INITIALIZE_SYSTERM_NORMAL_MODE
  C:D0EBH         LINE#         290
  C:D0EBH         LINE#         291
  C:D0EBH         LINE#         292
  C:D0F6H         LINE#         293
  C:D0F9H         LINE#         294
  C:D0FCH         LINE#         295
  C:D101H         LINE#         296
  C:D10FH         LINE#         297
  C:D112H         LINE#         300
  C:D115H         LINE#         301
  C:D11AH         LINE#         302
  C:D11DH         LINE#         303
  C:D122H         LINE#         304
  C:D125H         LINE#         305
  C:D139H         LINE#         306
  C:D13FH         LINE#         307
  C:D143H         LINE#         308
  C:D14AH         LINE#         309
  C:D15EH         LINE#         310
  C:D164H         LINE#         311
  -------         ENDPROC       PROC_INITIALIZE_SYSTERM_NORMAL_MODE
  -------         PROC          PROC_INITIALIZE_SYSTERM_RESET
  C:E9C4H         LINE#         323
  C:E9C4H         LINE#         324
  C:E9C4H         LINE#         326
  C:E9C7H         LINE#         327
  C:E9CDH         LINE#         328
  C:E9CDH         LINE#         329
  C:E9D4H         LINE#         330
  C:E9D4H         LINE#         331
  C:E9DAH         LINE#         332
  C:E9DAH         LINE#         333
  C:E9E0H         LINE#         334
BL51 BANKED LINKER/LOCATER V6.22                                                      03/05/2019  13:48:08  PAGE 38


  C:E9E2H         LINE#         336
  C:E9E2H         LINE#         337
  C:E9E7H         LINE#         338
  C:E9E7H         LINE#         340
  C:E9EEH         LINE#         341
  C:E9EEH         LINE#         342
  C:E9F1H         LINE#         343
  C:E9F1H         LINE#         345
  C:E9F1H         LINE#         346
  C:E9F4H         LINE#         347
  C:E9F4H         LINE#         348
  -------         ENDPROC       PROC_INITIALIZE_SYSTERM_RESET
  -------         PROC          PROC_DISPLAY_POWER_DOWN_PROCESS
  C:E086H         LINE#         350
  C:E086H         LINE#         351
  C:E086H         LINE#         357
  C:E08FH         LINE#         358
  C:E08FH         LINE#         359
  C:E094H         LINE#         362
  C:E094H         LINE#         369
  C:E09BH         LINE#         370
  C:E09BH         LINE#         371
  C:E09DH         LINE#         372
  C:E0A4H         LINE#         373
  C:E0A4H         LINE#         374
  C:E0A6H         LINE#         375
  C:E0A8H         LINE#         377
  C:E0A8H         LINE#         378
  C:E0AEH         LINE#         379
  C:E0AEH         LINE#         380
  C:E0B1H         LINE#         381
  C:E0B7H         LINE#         382
  C:E0B9H         LINE#         384
  C:E0B9H         LINE#         385
  C:E0C2H         LINE#         386
  C:E0C5H         LINE#         387
  C:E0C5H         LINE#         388
  C:E0CBH         LINE#         389
  C:E0CBH         LINE#         390
  C:E0CFH         LINE#         391
  C:E0D2H         LINE#         392
  C:E0D2H         LINE#         394
  -------         ENDPROC       PROC_DISPLAY_POWER_DOWN_PROCESS
  -------         PROC          PROC_JUDGE_POWER_DOWN_PROCESS
  -------         DO            
  X:0000H         SYMBOL        rtc_data_tmp
  -------         ENDDO         
  C:8376H         LINE#         404
  C:8376H         LINE#         405
  C:8376H         LINE#         408
  C:837FH         LINE#         409
  C:837FH         LINE#         410
  C:8381H         LINE#         411
  C:8383H         LINE#         412
  C:8386H         LINE#         413
  C:839FH         LINE#         417
  C:83A5H         LINE#         419
BL51 BANKED LINKER/LOCATER V6.22                                                      03/05/2019  13:48:08  PAGE 39


  C:83BFH         LINE#         421
  C:83C5H         LINE#         422
  C:83CCH         LINE#         430
  C:83D2H         LINE#         431
  C:83D6H         LINE#         432
  C:83DDH         LINE#         437
  C:83F5H         LINE#         439
  C:83F8H         LINE#         440
  C:83FBH         LINE#         442
  C:83FEH         LINE#         445
  C:8403H         LINE#         446
  C:840AH         LINE#         448
  C:840DH         LINE#         449
  C:8410H         LINE#         450
  C:8413H         LINE#         452
  C:8419H         LINE#         453
  C:841EH         LINE#         454
  C:8422H         LINE#         456
  C:8426H         LINE#         457
  C:842AH         LINE#         458
  C:842AH         LINE#         459
  C:842AH         LINE#         460
  C:8438H         LINE#         461
  C:843FH         LINE#         462
  C:8442H         LINE#         463
  C:8445H         LINE#         464
  C:8448H         LINE#         467
  C:8456H         LINE#         468
  C:8461H         LINE#         472
  C:846AH         LINE#         473
  C:8488H         LINE#         474
  C:848EH         LINE#         475
  C:8492H         LINE#         477
  C:8499H         LINE#         479
  C:849EH         LINE#         480
  C:849EH         LINE#         481
  C:84A1H         LINE#         482
  C:84A4H         LINE#         483
  C:84A7H         LINE#         485
  C:84C1H         LINE#         486
  C:84DBH         LINE#         487
  C:84F4H         LINE#         492
  C:84F7H         LINE#         493
  C:84F7H         LINE#         494
  C:84FAH         LINE#         496
  C:84FDH         LINE#         497
  C:8500H         LINE#         498
  C:8500H         LINE#         500
  C:8500H         LINE#         502
  C:8500H         LINE#         503
  -------         ENDPROC       PROC_JUDGE_POWER_DOWN_PROCESS
  -------         PROC          SYS_ERR
  C:EF80H         LINE#         514
  C:EF80H         LINE#         515
  C:EF80H         LINE#         516
  C:EF8EH         LINE#         518
  C:EF8EH         LINE#         519
BL51 BANKED LINKER/LOCATER V6.22                                                      03/05/2019  13:48:08  PAGE 40


  C:EF8EH         LINE#         520
  C:EF8FH         LINE#         521
  C:EF90H         LINE#         522
  C:EF91H         LINE#         523
  -------         ENDPROC       SYS_ERR
  -------         ENDMOD        PROC_SYSTEM_INITIALIZE

  -------         MODULE        PROC_SYSTEM_INTERRUPT
  C:0000H         SYMBOL        _ICE_DUMMY_
  D:0090H         PUBLIC        P1
  D:00B0H         PUBLIC        P3
  C:EEEBH         PUBLIC        Interrupt_Uart1
  D:00A8H         PUBLIC        IE
  C:0046H         PUBLIC        Interrupt_Int0
  C:004EH         PUBLIC        Interrupt_Int1
  D:00B8H         PUBLIC        IP
  D:0091H         PUBLIC        EXIF
  D:0098H         PUBLIC        SCON
  D:0088H         PUBLIC        TCON
  D:00F0H         PUBLIC        B
  D:00E0H         PUBLIC        ACC
  D:008CH         PUBLIC        TH0
  B:00D0H.0       PUBLIC        P
  D:008AH         PUBLIC        TL0
  C:91B0H         PUBLIC        Interrupt_ExInt2
  C:DB86H         PUBLIC        Interrupt_ExInt3
  C:EA84H         PUBLIC        Interrupt_ExInt4
  D:0080H         PUBLIC        SysCtrl
  D:00C0H         PUBLIC        SCON1
  D:00C8H         PUBLIC        T2CON
  C:DE8CH         PUBLIC        Interrupt_Timer0
  C:F02BH         PUBLIC        Interrupt_Timer1
  C:F02FH         PUBLIC        Interrupt_Timer2
  D:00D0H         PUBLIC        PSW
  -------         PROC          INTERRUPT_INT0
  C:0046H         LINE#         27
  C:0046H         LINE#         29
  C:0049H         LINE#         32
  -------         ENDPROC       INTERRUPT_INT0
  -------         PROC          INTERRUPT_TIMER0
  C:DE8CH         LINE#         38
  C:DE94H         LINE#         41
  C:DE97H         LINE#         42
  C:DE9AH         LINE#         45
  C:DEA1H         LINE#         47
  C:DEB5H         LINE#         48
  C:DEBCH         LINE#         49
  C:DEBCH         LINE#         50
  C:DED7H         LINE#         51
  C:DED7H         LINE#         66
  C:DEDDH         LINE#         81
  -------         ENDPROC       INTERRUPT_TIMER0
  -------         PROC          INTERRUPT_INT1
  C:004EH         LINE#         87
  C:004EH         LINE#         89
  C:0051H         LINE#         90
  -------         ENDPROC       INTERRUPT_INT1
BL51 BANKED LINKER/LOCATER V6.22                                                      03/05/2019  13:48:08  PAGE 41


  -------         PROC          INTERRUPT_TIMER1
  C:F02BH         LINE#         95
  C:F02BH         LINE#         97
  C:F02EH         LINE#         101
  -------         ENDPROC       INTERRUPT_TIMER1
  -------         PROC          INTERRUPT_TIMER2
  C:F02FH         LINE#         107
  C:F02FH         LINE#         109
  C:F032H         LINE#         112
  -------         ENDPROC       INTERRUPT_TIMER2
  -------         PROC          INTERRUPT_UART1
  C:EEEBH         LINE#         118
  C:EEEDH         LINE#         120
  C:EEF2H         LINE#         121
  C:EEF2H         LINE#         122
  C:EEF5H         LINE#         124
  C:EEF7H         LINE#         125
  C:EEFCH         LINE#         126
  C:EEFCH         LINE#         127
  C:EEFFH         LINE#         129
  C:EEFFH         LINE#         130
  -------         ENDPROC       INTERRUPT_UART1
  -------         PROC          INTERRUPT_EXINT2
  -------         DO            
  X:0236H         SYMBOL        buf
  X:0237H         SYMBOL        temp_ifg
  -------         ENDDO         
  C:91B0H         LINE#         138
  C:91BDH         LINE#         143
  C:91CBH         LINE#         222
  C:91D2H         LINE#         223
  C:91D2H         LINE#         224
  C:91D9H         LINE#         225
  C:91E0H         LINE#         226
  C:91E9H         LINE#         227
  C:91E9H         LINE#         228
  C:91FAH         LINE#         229
  C:9201H         LINE#         230
  C:9201H         LINE#         232
  C:9209H         LINE#         233
  C:920CH         LINE#         234
  C:920CH         LINE#         235
  C:9210H         LINE#         236
  C:9212H         LINE#         238
  C:9212H         LINE#         239
  C:9217H         LINE#         240
  C:9217H         LINE#         241
  C:9217H         LINE#         242
  C:921FH         LINE#         243
  C:9226H         LINE#         244
  C:9232H         LINE#         245
  C:9238H         LINE#         246
  C:923EH         LINE#         247
  C:9240H         LINE#         249
  C:9240H         LINE#         251
  C:9245H         LINE#         252
  C:924BH         LINE#         253
BL51 BANKED LINKER/LOCATER V6.22                                                      03/05/2019  13:48:08  PAGE 42


  C:924EH         LINE#         254
  C:9253H         LINE#         255
  C:9253H         LINE#         278
  C:9253H         LINE#         287
  C:925BH         LINE#         288
  C:925BH         LINE#         290
  C:9262H         LINE#         291
  C:9269H         LINE#         292
  C:926FH         LINE#         293
  C:9282H         LINE#         294
  C:9289H         LINE#         295
  C:928FH         LINE#         296
  C:9296H         LINE#         297
  C:9296H         LINE#         298
  C:9297H         LINE#         299
  C:9298H         LINE#         300
  C:9298H         LINE#         301
  C:92A4H         LINE#         302
  C:92A9H         LINE#         303
  C:92A9H         LINE#         304
  C:92AAH         LINE#         305
  C:92ABH         LINE#         306
  C:92ABH         LINE#         323
  C:92ABH         LINE#         329
  C:92AFH         LINE#         330
  C:92AFH         LINE#         331
  C:92B6H         LINE#         333
  C:92B6H         LINE#         334
  C:92BDH         LINE#         335
  C:92BDH         LINE#         336
  C:92C4H         LINE#         338
  C:92C4H         LINE#         339
  C:92CCH         LINE#         340
  C:92CCH         LINE#         341
  C:92D3H         LINE#         343
  C:92D3H         LINE#         348
  C:92D7H         LINE#         349
  C:92D7H         LINE#         350
  C:92DEH         LINE#         352
  C:92E4H         LINE#         354
  C:92E4H         LINE#         360
  C:92E7H         LINE#         361
  -------         ENDPROC       INTERRUPT_EXINT2
  -------         PROC          INTERRUPT_EXINT3
  -------         DO            
  D:0015H         SYMBOL        temp_ifg
  -------         ENDDO         
  C:DB86H         LINE#         368
  C:DB91H         LINE#         372
  C:DB9CH         LINE#         373
  C:DB9FH         LINE#         374
  C:DB9FH         LINE#         375
  C:DBA6H         LINE#         377
  C:DBA6H         LINE#         378
  C:DBACH         LINE#         379
  C:DBACH         LINE#         380
  C:DBB3H         LINE#         382
BL51 BANKED LINKER/LOCATER V6.22                                                      03/05/2019  13:48:08  PAGE 43


  C:DBB3H         LINE#         383
  C:DBB9H         LINE#         384
  C:DBB9H         LINE#         385
  C:DBC0H         LINE#         387
  C:DBC7H         LINE#         388
  C:DBCDH         LINE#         390
  C:DBCDH         LINE#         393
  C:DBD3H         LINE#         394
  C:DBD3H         LINE#         395
  C:DBDAH         LINE#         396
  C:DBE0H         LINE#         401
  C:DBE0H         LINE#         402
  C:DBE3H         LINE#         403
  -------         ENDPROC       INTERRUPT_EXINT3
  -------         PROC          INTERRUPT_EXINT4
  -------         DO            
  D:0017H         SYMBOL        temp_ifg
  -------         ENDDO         
  C:EA84H         LINE#         409
  C:EA8FH         LINE#         414
  C:EA9AH         LINE#         430
  C:EA9DH         LINE#         431
  C:EA9DH         LINE#         441
  C:EAA4H         LINE#         443
  C:EAA4H         LINE#         455
  C:EAA7H         LINE#         456
  -------         ENDPROC       INTERRUPT_EXINT4
  -------         ENDMOD        PROC_SYSTEM_INTERRUPT

  -------         MODULE        PROC_SYSTEM_TOU
  C:0000H         SYMBOL        _ICE_DUMMY_
  D:00CEH         PUBLIC        wdt0
  D:0090H         PUBLIC        P1
  D:00CFH         PUBLIC        wdt1
  D:00B0H         PUBLIC        P3
  X:0666H         PUBLIC        MD_delay
  X:0667H         PUBLIC        MD_flag
  D:00A8H         PUBLIC        IE
  X:0668H         PUBLIC        button_delay
  C:F033H         PUBLIC        Proc_init_tou_var
  X:0669H         PUBLIC        MAGN_delay
  D:00B8H         PUBLIC        IP
  X:066AH         PUBLIC        button_flag
  X:066BH         PUBLIC        MAGN_flag
  X:066CH         PUBLIC        MD_dis_delay
  C:CA3EH         PUBLIC        Proc_get_clock
  D:0098H         PUBLIC        SCON
  D:0088H         PUBLIC        TCON
  C:0052H         PUBLIC        Proc_Auto_ClrMeter_Pre_sec
  C:9B3CH         PUBLIC        Proc_handl_tou_1s
  X:066DH         PUBLIC        gs_tou_var
  D:00F0H         PUBLIC        B
  X:0675H         PUBLIC        gs_auto_clrMeter_var
  D:00E0H         PUBLIC        ACC
  C:EFF3H         PUBLIC        Initlize_Auto_ClrMeter_Var
  D:0080H         PUBLIC        SysCtrl
  C:EC47H         PUBLIC        Proc_handl_tou_10ms
BL51 BANKED LINKER/LOCATER V6.22                                                      03/05/2019  13:48:08  PAGE 44


  D:00C8H         PUBLIC        T2CON
  C:DAB6H         PUBLIC        api_handl_button_pre_10ms
  X:0677H         PUBLIC        gs_CurDateTime
  D:00D0H         PUBLIC        PSW
  -------         PROC          PROC_GET_CLOCK
  -------         DO            
  X:0003H         SYMBOL        rtc_data_tmp
  -------         ENDDO         
  C:CA3EH         LINE#         47
  C:CA3EH         LINE#         48
  C:CA3EH         LINE#         52
  C:CA47H         LINE#         53
  C:CA53H         LINE#         54
  C:CA53H         LINE#         55
  C:CA6CH         LINE#         56
  C:CA78H         LINE#         57
  C:CA78H         LINE#         59
  C:CA7EH         LINE#         60
  C:CA82H         LINE#         61
  C:CA86H         LINE#         62
  C:CA8AH         LINE#         63
  C:CA8EH         LINE#         64
  C:CA92H         LINE#         65
  C:CA94H         LINE#         66
  C:CAAEH         LINE#         67
  C:CAAEH         LINE#         68
  C:CAB7H         LINE#         69
  C:CAB7H         LINE#         70
  -------         ENDPROC       PROC_GET_CLOCK
  -------         PROC          PROC_INIT_TOU_VAR
  C:F033H         LINE#         86
  C:F033H         LINE#         87
  C:F033H         LINE#         88
  -------         ENDPROC       PROC_INIT_TOU_VAR
  -------         PROC          API_HANDL_BUTTON_PRE_10MS
  C:DAB6H         LINE#         91
  C:DAB6H         LINE#         92
  C:DAB6H         LINE#         93
  C:DAC5H         LINE#         94
  C:DAC5H         LINE#         95
  C:DACAH         LINE#         96
  C:DACEH         LINE#         98
  C:DACEH         LINE#         99
  C:DAD5H         LINE#         100
  C:DAD5H         LINE#         101
  C:DAD9H         LINE#         102
  C:DAD9H         LINE#         103
  C:DAE8H         LINE#         104
  C:DAE8H         LINE#         105
  C:DAEBH         LINE#         106
  C:DAEFH         LINE#         107
  C:DAEFH         LINE#         108
  C:DAF6H         LINE#         109
  C:DAF6H         LINE#         110
  C:DAFAH         LINE#         111
  C:DAFAH         LINE#         112
  C:DB09H         LINE#         113
BL51 BANKED LINKER/LOCATER V6.22                                                      03/05/2019  13:48:08  PAGE 45


  C:DB09H         LINE#         114
  C:DB0EH         LINE#         115
  C:DB12H         LINE#         117
  C:DB12H         LINE#         118
  C:DB19H         LINE#         119
  C:DB19H         LINE#         120
  C:DB1DH         LINE#         121
  C:DB1DH         LINE#         122
  -------         ENDPROC       API_HANDL_BUTTON_PRE_10MS
  -------         PROC          PROC_HANDL_TOU_10MS
  -------         DO            
  X:0000H         SYMBOL        i
  -------         ENDDO         
  C:EC47H         LINE#         137
  C:EC47H         LINE#         138
  C:EC47H         LINE#         142
  C:EC56H         LINE#         143
  C:EC56H         LINE#         144
  C:EC59H         LINE#         145
  C:EC61H         LINE#         146
  C:EC69H         LINE#         147
  -------         ENDPROC       PROC_HANDL_TOU_10MS
  -------         PROC          PROC_HANDL_TOU_1S
  -------         DO            
  X:0000H         SYMBOL        Bill_Data
  -------         ENDDO         
  C:9B3CH         LINE#         165
  C:9B3CH         LINE#         166
  C:9B3CH         LINE#         171
  C:9B3FH         LINE#         173
  C:9B4DH         LINE#         174
  C:9B56H         LINE#         175
  C:9B56H         LINE#         176
  C:9B59H         LINE#         177
  C:9B5CH         LINE#         178
  C:9B5CH         LINE#         180
  C:9B62H         LINE#         181
  C:9B62H         LINE#         184
  C:9B65H         LINE#         185
  C:9B73H         LINE#         187
  C:9B76H         LINE#         188
  C:9B84H         LINE#         189
  C:9B87H         LINE#         191
  C:9B8AH         LINE#         192
  C:9B98H         LINE#         194
  C:9B9BH         LINE#         196
  C:9B9EH         LINE#         197
  C:9BA1H         LINE#         198
  C:9BA1H         LINE#         199
  C:9BA7H         LINE#         200
  C:9BA7H         LINE#         202
  C:9BAAH         LINE#         204
  C:9BADH         LINE#         205
  C:9BAFH         LINE#         207
  C:9BAFH         LINE#         208
  C:9BB5H         LINE#         209
  C:9BB5H         LINE#         216
BL51 BANKED LINKER/LOCATER V6.22                                                      03/05/2019  13:48:08  PAGE 46


  C:9BBBH         LINE#         217
  C:9BBBH         LINE#         218
  C:9BBEH         LINE#         219
  C:9BCCH         LINE#         220
  C:9BCFH         LINE#         221
  C:9BDDH         LINE#         223
  C:9BE0H         LINE#         224
  C:9BE3H         LINE#         225
  C:9BFBH         LINE#         227
  C:9C02H         LINE#         228
  C:9C02H         LINE#         229
  C:9C10H         LINE#         230
  C:9C13H         LINE#         231
  C:9C13H         LINE#         232
  C:9C21H         LINE#         234
  C:9C24H         LINE#         235
  C:9C32H         LINE#         237
  C:9C35H         LINE#         240
  C:9C35H         LINE#         242
  C:9C3CH         LINE#         243
  C:9C3CH         LINE#         244
  C:9C3FH         LINE#         245
  C:9C4DH         LINE#         246
  C:9C4DH         LINE#         249
  C:9C54H         LINE#         250
  C:9C54H         LINE#         251
  C:9C57H         LINE#         252
  C:9C65H         LINE#         253
  C:9C65H         LINE#         255
  -------         ENDPROC       PROC_HANDL_TOU_1S
  -------         PROC          PROC_AUTO_CLRMETER_PRE_SEC
  C:0052H         LINE#         265
  C:0052H         LINE#         266
  C:0052H         LINE#         269
  -------         ENDPROC       PROC_AUTO_CLRMETER_PRE_SEC
  -------         PROC          INITLIZE_AUTO_CLRMETER_VAR
  C:EFF3H         LINE#         280
  C:EFF3H         LINE#         281
  C:EFF3H         LINE#         283
  C:EFF8H         LINE#         284
  C:EFFCH         LINE#         286
  -------         ENDPROC       INITLIZE_AUTO_CLRMETER_VAR
  -------         ENDMOD        PROC_SYSTEM_TOU

  -------         MODULE        DRV_E2P_24CXXX
  C:0000H         SYMBOL        _ICE_DUMMY_
  D:0090H         PUBLIC        P1
  D:00B0H         PUBLIC        P3
  C:D070H         PUBLIC        _Read_EEPROM_Page
  D:00A8H         PUBLIC        IE
  C:BCBFH         PUBLIC        _Read_EEPROM_Page_Sub
  C:CE49H         PUBLIC        _Write_EEPROM_Page
  D:00B8H         PUBLIC        IP
  C:C17EH         PUBLIC        _Write_EEPROM_Page_Sub
  C:C37CH         PUBLIC        _Read_EEPROM
  D:0098H         PUBLIC        SCON
  D:0088H         PUBLIC        TCON
BL51 BANKED LINKER/LOCATER V6.22                                                      03/05/2019  13:48:08  PAGE 47


  C:C735H         PUBLIC        _Write_EEPROM
  D:00F0H         PUBLIC        B
  D:00E0H         PUBLIC        ACC
  D:0080H         PUBLIC        SysCtrl
  D:00C8H         PUBLIC        T2CON
  D:00D0H         PUBLIC        PSW
  C:BCB9H         SYMBOL        L?0054
  -------         PROC          L?0053
  -------         ENDPROC       L?0053
  C:BCB9H         SYMBOL        L?0054
  -------         PROC          _READ_EEPROM_PAGE_SUB
  X:022DH         SYMBOL        Buf
  X:0230H         SYMBOL        Addr
  X:0232H         SYMBOL        Len
  -------         DO            
  X:0233H         SYMBOL        NewWrCmd
  X:0234H         SYMBOL        NewRdCmd
  X:0235H         SYMBOL        err_cnt
  -------         ENDDO         
  C:BCBFH         LINE#         30
  C:BCD0H         LINE#         31
  C:BCD0H         LINE#         36
  C:BCD5H         LINE#         47
  C:BCDBH         LINE#         48
  C:BCDEH         LINE#         52
  C:BCDEH         LINE#         53
  C:BCE1H         LINE#         54
  C:BCE7H         LINE#         55
  C:BCF0H         LINE#         56
  C:BCF3H         LINE#         57
  C:BCFEH         LINE#         62
  C:BD0EH         LINE#         63
  C:BD1FH         LINE#         66
  C:BD22H         LINE#         68
  C:BD32H         LINE#         70
  C:BD3CH         LINE#         71
  C:BD3CH         LINE#         72
  C:BD56H         LINE#         73
  C:BD60H         LINE#         74
  C:BD62H         LINE#         75
  C:BD65H         LINE#         76
  C:BD67H         LINE#         77
  -------         ENDPROC       _READ_EEPROM_PAGE_SUB
  -------         PROC          _WRITE_EEPROM_PAGE_SUB
  X:01E2H         SYMBOL        Addr
  X:01E4H         SYMBOL        Buf
  X:01E7H         SYMBOL        Len
  -------         DO            
  X:01E8H         SYMBOL        NewWrCmd
  X:01E9H         SYMBOL        NewRdCmd
  X:01EAH         SYMBOL        err_cnt
  -------         ENDDO         
  C:C17EH         LINE#         88
  C:C18FH         LINE#         89
  C:C18FH         LINE#         95
  C:C194H         LINE#         104
  C:C19AH         LINE#         105
BL51 BANKED LINKER/LOCATER V6.22                                                      03/05/2019  13:48:08  PAGE 48


  C:C19DH         LINE#         108
  C:C19EH         LINE#         110
  C:C19EH         LINE#         111
  C:C1A1H         LINE#         112
  C:C1A7H         LINE#         113
  C:C1B0H         LINE#         114
  C:C1B3H         LINE#         115
  C:C1BEH         LINE#         120
  C:C1CEH         LINE#         121
  C:C1DFH         LINE#         125
  C:C1DFH         LINE#         126
  C:C1F6H         LINE#         127
  C:C1F6H         LINE#         128
  C:C1F7H         LINE#         129
  C:C1FAH         LINE#         130
  C:C1FAH         LINE#         131
  C:C204H         LINE#         132
  C:C212H         LINE#         133
  C:C218H         LINE#         134
  C:C21BH         LINE#         136
  C:C21EH         LINE#         138
  C:C225H         LINE#         140
  C:C226H         LINE#         142
  C:C228H         LINE#         143
  -------         ENDPROC       _WRITE_EEPROM_PAGE_SUB
  -------         PROC          _READ_EEPROM_PAGE
  X:01E6H         SYMBOL        u8p_dst
  X:01E9H         SYMBOL        u16_src
  X:01EBH         SYMBOL        u8_len
  -------         DO            
  X:01ECH         SYMBOL        data00
  X:022CH         SYMBOL        i
  -------         ENDDO         
  C:D070H         LINE#         157
  C:D081H         LINE#         158
  C:D081H         LINE#         162
  C:D08FH         LINE#         163
  C:D08FH         LINE#         164
  C:D092H         LINE#         165
  C:D092H         LINE#         166
  C:D097H         LINE#         167
  C:D097H         LINE#         168
  C:D0A3H         LINE#         169
  C:D0B2H         LINE#         170
  C:D0DCH         LINE#         171
  C:D0E8H         LINE#         172
  C:D0EAH         LINE#         173
  -------         ENDPROC       _READ_EEPROM_PAGE
  -------         PROC          _WRITE_EEPROM_PAGE
  X:019BH         SYMBOL        u16_dst
  X:019DH         SYMBOL        u8p_src
  X:01A0H         SYMBOL        u8_len
  -------         DO            
  X:01A1H         SYMBOL        data00
  X:01E1H         SYMBOL        i
  -------         ENDDO         
  C:CE49H         LINE#         186
BL51 BANKED LINKER/LOCATER V6.22                                                      03/05/2019  13:48:08  PAGE 49


  C:CE5AH         LINE#         187
  C:CE5AH         LINE#         191
  C:CE68H         LINE#         192
  C:CE68H         LINE#         193
  C:CE6BH         LINE#         194
  C:CE6BH         LINE#         195
  C:CE70H         LINE#         196
  C:CE70H         LINE#         197
  C:CE8AH         LINE#         198
  C:CE9DH         LINE#         199
  C:CEC7H         LINE#         200
  C:CED3H         LINE#         201
  C:CED5H         LINE#         202
  -------         ENDPROC       _WRITE_EEPROM_PAGE
  -------         PROC          _READ_EEPROM
  X:01DEH         SYMBOL        u8p_dst
  X:01E1H         SYMBOL        u16_src
  X:01E3H         SYMBOL        u16_len
  -------         DO            
  D:0005H         SYMBOL        tmp
  X:01E5H         SYMBOL        u8_lenth
  -------         ENDDO         
  C:C37CH         LINE#         216
  C:C38DH         LINE#         217
  C:C38DH         LINE#         221
  C:C39DH         LINE#         222
  C:C39DH         LINE#         223
  C:C3A5H         LINE#         224
  C:C3A7H         LINE#         225
  C:C3A7H         LINE#         226
  C:C3AEH         LINE#         227
  C:C3B0H         LINE#         229
  C:C3B0H         LINE#         230
  C:C3B6H         LINE#         231
  C:C3B6H         LINE#         232
  C:C3CAH         LINE#         234
  C:C3EBH         LINE#         235
  C:C3FCH         LINE#         236
  C:C408H         LINE#         237
  C:C416H         LINE#         238
  C:C419H         LINE#         239
  C:C41BH         LINE#         240
  -------         ENDPROC       _READ_EEPROM
  -------         PROC          _WRITE_EEPROM
  X:0193H         SYMBOL        u16_dst
  X:0195H         SYMBOL        u8p_src
  X:0198H         SYMBOL        u16_len
  -------         DO            
  D:0003H         SYMBOL        tmp
  X:019AH         SYMBOL        u8_lenth
  -------         ENDDO         
  C:C735H         LINE#         253
  C:C746H         LINE#         254
  C:C746H         LINE#         258
  C:C756H         LINE#         259
  C:C756H         LINE#         260
  C:C761H         LINE#         261
BL51 BANKED LINKER/LOCATER V6.22                                                      03/05/2019  13:48:08  PAGE 50


  C:C763H         LINE#         262
  C:C763H         LINE#         263
  C:C76AH         LINE#         264
  C:C76CH         LINE#         266
  C:C76CH         LINE#         267
  C:C772H         LINE#         268
  C:C772H         LINE#         269
  C:C786H         LINE#         272
  C:C7A1H         LINE#         273
  C:C7B5H         LINE#         274
  C:C7BEH         LINE#         275
  C:C7CCH         LINE#         276
  C:C7CFH         LINE#         277
  C:C7D1H         LINE#         278
  -------         ENDPROC       _WRITE_EEPROM
  -------         ENDMOD        DRV_E2P_24CXXX

  -------         MODULE        DRV_E2P_I2CSOFT
  C:0000H         SYMBOL        _ICE_DUMMY_
  D:0090H         PUBLIC        P1
  D:00B0H         PUBLIC        P3
  C:CDBBH         PUBLIC        _E2p_RxByte_i2c
  C:C7D2H         PUBLIC        _E2p_TxByte_i2c
  D:00A8H         PUBLIC        IE
  D:00B8H         PUBLIC        IP
  D:0098H         PUBLIC        SCON
  D:0088H         PUBLIC        TCON
  C:E8F1H         PUBLIC        E2p_Start_i2c
  D:00F0H         PUBLIC        B
  D:00E0H         PUBLIC        ACC
  C:ED5DH         PUBLIC        E2p_IIC_Initail
  C:E6B0H         PUBLIC        E2p_Stop_i2c
  D:0080H         PUBLIC        SysCtrl
  D:00C8H         PUBLIC        T2CON
  D:00D0H         PUBLIC        PSW
  -------         PROC          E2P_IIC_INITAIL
  C:ED5DH         LINE#         28
  C:ED5DH         LINE#         29
  C:ED5DH         LINE#         30
  C:ED69H         LINE#         31
  C:ED6EH         LINE#         32
  C:ED7AH         LINE#         33
  -------         ENDPROC       E2P_IIC_INITAIL
  -------         PROC          E2P_START_I2C
  C:E8F1H         LINE#         43
  C:E8F1H         LINE#         44
  C:E8F1H         LINE#         45
  C:E8FDH         LINE#         46
  C:E902H         LINE#         47
  C:E908H         LINE#         48
  C:E91AH         LINE#         49
  C:E920H         LINE#         50
  C:E927H         LINE#         51
  -------         ENDPROC       E2P_START_I2C
  -------         PROC          E2P_STOP_I2C
  C:E6B0H         LINE#         61
  C:E6B0H         LINE#         62
BL51 BANKED LINKER/LOCATER V6.22                                                      03/05/2019  13:48:08  PAGE 51


  C:E6B0H         LINE#         82
  C:E6C5H         LINE#         83
  C:E6CBH         LINE#         84
  C:E6D2H         LINE#         85
  C:E6D8H         LINE#         86
  C:E6E4H         LINE#         87
  C:E6EAH         LINE#         88
  -------         ENDPROC       E2P_STOP_I2C
  -------         PROC          _E2P_TXBYTE_I2C
  D:0007H         SYMBOL        txData
  -------         DO            
  D:0008H         SYMBOL        i
  -------         ENDDO         
  C:C7D2H         LINE#         99
  C:C7D2H         LINE#         100
  C:C7D2H         LINE#         101
  C:C7D5H         LINE#         104
  C:C7D7H         LINE#         105
  C:C7D7H         LINE#         106
  C:C7DEH         LINE#         107
  C:C7E2H         LINE#         108
  C:C7E2H         LINE#         109
  C:C7EEH         LINE#         110
  C:C7F0H         LINE#         112
  C:C7F0H         LINE#         113
  C:C805H         LINE#         114
  C:C805H         LINE#         115
  C:C809H         LINE#         116
  C:C810H         LINE#         117
  C:C816H         LINE#         118
  C:C81DH         LINE#         121
  C:C824H         LINE#         122
  C:C830H         LINE#         123
  C:C833H         LINE#         124
  C:C836H         LINE#         125
  C:C836H         LINE#         126
  C:C83DH         LINE#         127
  C:C83DH         LINE#         128
  C:C844H         LINE#         129
  C:C84AH         LINE#         130
  C:C84EH         LINE#         131
  C:C851H         LINE#         132
  C:C851H         LINE#         133
  C:C858H         LINE#         136
  C:C85FH         LINE#         137
  C:C865H         LINE#         138
  C:C869H         LINE#         139
  C:C86CH         LINE#         141
  C:C86EH         LINE#         142
  -------         ENDPROC       _E2P_TXBYTE_I2C
  -------         PROC          _E2P_RXBYTE_I2C
  D:0007H         SYMBOL        u8_ack
  -------         DO            
  D:0008H         SYMBOL        i
  D:0009H         SYMBOL        rxData
  -------         ENDDO         
  C:CDBBH         LINE#         153
BL51 BANKED LINKER/LOCATER V6.22                                                      03/05/2019  13:48:08  PAGE 52


  C:CDBBH         LINE#         154
  C:CDBBH         LINE#         155
  C:CDBEH         LINE#         156
  C:CDC0H         LINE#         158
  C:CDCCH         LINE#         159
  C:CDD1H         LINE#         162
  C:CDD4H         LINE#         163
  C:CDD4H         LINE#         164
  C:CDDAH         LINE#         165
  C:CDE1H         LINE#         166
  C:CDE7H         LINE#         167
  C:CDECH         LINE#         168
  C:CDECH         LINE#         169
  C:CDEFH         LINE#         170
  C:CDEFH         LINE#         171
  C:CDF6H         LINE#         172
  C:CDFCH         LINE#         173
  C:CE03H         LINE#         176
  C:CE06H         LINE#         177
  C:CE06H         LINE#         178
  C:CE1BH         LINE#         179
  C:CE1DH         LINE#         181
  C:CE1DH         LINE#         182
  C:CE29H         LINE#         183
  C:CE29H         LINE#         185
  C:CE30H         LINE#         186
  C:CE36H         LINE#         187
  C:CE3AH         LINE#         188
  C:CE46H         LINE#         190
  C:CE48H         LINE#         191
  -------         ENDPROC       _E2P_RXBYTE_I2C
  -------         ENDMOD        DRV_E2P_I2CSOFT

  -------         MODULE        DRV_EMU_HARD
  C:0000H         SYMBOL        _ICE_DUMMY_
  D:0090H         PUBLIC        P1
  C:EBABH         PUBLIC        Close_Cf
  D:00B0H         PUBLIC        P3
  C:BEC7H         PUBLIC        _SetMeterCfgI
  D:00A8H         PUBLIC        IE
  C:C697H         PUBLIC        _SetMeterCfgACK
  C:C5F9H         PUBLIC        _SetMeterCfgACKPM800K
  D:00B8H         PUBLIC        IP
  C:EF58H         PUBLIC        OpenCF
  D:0098H         PUBLIC        SCON
  D:0088H         PUBLIC        TCON
  C:F044H         PUBLIC        Close_EmuPwr
  B:0080H.7       PUBLIC        MEAFRQ
  D:00F0H         PUBLIC        B
  D:00E0H         PUBLIC        ACC
  D:00E8H         PUBLIC        EIE
  C:9065H         PUBLIC        _ReadMeterParaACK
  D:0080H         PUBLIC        SysCtrl
  D:00C8H         PUBLIC        T2CON
  D:00D0H         PUBLIC        PSW
  -------         PROC          CLOSE_EMUPWR
  C:F044H         LINE#         91
BL51 BANKED LINKER/LOCATER V6.22                                                      03/05/2019  13:48:08  PAGE 53


  C:F044H         LINE#         92
  C:F044H         LINE#         94
  -------         ENDPROC       CLOSE_EMUPWR
  -------         PROC          OPENCF
  C:EF58H         LINE#         103
  C:EF58H         LINE#         104
  C:EF58H         LINE#         105
  C:EF60H         LINE#         106
  C:EF6BH         LINE#         108
  -------         ENDPROC       OPENCF
  -------         PROC          CLOSE_CF
  -------         DO            
  D:0004H         SYMBOL        PmPara
  -------         ENDDO         
  C:EBABH         LINE#         118
  C:EBABH         LINE#         119
  C:EBABH         LINE#         122
  C:EBB2H         LINE#         123
  C:EBB6H         LINE#         124
  C:EBC3H         LINE#         126
  C:EBCAH         LINE#         128
  C:EBD1H         LINE#         129
  -------         ENDPROC       CLOSE_CF
  -------         PROC          _SETMETERCFGACKPM800K
  X:0754H         SYMBOL        u32PMdatal
  X:0758H         SYMBOL        addr
  -------         DO            
  D:0007H         SYMBOL        index
  -------         ENDDO         
  C:C5F9H         LINE#         140
  C:C5FFH         LINE#         141
  C:C5FFH         LINE#         143
  C:C601H         LINE#         145
  C:C607H         LINE#         146
  C:C609H         LINE#         147
  C:C60FH         LINE#         148
  C:C60FH         LINE#         149
  C:C610H         LINE#         150
  C:C616H         LINE#         151
  C:C616H         LINE#         152
  C:C619H         LINE#         153
  C:C619H         LINE#         154
  C:C619H         LINE#         155
  C:C626H         LINE#         156
  C:C63EH         LINE#         157
  C:C656H         LINE#         158
  C:C66EH         LINE#         159
  C:C67BH         LINE#         160
  C:C67CH         LINE#         161
  C:C682H         LINE#         162
  C:C684H         LINE#         163
  C:C68AH         LINE#         164
  C:C68AH         LINE#         165
  C:C68BH         LINE#         166
  C:C691H         LINE#         167
  C:C694H         LINE#         168
  C:C694H         LINE#         169
BL51 BANKED LINKER/LOCATER V6.22                                                      03/05/2019  13:48:08  PAGE 54


  C:C696H         LINE#         171
  -------         ENDPROC       _SETMETERCFGACKPM800K
  -------         PROC          _SETMETERCFGI
  X:0746H         SYMBOL        u32PMdatal
  X:074AH         SYMBOL        addr
  -------         DO            
  D:0003H         SYMBOL        index
  X:074CH         SYMBOL        i
  -------         ENDDO         
  C:BEC7H         LINE#         184
  C:BECDH         LINE#         185
  C:BECDH         LINE#         187
  C:BECFH         LINE#         189
  C:BED5H         LINE#         190
  C:BED7H         LINE#         191
  C:BEDDH         LINE#         192
  C:BEDDH         LINE#         193
  C:BEDEH         LINE#         194
  C:BEE4H         LINE#         195
  C:BEE4H         LINE#         196
  C:BEE7H         LINE#         197
  C:BEE7H         LINE#         198
  C:BEE7H         LINE#         199
  C:BEF4H         LINE#         200
  C:BF0CH         LINE#         201
  C:BF24H         LINE#         202
  C:BF3CH         LINE#         204
  C:BF3EH         LINE#         205
  C:BF41H         LINE#         206
  C:BF41H         LINE#         207
  C:BF47H         LINE#         208
  C:BF4DH         LINE#         209
  C:BF4DH         LINE#         210
  C:BF4DH         LINE#         211
  C:BF4DH         LINE#         213
  C:BF5AH         LINE#         214
  C:BF5BH         LINE#         215
  C:BF61H         LINE#         216
  C:BF63H         LINE#         217
  C:BF69H         LINE#         218
  C:BF69H         LINE#         219
  C:BF6AH         LINE#         220
  C:BF70H         LINE#         221
  C:BF73H         LINE#         222
  C:BF73H         LINE#         224
  C:BF75H         LINE#         226
  -------         ENDPROC       _SETMETERCFGI
  -------         PROC          _SETMETERCFGACK
  X:00C8H         SYMBOL        u32PMdatal
  X:00CCH         SYMBOL        addr
  -------         DO            
  D:0007H         SYMBOL        index
  -------         ENDDO         
  C:C697H         LINE#         237
  C:C69DH         LINE#         238
  C:C69DH         LINE#         240
  C:C69FH         LINE#         242
BL51 BANKED LINKER/LOCATER V6.22                                                      03/05/2019  13:48:08  PAGE 55


  C:C6A5H         LINE#         243
  C:C6A7H         LINE#         244
  C:C6ADH         LINE#         245
  C:C6ADH         LINE#         246
  C:C6AEH         LINE#         247
  C:C6B4H         LINE#         248
  C:C6B4H         LINE#         249
  C:C6B7H         LINE#         250
  C:C6B7H         LINE#         251
  C:C6B7H         LINE#         252
  C:C6C4H         LINE#         253
  C:C6DCH         LINE#         254
  C:C6F4H         LINE#         255
  C:C70CH         LINE#         256
  C:C719H         LINE#         257
  C:C71AH         LINE#         258
  C:C720H         LINE#         259
  C:C722H         LINE#         260
  C:C728H         LINE#         261
  C:C728H         LINE#         262
  C:C729H         LINE#         263
  C:C72FH         LINE#         264
  C:C732H         LINE#         265
  C:C732H         LINE#         267
  C:C734H         LINE#         268
  -------         ENDPROC       _SETMETERCFGACK
  -------         PROC          _READMETERPARAACK
  D:0006H         SYMBOL        addr
  -------         DO            
  D:0008H         SYMBOL        index
  X:00C8H         SYMBOL        u32PMdatal
  X:00CCH         SYMBOL        temp
  -------         ENDDO         
  C:9065H         LINE#         279
  C:9065H         LINE#         280
  C:9065H         LINE#         284
  C:906BH         LINE#         285
  C:906DH         LINE#         286
  C:906FH         LINE#         287
  C:9075H         LINE#         288
  C:9075H         LINE#         289
  C:9077H         LINE#         290
  C:907EH         LINE#         291
  C:907EH         LINE#         292
  C:9080H         LINE#         293
  C:9080H         LINE#         294
  C:9080H         LINE#         296
  C:9087H         LINE#         297
  C:908AH         LINE#         298
  C:9092H         LINE#         299
  C:9095H         LINE#         300
  C:909BH         LINE#         301
  C:909BH         LINE#         302
  C:909DH         LINE#         303
  C:90A4H         LINE#         304
  C:90A4H         LINE#         305
  C:90AAH         LINE#         306
BL51 BANKED LINKER/LOCATER V6.22                                                      03/05/2019  13:48:08  PAGE 56


  C:90AAH         LINE#         307
  C:90AAH         LINE#         308
  C:90B9H         LINE#         309
  C:90CDH         LINE#         310
  C:90F9H         LINE#         311
  C:9108H         LINE#         312
  C:9121H         LINE#         313
  C:914DH         LINE#         314
  C:915CH         LINE#         315
  C:9175H         LINE#         316
  C:91A1H         LINE#         317
  C:91AFH         LINE#         319
  -------         ENDPROC       _READMETERPARAACK
  -------         ENDMOD        DRV_EMU_HARD

  -------         MODULE        LNK_EMU_ADJ
  C:0000H         SYMBOL        _ICE_DUMMY_
  D:00CEH         PUBLIC        wdt0
  D:0090H         PUBLIC        P1
  D:00CFH         PUBLIC        wdt1
  D:00B0H         PUBLIC        P3
  B:00A8H.7       PUBLIC        EA
  X:051CH         PUBLIC        gs_adj_emu_param
  D:00A8H         PUBLIC        IE
  C:7EB8H         PUBLIC        _CalculateSChz
  C:66B8H         PUBLIC        Check_EMU_AdjParam
  C:A1DBH         PUBLIC        _CalculateAC
  D:00B8H         PUBLIC        IP
  C:9D8FH         PUBLIC        _Calibration_Angular
  C:7483H         PUBLIC        _SoftAdjust_Phase_Process
  C:A6F3H         PUBLIC        _CalculateSC
  C:87F9H         PUBLIC        _Get_Original_Power
  C:A4DDH         PUBLIC        TimeEventProc
  C:BA8FH         PUBLIC        default_adj_emu_param_tab
  C:2DF2H         PUBLIC        Hardware_AdjustDiv_Sub
  D:0098H         PUBLIC        SCON
  C:BB12H         PUBLIC        cst_emu_constchck_tab
  D:0088H         PUBLIC        TCON
  C:BAE5H         PUBLIC        cst_emu_selfchck_tab
  C:5AC1H         PUBLIC        _Calibration_Current
  C:8962H         PUBLIC        _Get_Original_Irms
  C:9EB3H         PUBLIC        _SoftAdjust_IB_Process
  C:E810H         PUBLIC        Save_EMU_AdjParam
  X:0556H         PUBLIC        gs_emu_adj_var
  D:00F0H         PUBLIC        B
  D:00E0H         PUBLIC        ACC
  C:BB1EH         PUBLIC        cst_emu_constchck_tab_9260f
  C:7B6FH         PUBLIC        _Calibration_small_signal
  C:E57FH         PUBLIC        Get_EMU_AdjParam
  C:5562H         PUBLIC        _Measure_Electric_Err_Gain
  D:0080H         PUBLIC        SysCtrl
  C:942AH         PUBLIC        _Calibration_Power
  C:BAC9H         PUBLIC        cst_adj_const
  D:00C8H         PUBLIC        T2CON
  C:B444H         PUBLIC        _SoftAdjust_IB5_Process
  D:00D0H         PUBLIC        PSW
  -------         PROC          SAVE_EMU_ADJPARAM
BL51 BANKED LINKER/LOCATER V6.22                                                      03/05/2019  13:48:08  PAGE 57


  C:E810H         LINE#         100
  C:E810H         LINE#         101
  C:E810H         LINE#         102
  C:E82FH         LINE#         103
  -------         ENDPROC       SAVE_EMU_ADJPARAM
  -------         PROC          GET_EMU_ADJPARAM
  -------         DO            
  D:0006H         SYMBOL        csck_u16
  -------         ENDDO         
  C:E57FH         LINE#         114
  C:E57FH         LINE#         115
  C:E57FH         LINE#         119
  C:E596H         LINE#         120
  C:E5A2H         LINE#         121
  C:E5A2H         LINE#         122
  C:E5BCH         LINE#         123
  C:E5BCH         LINE#         124
  -------         ENDPROC       GET_EMU_ADJPARAM
  -------         PROC          CHECK_EMU_ADJPARAM
  -------         DO            
  X:00B3H         SYMBOL        regval
  X:00B7H         SYMBOL        i
  X:00B8H         SYMBOL        tmp_tab
  X:00BDH         SYMBOL        tmp_const_tab
  X:00C3H         SYMBOL        ucSum
  X:00C7H         SYMBOL        u8_tmp
  -------         ENDDO         
  C:66B8H         LINE#         133
  C:66B8H         LINE#         134
  C:66B8H         LINE#         139
  C:66C2H         LINE#         143
  C:66C5H         LINE#         146
  C:66DDH         LINE#         147
  C:66E7H         LINE#         148
  C:66E7H         LINE#         150
  C:66F9H         LINE#         151
  C:670BH         LINE#         152
  C:670DH         LINE#         154
  C:670DH         LINE#         155
  C:671FH         LINE#         156
  C:6734H         LINE#         157
  C:6734H         LINE#         161
  C:6739H         LINE#         162
  C:6739H         LINE#         163
  C:6759H         LINE#         164
  C:6770H         LINE#         165
  C:677AH         LINE#         166
  C:678BH         LINE#         167
  C:67ADH         LINE#         168
  C:67ADH         LINE#         169
  C:67C1H         LINE#         170
  C:67E1H         LINE#         171
  C:67E1H         LINE#         172
  C:67F0H         LINE#         174
  C:67F5H         LINE#         175
  C:67F5H         LINE#         176
  C:6815H         LINE#         177
BL51 BANKED LINKER/LOCATER V6.22                                                      03/05/2019  13:48:08  PAGE 58


  C:6838H         LINE#         178
  C:6842H         LINE#         179
  C:6853H         LINE#         180
  C:686EH         LINE#         181
  C:686EH         LINE#         182
  C:6883H         LINE#         183
  C:6883H         LINE#         184
  C:6887H         LINE#         185
  C:6887H         LINE#         186
  C:6887H         LINE#         187
  C:6889H         LINE#         189
  C:6889H         LINE#         190
  C:68ABH         LINE#         191
  C:68ABH         LINE#         192
  C:68BFH         LINE#         193
  C:68DFH         LINE#         194
  C:68DFH         LINE#         195
  C:68DFH         LINE#         196
  C:68EEH         LINE#         198
  -------         ENDPROC       CHECK_EMU_ADJPARAM
  -------         PROC          _GET_ORIGINAL_POWER
  X:06BFH         SYMBOL        avr_times
  X:06C0H         SYMBOL        ch
  -------         DO            
  X:06C1H         SYMBOL        val
  X:06C5H         SYMBOL        i
  X:06C6H         SYMBOL        aery_old
  D:0004H         SYMBOL        aery_val
  X:06CAH         SYMBOL        avr_aery
  X:06CEH         SYMBOL        TempValue
  -------         ENDDO         
  C:87F9H         LINE#         206
  C:8801H         LINE#         207
  C:8801H         LINE#         208
  C:8801H         LINE#         214
  C:880FH         LINE#         216
  C:8819H         LINE#         217
  C:881EH         LINE#         218
  C:8832H         LINE#         219
  C:8832H         LINE#         220
  C:8840H         LINE#         221
  C:8846H         LINE#         222
  C:884BH         LINE#         223
  C:8859H         LINE#         224
  C:885FH         LINE#         225
  C:885FH         LINE#         226
  C:8866H         LINE#         227
  C:8868H         LINE#         229
  C:8868H         LINE#         231
  C:8876H         LINE#         232
  C:8876H         LINE#         233
  C:8889H         LINE#         234
  C:8894H         LINE#         235
  C:88A8H         LINE#         236
  C:88AAH         LINE#         238
  C:88AAH         LINE#         239
  C:88B1H         LINE#         240
BL51 BANKED LINKER/LOCATER V6.22                                                      03/05/2019  13:48:08  PAGE 59


  C:88B1H         LINE#         241
  C:88B1H         LINE#         243
  C:88CBH         LINE#         244
  C:88CBH         LINE#         245
  C:88EFH         LINE#         246
  C:88EFH         LINE#         248
  C:8903H         LINE#         249
  C:892FH         LINE#         250
  C:8938H         LINE#         252
  C:8952H         LINE#         253
  C:8960H         LINE#         254
  C:8961H         LINE#         255
  C:8961H         LINE#         256
  -------         ENDPROC       _GET_ORIGINAL_POWER
  -------         PROC          _GET_ORIGINAL_IRMS
  X:06D2H         SYMBOL        avr_times
  X:06D3H         SYMBOL        ch
  -------         DO            
  X:06D4H         SYMBOL        val
  X:06D8H         SYMBOL        i
  X:06D9H         SYMBOL        aery_old
  D:0004H         SYMBOL        aery_val
  X:06DDH         SYMBOL        avr_aery
  X:06E1H         SYMBOL        TempValue
  -------         ENDDO         
  C:8962H         LINE#         266
  C:896AH         LINE#         267
  C:896AH         LINE#         268
  C:896AH         LINE#         274
  C:8978H         LINE#         276
  C:8982H         LINE#         277
  C:8987H         LINE#         278
  C:899BH         LINE#         279
  C:899BH         LINE#         280
  C:89A9H         LINE#         281
  C:89AFH         LINE#         282
  C:89B4H         LINE#         283
  C:89C2H         LINE#         284
  C:89C8H         LINE#         285
  C:89C8H         LINE#         286
  C:89CFH         LINE#         287
  C:89D1H         LINE#         289
  C:89D1H         LINE#         291
  C:89DFH         LINE#         292
  C:89DFH         LINE#         293
  C:89F2H         LINE#         294
  C:89FDH         LINE#         295
  C:8A11H         LINE#         296
  C:8A13H         LINE#         298
  C:8A13H         LINE#         299
  C:8A1AH         LINE#         300
  C:8A1AH         LINE#         301
  C:8A1AH         LINE#         303
  C:8A34H         LINE#         304
  C:8A34H         LINE#         305
  C:8A58H         LINE#         306
  C:8A58H         LINE#         308
BL51 BANKED LINKER/LOCATER V6.22                                                      03/05/2019  13:48:08  PAGE 60


  C:8A6CH         LINE#         309
  C:8A98H         LINE#         310
  C:8AA1H         LINE#         312
  C:8ABBH         LINE#         313
  C:8AC9H         LINE#         314
  C:8ACAH         LINE#         315
  C:8ACAH         LINE#         316
  -------         ENDPROC       _GET_ORIGINAL_IRMS
  C:A6D4H         SYMBOL        L?0168
  C:A6E8H         SYMBOL        L?0169
  -------         PROC          L?0167
  -------         ENDPROC       L?0167
  C:A6D4H         SYMBOL        L?0168
  C:A6E8H         SYMBOL        L?0169
  -------         PROC          _CALCULATESC
  D:0004H         SYMBOL        CurValue
  X:00CBH         SYMBOL        TarValue
  -------         DO            
  D:0004H         SYMBOL        s32_tmp0
  X:00CFH         SYMBOL        f_CurValue
  X:00D3H         SYMBOL        f_TarValue
  X:00D7H         SYMBOL        f_Error
  X:00DBH         SYMBOL        f_s32_tmp0
  X:00DFH         SYMBOL        f_s32_tmp1
  D:0004H         SYMBOL        f_s32_tmp2
  D:0004H         SYMBOL        f_s32_tmp3
  -------         ENDDO         
  C:A6F3H         LINE#         337
  C:A6F3H         LINE#         338
  C:A6F3H         LINE#         345
  C:A6FDH         LINE#         346
  C:A715H         LINE#         347
  C:A757H         LINE#         349
  C:A787H         LINE#         351
  C:A7A5H         LINE#         353
  C:A7BCH         LINE#         355
  C:A7BFH         LINE#         356
  C:A7C2H         LINE#         357
  C:A7C2H         LINE#         358
  -------         ENDPROC       _CALCULATESC
  -------         PROC          _CALCULATEAC
  X:00C8H         SYMBOL        CurValue
  X:00CCH         SYMBOL        TarValue
  -------         DO            
  X:00D0H         SYMBOL        Error
  D:0007H         SYMBOL        Result
  X:00D2H         SYMBOL        JCFH
  -------         ENDDO         
  C:A1DBH         LINE#         378
  C:A1E1H         LINE#         379
  C:A1E1H         LINE#         385
  C:A1E6H         LINE#         386
  C:A202H         LINE#         388
  C:A222H         LINE#         389
  C:A222H         LINE#         391
  C:A269H         LINE#         392
  C:A26DH         LINE#         393
BL51 BANKED LINKER/LOCATER V6.22                                                      03/05/2019  13:48:08  PAGE 61


  C:A26FH         LINE#         395
  C:A26FH         LINE#         397
  C:A2B9H         LINE#         398
  C:A2B9H         LINE#         399
  C:A2D2H         LINE#         400
  C:A2D9H         LINE#         401
  C:A2D9H         LINE#         402
  C:A2DDH         LINE#         403
  C:A2DDH         LINE#         404
  C:A2DDH         LINE#         405
  -------         ENDPROC       _CALCULATEAC
  -------         PROC          _SOFTADJUST_IB_PROCESS
  X:072BH         SYMBOL        jzval
  X:072FH         SYMBOL        channel
  -------         DO            
  X:0730H         SYMBOL        val
  D:0004H         SYMBOL        adjust_wcval
  -------         ENDDO         
  C:9EB3H         LINE#         414
  C:9EB9H         LINE#         415
  C:9EB9H         LINE#         416
  C:9EB9H         LINE#         419
  C:9EC7H         LINE#         420
  C:9ECDH         LINE#         421
  C:9ECDH         LINE#         422
  C:9ED5H         LINE#         423
  C:9EF0H         LINE#         424
  C:9F0BH         LINE#         425
  C:9F0DH         LINE#         427
  C:9F0DH         LINE#         428
  C:9F17H         LINE#         429
  C:9F35H         LINE#         431
  C:9F53H         LINE#         432
  C:9F53H         LINE#         433
  C:9F5DH         LINE#         434
  C:9F8AH         LINE#         436
  C:9F98H         LINE#         437
  C:9F9EH         LINE#         438
  C:9F9EH         LINE#         439
  C:9FADH         LINE#         440
  C:9FAFH         LINE#         442
  C:9FAFH         LINE#         443
  C:9FC3H         LINE#         444
  C:9FC3H         LINE#         445
  -------         ENDPROC       _SOFTADJUST_IB_PROCESS
  -------         PROC          _SOFTADJUST_IB5_PROCESS
  X:0734H         SYMBOL        jzval
  X:0738H         SYMBOL        channel
  -------         DO            
  B:0020H.5       SYMBOL        Flag_fu
  X:0739H         SYMBOL        val
  D:0004H         SYMBOL        adjust_wcval
  -------         ENDDO         
  C:B444H         LINE#         454
  C:B44AH         LINE#         455
  C:B44AH         LINE#         456
  C:B44CH         LINE#         462
BL51 BANKED LINKER/LOCATER V6.22                                                      03/05/2019  13:48:08  PAGE 62


  C:B45AH         LINE#         463
  C:B464H         LINE#         464
  C:B46AH         LINE#         465
  C:B46AH         LINE#         466
  C:B483H         LINE#         467
  C:B485H         LINE#         469
  C:B485H         LINE#         471
  C:B4A3H         LINE#         472
  C:B4A3H         LINE#         473
  C:B4ADH         LINE#         474
  C:B4DEH         LINE#         476
  C:B4ECH         LINE#         477
  C:B4F2H         LINE#         478
  C:B4F2H         LINE#         479
  C:B501H         LINE#         480
  C:B503H         LINE#         482
  C:B503H         LINE#         483
  C:B517H         LINE#         484
  C:B517H         LINE#         486
  -------         ENDPROC       _SOFTADJUST_IB5_PROCESS
  -------         PROC          _SOFTADJUST_PHASE_PROCESS
  X:073DH         SYMBOL        jzval
  X:0741H         SYMBOL        channel
  -------         DO            
  X:0742H         SYMBOL        val
  D:0004H         SYMBOL        adjust_wcval
  -------         ENDDO         
  C:7483H         LINE#         495
  C:7489H         LINE#         496
  C:7489H         LINE#         497
  C:7489H         LINE#         502
  C:7497H         LINE#         503
  C:74A1H         LINE#         504
  C:74A7H         LINE#         505
  C:74A7H         LINE#         506
  C:74C0H         LINE#         507
  C:74C2H         LINE#         509
  C:74C2H         LINE#         510
  C:74D8H         LINE#         511
  C:74D8H         LINE#         512
  C:74E6H         LINE#         514
  C:74EBH         LINE#         515
  C:74F1H         LINE#         516
  C:74F6H         LINE#         518
  C:7500H         LINE#         519
  C:7531H         LINE#         521
  C:753FH         LINE#         522
  C:7545H         LINE#         523
  C:7545H         LINE#         524
  C:7551H         LINE#         525
  C:7554H         LINE#         527
  C:7554H         LINE#         528
  C:7564H         LINE#         529
  C:7564H         LINE#         530
  C:7578H         LINE#         531
  C:759EH         LINE#         532
  C:75B7H         LINE#         533
BL51 BANKED LINKER/LOCATER V6.22                                                      03/05/2019  13:48:08  PAGE 63


  C:75C8H         LINE#         534
  C:75CAH         LINE#         536
  C:75CAH         LINE#         537
  C:75EDH         LINE#         538
  C:7606H         LINE#         539
  C:761FH         LINE#         540
  C:761FH         LINE#         541
  C:7629H         LINE#         542
  C:7657H         LINE#         543
  C:7657H         LINE#         545
  -------         ENDPROC       _SOFTADJUST_PHASE_PROCESS
  -------         PROC          _CALCULATESCHZ
  D:0006H         SYMBOL        error
  X:0680H         SYMBOL        LastSC
  -------         DO            
  X:0684H         SYMBOL        Error
  X:0686H         SYMBOL        Stemp0remd
  X:0688H         SYMBOL        Stemp2remd
  X:068AH         SYMBOL        Stemp0
  X:068EH         SYMBOL        Stemp1
  X:0692H         SYMBOL        Stemp2
  D:0004H         SYMBOL        Stemp3
  D:0004H         SYMBOL        Result
  -------         ENDDO         
  C:7EB8H         LINE#         593
  C:7EB8H         LINE#         594
  C:7EB8H         LINE#         603
  C:7EC0H         LINE#         604
  C:7EE1H         LINE#         605
  C:7F09H         LINE#         606
  C:7F30H         LINE#         607
  C:7F84H         LINE#         609
  C:7FB0H         LINE#         610
  C:7FE2H         LINE#         611
  C:8002H         LINE#         612
  C:8039H         LINE#         614
  C:8054H         LINE#         615
  C:8054H         LINE#         617
  -------         ENDPROC       _CALCULATESCHZ
  -------         PROC          TIMEEVENTPROC
  -------         DO            
  X:0514H         SYMBOL        temp
  X:077FH         SYMBOL        HZ
  -------         ENDDO         
  C:A4DDH         LINE#         618
  C:A4DDH         LINE#         619
  C:A4DDH         LINE#         623
  C:A4FDH         LINE#         624
  C:A517H         LINE#         625
  C:A517H         LINE#         626
  C:A52BH         LINE#         627
  C:A534H         LINE#         628
  C:A534H         LINE#         629
  C:A541H         LINE#         630
  C:A541H         LINE#         631
  C:A543H         LINE#         632
  C:A553H         LINE#         633
BL51 BANKED LINKER/LOCATER V6.22                                                      03/05/2019  13:48:08  PAGE 64


  C:A553H         LINE#         634
  C:A58FH         LINE#         635
  C:A5AAH         LINE#         636
  C:A5AAH         LINE#         638
  C:A5AAH         LINE#         639
  C:A5C5H         LINE#         640
  C:A5D9H         LINE#         641
  C:A5D9H         LINE#         642
  C:A5D9H         LINE#         644
  -------         ENDPROC       TIMEEVENTPROC
  -------         PROC          HARDWARE_ADJUSTDIV_SUB
  -------         DO            
  X:0596H         SYMBOL        i
  X:0597H         SYMBOL        val
  X:059BH         SYMBOL        tmpval
  X:059FH         SYMBOL        tmpval1
  X:05A3H         SYMBOL        jzwcval
  X:05A7H         SYMBOL        ajust1_type
  X:05A8H         SYMBOL        ajust2_type
  X:05A9H         SYMBOL        cmp_val
  X:05B9H         SYMBOL        adjust1_wcval
  X:05BDH         SYMBOL        adjust2_wcval
  X:05C1H         SYMBOL        TempValue
  -------         ENDDO         
  C:2DF2H         LINE#         651
  C:2DF2H         LINE#         652
  C:2DF2H         LINE#         656
  C:2DFCH         LINE#         665
  C:2E02H         LINE#         668
  C:2E08H         LINE#         670
  C:2E14H         LINE#         671
  C:2E3AH         LINE#         672
  C:2E60H         LINE#         673
  C:2E86H         LINE#         674
  C:2EACH         LINE#         676
  C:2EBAH         LINE#         679
  C:2EC7H         LINE#         680
  C:2EE9H         LINE#         681
  C:2EE9H         LINE#         682
  C:2EEEH         LINE#         683
  C:2EF1H         LINE#         684
  C:2F13H         LINE#         685
  C:2F13H         LINE#         686
  C:2F19H         LINE#         687
  C:2F1BH         LINE#         688
  C:2F3DH         LINE#         689
  C:2F3DH         LINE#         690
  C:2F43H         LINE#         691
  C:2F45H         LINE#         692
  C:2F68H         LINE#         693
  C:2F68H         LINE#         694
  C:2F6BH         LINE#         695
  C:2F6DH         LINE#         697
  C:2F6DH         LINE#         698
  C:2F70H         LINE#         699
  C:2F70H         LINE#         730
  C:2F76H         LINE#         731
BL51 BANKED LINKER/LOCATER V6.22                                                      03/05/2019  13:48:08  PAGE 65


  C:2F76H         LINE#         732
  C:2F80H         LINE#         733
  C:2F8AH         LINE#         734
  C:2F8FH         LINE#         735
  C:2F8FH         LINE#         738
  C:2F9AH         LINE#         739
  C:2F9AH         LINE#         741
  C:2FB0H         LINE#         744
  C:2FBAH         LINE#         745
  C:2FBFH         LINE#         746
  C:2FBFH         LINE#         747
  C:2FC6H         LINE#         748
  C:2FD3H         LINE#         749
  C:2FEDH         LINE#         750
  C:2FEDH         LINE#         751
  C:3011H         LINE#         752
  C:3011H         LINE#         753
  C:303DH         LINE#         754
  C:304BH         LINE#         755
  C:305AH         LINE#         756
  C:3077H         LINE#         758
  C:30ACH         LINE#         760
  C:30B6H         LINE#         761
  C:30BBH         LINE#         762
  C:30BBH         LINE#         763
  C:30C2H         LINE#         764
  C:30CFH         LINE#         765
  C:30E9H         LINE#         766
  C:30E9H         LINE#         767
  C:310DH         LINE#         768
  C:310DH         LINE#         769
  C:3139H         LINE#         770
  C:3147H         LINE#         771
  C:3156H         LINE#         772
  C:3173H         LINE#         774
  C:31A8H         LINE#         775
  C:31ADH         LINE#         777
  C:31BBH         LINE#         778
  C:31BBH         LINE#         781
  C:31C2H         LINE#         782
  C:31C2H         LINE#         783
  C:31DFH         LINE#         784
  C:31F5H         LINE#         785
  C:31FAH         LINE#         787
  C:31FAH         LINE#         789
  C:3201H         LINE#         790
  C:3201H         LINE#         791
  C:321EH         LINE#         792
  C:3234H         LINE#         793
  C:3239H         LINE#         795
  C:3239H         LINE#         801
  C:3240H         LINE#         802
  C:3240H         LINE#         803
  C:324AH         LINE#         804
  C:3254H         LINE#         805
  C:3259H         LINE#         806
  C:3259H         LINE#         809
BL51 BANKED LINKER/LOCATER V6.22                                                      03/05/2019  13:48:08  PAGE 66


  C:3264H         LINE#         810
  C:3264H         LINE#         812
  C:3274H         LINE#         813
  C:327EH         LINE#         814
  C:3283H         LINE#         815
  C:3283H         LINE#         816
  C:3291H         LINE#         817
  C:3291H         LINE#         818
  C:32A4H         LINE#         819
  C:32AFH         LINE#         820
  C:32C3H         LINE#         821
  C:32C5H         LINE#         823
  C:32C5H         LINE#         824
  C:32CCH         LINE#         825
  C:32CCH         LINE#         826
  C:32E6H         LINE#         827
  C:32E6H         LINE#         828
  C:330AH         LINE#         829
  C:330AH         LINE#         830
  C:3336H         LINE#         831
  C:3344H         LINE#         832
  C:3353H         LINE#         833
  C:3370H         LINE#         835
  C:33A5H         LINE#         838
  C:33AFH         LINE#         839
  C:33B4H         LINE#         840
  C:33B4H         LINE#         841
  C:33C2H         LINE#         842
  C:33C2H         LINE#         843
  C:33D5H         LINE#         844
  C:33E0H         LINE#         845
  C:33F4H         LINE#         846
  C:33F6H         LINE#         848
  C:33F6H         LINE#         849
  C:33FDH         LINE#         850
  C:33FDH         LINE#         851
  C:3417H         LINE#         852
  C:3417H         LINE#         853
  C:343BH         LINE#         854
  C:343BH         LINE#         855
  C:3467H         LINE#         856
  C:3475H         LINE#         857
  C:3484H         LINE#         858
  C:34A1H         LINE#         860
  C:34D6H         LINE#         861
  C:34DBH         LINE#         862
  C:34DBH         LINE#         864
  C:34E2H         LINE#         865
  C:34E2H         LINE#         866
  C:34FFH         LINE#         867
  C:3516H         LINE#         868
  C:351BH         LINE#         869
  C:351BH         LINE#         871
  C:3522H         LINE#         872
  C:3522H         LINE#         873
  C:353FH         LINE#         874
  C:3556H         LINE#         875
BL51 BANKED LINKER/LOCATER V6.22                                                      03/05/2019  13:48:08  PAGE 67


  C:355BH         LINE#         876
  C:355BH         LINE#         878
  C:356BH         LINE#         879
  C:356BH         LINE#         880
  C:356EH         LINE#         881
  C:357CH         LINE#         883
  C:358AH         LINE#         886
  C:358DH         LINE#         888
  C:35A2H         LINE#         889
  C:35B0H         LINE#         891
  C:35B5H         LINE#         892
  C:35B5H         LINE#         894
  C:35B8H         LINE#         895
  C:35BBH         LINE#         896
  C:35C9H         LINE#         897
  C:35CEH         LINE#         899
  -------         ENDPROC       HARDWARE_ADJUSTDIV_SUB
  -------         PROC          _MEASURE_ELECTRIC_ERR_GAIN
  X:0095H         SYMBOL        sptr
  -------         DO            
  X:0098H         SYMBOL        u32_tmp_U
  X:009CH         SYMBOL        u32_tmp_A
  X:00A0H         SYMBOL        u32_tmp_P
  X:00A4H         SYMBOL        u32_tmp
  X:00A8H         SYMBOL        errbuf
  X:00AFH         SYMBOL        Err_Data
  -------         ENDDO         
  C:5562H         LINE#         908
  C:556DH         LINE#         909
  C:556DH         LINE#         915
  C:5572H         LINE#         916
  C:558CH         LINE#         917
  C:55C4H         LINE#         918
  C:55FCH         LINE#         919
  C:560BH         LINE#         921
  C:5610H         LINE#         922
  C:562AH         LINE#         923
  C:5662H         LINE#         924
  C:569AH         LINE#         925
  C:56A9H         LINE#         927
  C:56AEH         LINE#         928
  C:56C8H         LINE#         929
  C:5700H         LINE#         930
  C:5738H         LINE#         931
  C:5747H         LINE#         934
  C:5772H         LINE#         935
  C:5777H         LINE#         936
  C:5786H         LINE#         938
  C:57BFH         LINE#         939
  C:57BFH         LINE#         940
  C:57BFH         LINE#         941
  C:57BFH         LINE#         942
  C:57D0H         LINE#         943
  C:57DEH         LINE#         944
  C:5803H         LINE#         945
  C:5805H         LINE#         946
  C:5805H         LINE#         947
BL51 BANKED LINKER/LOCATER V6.22                                                      03/05/2019  13:48:08  PAGE 68


  C:5805H         LINE#         948
  C:5816H         LINE#         949
  C:5818H         LINE#         950
  C:5818H         LINE#         951
  C:5818H         LINE#         952
  C:5829H         LINE#         953
  C:5829H         LINE#         954
  C:5829H         LINE#         956
  C:5829H         LINE#         957
  C:582CH         LINE#         958
  C:582FH         LINE#         959
  C:583DH         LINE#         960
  -------         ENDPROC       _MEASURE_ELECTRIC_ERR_GAIN
  -------         PROC          _CALIBRATION_POWER
  X:00B3H         SYMBOL        f_err_data
  -------         DO            
  X:00B7H         SYMBOL        offset
  X:00B8H         SYMBOL        u32_tmp
  X:00BCH         SYMBOL        u32_PMdataltemp
  X:0518H         SYMBOL        temp
  X:00C0H         SYMBOL        HZ
  -------         ENDDO         
  C:942AH         LINE#         966
  C:9430H         LINE#         967
  C:9430H         LINE#         968
  C:9430H         LINE#         974
  C:943EH         LINE#         976
  C:9454H         LINE#         977
  C:9454H         LINE#         978
  C:9454H         LINE#         979
  C:9454H         LINE#         981
  C:9454H         LINE#         982
  C:9480H         LINE#         983
  C:9480H         LINE#         986
  C:949BH         LINE#         987
  C:949BH         LINE#         989
  C:94A8H         LINE#         990
  C:94BEH         LINE#         991
  C:94D9H         LINE#         992
  C:94EAH         LINE#         993
  C:94ECH         LINE#         994
  C:9507H         LINE#         995
  C:9507H         LINE#         996
  C:9514H         LINE#         997
  C:952AH         LINE#         998
  C:9545H         LINE#         999
  C:9559H         LINE#         1000
  C:9559H         LINE#         1015
  -------         ENDPROC       _CALIBRATION_POWER
  -------         PROC          _CALIBRATION_CURRENT
  X:00B3H         SYMBOL        Current
  X:00B7H         SYMBOL        Voltage
  -------         DO            
  X:00BBH         SYMBOL        u32_tmp
  X:00BFH         SYMBOL        u32_PMdataltemp
  X:00C3H         SYMBOL        u32_PMdataltempSII1
  -------         ENDDO         
BL51 BANKED LINKER/LOCATER V6.22                                                      03/05/2019  13:48:08  PAGE 69


  C:5AC1H         LINE#         1024
  C:5AC7H         LINE#         1025
  C:5AC7H         LINE#         1028
  C:5AE5H         LINE#         1029
  C:5AE5H         LINE#         1031
  C:5AF2H         LINE#         1032
  C:5B1EH         LINE#         1033
  C:5B2BH         LINE#         1034
  C:5B44H         LINE#         1035
  C:5B44H         LINE#         1037
  C:5B4DH         LINE#         1038
  C:5B61H         LINE#         1039
  C:5B61H         LINE#         1042
  C:5B6EH         LINE#         1043
  C:5BB4H         LINE#         1044
  C:5BC1H         LINE#         1045
  C:5BDDH         LINE#         1046
  C:5BDDH         LINE#         1048
  C:5BDDH         LINE#         1049
  C:5BDDH         LINE#         1050
  C:5BDDH         LINE#         1051
  C:5BDDH         LINE#         1052
  C:5BE0H         LINE#         1053
  C:5BFEH         LINE#         1054
  C:5BFEH         LINE#         1056
  C:5C0BH         LINE#         1057
  C:5C37H         LINE#         1058
  C:5C44H         LINE#         1059
  C:5C5DH         LINE#         1060
  C:5C5DH         LINE#         1062
  C:5C66H         LINE#         1063
  C:5C7AH         LINE#         1064
  C:5C7AH         LINE#         1067
  C:5C87H         LINE#         1068
  C:5CCDH         LINE#         1069
  C:5CDAH         LINE#         1070
  C:5CF3H         LINE#         1071
  C:5CF3H         LINE#         1073
  C:5CFFH         LINE#         1074
  C:5D13H         LINE#         1075
  C:5D2EH         LINE#         1076
  C:5D2EH         LINE#         1077
  C:5D2EH         LINE#         1081
  -------         ENDPROC       _CALIBRATION_CURRENT
  -------         PROC          _CALIBRATION_ANGULAR
  X:00B3H         SYMBOL        f_err_data
  -------         DO            
  X:00B7H         SYMBOL        u32_tmp
  X:00BBH         SYMBOL        u32_PMdataltemp
  X:00BFH         SYMBOL        offset
  X:00C0H         SYMBOL        PHCCTRL1_adj_val
  X:00C4H         SYMBOL        PHCCTRL2_adj_val
  -------         ENDDO         
  C:9D8FH         LINE#         1088
  C:9D95H         LINE#         1089
  C:9D95H         LINE#         1094
  C:9DABH         LINE#         1095
BL51 BANKED LINKER/LOCATER V6.22                                                      03/05/2019  13:48:08  PAGE 70


  C:9DABH         LINE#         1096
  C:9DABH         LINE#         1097
  C:9DABH         LINE#         1099
  C:9DABH         LINE#         1100
  C:9DD7H         LINE#         1101
  C:9DD7H         LINE#         1103
  C:9DFCH         LINE#         1105
  C:9E17H         LINE#         1106
  C:9E17H         LINE#         1117
  C:9E2BH         LINE#         1118
  C:9E42H         LINE#         1119
  C:9E54H         LINE#         1120
  C:9E56H         LINE#         1121
  C:9E71H         LINE#         1122
  C:9E71H         LINE#         1133
  C:9E85H         LINE#         1134
  C:9E9CH         LINE#         1135
  C:9EB2H         LINE#         1137
  C:9EB2H         LINE#         1155
  -------         ENDPROC       _CALIBRATION_ANGULAR
  -------         PROC          _CALIBRATION_SMALL_SIGNAL
  X:00B3H         SYMBOL        f_err_data
  -------         DO            
  X:00B7H         SYMBOL        u32_PMdataltemp
  X:00BBH         SYMBOL        offset
  X:00BCH         SYMBOL        s32_tmp
  X:00C0H         SYMBOL        s32_PMdataltemp
  -------         ENDDO         
  C:7B6FH         LINE#         1162
  C:7B75H         LINE#         1163
  C:7B75H         LINE#         1169
  C:7B93H         LINE#         1170
  C:7B93H         LINE#         1171
  C:7BA0H         LINE#         1173
  C:7BD6H         LINE#         1175
  C:7BDBH         LINE#         1176
  C:7C01H         LINE#         1177
  C:7C16H         LINE#         1180
  C:7C31H         LINE#         1181
  C:7C42H         LINE#         1182
  C:7C45H         LINE#         1184
  C:7C63H         LINE#         1185
  C:7C63H         LINE#         1186
  C:7C70H         LINE#         1188
  C:7CA6H         LINE#         1190
  C:7CABH         LINE#         1191
  C:7CD1H         LINE#         1192
  C:7CE6H         LINE#         1195
  C:7D01H         LINE#         1196
  C:7D15H         LINE#         1197
  C:7D15H         LINE#         1231
  -------         ENDPROC       _CALIBRATION_SMALL_SIGNAL
  -------         ENDMOD        LNK_EMU_ADJ

  -------         MODULE        LNK_EMU_HANDL
  C:0000H         SYMBOL        _ICE_DUMMY_
  D:0090H         PUBLIC        P1
BL51 BANKED LINKER/LOCATER V6.22                                                      03/05/2019  13:48:08  PAGE 71


  C:6CFDH         PUBLIC        _Lnk_get_EMU_activePower
  D:00B0H         PUBLIC        P3
  C:8ACBH         PUBLIC        lnk_CAL_EMU_constSum_per_second
  D:00A8H         PUBLIC        IE
  D:00ADH         PUBLIC        P9FC
  D:00B8H         PUBLIC        IP
  D:00A4H         PUBLIC        P9OE
  C:F036H         PUBLIC        Init_EMU_RAM
  C:B0E2H         PUBLIC        _Lnk_get_EMU_freq
  D:0098H         PUBLIC        SCON
  D:0088H         PUBLIC        TCON
  D:00F0H         PUBLIC        B
  D:00E0H         PUBLIC        ACC
  D:00E8H         PUBLIC        EIE
  D:0080H         PUBLIC        SysCtrl
  C:5D2FH         PUBLIC        _Init_EMU
  B:0080H.4       PUBLIC        PMG
  X:076DH         PUBLIC        gs_emu_run_var
  D:00C8H         PUBLIC        T2CON
  C:8D9BH         PUBLIC        _Lnk_get_EMU_voltage
  C:3BD8H         PUBLIC        Lnk_get_EMU_ractive_const
  C:79C0H         PUBLIC        _Lnk_get_EMU_ractivePower
  C:9A11H         PUBLIC        _Lnk_get_EMU_current
  D:00D0H         PUBLIC        PSW
  -------         PROC          INIT_EMU_RAM
  C:F036H         LINE#         31
  C:F036H         LINE#         32
  C:F036H         LINE#         33
  -------         ENDPROC       INIT_EMU_RAM
  -------         PROC          _INIT_EMU
  X:0000H         SYMBOL        u8_mode
  C:5D2FH         LINE#         43
  C:5D34H         LINE#         44
  C:5D34H         LINE#         47
  C:5D37H         LINE#         48
  C:5D37H         LINE#         49
  C:5D3DH         LINE#         50
  C:5D40H         LINE#         51
  C:5D43H         LINE#         53
  C:5D43H         LINE#         55
  C:5D45H         LINE#         57
  C:5D5AH         LINE#         58
  C:5D6FH         LINE#         60
  C:5D75H         LINE#         61
  C:5D78H         LINE#         62
  C:5D7EH         LINE#         63
  C:5D7EH         LINE#         64
  C:5D86H         LINE#         65
  C:5D8DH         LINE#         66
  C:5D9FH         LINE#         67
  C:5DA1H         LINE#         68
  C:5DAEH         LINE#         69
  C:5DAEH         LINE#         70
  C:5DB9H         LINE#         71
  C:5DC0H         LINE#         72
  C:5DD5H         LINE#         73
  C:5DD7H         LINE#         75
BL51 BANKED LINKER/LOCATER V6.22                                                      03/05/2019  13:48:08  PAGE 72


  C:5DD7H         LINE#         76
  C:5DDAH         LINE#         77
  C:5DDAH         LINE#         78
  C:5DE0H         LINE#         82
  C:5DF5H         LINE#         83
  C:5E0AH         LINE#         109
  C:5E1FH         LINE#         110
  C:5E34H         LINE#         114
  C:5E49H         LINE#         118
  C:5E5EH         LINE#         120
  C:5E73H         LINE#         125
  C:5E88H         LINE#         126
  C:5E9DH         LINE#         127
  C:5EB2H         LINE#         128
  C:5EC7H         LINE#         129
  C:5EDCH         LINE#         130
  C:5EF1H         LINE#         131
  C:5F06H         LINE#         132
  C:5F1BH         LINE#         134
  C:5F30H         LINE#         139
  C:5F45H         LINE#         140
  C:5F5AH         LINE#         142
  C:5F6FH         LINE#         145
  C:5F84H         LINE#         146
  C:5F87H         LINE#         147
  C:5F8AH         LINE#         150
  C:5F8DH         LINE#         151
  C:5F94H         LINE#         153
  C:5F9AH         LINE#         244
  -------         ENDPROC       _INIT_EMU
  -------         PROC          _LNK_GET_EMU_VOLTAGE
  X:000DH         SYMBOL        ch
  -------         DO            
  X:000EH         SYMBOL        val
  X:0012H         SYMBOL        tmpval
  X:0016H         SYMBOL        f32_tmp
  X:001AH         SYMBOL        TempValue
  -------         ENDDO         
  C:8D9BH         LINE#         252
  C:8DA0H         LINE#         253
  C:8DA0H         LINE#         257
  C:8DA4H         LINE#         258
  C:8DA4H         LINE#         259
  C:8DB1H         LINE#         260
  C:8DCBH         LINE#         261
  C:8DCBH         LINE#         262
  C:8DEFH         LINE#         263
  C:8DEFH         LINE#         264
  C:8DEFH         LINE#         265
  C:8DEFH         LINE#         266
  C:8DF2H         LINE#         267
  C:8DFDH         LINE#         268
  C:8DFDH         LINE#         269
  C:8E0AH         LINE#         270
  C:8E0AH         LINE#         271
  C:8E1DH         LINE#         272
  C:8E28H         LINE#         273
BL51 BANKED LINKER/LOCATER V6.22                                                      03/05/2019  13:48:08  PAGE 73


  C:8E3CH         LINE#         274
  C:8E3EH         LINE#         276
  C:8E3EH         LINE#         277
  C:8E45H         LINE#         278
  C:8E45H         LINE#         280
  C:8E5FH         LINE#         281
  C:8E5FH         LINE#         282
  C:8E83H         LINE#         283
  C:8E83H         LINE#         284
  C:8EACH         LINE#         285
  C:8EC3H         LINE#         286
  C:8EC5H         LINE#         288
  C:8EC5H         LINE#         289
  C:8ECFH         LINE#         290
  C:8ECFH         LINE#         293
  C:8EF3H         LINE#         295
  C:8F01H         LINE#         298
  -------         ENDPROC       _LNK_GET_EMU_VOLTAGE
  -------         PROC          _LNK_GET_EMU_CURRENT
  X:000DH         SYMBOL        ch
  -------         DO            
  X:000EH         SYMBOL        val
  X:0012H         SYMBOL        tmpval
  X:0016H         SYMBOL        f32_tmp
  X:001AH         SYMBOL        TempValue
  -------         ENDDO         
  C:9A11H         LINE#         306
  C:9A16H         LINE#         307
  C:9A16H         LINE#         312
  C:9A1AH         LINE#         313
  C:9A1AH         LINE#         314
  C:9A27H         LINE#         315
  C:9A41H         LINE#         316
  C:9A41H         LINE#         317
  C:9A65H         LINE#         318
  C:9A65H         LINE#         319
  C:9A65H         LINE#         320
  C:9A65H         LINE#         321
  C:9A67H         LINE#         322
  C:9A72H         LINE#         323
  C:9A72H         LINE#         324
  C:9A7FH         LINE#         325
  C:9A99H         LINE#         326
  C:9A99H         LINE#         327
  C:9ABDH         LINE#         328
  C:9ABDH         LINE#         329
  C:9AE6H         LINE#         330
  C:9AFDH         LINE#         332
  C:9AFFH         LINE#         334
  C:9AFFH         LINE#         335
  C:9B09H         LINE#         336
  C:9B09H         LINE#         338
  C:9B2DH         LINE#         340
  C:9B3BH         LINE#         342
  -------         ENDPROC       _LNK_GET_EMU_CURRENT
  -------         PROC          _LNK_GET_EMU_ACTIVEPOWER
  X:0696H         SYMBOL        ch
BL51 BANKED LINKER/LOCATER V6.22                                                      03/05/2019  13:48:08  PAGE 74


  -------         DO            
  X:0697H         SYMBOL        val
  X:069BH         SYMBOL        val2
  X:069FH         SYMBOL        tmpval
  X:06A3H         SYMBOL        f32_tmp
  X:06A7H         SYMBOL        TempValue
  -------         ENDDO         
  C:6CFDH         LINE#         350
  C:6D02H         LINE#         351
  C:6D02H         LINE#         356
  C:6D07H         LINE#         357
  C:6D07H         LINE#         358
  C:6D14H         LINE#         359
  C:6D22H         LINE#         360
  C:6D22H         LINE#         361
  C:6D35H         LINE#         362
  C:6D40H         LINE#         363
  C:6D54H         LINE#         364
  C:6D56H         LINE#         366
  C:6D56H         LINE#         367
  C:6D5DH         LINE#         368
  C:6D5DH         LINE#         370
  C:6D89H         LINE#         371
  C:6D89H         LINE#         372
  C:6D90H         LINE#         373
  C:6D90H         LINE#         375
  C:6D9DH         LINE#         376
  C:6DBAH         LINE#         377
  C:6DBAH         LINE#         378
  C:6DBAH         LINE#         380
  C:6DBAH         LINE#         382
  C:6DBCH         LINE#         383
  C:6DC7H         LINE#         384
  C:6DC7H         LINE#         386
  C:6DD4H         LINE#         387
  C:6DD4H         LINE#         388
  C:6DE7H         LINE#         389
  C:6DF2H         LINE#         390
  C:6E06H         LINE#         391
  C:6E08H         LINE#         393
  C:6E08H         LINE#         394
  C:6E0FH         LINE#         395
  C:6E0FH         LINE#         397
  C:6E29H         LINE#         398
  C:6E29H         LINE#         399
  C:6E4DH         LINE#         401
  C:6E4DH         LINE#         402
  C:6E4FH         LINE#         404
  C:6E4FH         LINE#         405
  C:6E59H         LINE#         406
  C:6E59H         LINE#         408
  C:6E74H         LINE#         409
  C:6E74H         LINE#         410
  C:6E7EH         LINE#         413
  C:6E80H         LINE#         415
  C:6E80H         LINE#         416
  C:6EA6H         LINE#         417
BL51 BANKED LINKER/LOCATER V6.22                                                      03/05/2019  13:48:08  PAGE 75


  C:6ECCH         LINE#         418
  C:6EE3H         LINE#         419
  C:6EE3H         LINE#         422
  C:6EE3H         LINE#         423
  C:6EE3H         LINE#         425
  C:6EE3H         LINE#         427
  C:6EE3H         LINE#         429
  C:6EE3H         LINE#         432
  C:6EF1H         LINE#         433
  -------         ENDPROC       _LNK_GET_EMU_ACTIVEPOWER
  -------         PROC          _LNK_GET_EMU_FREQ
  X:000DH         SYMBOL        ch
  -------         DO            
  X:000EH         SYMBOL        val
  X:0012H         SYMBOL        tmpval
  X:0016H         SYMBOL        TempValue
  -------         ENDDO         
  C:B0E2H         LINE#         441
  C:B0E7H         LINE#         442
  C:B0E7H         LINE#         445
  C:B0EAH         LINE#         446
  C:B0EAH         LINE#         447
  C:B0F7H         LINE#         448
  C:B10CH         LINE#         449
  C:B10EH         LINE#         450
  C:B116H         LINE#         451
  C:B116H         LINE#         452
  C:B125H         LINE#         453
  C:B125H         LINE#         454
  C:B137H         LINE#         455
  C:B142H         LINE#         456
  C:B156H         LINE#         457
  C:B174H         LINE#         458
  C:B176H         LINE#         460
  C:B176H         LINE#         461
  C:B17DH         LINE#         462
  C:B17DH         LINE#         463
  C:B17FH         LINE#         465
  C:B17FH         LINE#         466
  C:B189H         LINE#         467
  C:B189H         LINE#         469
  C:B1AFH         LINE#         473
  C:B1BDH         LINE#         474
  -------         ENDPROC       _LNK_GET_EMU_FREQ
  -------         PROC          LNK_CAL_EMU_CONSTSUM_PER_SECOND
  -------         DO            
  X:000DH         SYMBOL        sumval0
  X:0011H         SYMBOL        val1
  X:0015H         SYMBOL        val2
  X:0019H         SYMBOL        TempValue
  -------         ENDDO         
  C:8ACBH         LINE#         483
  C:8ACBH         LINE#         484
  C:8ACBH         LINE#         499
  C:8AD5H         LINE#         503
  C:8B0CH         LINE#         504
  C:8B43H         LINE#         506
BL51 BANKED LINKER/LOCATER V6.22                                                      03/05/2019  13:48:08  PAGE 76


  C:8B61H         LINE#         507
  C:8B61H         LINE#         508
  C:8B64H         LINE#         509
  C:8B88H         LINE#         511
  C:8B8AH         LINE#         513
  C:8B8DH         LINE#         515
  C:8BA1H         LINE#         516
  C:8BBCH         LINE#         517
  C:8BBCH         LINE#         518
  C:8BC6H         LINE#         519
  C:8BD0H         LINE#         520
  C:8BD7H         LINE#         521
  C:8BD7H         LINE#         522
  C:8BF4H         LINE#         523
  C:8C0FH         LINE#         524
  -------         ENDPROC       LNK_CAL_EMU_CONSTSUM_PER_SECOND
  -------         PROC          LNK_GET_EMU_RACTIVE_CONST
  -------         DO            
  X:0619H         SYMBOL        Temp_paraqc
  X:061DH         SYMBOL        val1
  X:0621H         SYMBOL        sumval1
  X:0625H         SYMBOL        val2
  X:0629H         SYMBOL        sumval2
  X:062DH         SYMBOL        TempValue
  X:0631H         SYMBOL        err_ec
  -------         ENDDO         
  C:3BD8H         LINE#         577
  C:3BD8H         LINE#         578
  C:3BD8H         LINE#         585
  C:3BE2H         LINE#         586
  C:3BECH         LINE#         587
  C:3BF6H         LINE#         589
  C:3C03H         LINE#         591
  C:3C10H         LINE#         594
  C:3C20H         LINE#         595
  C:3C20H         LINE#         596
  C:3C32H         LINE#         597
  C:3C3DH         LINE#         598
  C:3C63H         LINE#         599
  C:3C65H         LINE#         601
  C:3C65H         LINE#         602
  C:3C6DH         LINE#         604
  C:3C6DH         LINE#         606
  C:3CA3H         LINE#         607
  C:3CA3H         LINE#         608
  C:3CADH         LINE#         609
  C:3CADH         LINE#         611
  C:3CE3H         LINE#         612
  C:3CE3H         LINE#         613
  C:3CEDH         LINE#         614
  C:3CEDH         LINE#         618
  C:3CF0H         LINE#         619
  C:3CF0H         LINE#         621
  C:3CF0H         LINE#         623
  C:3CF0H         LINE#         625
  C:3CF0H         LINE#         627
  C:3CF3H         LINE#         628
BL51 BANKED LINKER/LOCATER V6.22                                                      03/05/2019  13:48:08  PAGE 77


  C:3CF3H         LINE#         630
  C:3CF3H         LINE#         632
  C:3CF3H         LINE#         634
  C:3CF3H         LINE#         700
  C:3CFDH         LINE#         701
  C:3CFDH         LINE#         702
  C:3D00H         LINE#         703
  C:3D00H         LINE#         704
  C:3D24H         LINE#         708
  C:3D4DH         LINE#         712
  C:3D50H         LINE#         714
  C:3D50H         LINE#         715
  C:3D72H         LINE#         716
  C:3D72H         LINE#         717
  C:3D9EH         LINE#         719
  C:3DBFH         LINE#         720
  C:3DC2H         LINE#         722
  C:3DC2H         LINE#         724
  C:3DEFH         LINE#         725
  C:3DFAH         LINE#         726
  C:3DFAH         LINE#         727
  C:3E1BH         LINE#         728
  C:3E1BH         LINE#         729
  C:3E1BH         LINE#         730
  C:3E1BH         LINE#         731
  C:3E1EH         LINE#         733
  C:3E1EH         LINE#         734
  C:3E28H         LINE#         735
  C:3E28H         LINE#         736
  C:3E4AH         LINE#         737
  C:3E4AH         LINE#         738
  C:3E76H         LINE#         740
  C:3E81H         LINE#         741
  C:3E81H         LINE#         742
  C:3E8CH         LINE#         743
  C:3E8EH         LINE#         745
  C:3E8EH         LINE#         746
  C:3EACH         LINE#         747
  C:3EACH         LINE#         748
  C:3EAFH         LINE#         750
  C:3EAFH         LINE#         752
  C:3EDCH         LINE#         753
  C:3EFDH         LINE#         754
  C:3EFDH         LINE#         755
  C:3EFFH         LINE#         757
  C:3EFFH         LINE#         758
  C:3F2BH         LINE#         760
  C:3F36H         LINE#         761
  C:3F36H         LINE#         762
  C:3F41H         LINE#         763
  C:3F43H         LINE#         765
  C:3F43H         LINE#         766
  C:3F64H         LINE#         767
  C:3F64H         LINE#         768
  C:3F64H         LINE#         769
  C:3F64H         LINE#         772
  C:3F99H         LINE#         774
BL51 BANKED LINKER/LOCATER V6.22                                                      03/05/2019  13:48:08  PAGE 78


  C:3FB8H         LINE#         775
  C:3FB8H         LINE#         776
  C:3FD7H         LINE#         777
  C:4003H         LINE#         778
  C:4021H         LINE#         779
  C:4023H         LINE#         780
  C:404AH         LINE#         782
  C:4065H         LINE#         786
  C:407FH         LINE#         787
  C:407FH         LINE#         788
  C:40A3H         LINE#         789
  C:40A3H         LINE#         791
  C:40BDH         LINE#         792
  C:40BDH         LINE#         793
  C:40E1H         LINE#         794
  C:40E1H         LINE#         795
  C:40FBH         LINE#         796
  C:40FBH         LINE#         797
  C:411FH         LINE#         798
  C:411FH         LINE#         799
  C:4143H         LINE#         800
  C:4167H         LINE#         801
  C:418BH         LINE#         802
  C:4195H         LINE#         804
  -------         ENDPROC       LNK_GET_EMU_RACTIVE_CONST
  -------         PROC          _LNK_GET_EMU_RACTIVEPOWER
  X:06E5H         SYMBOL        ch
  -------         DO            
  X:06E6H         SYMBOL        val
  X:06EAH         SYMBOL        tmpval
  X:06EEH         SYMBOL        f32_tmp
  X:06F2H         SYMBOL        TempValue
  -------         ENDDO         
  C:79C0H         LINE#         814
  C:79C5H         LINE#         815
  C:79C5H         LINE#         820
  C:79C8H         LINE#         821
  C:79C8H         LINE#         823
  C:79D5H         LINE#         824
  C:79F2H         LINE#         825
  C:79F2H         LINE#         826
  C:7A10H         LINE#         828
  C:7A10H         LINE#         829
  C:7A13H         LINE#         831
  C:7A1EH         LINE#         832
  C:7A1EH         LINE#         833
  C:7A2BH         LINE#         834
  C:7A2BH         LINE#         835
  C:7A3EH         LINE#         836
  C:7A49H         LINE#         837
  C:7A5DH         LINE#         838
  C:7A5FH         LINE#         840
  C:7A5FH         LINE#         841
  C:7A66H         LINE#         842
  C:7A66H         LINE#         845
  C:7A80H         LINE#         846
  C:7A80H         LINE#         847
BL51 BANKED LINKER/LOCATER V6.22                                                      03/05/2019  13:48:08  PAGE 79


  C:7AA4H         LINE#         849
  C:7AA4H         LINE#         851
  C:7ACAH         LINE#         852
  C:7ACCH         LINE#         854
  C:7ACCH         LINE#         855
  C:7AD6H         LINE#         856
  C:7AD6H         LINE#         858
  C:7AF1H         LINE#         859
  C:7AF1H         LINE#         860
  C:7AFBH         LINE#         863
  C:7AFDH         LINE#         865
  C:7AFDH         LINE#         867
  C:7B23H         LINE#         868
  C:7B49H         LINE#         869
  C:7B60H         LINE#         870
  C:7B60H         LINE#         872
  C:7B6EH         LINE#         873
  -------         ENDPROC       _LNK_GET_EMU_RACTIVEPOWER
  -------         ENDMOD        LNK_EMU_HANDL

  -------         MODULE        DRV_ADC
  C:0000H         SYMBOL        _ICE_DUMMY_
  D:0090H         PUBLIC        P1
  D:00B0H         PUBLIC        P3
  C:E9F5H         PUBLIC        Samlpe_temperatureAdc
  C:E4C0H         PUBLIC        InitParaRTC
  D:00A8H         PUBLIC        IE
  C:EAB0H         PUBLIC        Disable_M_ADC
  D:00B8H         PUBLIC        IP
  C:E638H         PUBLIC        _Enable_M_ADC
  C:0056H         PUBLIC        Cal_temperature_data
  D:0098H         PUBLIC        SCON
  D:0088H         PUBLIC        TCON
  D:00F0H         PUBLIC        B
  D:00E0H         PUBLIC        ACC
  D:0080H         PUBLIC        SysCtrl
  D:00C8H         PUBLIC        T2CON
  C:E674H         PUBLIC        Samlpe_BatAdc
  D:00D0H         PUBLIC        PSW
  -------         PROC          _ENABLE_M_ADC
  D:0007H         SYMBOL        m_ch
  -------         DO            
  D:0004H         SYMBOL        ctmp
  -------         ENDDO         
  C:E638H         LINE#         65
  C:E638H         LINE#         66
  C:E638H         LINE#         70
  C:E63CH         LINE#         71
  C:E63CH         LINE#         72
  C:E642H         LINE#         73
  C:E644H         LINE#         74
  C:E649H         LINE#         75
  C:E649H         LINE#         77
  C:E64FH         LINE#         78
  C:E64FH         LINE#         80
  C:E64FH         LINE#         82
  C:E64FH         LINE#         84
BL51 BANKED LINKER/LOCATER V6.22                                                      03/05/2019  13:48:08  PAGE 80


  C:E656H         LINE#         85
  C:E65BH         LINE#         87
  C:E662H         LINE#         88
  C:E666H         LINE#         89
  C:E673H         LINE#         91
  -------         ENDPROC       _ENABLE_M_ADC
  -------         PROC          DISABLE_M_ADC
  -------         DO            
  D:0004H         SYMBOL        ctmp
  -------         ENDDO         
  C:EAB0H         LINE#         100
  C:EAB0H         LINE#         101
  C:EAB0H         LINE#         104
  C:EAB7H         LINE#         105
  C:EABDH         LINE#         107
  C:EAC4H         LINE#         108
  C:EACBH         LINE#         109
  C:EACFH         LINE#         110
  -------         ENDPROC       DISABLE_M_ADC
  -------         PROC          SAMLPE_BATADC
  -------         DO            
  D:0006H         SYMBOL        nVBAT
  D:0004H         SYMBOL        u32_PMdataltemp
  -------         ENDDO         
  C:E674H         LINE#         121
  C:E674H         LINE#         122
  C:E674H         LINE#         126
  C:E679H         LINE#         127
  C:E680H         LINE#         129
  C:E687H         LINE#         130
  C:E68CH         LINE#         131
  C:E690H         LINE#         132
  C:E690H         LINE#         134
  C:E69DH         LINE#         135
  C:E69FH         LINE#         137
  C:E69FH         LINE#         138
  C:E6AEH         LINE#         139
  C:E6AEH         LINE#         141
  C:E6AFH         LINE#         143
  C:E6AFH         LINE#         144
  -------         ENDPROC       SAMLPE_BATADC
  -------         PROC          SAMLPE_TEMPERATUREADC
  -------         DO            
  X:0003H         SYMBOL        temperature
  -------         ENDDO         
  C:E9F5H         LINE#         154
  C:E9F5H         LINE#         155
  C:E9F5H         LINE#         158
  C:E9FAH         LINE#         159
  C:EA01H         LINE#         160
  C:EA0AH         LINE#         161
  C:EA25H         LINE#         162
  -------         ENDPROC       SAMLPE_TEMPERATUREADC
  -------         PROC          CAL_TEMPERATURE_DATA
  -------         DO            
  X:0007H         SYMBOL        i
  X:0008H         SYMBOL        p
BL51 BANKED LINKER/LOCATER V6.22                                                      03/05/2019  13:48:08  PAGE 81


  X:000AH         SYMBOL        s_TempPara
  D:0004H         SYMBOL        MAdcValue
  X:001FH         SYMBOL        Kpara
  X:0021H         SYMBOL        temp1
  X:0025H         SYMBOL        temperature
  X:0029H         SYMBOL        TempParaSum
  X:002AH         SYMBOL        temp
  -------         ENDDO         
  C:0056H         LINE#         172
  C:0056H         LINE#         173
  C:0056H         LINE#         187
  C:0060H         LINE#         188
  C:006FH         LINE#         189
  C:006FH         LINE#         190
  C:008BH         LINE#         191
  C:00A3H         LINE#         192
  C:00AAH         LINE#         193
  C:00AAH         LINE#         194
  C:00AAH         LINE#         195
  C:00AAH         LINE#         196
  C:00B2H         LINE#         197
  C:00BDH         LINE#         198
  C:00C8H         LINE#         199
  C:00D3H         LINE#         200
  C:00DEH         LINE#         201
  C:00E9H         LINE#         203
  C:00F0H         LINE#         205
  C:00FBH         LINE#         206
  C:0114H         LINE#         207
  C:0140H         LINE#         209
  C:014CH         LINE#         210
  C:014CH         LINE#         211
  C:0156H         LINE#         212
  C:0160H         LINE#         213
  C:016AH         LINE#         214
  C:0174H         LINE#         215
  C:017EH         LINE#         216
  C:017EH         LINE#         217
  C:0241H         LINE#         220
  C:024BH         LINE#         221
  C:025AH         LINE#         222
  C:025AH         LINE#         223
  C:0276H         LINE#         224
  C:028EH         LINE#         225
  C:0298H         LINE#         226
  C:0298H         LINE#         227
  C:0298H         LINE#         228
  C:0298H         LINE#         229
  C:02A0H         LINE#         231
  C:02ACH         LINE#         232
  C:02ACH         LINE#         233
  C:02B3H         LINE#         234
  C:02B3H         LINE#         236
  C:02BAH         LINE#         237
  C:02BAH         LINE#         238
  C:02D3H         LINE#         239
  C:0313H         LINE#         240
BL51 BANKED LINKER/LOCATER V6.22                                                      03/05/2019  13:48:08  PAGE 82


  C:0315H         LINE#         242
  C:0315H         LINE#         243
  C:0353H         LINE#         244
  C:0353H         LINE#         246
  C:036FH         LINE#         247
  C:036FH         LINE#         248
  C:0379H         LINE#         249
  C:0395H         LINE#         250
  C:0395H         LINE#         251
  C:039FH         LINE#         252
  C:039FH         LINE#         254
  C:03ADH         LINE#         256
  -------         ENDPROC       CAL_TEMPERATURE_DATA
  -------         ENDMOD        DRV_ADC

  -------         MODULE        DRV_CORE
  C:0000H         SYMBOL        _ICE_DUMMY_
  D:0090H         PUBLIC        P1
  D:00B0H         PUBLIC        P3
  D:00A8H         PUBLIC        IE
  D:00B8H         PUBLIC        IP
  C:AE3FH         PUBLIC        _Set_McuClock
  C:BD68H         PUBLIC        _Set_EmuClock
  B:0080H.1       PUBLIC        SLEEP0
  C:DF92H         PUBLIC        Set_McuSleep
  D:0098H         PUBLIC        SCON
  D:0088H         PUBLIC        TCON
  B:0080H.7       PUBLIC        MEAFRQ
  D:00F0H         PUBLIC        B
  C:D346H         PUBLIC        Set_Sleep_out
  D:00A3H         PUBLIC        PLLLCK
  D:00E0H         PUBLIC        ACC
  B:0080H.0       PUBLIC        MCUFRQ
  D:0080H         PUBLIC        SysCtrl
  B:0080H.5       PUBLIC        FSC
  B:0080H.6       PUBLIC        FWC
  B:0080H.4       PUBLIC        PMG
  D:00C8H         PUBLIC        T2CON
  D:00A1H         PUBLIC        Systate
  D:00D0H         PUBLIC        PSW
  -------         PROC          _SET_MCUCLOCK
  X:0007H         SYMBOL        u32_freq
  -------         DO            
  X:000BH         SYMBOL        i
  -------         ENDDO         
  C:AE3FH         LINE#         30
  C:AE45H         LINE#         31
  C:AE45H         LINE#         32
  C:AE4AH         LINE#         34
  C:AE4CH         LINE#         35
  C:AE4EH         LINE#         36
  C:AE55H         LINE#         38
  C:AE59H         LINE#         43
  C:AE92H         LINE#         44
  C:AE92H         LINE#         45
  C:AE92H         LINE#         46
  C:AE98H         LINE#         47
BL51 BANKED LINKER/LOCATER V6.22                                                      03/05/2019  13:48:08  PAGE 83


  C:AE98H         LINE#         48
  C:AE9AH         LINE#         50
  C:AE9AH         LINE#         51
  C:AEA1H         LINE#         52
  C:AEA5H         LINE#         53
  C:AEA8H         LINE#         54
  C:AEAAH         LINE#         56
  C:AEAAH         LINE#         57
  C:AEB0H         LINE#         58
  C:AEB0H         LINE#         59
  C:AEB2H         LINE#         61
  C:AEB2H         LINE#         62
  C:AEB9H         LINE#         63
  C:AEBDH         LINE#         64
  C:AEBFH         LINE#         66
  C:AEBFH         LINE#         67
  C:AEC6H         LINE#         68
  C:AECAH         LINE#         69
  C:AECFH         LINE#         70
  C:AED1H         LINE#         72
  C:AED1H         LINE#         73
  C:AED8H         LINE#         74
  C:AEDCH         LINE#         75
  C:AEE1H         LINE#         76
  C:AEE3H         LINE#         78
  C:AEE3H         LINE#         79
  C:AEE6H         LINE#         80
  C:AEE6H         LINE#         81
  C:AEE6H         LINE#         83
  C:AEEBH         LINE#         84
  C:AEEBH         LINE#         85
  C:AEF1H         LINE#         86
  C:AEF7H         LINE#         87
  C:AEF7H         LINE#         88
  C:AEFAH         LINE#         89
  C:AEFAH         LINE#         90
  C:AEFAH         LINE#         91
  C:AEFCH         LINE#         92
  C:AF01H         LINE#         94
  C:AF04H         LINE#         95
  C:AF04H         LINE#         96
  C:AF0AH         LINE#         97
  C:AF10H         LINE#         98
  C:AF10H         LINE#         99
  C:AF13H         LINE#         100
  C:AF13H         LINE#         101
  C:AF13H         LINE#         103
  C:AF18H         LINE#         104
  C:AF1CH         LINE#         105
  C:AF21H         LINE#         107
  C:AF23H         LINE#         108
  -------         ENDPROC       _SET_MCUCLOCK
  -------         PROC          _SET_EMUCLOCK
  X:0001H         SYMBOL        u32_freq
  -------         DO            
  X:0005H         SYMBOL        i
  -------         ENDDO         
BL51 BANKED LINKER/LOCATER V6.22                                                      03/05/2019  13:48:08  PAGE 84


  C:BD68H         LINE#         118
  C:BD6EH         LINE#         119
  C:BD6EH         LINE#         120
  C:BD73H         LINE#         122
  C:BD75H         LINE#         123
  C:BD7CH         LINE#         125
  C:BDA9H         LINE#         126
  C:BDA9H         LINE#         127
  C:BDA9H         LINE#         128
  C:BDABH         LINE#         129
  C:BDAEH         LINE#         131
  C:BDAEH         LINE#         132
  C:BDB5H         LINE#         133
  C:BDB9H         LINE#         134
  C:BDBBH         LINE#         136
  C:BDBBH         LINE#         137
  C:BDC2H         LINE#         138
  C:BDC6H         LINE#         140
  C:BDCAH         LINE#         141
  C:BDCEH         LINE#         142
  C:BDD0H         LINE#         144
  C:BDD0H         LINE#         145
  C:BDD7H         LINE#         146
  C:BDDBH         LINE#         148
  C:BDDFH         LINE#         149
  C:BDE3H         LINE#         150
  C:BDE5H         LINE#         152
  C:BDE5H         LINE#         153
  C:BDE8H         LINE#         154
  C:BDE8H         LINE#         155
  C:BDE8H         LINE#         157
  C:BDEDH         LINE#         158
  C:BDEDH         LINE#         159
  C:BDF3H         LINE#         160
  C:BDF9H         LINE#         161
  C:BDF9H         LINE#         162
  C:BDFCH         LINE#         163
  C:BDFCH         LINE#         164
  C:BDFCH         LINE#         166
  C:BDFEH         LINE#         167
  C:BE03H         LINE#         168
  C:BE06H         LINE#         169
  C:BE06H         LINE#         170
  C:BE0CH         LINE#         171
  C:BE12H         LINE#         172
  C:BE12H         LINE#         173
  C:BE15H         LINE#         174
  C:BE15H         LINE#         175
  C:BE15H         LINE#         177
  C:BE17H         LINE#         178
  -------         ENDPROC       _SET_EMUCLOCK
  -------         PROC          SET_MCUSLEEP
  -------         DO            
  X:0007H         SYMBOL        i
  -------         ENDDO         
  C:DF92H         LINE#         187
  C:DF92H         LINE#         188
BL51 BANKED LINKER/LOCATER V6.22                                                      03/05/2019  13:48:08  PAGE 85


  C:DF92H         LINE#         190
  C:DF94H         LINE#         191
  C:DF96H         LINE#         193
  C:DF9BH         LINE#         194
  C:DF9FH         LINE#         196
  C:DFADH         LINE#         197
  C:DFAFH         LINE#         200
  C:DFB4H         LINE#         201
  C:DFB4H         LINE#         202
  C:DFB7H         LINE#         203
  C:DFB7H         LINE#         205
  C:DFB9H         LINE#         206
  C:DFBCH         LINE#         208
  C:DFC1H         LINE#         209
  C:DFC1H         LINE#         210
  C:DFC4H         LINE#         211
  C:DFC4H         LINE#         213
  C:DFD3H         LINE#         214
  C:DFD8H         LINE#         215
  C:DFDEH         LINE#         217
  C:DFE0H         LINE#         218
  C:DFE5H         LINE#         219
  C:DFE6H         LINE#         224
  -------         ENDPROC       SET_MCUSLEEP
  -------         PROC          SET_SLEEP_OUT
  -------         DO            
  D:0007H         SYMBOL        i
  -------         ENDDO         
  C:D346H         LINE#         234
  C:D346H         LINE#         235
  C:D346H         LINE#         240
  C:D354H         LINE#         241
  C:D35BH         LINE#         242
  C:D367H         LINE#         243
  C:D36CH         LINE#         246
  C:D371H         LINE#         247
  C:D375H         LINE#         248
  C:D379H         LINE#         249
  C:D37DH         LINE#         251
  C:D381H         LINE#         252
  C:D388H         LINE#         254
  C:D39DH         LINE#         255
  C:D3B2H         LINE#         257
  C:D3B9H         LINE#         259
  C:D3BBH         LINE#         262
  -------         ENDPROC       SET_SLEEP_OUT
  -------         ENDMOD        DRV_CORE

  -------         MODULE        DRV_GPIO
  C:0000H         SYMBOL        _ICE_DUMMY_
  D:0090H         PUBLIC        P1
  D:00B0H         PUBLIC        P3
  D:00A8H         PUBLIC        IE
  D:00ADH         PUBLIC        P9FC
  D:00A5H         PUBLIC        P9IE
  D:00B8H         PUBLIC        IP
  D:00A6H         PUBLIC        P9DO
BL51 BANKED LINKER/LOCATER V6.22                                                      03/05/2019  13:48:08  PAGE 86


  D:00A4H         PUBLIC        P9OE
  C:DEE6H         PUBLIC        Init_GPIO_sleep
  D:0098H         PUBLIC        SCON
  D:0088H         PUBLIC        TCON
  D:00F0H         PUBLIC        B
  D:00E0H         PUBLIC        ACC
  D:0080H         PUBLIC        SysCtrl
  C:CED6H         PUBLIC        Init_GPIO_run
  D:00C8H         PUBLIC        T2CON
  D:00D0H         PUBLIC        PSW
  -------         PROC          INIT_GPIO_RUN
  C:CED6H         LINE#         29
  C:CED6H         LINE#         30
  C:CED6H         LINE#         32
  C:CEDDH         LINE#         33
  C:CEE4H         LINE#         35
  C:CEE7H         LINE#         36
  C:CEEAH         LINE#         37
  C:CEEDH         LINE#         38
  C:CEF0H         LINE#         39
  C:CF17H         LINE#         40
  C:CF2AH         LINE#         42
  C:CF33H         LINE#         44
  C:CF35H         LINE#         45
  C:CF3CH         LINE#         46
  C:CF43H         LINE#         48
  C:CF48H         LINE#         49
  C:CF4FH         LINE#         51
  C:CF54H         LINE#         52
  C:CF5BH         LINE#         54
  C:CF5EH         LINE#         55
  C:CF61H         LINE#         57
  -------         ENDPROC       INIT_GPIO_RUN
  -------         PROC          INIT_GPIO_SLEEP
  C:DEE6H         LINE#         66
  C:DEE6H         LINE#         67
  C:DEE6H         LINE#         68
  C:DEECH         LINE#         69
  C:DEEFH         LINE#         70
  C:DEF5H         LINE#         71
  C:DEF8H         LINE#         72
  C:DEFEH         LINE#         73
  C:DF01H         LINE#         74
  C:DF07H         LINE#         75
  C:DF0AH         LINE#         76
  C:DF10H         LINE#         77
  C:DF13H         LINE#         78
  C:DF19H         LINE#         79
  C:DF1CH         LINE#         80
  C:DF22H         LINE#         81
  C:DF25H         LINE#         82
  C:DF2BH         LINE#         83
  C:DF2EH         LINE#         84
  C:DF34H         LINE#         85
  C:DF37H         LINE#         86
  C:DF3AH         LINE#         87
  C:DF3CH         LINE#         88
BL51 BANKED LINKER/LOCATER V6.22                                                      03/05/2019  13:48:08  PAGE 87


  -------         ENDPROC       INIT_GPIO_SLEEP
  -------         ENDMOD        DRV_GPIO

  -------         MODULE        DRV_KEY_IO
  C:0000H         SYMBOL        _ICE_DUMMY_
  D:0090H         PUBLIC        P1
  D:00B0H         PUBLIC        P3
  C:EE3CH         PUBLIC        Judge_PG_DN_key
  D:00A8H         PUBLIC        IE
  D:00A7H         PUBLIC        P9DI
  C:EE22H         PUBLIC        Judge_ERR_ADJ_key
  D:00B8H         PUBLIC        IP
  D:0098H         PUBLIC        SCON
  D:0088H         PUBLIC        TCON
  D:00F0H         PUBLIC        B
  D:00E0H         PUBLIC        ACC
  C:EED3H         PUBLIC        Judge_ERR_COVER_key
  C:EEBBH         PUBLIC        Judge_MD_CLEAR_key
  D:0080H         PUBLIC        SysCtrl
  C:EE56H         PUBLIC        Judge_MAGN_CHK_key
  D:00C8H         PUBLIC        T2CON
  D:00D0H         PUBLIC        PSW
  -------         PROC          JUDGE_ERR_ADJ_KEY
  -------         DO            
  D:0007H         SYMBOL        i
  -------         ENDDO         
  C:EE22H         LINE#         31
  C:EE22H         LINE#         32
  C:EE22H         LINE#         36
  C:EE24H         LINE#         37
  C:EE24H         LINE#         38
  C:EE2BH         LINE#         39
  C:EE30H         LINE#         41
  C:EE36H         LINE#         42
  C:EE36H         LINE#         43
  C:EE39H         LINE#         44
  C:EE39H         LINE#         46
  C:EE39H         LINE#         47
  C:EE3BH         LINE#         48
  C:EE3BH         LINE#         50
  -------         ENDPROC       JUDGE_ERR_ADJ_KEY
  -------         PROC          JUDGE_PG_DN_KEY
  -------         DO            
  D:0007H         SYMBOL        i
  -------         ENDDO         
  C:EE3CH         LINE#         58
  C:EE3CH         LINE#         59
  C:EE3CH         LINE#         63
  C:EE3EH         LINE#         64
  C:EE3EH         LINE#         65
  C:EE45H         LINE#         66
  C:EE4AH         LINE#         68
  C:EE50H         LINE#         69
  C:EE50H         LINE#         70
  C:EE53H         LINE#         71
  C:EE53H         LINE#         73
  C:EE53H         LINE#         74
BL51 BANKED LINKER/LOCATER V6.22                                                      03/05/2019  13:48:08  PAGE 88


  C:EE55H         LINE#         75
  C:EE55H         LINE#         77
  -------         ENDPROC       JUDGE_PG_DN_KEY
  -------         PROC          JUDGE_MD_CLEAR_KEY
  -------         DO            
  D:0007H         SYMBOL        i
  -------         ENDDO         
  C:EEBBH         LINE#         85
  C:EEBBH         LINE#         86
  C:EEBBH         LINE#         90
  C:EEBDH         LINE#         91
  C:EEBDH         LINE#         92
  C:EEC2H         LINE#         93
  C:EEC7H         LINE#         95
  C:EECDH         LINE#         96
  C:EECDH         LINE#         97
  C:EED0H         LINE#         98
  C:EED0H         LINE#         100
  C:EED0H         LINE#         101
  C:EED2H         LINE#         102
  C:EED2H         LINE#         104
  -------         ENDPROC       JUDGE_MD_CLEAR_KEY
  -------         PROC          JUDGE_MAGN_CHK_KEY
  -------         DO            
  D:0007H         SYMBOL        i
  -------         ENDDO         
  C:EE56H         LINE#         113
  C:EE56H         LINE#         114
  C:EE56H         LINE#         118
  C:EE58H         LINE#         119
  C:EE58H         LINE#         120
  C:EE5FH         LINE#         121
  C:EE64H         LINE#         123
  C:EE6AH         LINE#         124
  C:EE6AH         LINE#         125
  C:EE6DH         LINE#         126
  C:EE6DH         LINE#         128
  C:EE6DH         LINE#         129
  C:EE6FH         LINE#         130
  C:EE6FH         LINE#         132
  -------         ENDPROC       JUDGE_MAGN_CHK_KEY
  -------         PROC          JUDGE_ERR_COVER_KEY
  -------         DO            
  D:0007H         SYMBOL        i
  -------         ENDDO         
  C:EED3H         LINE#         142
  C:EED3H         LINE#         143
  C:EED3H         LINE#         147
  C:EED5H         LINE#         148
  C:EED5H         LINE#         149
  C:EEDAH         LINE#         150
  C:EEDFH         LINE#         152
  C:EEE5H         LINE#         153
  C:EEE5H         LINE#         154
  C:EEE8H         LINE#         155
  C:EEE8H         LINE#         157
  C:EEE8H         LINE#         158
BL51 BANKED LINKER/LOCATER V6.22                                                      03/05/2019  13:48:08  PAGE 89


  C:EEEAH         LINE#         159
  C:EEEAH         LINE#         161
  -------         ENDPROC       JUDGE_ERR_COVER_KEY
  -------         ENDMOD        DRV_KEY_IO

  -------         MODULE        DRV_LCD
  C:0000H         SYMBOL        _ICE_DUMMY_
  D:0090H         PUBLIC        P1
  D:00B0H         PUBLIC        P3
  D:00A8H         PUBLIC        IE
  C:F039H         PUBLIC        LCD_OFF
  D:00B8H         PUBLIC        IP
  B:0080H.3       PUBLIC        LCDG
  D:0098H         PUBLIC        SCON
  D:0088H         PUBLIC        TCON
  D:00F0H         PUBLIC        B
  C:AF24H         PUBLIC        _Write_LCD
  D:00E0H         PUBLIC        ACC
  C:D7C9H         PUBLIC        Init_LCD
  C:EFB5H         PUBLIC        LCD_ON
  C:ED99H         PUBLIC        Clr_all_lcd
  C:EBD2H         PUBLIC        _Full_SEG
  D:0080H         PUBLIC        SysCtrl
  D:00C8H         PUBLIC        T2CON
  D:00D0H         PUBLIC        PSW
  -------         PROC          LCD_ON
  C:EFB5H         LINE#         29
  C:EFB5H         LINE#         30
  C:EFB5H         LINE#         31
  C:EFB7H         LINE#         32
  C:EFBCH         LINE#         33
  C:EFC2H         LINE#         34
  -------         ENDPROC       LCD_ON
  -------         PROC          LCD_OFF
  C:F039H         LINE#         43
  C:F039H         LINE#         44
  C:F039H         LINE#         45
  C:F03BH         LINE#         46
  -------         ENDPROC       LCD_OFF
  -------         PROC          CLR_ALL_LCD
  C:ED99H         LINE#         54
  C:ED99H         LINE#         55
  C:ED99H         LINE#         56
  C:ED9EH         LINE#         57
  C:EDA0H         LINE#         58
  C:EDA2H         LINE#         59
  C:EDA4H         LINE#         60
  C:EDA6H         LINE#         61
  C:EDA8H         LINE#         62
  C:EDAAH         LINE#         63
  C:EDACH         LINE#         64
  C:EDB0H         LINE#         65
  C:EDB2H         LINE#         66
  C:EDB4H         LINE#         67
  -------         ENDPROC       CLR_ALL_LCD
  -------         PROC          _FULL_SEG
  D:0007H         SYMBOL        val
BL51 BANKED LINKER/LOCATER V6.22                                                      03/05/2019  13:48:08  PAGE 90


  C:EBD2H         LINE#         76
  C:EBD2H         LINE#         77
  C:EBD2H         LINE#         78
  C:EBD7H         LINE#         79
  C:EBDBH         LINE#         80
  C:EBDDH         LINE#         81
  C:EBDFH         LINE#         82
  C:EBE1H         LINE#         83
  C:EBE5H         LINE#         84
  C:EBE7H         LINE#         85
  C:EBE9H         LINE#         86
  C:EBEDH         LINE#         87
  C:EBEFH         LINE#         88
  C:EBF3H         LINE#         89
  C:EBF8H         LINE#         90
  -------         ENDPROC       _FULL_SEG
  -------         PROC          INIT_LCD
  C:D7C9H         LINE#         99
  C:D7C9H         LINE#         100
  C:D7C9H         LINE#         103
  C:D7D0H         LINE#         104
  C:D7D7H         LINE#         105
  C:D7DEH         LINE#         106
  C:D7E5H         LINE#         107
  C:D7ECH         LINE#         108
  C:D7F3H         LINE#         110
  C:D7FAH         LINE#         111
  C:D801H         LINE#         112
  C:D807H         LINE#         113
  C:D80EH         LINE#         114
  C:D815H         LINE#         115
  C:D81CH         LINE#         117
  C:D81FH         LINE#         119
  C:D825H         LINE#         121
  C:D829H         LINE#         124
  C:D82DH         LINE#         126
  C:D831H         LINE#         128
  C:D835H         LINE#         130
  -------         ENDPROC       INIT_LCD
  -------         PROC          _WRITE_LCD
  D:0001H         SYMBOL        bf_i2cData
  C:AF24H         LINE#         138
  C:AF24H         LINE#         139
  C:AF24H         LINE#         141
  C:AF39H         LINE#         142
  C:AF4DH         LINE#         143
  C:AF5EH         LINE#         144
  C:AF75H         LINE#         145
  C:AF86H         LINE#         146
  C:AF9DH         LINE#         147
  C:AFAEH         LINE#         148
  C:AFC5H         LINE#         149
  C:AFD6H         LINE#         150
  C:AFEDH         LINE#         151
  C:AFF2H         LINE#         152
  C:B003H         LINE#         154
  -------         ENDPROC       _WRITE_LCD
BL51 BANKED LINKER/LOCATER V6.22                                                      03/05/2019  13:48:08  PAGE 91


  -------         ENDMOD        DRV_LCD

  -------         MODULE        DRV_RTC
  C:0000H         SYMBOL        _ICE_DUMMY_
  D:009AH         PUBLIC        RTCSC
  D:0090H         PUBLIC        P1
  D:00B0H         PUBLIC        P3
  D:009EH         PUBLIC        RTCWC
  C:8501H         PUBLIC        _SetRTCNormal
  D:0093H         PUBLIC        RTCYC
  C:D9E4H         PUBLIC        _Set_RTCTime
  D:00A8H         PUBLIC        IE
  D:00B8H         PUBLIC        IP
  D:0098H         PUBLIC        SCON
  D:0088H         PUBLIC        TCON
  D:00F0H         PUBLIC        B
  D:00E0H         PUBLIC        ACC
  D:00DFH         PUBLIC        SECINT
  D:00DBH         PUBLIC        DIVTHH
  C:E6EBH         PUBLIC        _SetExtRTC
  C:EF93H         PUBLIC        Open_SecOut
  D:00DDH         PUBLIC        DIVTHL
  D:00DCH         PUBLIC        DIVTHM
  D:0090H         PUBLIC        RTCPEN
  C:EDD1H         PUBLIC        Clr_RTC_AdjParam
  D:00E8H         PUBLIC        EIE
  D:0096H         PUBLIC        INTRTC
  D:0097H         PUBLIC        RTCPWD
  D:00DAH         PUBLIC        RTCLATCH
  D:0080H         PUBLIC        SysCtrl
  C:EFDDH         PUBLIC        Init_RTC
  D:009BH         PUBLIC        RTCMiC
  D:00C8H         PUBLIC        T2CON
  C:F045H         PUBLIC        Handl_RTC_Adj_per_minu
  D:009FH         PUBLIC        RTCMoC
  D:009DH         PUBLIC        RTCDC
  D:009CH         PUBLIC        RTCHC
  D:0094H         PUBLIC        RTCCH
  D:0095H         PUBLIC        RTCCL
  D:00D0H         PUBLIC        PSW
  C:DD17H         PUBLIC        _Get_RTCTime
  -------         PROC          OPEN_SECOUT
  C:EF93H         LINE#         28
  C:EF93H         LINE#         29
  C:EF93H         LINE#         30
  C:EF99H         LINE#         32
  C:EFA0H         LINE#         33
  C:EFA5H         LINE#         34
  -------         ENDPROC       OPEN_SECOUT
  -------         PROC          INIT_RTC
  C:EFDDH         LINE#         52
  C:EFDDH         LINE#         53
  C:EFDDH         LINE#         54
  C:EFE0H         LINE#         55
  C:EFE7H         LINE#         56
  -------         ENDPROC       INIT_RTC
  -------         PROC          _SETEXTRTC
BL51 BANKED LINKER/LOCATER V6.22                                                      03/05/2019  13:48:08  PAGE 92


  X:0007H         SYMBOL        SEC
  X:0008H         SYMBOL        intRTC
  C:E6EBH         LINE#         67
  C:E6F3H         LINE#         68
  C:E6F3H         LINE#         70
  C:E6F6H         LINE#         71
  C:E6F9H         LINE#         72
  C:E6FEH         LINE#         74
  C:E705H         LINE#         77
  C:E709H         LINE#         78
  C:E709H         LINE#         79
  C:E70CH         LINE#         80
  C:E716H         LINE#         81
  C:E716H         LINE#         84
  C:E71BH         LINE#         86
  C:E71EH         LINE#         87
  C:E721H         LINE#         88
  -------         ENDPROC       _SETEXTRTC
  -------         PROC          _GET_RTCTIME
  X:0021H         SYMBOL        pTime
  -------         DO            
  X:0024H         SYMBOL        RTCFLAG
  -------         ENDDO         
  C:DD17H         LINE#         99
  C:DD22H         LINE#         100
  C:DD22H         LINE#         103
  C:DD26H         LINE#         104
  C:DD2BH         LINE#         106
  C:DD3BH         LINE#         107
  C:DD4EH         LINE#         108
  C:DD56H         LINE#         109
  C:DD5EH         LINE#         110
  C:DD66H         LINE#         111
  C:DD6EH         LINE#         112
  -------         ENDPROC       _GET_RTCTIME
  -------         PROC          _SET_RTCTIME
  X:0095H         SYMBOL        pTime
  C:D9E4H         LINE#         122
  C:D9EFH         LINE#         123
  C:D9EFH         LINE#         125
  C:D9F2H         LINE#         126
  C:D9F5H         LINE#         127
  C:D9FAH         LINE#         129
  C:DA0AH         LINE#         130
  C:DA12H         LINE#         131
  C:DA1AH         LINE#         132
  C:DA22H         LINE#         133
  C:DA2AH         LINE#         134
  C:DA32H         LINE#         135
  C:DA3AH         LINE#         136
  C:DA3FH         LINE#         139
  C:DA42H         LINE#         140
  C:DA45H         LINE#         141
  C:DA4AH         LINE#         143
  C:DA4CH         LINE#         144
  -------         ENDPROC       _SET_RTCTIME
  -------         PROC          CLR_RTC_ADJPARAM
BL51 BANKED LINKER/LOCATER V6.22                                                      03/05/2019  13:48:08  PAGE 93


  C:EDD1H         LINE#         155
  C:EDD1H         LINE#         156
  C:EDD1H         LINE#         158
  C:EDD4H         LINE#         159
  C:EDD7H         LINE#         160
  C:EDDCH         LINE#         161
  C:EDDFH         LINE#         162
  C:EDE1H         LINE#         165
  C:EDE4H         LINE#         166
  C:EDE7H         LINE#         167
  -------         ENDPROC       CLR_RTC_ADJPARAM
  -------         PROC          _SETRTCNORMAL
  X:070DH         SYMBOL        offset
  -------         DO            
  X:070FH         SYMBOL        temp1
  X:0713H         SYMBOL        temp2
  D:0006H         SYMBOL        temp3
  -------         ENDDO         
  C:8501H         LINE#         178
  C:8509H         LINE#         179
  C:8509H         LINE#         183
  C:8513H         LINE#         184
  C:8522H         LINE#         185
  C:852EH         LINE#         186
  C:852EH         LINE#         187
  C:853DH         LINE#         188
  C:8547H         LINE#         189
  C:856DH         LINE#         190
  C:8577H         LINE#         191
  C:85B7H         LINE#         192
  C:85B9H         LINE#         194
  C:85B9H         LINE#         195
  C:85DFH         LINE#         196
  C:85E9H         LINE#         197
  C:8639H         LINE#         198
  C:8639H         LINE#         200
  C:8648H         LINE#         201
  C:864FH         LINE#         202
  C:8652H         LINE#         203
  C:8655H         LINE#         204
  C:865AH         LINE#         205
  C:8660H         LINE#         206
  C:8664H         LINE#         207
  C:866AH         LINE#         208
  C:866EH         LINE#         209
  C:8672H         LINE#         211
  C:8677H         LINE#         212
  C:867AH         LINE#         213
  C:867DH         LINE#         214
  -------         ENDPROC       _SETRTCNORMAL
  -------         PROC          HANDL_RTC_ADJ_PER_MINU
  -------         DO            
  X:0001H         SYMBOL        i
  X:0002H         SYMBOL        p
  X:0004H         SYMBOL        temp1
  X:0008H         SYMBOL        temperature
  X:000CH         SYMBOL        delta
BL51 BANKED LINKER/LOCATER V6.22                                                      03/05/2019  13:48:08  PAGE 94


  D:0006H         SYMBOL        OSC
  X:000EH         SYMBOL        Bpara
  X:0012H         SYMBOL        Ti
  -------         ENDDO         
  C:F045H         LINE#         224
  C:F045H         LINE#         225
  -------         ENDPROC       HANDL_RTC_ADJ_PER_MINU
  -------         ENDMOD        DRV_RTC

  -------         MODULE        DRV_TMR
  C:0000H         SYMBOL        _ICE_DUMMY_
  D:0090H         PUBLIC        P1
  D:00B0H         PUBLIC        P3
  C:000EH         PUBLIC        Stop_Timer
  D:00A8H         PUBLIC        IE
  D:00B8H         PUBLIC        IP
  D:0098H         PUBLIC        SCON
  D:0089H         PUBLIC        TMOD
  D:0088H         PUBLIC        TCON
  D:00F0H         PUBLIC        B
  D:00E0H         PUBLIC        ACC
  B:00A8H.1       PUBLIC        ET0
  D:008CH         PUBLIC        TH0
  D:008AH         PUBLIC        TL0
  B:0088H.4       PUBLIC        TR0
  D:0080H         PUBLIC        SysCtrl
  D:00C8H         PUBLIC        T2CON
  D:008EH         PUBLIC        CKCON
  C:0006H         PUBLIC        Start_Timer
  C:EFA6H         PUBLIC        Init_Timer
  D:00D0H         PUBLIC        PSW
  -------         PROC          START_TIMER
  C:0006H         LINE#         30
  C:0006H         LINE#         31
  C:0006H         LINE#         32
  C:0008H         LINE#         33
  C:000AH         LINE#         34
  -------         ENDPROC       START_TIMER
  -------         PROC          STOP_TIMER
  C:000EH         LINE#         43
  C:000EH         LINE#         44
  C:000EH         LINE#         45
  C:0010H         LINE#         46
  C:0012H         LINE#         47
  -------         ENDPROC       STOP_TIMER
  -------         PROC          INIT_TIMER
  C:EFA6H         LINE#         56
  C:EFA6H         LINE#         57
  C:EFA6H         LINE#         59
  C:EFA9H         LINE#         60
  C:EFACH         LINE#         61
  C:EFAFH         LINE#         62
  C:EFB2H         LINE#         63
  -------         ENDPROC       INIT_TIMER
  -------         ENDMOD        DRV_TMR

  -------         MODULE        DRV_UART
BL51 BANKED LINKER/LOCATER V6.22                                                      03/05/2019  13:48:08  PAGE 95


  C:0000H         SYMBOL        _ICE_DUMMY_
  D:0090H         PUBLIC        P1
  D:00B0H         PUBLIC        P3
  B:00A8H.7       PUBLIC        EA
  C:E037H         PUBLIC        Uart4_Transmit
  D:00A8H         PUBLIC        IE
  C:A7C3H         PUBLIC        _Get_UART_rx_buff
  C:B004H         PUBLIC        _Hdl_UART_10ms_run
  D:00B8H         PUBLIC        IP
  C:EF02H         PUBLIC        En_UART2_Tx
  C:EF18H         PUBLIC        En_UART4_Tx
  D:0098H         PUBLIC        SCON
  D:0088H         PUBLIC        TCON
  C:F007H         PUBLIC        Dis_UART2_rx
  C:F00FH         PUBLIC        Dis_UART4_rx
  D:00F0H         PUBLIC        B
  D:00E0H         PUBLIC        ACC
  C:E24CH         PUBLIC        En_UART2_rx
  B:00D0H.0       PUBLIC        P
  C:E3F8H         PUBLIC        En_UART4_rx
  C:C2D4H         PUBLIC        _Init_UART_soft
  X:0238H         PUBLIC        gs_uart_drv_var
  D:00E8H         PUBLIC        EIE
  D:0080H         PUBLIC        SysCtrl
  C:D3BCH         PUBLIC        _Set_Uart2_badu
  C:D432H         PUBLIC        _Set_Uart4_badu
  D:00C8H         PUBLIC        T2CON
  C:F01FH         PUBLIC        _Init_UART2_hard
  C:F025H         PUBLIC        _Init_UART4_hard
  C:780DH         PUBLIC        _Tx_UART_frist
  D:00D0H         PUBLIC        PSW
  -------         PROC          _SET_UART2_BADU
  D:0006H         SYMBOL        rate
  C:D3BCH         LINE#         32
  C:D3BCH         LINE#         33
  C:D3BCH         LINE#         34
  C:D3C2H         LINE#         35
  C:D3E0H         LINE#         36
  C:D3E0H         LINE#         37
  C:D3E0H         LINE#         39
  C:D3E6H         LINE#         41
  C:D3EBH         LINE#         56
  C:D3EDH         LINE#         58
  C:D3EDH         LINE#         60
  C:D3F3H         LINE#         62
  C:D3F8H         LINE#         77
  C:D3FAH         LINE#         79
  C:D3FAH         LINE#         81
  C:D400H         LINE#         83
  C:D405H         LINE#         98
  C:D407H         LINE#         100
  C:D407H         LINE#         103
  C:D40DH         LINE#         105
  C:D412H         LINE#         120
  C:D414H         LINE#         122
  C:D414H         LINE#         124
  C:D41AH         LINE#         126
BL51 BANKED LINKER/LOCATER V6.22                                                      03/05/2019  13:48:08  PAGE 96


  C:D41FH         LINE#         141
  C:D421H         LINE#         142
  C:D421H         LINE#         143
  C:D421H         LINE#         145
  C:D427H         LINE#         147
  C:D431H         LINE#         162
  C:D431H         LINE#         164
  C:D431H         LINE#         166
  -------         ENDPROC       _SET_UART2_BADU
  -------         PROC          _SET_UART4_BADU
  D:0006H         SYMBOL        rate
  C:D432H         LINE#         176
  C:D432H         LINE#         177
  C:D432H         LINE#         178
  C:D438H         LINE#         179
  C:D456H         LINE#         180
  C:D456H         LINE#         181
  C:D456H         LINE#         183
  C:D45CH         LINE#         185
  C:D461H         LINE#         198
  C:D463H         LINE#         200
  C:D463H         LINE#         202
  C:D469H         LINE#         204
  C:D46EH         LINE#         217
  C:D470H         LINE#         219
  C:D470H         LINE#         221
  C:D476H         LINE#         223
  C:D47BH         LINE#         236
  C:D47DH         LINE#         238
  C:D47DH         LINE#         240
  C:D483H         LINE#         242
  C:D488H         LINE#         255
  C:D48AH         LINE#         257
  C:D48AH         LINE#         259
  C:D490H         LINE#         261
  C:D495H         LINE#         274
  C:D497H         LINE#         275
  C:D497H         LINE#         276
  C:D497H         LINE#         278
  C:D49DH         LINE#         280
  C:D4A7H         LINE#         293
  C:D4A7H         LINE#         295
  C:D4A7H         LINE#         297
  -------         ENDPROC       _SET_UART4_BADU
  -------         PROC          EN_UART2_RX
  C:E24CH         LINE#         308
  C:E24CH         LINE#         309
  C:E24CH         LINE#         310
  C:E279H         LINE#         311
  C:E27FH         LINE#         312
  C:E286H         LINE#         313
  C:E28DH         LINE#         314
  C:E291H         LINE#         315
  C:E294H         LINE#         316
  -------         ENDPROC       EN_UART2_RX
  -------         PROC          EN_UART4_RX
  C:E3F8H         LINE#         336
BL51 BANKED LINKER/LOCATER V6.22                                                      03/05/2019  13:48:08  PAGE 97


  C:E3F8H         LINE#         337
  C:E3F8H         LINE#         354
  C:E41FH         LINE#         355
  C:E425H         LINE#         356
  C:E42CH         LINE#         357
  C:E433H         LINE#         358
  C:E437H         LINE#         359
  C:E43AH         LINE#         360
  -------         ENDPROC       EN_UART4_RX
  -------         PROC          DIS_UART2_RX
  C:F007H         LINE#         369
  C:F007H         LINE#         370
  C:F007H         LINE#         371
  C:F00EH         LINE#         372
  -------         ENDPROC       DIS_UART2_RX
  -------         PROC          DIS_UART4_RX
  C:F00FH         LINE#         381
  C:F00FH         LINE#         382
  C:F00FH         LINE#         383
  C:F016H         LINE#         384
  -------         ENDPROC       DIS_UART4_RX
  -------         PROC          EN_UART2_TX
  C:EF02H         LINE#         393
  C:EF02H         LINE#         394
  C:EF02H         LINE#         395
  C:EF09H         LINE#         396
  C:EF10H         LINE#         397
  C:EF14H         LINE#         398
  C:EF17H         LINE#         400
  -------         ENDPROC       EN_UART2_TX
  -------         PROC          EN_UART4_TX
  C:EF18H         LINE#         410
  C:EF18H         LINE#         411
  C:EF18H         LINE#         412
  C:EF1FH         LINE#         413
  C:EF26H         LINE#         414
  C:EF2AH         LINE#         415
  C:EF2DH         LINE#         416
  -------         ENDPROC       EN_UART4_TX
  -------         PROC          _INIT_UART2_HARD
  D:0006H         SYMBOL        badu
  C:F01FH         LINE#         428
  C:F01FH         LINE#         429
  C:F01FH         LINE#         431
  C:F022H         LINE#         432
  -------         ENDPROC       _INIT_UART2_HARD
  -------         PROC          _INIT_UART4_HARD
  D:0006H         SYMBOL        badu
  C:F025H         LINE#         444
  C:F025H         LINE#         445
  C:F025H         LINE#         447
  C:F028H         LINE#         448
  -------         ENDPROC       _INIT_UART4_HARD
  -------         PROC          _INIT_UART_SOFT
  D:0007H         SYMBOL        ch
  -------         DO            
  D:0006H         SYMBOL        i
BL51 BANKED LINKER/LOCATER V6.22                                                      03/05/2019  13:48:08  PAGE 98


  -------         ENDDO         
  C:C2D4H         LINE#         460
  C:C2D4H         LINE#         461
  C:C2D4H         LINE#         464
  C:C2DDH         LINE#         467
  C:C2F1H         LINE#         468
  C:C305H         LINE#         469
  C:C319H         LINE#         470
  C:C32DH         LINE#         471
  C:C341H         LINE#         472
  C:C356H         LINE#         473
  C:C358H         LINE#         474
  C:C358H         LINE#         475
  C:C376H         LINE#         476
  C:C37BH         LINE#         477
  -------         ENDPROC       _INIT_UART_SOFT
  -------         PROC          _HDL_UART_10MS_RUN
  D:0007H         SYMBOL        ch
  -------         DO            
  D:0006H         SYMBOL        rx_len
  -------         ENDDO         
  C:B004H         LINE#         486
  C:B004H         LINE#         487
  C:B004H         LINE#         490
  C:B00DH         LINE#         493
  C:B022H         LINE#         494
  C:B022H         LINE#         495
  C:B024H         LINE#         497
  C:B024H         LINE#         500
  C:B03BH         LINE#         501
  C:B03BH         LINE#         502
  C:B03DH         LINE#         504
  C:B03DH         LINE#         506
  C:B041H         LINE#         507
  C:B041H         LINE#         508
  C:B044H         LINE#         509
  C:B044H         LINE#         510
  C:B047H         LINE#         511
  C:B047H         LINE#         512
  C:B04BH         LINE#         513
  C:B04BH         LINE#         515
  C:B04CH         LINE#         516
  C:B04CH         LINE#         517
  C:B04FH         LINE#         519
  C:B04FH         LINE#         523
  C:B063H         LINE#         524
  C:B065H         LINE#         525
  C:B065H         LINE#         526
  C:B07AH         LINE#         528
  C:B07AH         LINE#         530
  C:B08FH         LINE#         532
  C:B0A8H         LINE#         533
  C:B0A8H         LINE#         534
  C:B0BAH         LINE#         535
  C:B0BCH         LINE#         537
  C:B0BCH         LINE#         538
  C:B0CDH         LINE#         539
BL51 BANKED LINKER/LOCATER V6.22                                                      03/05/2019  13:48:08  PAGE 99


  C:B0CDH         LINE#         540
  C:B0E1H         LINE#         543
  -------         ENDPROC       _HDL_UART_10MS_RUN
  -------         PROC          _TX_UART_FRIST
  X:0006H         SYMBOL        p_buf
  X:0009H         SYMBOL        len
  X:000AH         SYMBOL        badu
  X:000CH         SYMBOL        ch
  -------         DO            
  D:0007H         SYMBOL        i
  X:000DH         SYMBOL        bits_len
  -------         ENDDO         
  C:780DH         LINE#         556
  C:781BH         LINE#         557
  C:781BH         LINE#         562
  C:7821H         LINE#         564
  C:7827H         LINE#         565
  C:7827H         LINE#         566
  C:782DH         LINE#         567
  C:782DH         LINE#         569
  C:7839H         LINE#         571
  C:7845H         LINE#         572
  C:7845H         LINE#         573
  C:787DH         LINE#         574
  C:7880H         LINE#         575
  C:78A0H         LINE#         576
  C:78B7H         LINE#         577
  C:78CDH         LINE#         578
  C:78E4H         LINE#         580
  C:78EAH         LINE#         581
  C:78EAH         LINE#         582
  C:78ECH         LINE#         583
  C:7905H         LINE#         584
  C:7905H         LINE#         586
  C:791EH         LINE#         587
  C:7924H         LINE#         588
  C:7924H         LINE#         589
  C:793DH         LINE#         590
  C:793FH         LINE#         592
  C:793FH         LINE#         593
  C:7956H         LINE#         594
  C:7956H         LINE#         595
  C:7956H         LINE#         596
  C:7958H         LINE#         597
  C:7963H         LINE#         598
  C:7966H         LINE#         599
  C:7969H         LINE#         600
  C:7986H         LINE#         601
  C:7986H         LINE#         603
  C:798EH         LINE#         604
  C:798EH         LINE#         605
  C:7996H         LINE#         606
  C:79ACH         LINE#         607
  C:79AFH         LINE#         608
  C:79B4H         LINE#         609
  C:79BAH         LINE#         610
  C:79BFH         LINE#         611
BL51 BANKED LINKER/LOCATER V6.22                                                      03/05/2019  13:48:08  PAGE 100


  C:79BFH         LINE#         615
  -------         ENDPROC       _TX_UART_FRIST
  -------         PROC          _GET_UART_RX_BUFF
  X:0038H         SYMBOL        p_buf
  X:003BH         SYMBOL        ch
  -------         DO            
  D:0005H         SYMBOL        len
  -------         ENDDO         
  C:A7C3H         LINE#         626
  C:A7D1H         LINE#         627
  C:A7D1H         LINE#         630
  C:A7D9H         LINE#         633
  C:A805H         LINE#         636
  C:A823H         LINE#         637
  C:A823H         LINE#         638
  C:A826H         LINE#         639
  C:A826H         LINE#         642
  C:A840H         LINE#         643
  C:A857H         LINE#         645
  C:A85AH         LINE#         646
  C:A85AH         LINE#         648
  C:A85DH         LINE#         649
  C:A85DH         LINE#         651
  C:A865H         LINE#         652
  C:A865H         LINE#         655
  C:A866H         LINE#         656
  C:A866H         LINE#         658
  C:A880H         LINE#         659
  C:A896H         LINE#         660
  C:A8AAH         LINE#         662
  C:A8B0H         LINE#         663
  C:A8B0H         LINE#         664
  C:A8B2H         LINE#         665
  C:A8B2H         LINE#         667
  C:A8B4H         LINE#         668
  -------         ENDPROC       _GET_UART_RX_BUFF
  -------         PROC          UART4_TRANSMIT
  -------         DO            
  D:0007H         SYMBOL        i
  -------         ENDDO         
  C:E037H         LINE#         672
  C:E037H         LINE#         673
  C:E037H         LINE#         675
  C:E03FH         LINE#         676
  C:E03FH         LINE#         677
  C:E049H         LINE#         678
  C:E049H         LINE#         679
  C:E058H         LINE#         680
  C:E05EH         LINE#         681
  C:E05EH         LINE#         682
  C:E062H         LINE#         683
  C:E064H         LINE#         685
  C:E064H         LINE#         686
  C:E068H         LINE#         687
  C:E068H         LINE#         688
  C:E07EH         LINE#         689
  C:E07FH         LINE#         691
BL51 BANKED LINKER/LOCATER V6.22                                                      03/05/2019  13:48:08  PAGE 101


  C:E07FH         LINE#         692
  C:E085H         LINE#         693
  C:E085H         LINE#         694
  C:E085H         LINE#         695
  -------         ENDPROC       UART4_TRANSMIT
  -------         ENDMOD        DRV_UART

  -------         MODULE        LIB_MYMATH
  C:0000H         SYMBOL        _ICE_DUMMY_
  C:EA26H         PUBLIC        _Lib_get_csck_int16u_num
  C:E43BH         PUBLIC        _Lib_bcd_arry_add1
  D:0090H         PUBLIC        P1
  D:00B0H         PUBLIC        P3
  C:E992H         PUBLIC        _Lib_math_get_BCC_chk
  D:00A8H         PUBLIC        IE
  D:00B8H         PUBLIC        IP
  C:EC20H         PUBLIC        _Lib_BCDCHK
  C:E849H         PUBLIC        _Lib_ENOB_Get
  D:0098H         PUBLIC        SCON
  D:0088H         PUBLIC        TCON
  C:A8B5H         PUBLIC        _Lib_Check_RTC_data_FORM
  X:05C5H         PUBLIC        DayTab
  C:EDF8H         PUBLIC        _Lib_bcd_byte
  C:EDB5H         PUBLIC        _Lib_byte_bcd
  C:D257H         PUBLIC        _Lib_BCD_Asc
  C:D75BH         PUBLIC        _Lib_Asc_BCD
  C:E0D3H         PUBLIC        _Lib_bcd_inc
  D:00F0H         PUBLIC        B
  X:05DFH         PUBLIC        MonTab
  X:05ECH         PUBLIC        DefaultData
  D:00E0H         PUBLIC        ACC
  C:EBF9H         PUBLIC        _Lib_get_csck_int8u_num
  D:0080H         PUBLIC        SysCtrl
  C:EAECH         PUBLIC        _Lib_BtoA
  C:E73AH         PUBLIC        _Lib_AtoB
  D:00C8H         PUBLIC        T2CON
  C:B6B6H         PUBLIC        _Lib_bcd4_long
  C:BB48H         PUBLIC        _Lib_long_bcd4
  C:E16BH         PUBLIC        _Lib_GetGmSec
  C:EF2EH         PUBLIC        _Lib_check_bitnum
  C:CAD5H         PUBLIC        _Lib_GetGmDay
  C:E202H         PUBLIC        _Lib_GetGmHour
  C:EC6CH         PUBLIC        _Lib_bcd2_word
  C:D2CFH         PUBLIC        _Lib_word_bcd2
  C:E11FH         PUBLIC        _Lib_GetGmMin
  D:00D0H         PUBLIC        PSW
  C:D6EAH         PUBLIC        _Lib_BCD_AscA
  C:D679H         PUBLIC        _Lib_Asc_BCDA
  -------         PROC          _LIB_BYTE_BCD
  D:0007H         SYMBOL        xx
  C:EDB5H         LINE#         37
  C:EDB5H         LINE#         38
  C:EDB5H         LINE#         39
  C:EDBEH         LINE#         40
  C:EDD0H         LINE#         41
  -------         ENDPROC       _LIB_BYTE_BCD
  C:EDECH         SYMBOL        L?0101
BL51 BANKED LINKER/LOCATER V6.22                                                      03/05/2019  13:48:08  PAGE 102


  C:EDF4H         SYMBOL        L?0102
  -------         PROC          L?0100
  -------         ENDPROC       L?0100
  C:EDECH         SYMBOL        L?0101
  C:EDF4H         SYMBOL        L?0102
  -------         PROC          _LIB_BCD_BYTE
  D:0007H         SYMBOL        xx
  C:EDF8H         LINE#         46
  C:EDF8H         LINE#         47
  C:EDF8H         LINE#         48
  C:EE06H         LINE#         49
  -------         ENDPROC       _LIB_BCD_BYTE
  -------         PROC          _LIB_WORD_BCD2
  X:0104H         SYMBOL        ptr
  X:0107H         SYMBOL        xx
  C:D2CFH         LINE#         54
  C:D2E0H         LINE#         55
  C:D2E0H         LINE#         56
  C:D2E8H         LINE#         57
  C:D2E8H         LINE#         58
  C:D2FAH         LINE#         59
  C:D2FEH         LINE#         61
  C:D2FEH         LINE#         67
  C:D31FH         LINE#         68
  C:D345H         LINE#         71
  -------         ENDPROC       _LIB_WORD_BCD2
  -------         PROC          _LIB_BCD2_WORD
  D:0001H         SYMBOL        ptr
  C:EC6CH         LINE#         76
  C:EC6CH         LINE#         77
  C:EC6CH         LINE#         83
  C:EC90H         LINE#         86
  -------         ENDPROC       _LIB_BCD2_WORD
  -------         PROC          _LIB_LONG_BCD4
  X:00FDH         SYMBOL        ptr
  X:0100H         SYMBOL        xx
  C:BB48H         LINE#         91
  C:BB57H         LINE#         92
  C:BB57H         LINE#         93
  C:BB73H         LINE#         94
  C:BB73H         LINE#         95
  C:BB85H         LINE#         96
  C:BB8CH         LINE#         97
  C:BB93H         LINE#         98
  C:BB97H         LINE#         100
  C:BB97H         LINE#         106
  C:BBC1H         LINE#         107
  C:BBFEH         LINE#         111
  -------         ENDPROC       _LIB_LONG_BCD4
  -------         PROC          _LIB_BCD4_LONG
  X:00B3H         SYMBOL        ptr
  C:B6B6H         LINE#         116
  C:B6C1H         LINE#         117
  C:B6C1H         LINE#         121
  C:B77EH         LINE#         125
  -------         ENDPROC       _LIB_BCD4_LONG
  -------         PROC          _LIB_BCD_INC
BL51 BANKED LINKER/LOCATER V6.22                                                      03/05/2019  13:48:08  PAGE 103


  X:0770H         SYMBOL        ptr
  C:E0D3H         LINE#         132
  C:E0DEH         LINE#         133
  C:E0DEH         LINE#         135
  C:E0EEH         LINE#         136
  C:E0F9H         LINE#         137
  C:E0F9H         LINE#         138
  C:E0FFH         LINE#         139
  C:E10FH         LINE#         140
  C:E11EH         LINE#         141
  C:E11EH         LINE#         142
  -------         ENDPROC       _LIB_BCD_INC
  -------         PROC          _LIB_BCD_ARRY_ADD1
  X:0773H         SYMBOL        ptr
  D:0005H         SYMBOL        len
  -------         DO            
  D:0006H         SYMBOL        result
  -------         ENDDO         
  C:E43BH         LINE#         150
  C:E446H         LINE#         151
  C:E446H         LINE#         154
  C:E44CH         LINE#         155
  C:E44CH         LINE#         156
  C:E44EH         LINE#         157
  C:E45CH         LINE#         158
  C:E46CH         LINE#         159
  C:E46DH         LINE#         160
  C:E477H         LINE#         161
  C:E479H         LINE#         162
  C:E47BH         LINE#         163
  C:E47DH         LINE#         164
  -------         ENDPROC       _LIB_BCD_ARRY_ADD1
  -------         PROC          _LIB_GET_CSCK_INT16U_NUM
  D:0001H         SYMBOL        ptr
  D:0004H         SYMBOL        len
  X:01D8H         SYMBOL        key
  C:EA26H         LINE#         177
  C:EA26H         LINE#         178
  C:EA26H         LINE#         179
  C:EA2FH         LINE#         180
  C:EA2FH         LINE#         181
  C:EA40H         LINE#         182
  C:EA47H         LINE#         183
  C:EA4CH         LINE#         184
  C:EA4EH         LINE#         185
  C:EA56H         LINE#         186
  -------         ENDPROC       _LIB_GET_CSCK_INT16U_NUM
  -------         PROC          _LIB_GET_CSCK_INT8U_NUM
  D:0001H         SYMBOL        ptr
  D:0004H         SYMBOL        len
  X:0033H         SYMBOL        key
  C:EBF9H         LINE#         198
  C:EBF9H         LINE#         199
  C:EBF9H         LINE#         200
  C:EC02H         LINE#         201
  C:EC02H         LINE#         202
  C:EC0CH         LINE#         203
BL51 BANKED LINKER/LOCATER V6.22                                                      03/05/2019  13:48:08  PAGE 104


  C:EC13H         LINE#         204
  C:EC18H         LINE#         205
  C:EC1AH         LINE#         206
  C:EC1FH         LINE#         207
  -------         ENDPROC       _LIB_GET_CSCK_INT8U_NUM
  -------         PROC          _LIB_BCDCHK
  D:0001H         SYMBOL        ptr
  D:0005H         SYMBOL        len
  -------         DO            
  D:0007H         SYMBOL        i
  D:0006H         SYMBOL        Temp
  -------         ENDDO         
  C:EC20H         LINE#         217
  C:EC20H         LINE#         218
  C:EC20H         LINE#         222
  C:EC22H         LINE#         224
  C:EC22H         LINE#         225
  C:EC26H         LINE#         226
  C:EC37H         LINE#         227
  C:EC3EH         LINE#         228
  C:EC3FH         LINE#         229
  C:EC44H         LINE#         231
  C:EC46H         LINE#         232
  -------         ENDPROC       _LIB_BCDCHK
  -------         PROC          _LIB_GETGMDAY
  D:0001H         SYMBOL        Addr
  -------         DO            
  D:0006H         SYMBOL        Day
  X:018DH         SYMBOL        Mon
  X:018FH         SYMBOL        Year
  -------         ENDDO         
  C:CAD5H         LINE#         239
  C:CAD5H         LINE#         240
  C:CAD5H         LINE#         243
  C:CAE7H         LINE#         244
  C:CAF9H         LINE#         245
  C:CB52H         LINE#         246
  C:CB6BH         LINE#         247
  C:CB6BH         LINE#         248
  -------         ENDPROC       _LIB_GETGMDAY
  -------         PROC          _LIB_GETGMHOUR
  X:018AH         SYMBOL        Addr
  C:E202H         LINE#         255
  C:E20DH         LINE#         256
  C:E20DH         LINE#         258
  C:E24BH         LINE#         259
  -------         ENDPROC       _LIB_GETGMHOUR
  -------         PROC          _LIB_GETGMMIN
  X:0187H         SYMBOL        Addr
  C:E11FH         LINE#         266
  C:E12AH         LINE#         267
  C:E12AH         LINE#         269
  C:E16AH         LINE#         270
  -------         ENDPROC       _LIB_GETGMMIN
  -------         PROC          _LIB_GETGMSEC
  X:0184H         SYMBOL        Addr
  C:E16BH         LINE#         277
BL51 BANKED LINKER/LOCATER V6.22                                                      03/05/2019  13:48:08  PAGE 105


  C:E176H         LINE#         278
  C:E176H         LINE#         280
  C:E1B6H         LINE#         281
  -------         ENDPROC       _LIB_GETGMSEC
  -------         PROC          _LIB_CHECK_RTC_DATA_FORM
  D:0001H         SYMBOL        ClkData
  C:A8B5H         LINE#         295
  C:A8B5H         LINE#         296
  C:A8B5H         LINE#         298
  C:A8C0H         LINE#         301
  C:A8CFH         LINE#         302
  C:A8DAH         LINE#         305
  C:A8EFH         LINE#         306
  C:A900H         LINE#         308
  C:A946H         LINE#         309
  C:A949H         LINE#         310
  C:A954H         LINE#         313
  C:A963H         LINE#         314
  C:A96EH         LINE#         316
  C:A97DH         LINE#         317
  C:A988H         LINE#         319
  C:A997H         LINE#         320
  C:A9A2H         LINE#         322
  C:A9A4H         LINE#         323
  -------         ENDPROC       _LIB_CHECK_RTC_DATA_FORM
  -------         PROC          _LIB_ENOB_GET
  D:0001H         SYMBOL        s1
  D:0005H         SYMBOL        len
  X:0763H         SYMBOL        ENOB_len
  -------         DO            
  D:0007H         SYMBOL        i
  -------         ENDDO         
  C:E849H         LINE#         348
  C:E849H         LINE#         349
  C:E849H         LINE#         351
  C:E853H         LINE#         352
  C:E853H         LINE#         353
  C:E85EH         LINE#         354
  C:E862H         LINE#         355
  C:E862H         LINE#         356
  C:E86AH         LINE#         357
  C:E871H         LINE#         358
  C:E873H         LINE#         360
  C:E873H         LINE#         361
  C:E87BH         LINE#         362
  C:E87BH         LINE#         363
  C:E87EH         LINE#         364
  C:E880H         LINE#         365
  -------         ENDPROC       _LIB_ENOB_GET
  C:E729H         SYMBOL        L?0099
  -------         PROC          L?0098
  -------         ENDPROC       L?0098
  C:E729H         SYMBOL        L?0099
  -------         PROC          _LIB_ATOB
  D:0007H         SYMBOL        Asc
  -------         DO            
  D:0006H         SYMBOL        Tmp
BL51 BANKED LINKER/LOCATER V6.22                                                      03/05/2019  13:48:08  PAGE 106


  -------         ENDDO         
  C:E73AH         LINE#         371
  C:E73AH         LINE#         372
  C:E73AH         LINE#         373
  C:E73CH         LINE#         375
  C:E748H         LINE#         376
  C:E74EH         LINE#         377
  C:E75AH         LINE#         378
  C:E75EH         LINE#         379
  C:E760H         LINE#         380
  -------         ENDPROC       _LIB_ATOB
  -------         PROC          L?0103
  -------         ENDPROC       L?0103
  -------         PROC          _LIB_BTOA
  D:0007H         SYMBOL        BCD
  -------         DO            
  D:0006H         SYMBOL        Tmp
  -------         ENDDO         
  C:EAECH         LINE#         385
  C:EAECH         LINE#         386
  C:EAECH         LINE#         387
  C:EAEEH         LINE#         389
  C:EAF4H         LINE#         390
  C:EAFAH         LINE#         391
  C:EB00H         LINE#         392
  C:EB04H         LINE#         393
  C:EB06H         LINE#         394
  -------         ENDPROC       _LIB_BTOA
  -------         PROC          _LIB_ASC_BCD
  X:0717H         SYMBOL        BCD
  X:071AH         SYMBOL        Asc
  X:071DH         SYMBOL        Lenth
  -------         DO            
  D:0005H         SYMBOL        i
  X:071EH         SYMBOL        Ptr
  -------         ENDDO         
  C:D75BH         LINE#         400
  C:D766H         LINE#         401
  C:D766H         LINE#         405
  C:D773H         LINE#         406
  C:D773H         LINE#         407
  C:D79BH         LINE#         408
  C:D7B2H         LINE#         409
  C:D7C4H         LINE#         410
  C:D7C8H         LINE#         411
  -------         ENDPROC       _LIB_ASC_BCD
  -------         PROC          _LIB_ASC_BCDA
  X:00E8H         SYMBOL        BCD
  X:00EBH         SYMBOL        Asc
  X:00EEH         SYMBOL        Lenth
  -------         DO            
  D:0005H         SYMBOL        i
  X:00EFH         SYMBOL        Ptr
  -------         ENDDO         
  C:D679H         LINE#         416
  C:D684H         LINE#         417
  C:D684H         LINE#         421
BL51 BANKED LINKER/LOCATER V6.22                                                      03/05/2019  13:48:08  PAGE 107


  C:D68BH         LINE#         422
  C:D697H         LINE#         423
  C:D697H         LINE#         424
  C:D6B7H         LINE#         425
  C:D6D1H         LINE#         426
  C:D6E6H         LINE#         427
  C:D6E9H         LINE#         428
  -------         ENDPROC       _LIB_ASC_BCDA
  -------         PROC          _LIB_BCD_ASC
  X:0721H         SYMBOL        Asc
  X:0724H         SYMBOL        BCD
  X:0727H         SYMBOL        Lenth
  -------         DO            
  D:0005H         SYMBOL        i
  X:0728H         SYMBOL        Ptr
  -------         ENDDO         
  C:D257H         LINE#         433
  C:D262H         LINE#         434
  C:D262H         LINE#         438
  C:D26DH         LINE#         439
  C:D26DH         LINE#         440
  C:D28CH         LINE#         441
  C:D2A3H         LINE#         442
  C:D2CBH         LINE#         443
  C:D2CEH         LINE#         444
  -------         ENDPROC       _LIB_BCD_ASC
  -------         PROC          _LIB_BCD_ASCA
  X:01CBH         SYMBOL        Asc
  X:01CEH         SYMBOL        BCD
  X:01D1H         SYMBOL        Lenth
  -------         DO            
  D:0005H         SYMBOL        i
  X:01D2H         SYMBOL        Ptr
  -------         ENDDO         
  C:D6EAH         LINE#         449
  C:D6F5H         LINE#         450
  C:D6F5H         LINE#         454
  C:D701H         LINE#         455
  C:D701H         LINE#         456
  C:D718H         LINE#         457
  C:D72FH         LINE#         458
  C:D757H         LINE#         459
  C:D75AH         LINE#         460
  -------         ENDPROC       _LIB_BCD_ASCA
  -------         PROC          _LIB_MATH_GET_BCC_CHK
  X:0764H         SYMBOL        yourBuf
  D:0005H         SYMBOL        StartID
  X:0768H         SYMBOL        EndID
  -------         DO            
  D:0006H         SYMBOL        i
  D:0007H         SYMBOL        tmp
  -------         ENDDO         
  C:E992H         LINE#         472
  C:E99DH         LINE#         473
  C:E99DH         LINE#         477
  C:E99FH         LINE#         478
  C:E9ABH         LINE#         479
BL51 BANKED LINKER/LOCATER V6.22                                                      03/05/2019  13:48:08  PAGE 108


  C:E9ABH         LINE#         480
  C:E9C0H         LINE#         481
  C:E9C3H         LINE#         482
  C:E9C3H         LINE#         483
  -------         ENDPROC       _LIB_MATH_GET_BCC_CHK
  -------         PROC          _LIB_CHECK_BITNUM
  D:0007H         SYMBOL        value
  -------         DO            
  D:0005H         SYMBOL        i
  D:0007H         SYMBOL        temp_data
  D:0006H         SYMBOL        re_value
  -------         ENDDO         
  C:EF2EH         LINE#         490
  C:EF2EH         LINE#         491
  C:EF2EH         LINE#         493
  C:EF2EH         LINE#         494
  C:EF30H         LINE#         495
  C:EF31H         LINE#         496
  C:EF31H         LINE#         497
  C:EF35H         LINE#         498
  C:EF35H         LINE#         499
  C:EF36H         LINE#         500
  C:EF36H         LINE#         501
  C:EF3AH         LINE#         502
  C:EF3FH         LINE#         503
  C:EF42H         LINE#         504
  C:EF43H         LINE#         505
  -------         ENDPROC       _LIB_CHECK_BITNUM
  -------         ENDMOD        LIB_MYMATH

  -------         MODULE        LIB_MYSPRING
  C:0000H         SYMBOL        _ICE_DUMMY_
  D:0090H         PUBLIC        P1
  C:EB07H         PUBLIC        _Lib_Set_String
  D:00B0H         PUBLIC        P3
  D:00A8H         PUBLIC        IE
  C:ED7BH         PUBLIC        _Lib_Clr_String_U16
  D:00B8H         PUBLIC        IP
  C:C025H         PUBLIC        _Lib_Rev_Copy_Arry
  C:D4A8H         PUBLIC        _Lib_get_data_0xFF_asclen
  D:0098H         PUBLIC        SCON
  D:0088H         PUBLIC        TCON
  D:00F0H         PUBLIC        B
  D:00E0H         PUBLIC        ACC
  C:D165H         PUBLIC        _Lib_Cmp_TwoArry
  D:0080H         PUBLIC        SysCtrl
  C:D1DEH         PUBLIC        _Lib_MVHalfByte_L
  C:E79CH         PUBLIC        _Lib_FCpyTMem
  C:DDD3H         PUBLIC        _Lib_MVHalfByte_R
  D:00C8H         PUBLIC        T2CON
  C:DD76H         PUBLIC        _Lib_Copy_Str_TwoArry
  C:EE07H         PUBLIC        _Lib_Clr_String
  D:00D0H         PUBLIC        PSW
  -------         PROC          _LIB_CMP_TWOARRY
  X:022DH         SYMBOL        s1
  X:0230H         SYMBOL        s2
  X:0233H         SYMBOL        len
BL51 BANKED LINKER/LOCATER V6.22                                                      03/05/2019  13:48:08  PAGE 109


  -------         DO            
  D:0007H         SYMBOL        i
  -------         ENDDO         
  C:D165H         LINE#         33
  C:D170H         LINE#         34
  C:D170H         LINE#         37
  C:D182H         LINE#         38
  C:D18BH         LINE#         39
  C:D197H         LINE#         40
  C:D197H         LINE#         41
  C:D1BCH         LINE#         42
  C:D1C4H         LINE#         43
  C:D1CEH         LINE#         44
  C:D1D8H         LINE#         45
  C:D1DBH         LINE#         46
  C:D1DDH         LINE#         47
  -------         ENDPROC       _LIB_CMP_TWOARRY
  -------         PROC          _LIB_REV_COPY_ARRY
  X:002EH         SYMBOL        s1
  X:0031H         SYMBOL        len
  -------         DO            
  X:0032H         SYMBOL        tmpData
  X:0033H         SYMBOL        i
  -------         ENDDO         
  C:C025H         LINE#         60
  C:C033H         LINE#         61
  C:C033H         LINE#         63
  C:C03AH         LINE#         65
  C:C04FH         LINE#         66
  C:C04FH         LINE#         67
  C:C06BH         LINE#         68
  C:C0A0H         LINE#         69
  C:C0C8H         LINE#         70
  C:C0D1H         LINE#         71
  -------         ENDPROC       _LIB_REV_COPY_ARRY
  -------         PROC          _LIB_COPY_STR_TWOARRY
  X:01DEH         SYMBOL        s1
  X:01E1H         SYMBOL        s2
  X:01E4H         SYMBOL        len
  C:DD76H         LINE#         84
  C:DD81H         LINE#         85
  C:DD81H         LINE#         86
  C:DD90H         LINE#         87
  C:DD90H         LINE#         88
  C:DDAEH         LINE#         89
  C:DDB8H         LINE#         90
  C:DDC2H         LINE#         91
  C:DDD0H         LINE#         92
  C:DDD2H         LINE#         93
  -------         ENDPROC       _LIB_COPY_STR_TWOARRY
  -------         PROC          _LIB_SET_STRING
  D:0001H         SYMBOL        s1
  D:0005H         SYMBOL        tmp
  X:017DH         SYMBOL        len
  C:EB07H         LINE#         106
  C:EB07H         LINE#         107
  C:EB07H         LINE#         108
BL51 BANKED LINKER/LOCATER V6.22                                                      03/05/2019  13:48:08  PAGE 110


  C:EB16H         LINE#         109
  C:EB16H         LINE#         110
  C:EB1AH         LINE#         111
  C:EB21H         LINE#         112
  C:EB2FH         LINE#         113
  C:EB31H         LINE#         114
  -------         ENDPROC       _LIB_SET_STRING
  -------         PROC          _LIB_CLR_STRING_U16
  D:0001H         SYMBOL        s1
  D:0004H         SYMBOL        len
  C:ED7BH         LINE#         126
  C:ED7BH         LINE#         127
  C:ED7BH         LINE#         128
  C:ED84H         LINE#         129
  C:ED84H         LINE#         130
  C:ED8AH         LINE#         131
  C:ED91H         LINE#         132
  C:ED96H         LINE#         133
  C:ED98H         LINE#         135
  -------         ENDPROC       _LIB_CLR_STRING_U16
  -------         PROC          _LIB_CLR_STRING
  D:0001H         SYMBOL        s1
  D:0004H         SYMBOL        len
  C:EE07H         LINE#         146
  C:EE07H         LINE#         147
  C:EE07H         LINE#         148
  C:EE10H         LINE#         149
  C:EE10H         LINE#         150
  C:EE14H         LINE#         151
  C:EE1AH         LINE#         152
  C:EE1FH         LINE#         153
  C:EE21H         LINE#         155
  -------         ENDPROC       _LIB_CLR_STRING
  -------         PROC          _LIB_GET_DATA_0XFF_ASCLEN
  X:074DH         SYMBOL        Addr
  X:0750H         SYMBOL        numbyte
  -------         DO            
  D:0006H         SYMBOL        i
  X:0752H         SYMBOL        asclen
  -------         ENDDO         
  C:D4A8H         LINE#         163
  C:D4B9H         LINE#         164
  C:D4B9H         LINE#         166
  C:D4BEH         LINE#         167
  C:D4CDH         LINE#         168
  C:D4CDH         LINE#         169
  C:D4E7H         LINE#         170
  C:D4E7H         LINE#         171
  C:D4E9H         LINE#         172
  C:D4E9H         LINE#         173
  C:D4F7H         LINE#         174
  C:D4FEH         LINE#         175
  C:D4FEH         LINE#         176
  C:D500H         LINE#         177
  C:D500H         LINE#         178
  C:D50EH         LINE#         179
  C:D515H         LINE#         180
BL51 BANKED LINKER/LOCATER V6.22                                                      03/05/2019  13:48:08  PAGE 111


  C:D51DH         LINE#         181
  -------         ENDPROC       _LIB_GET_DATA_0XFF_ASCLEN
  -------         PROC          _LIB_MVHALFBYTE_R
  X:0776H         SYMBOL        addr
  D:0005H         SYMBOL        numbyte
  -------         DO            
  D:0007H         SYMBOL        i
  -------         ENDDO         
  C:DDD3H         LINE#         190
  C:DDDEH         LINE#         191
  C:DDDEH         LINE#         195
  C:DDE7H         LINE#         196
  C:DDE7H         LINE#         197
  C:DE19H         LINE#         198
  C:DE1CH         LINE#         199
  -------         ENDPROC       _LIB_MVHALFBYTE_R
  -------         PROC          _LIB_MVHALFBYTE_L
  X:0779H         SYMBOL        addr
  D:0004H         SYMBOL        numbyte
  -------         DO            
  D:0005H         SYMBOL        i
  -------         ENDDO         
  C:D1DEH         LINE#         209
  C:D1EBH         LINE#         210
  C:D1EBH         LINE#         214
  C:D1F5H         LINE#         215
  C:D1F5H         LINE#         216
  C:D226H         LINE#         217
  C:D229H         LINE#         218
  -------         ENDPROC       _LIB_MVHALFBYTE_L
  -------         PROC          _LIB_FCPYTMEM
  X:002EH         SYMBOL        des
  X:0030H         SYMBOL        src
  D:0003H         SYMBOL        len
  C:E79CH         LINE#         225
  C:E7AAH         LINE#         226
  C:E7AAH         LINE#         227
  C:E7B0H         LINE#         228
  C:E7B0H         LINE#         229
  C:E7D3H         LINE#         230
  C:E7D5H         LINE#         231
  -------         ENDPROC       _LIB_FCPYTMEM
  -------         ENDMOD        LIB_MYSPRING

  -------         MODULE        LIB_MYTIMER
  C:0000H         SYMBOL        _ICE_DUMMY_
  D:00CEH         PUBLIC        wdt0
  D:0090H         PUBLIC        P1
  D:00CFH         PUBLIC        wdt1
  D:00B0H         PUBLIC        P3
  C:ECB6H         PUBLIC        _Lib_Delay_sec
  D:00A8H         PUBLIC        IE
  D:00B8H         PUBLIC        IP
  C:EE8AH         PUBLIC        _Lib_Delay_ms
  D:0098H         PUBLIC        SCON
  D:0088H         PUBLIC        TCON
  D:00F0H         PUBLIC        B
BL51 BANKED LINKER/LOCATER V6.22                                                      03/05/2019  13:48:08  PAGE 112


  D:00E0H         PUBLIC        ACC
  D:0080H         PUBLIC        SysCtrl
  C:EFE8H         PUBLIC        _Lib_Delay_2us
  D:00C8H         PUBLIC        T2CON
  C:EB32H         PUBLIC        _Lib_SystemDelay
  C:EFFDH         PUBLIC        _Lib_Delay_Nop
  D:00D0H         PUBLIC        PSW
  -------         PROC          _LIB_DELAY_NOP
  D:0007H         SYMBOL        cnt
  C:EFFDH         LINE#         29
  C:EFFDH         LINE#         30
  C:EFFDH         LINE#         31
  C:F003H         LINE#         32
  C:F003H         LINE#         33
  C:F004H         LINE#         34
  C:F006H         LINE#         35
  -------         ENDPROC       _LIB_DELAY_NOP
  -------         PROC          _LIB_DELAY_2US
  D:0007H         SYMBOL        cnt
  C:EFE8H         LINE#         45
  C:EFE8H         LINE#         46
  C:EFE8H         LINE#         49
  C:EFEEH         LINE#         50
  C:EFEEH         LINE#         51
  C:EFEFH         LINE#         52
  C:EFF0H         LINE#         53
  C:EFF2H         LINE#         54
  -------         ENDPROC       _LIB_DELAY_2US
  -------         PROC          _LIB_DELAY_MS
  D:0006H         SYMBOL        cnt
  -------         DO            
  D:0006H         SYMBOL        i
  D:0005H         SYMBOL        j
  -------         ENDDO         
  C:EE8AH         LINE#         87
  C:EE8AH         LINE#         88
  C:EE8AH         LINE#         92
  C:EE93H         LINE#         93
  C:EE93H         LINE#         94
  C:EE95H         LINE#         95
  C:EE95H         LINE#         96
  C:EE96H         LINE#         97
  C:EE9BH         LINE#         98
  C:EEA2H         LINE#         99
  -------         ENDPROC       _LIB_DELAY_MS
  -------         PROC          _LIB_DELAY_SEC
  D:0004H         SYMBOL        cnt
  -------         DO            
  D:0003H         SYMBOL        i
  -------         ENDDO         
  C:ECB6H         LINE#         109
  C:ECB8H         LINE#         110
  C:ECB8H         LINE#         112
  C:ECBFH         LINE#         113
  C:ECBFH         LINE#         114
  C:ECCDH         LINE#         115
  C:ECD4H         LINE#         116
BL51 BANKED LINKER/LOCATER V6.22                                                      03/05/2019  13:48:08  PAGE 113


  C:ECD7H         LINE#         117
  -------         ENDPROC       _LIB_DELAY_SEC
  -------         PROC          _LIB_SYSTEMDELAY
  D:0006H         SYMBOL        t
  -------         DO            
  D:0004H         SYMBOL        i
  -------         ENDDO         
  C:EB32H         LINE#         129
  C:EB32H         LINE#         130
  C:EB32H         LINE#         132
  C:EB3CH         LINE#         133
  C:EB3CH         LINE#         134
  C:EB4AH         LINE#         136
  C:EB58H         LINE#         137
  C:EB5AH         LINE#         138
  -------         ENDPROC       _LIB_SYSTEMDELAY
  -------         ENDMOD        LIB_MYTIMER

  -------         MODULE        API_ADJERR
  C:0000H         SYMBOL        _ICE_DUMMY_
  D:0090H         PUBLIC        P1
  D:00B0H         PUBLIC        P3
  D:00A8H         PUBLIC        IE
  D:00B8H         PUBLIC        IP
  X:0782H         PUBLIC        u8_channel_fg
  D:0098H         PUBLIC        SCON
  D:0088H         PUBLIC        TCON
  D:00F0H         PUBLIC        B
  D:00E0H         PUBLIC        ACC
  D:0080H         PUBLIC        SysCtrl
  D:00C8H         PUBLIC        T2CON
  D:00D0H         PUBLIC        PSW
  -------         ENDMOD        API_ADJERR

  -------         MODULE        API_BILL_RECORD
  C:0000H         SYMBOL        _ICE_DUMMY_
  D:00CEH         PUBLIC        wdt0
  D:0090H         PUBLIC        P1
  D:00CFH         PUBLIC        wdt1
  D:00B0H         PUBLIC        P3
  C:81E8H         PUBLIC        api_handl_settle_when_powerUp
  X:03C9H         PUBLIC        energy_data_array
  D:00A8H         PUBLIC        IE
  D:00B8H         PUBLIC        IP
  X:03E7H         PUBLIC        csck
  X:03E8H         PUBLIC        st_mmd_unit_array
  C:F017H         PUBLIC        bill_info
  D:0098H         PUBLIC        SCON
  D:0088H         PUBLIC        TCON
  C:C90AH         PUBLIC        api_handl_settle_per_minute
  C:EC91H         PUBLIC        _Judage_Month
  D:00F0H         PUBLIC        B
  C:72ABH         PUBLIC        _api_get_bill_record_addr
  C:ECFAH         PUBLIC        _Judage_Year
  D:00E0H         PUBLIC        ACC
  C:8055H         PUBLIC        _api_write_bill_data
  D:0080H         PUBLIC        SysCtrl
BL51 BANKED LINKER/LOCATER V6.22                                                      03/05/2019  13:48:08  PAGE 114


  C:C4BCH         PUBLIC        api_freeze_energy_pre_day
  C:6EF2H         PUBLIC        api_freeze_energy_Ram_pre_day
  X:0415H         PUBLIC        d_flag
  C:9FC4H         PUBLIC        api_clr_bill_data
  X:0416H         PUBLIC        Excsck
  X:0417H         PUBLIC        sum_st_mmd_unit_array
  D:00C8H         PUBLIC        T2CON
  D:00D0H         PUBLIC        PSW
  -------         PROC          _JUDAGE_YEAR
  D:0007H         SYMBOL        year
  C:ECFAH         LINE#         39
  C:ECFAH         LINE#         40
  C:ECFAH         LINE#         41
  C:ED15H         LINE#         42
  C:ED15H         LINE#         43
  C:ED18H         LINE#         44
  C:ED18H         LINE#         46
  C:ED18H         LINE#         47
  C:ED1AH         LINE#         48
  C:ED1AH         LINE#         49
  -------         ENDPROC       _JUDAGE_YEAR
  -------         PROC          _JUDAGE_MONTH
  D:0007H         SYMBOL        month
  D:0005H         SYMBOL        year
  C:EC91H         LINE#         51
  C:EC91H         LINE#         52
  C:EC91H         LINE#         53
  C:EC95H         LINE#         54
  C:EC9CH         LINE#         55
  C:ECA2H         LINE#         56
  C:ECA2H         LINE#         57
  C:ECA6H         LINE#         58
  C:ECA6H         LINE#         59
  C:ECA9H         LINE#         60
  C:ECA9H         LINE#         62
  C:ECA9H         LINE#         63
  C:ECACH         LINE#         64
  C:ECACH         LINE#         65
  C:ECACH         LINE#         67
  C:ECACH         LINE#         68
  C:ECB0H         LINE#         69
  C:ECB0H         LINE#         70
  C:ECB3H         LINE#         71
  C:ECB3H         LINE#         73
  C:ECB3H         LINE#         74
  C:ECB5H         LINE#         75
  C:ECB5H         LINE#         76
  C:ECB5H         LINE#         77
  -------         ENDPROC       _JUDAGE_MONTH
  -------         PROC          _API_GET_BILL_RECORD_ADDR
  X:00E8H         SYMBOL        addr
  -------         DO            
  X:00EAH         SYMBOL        i
  X:00EBH         SYMBOL        ptr
  D:0007H         SYMBOL        temp
  D:0003H         SYMBOL        num
  X:00ECH         SYMBOL        hist_addr
BL51 BANKED LINKER/LOCATER V6.22                                                      03/05/2019  13:48:08  PAGE 115


  D:0006H         SYMBOL        len
  -------         ENDDO         
  C:72ABH         LINE#         92
  C:72B3H         LINE#         93
  C:72B3H         LINE#         97
  C:72C3H         LINE#         98
  C:72C3H         LINE#         99
  C:72E0H         LINE#         100
  C:730BH         LINE#         101
  C:7339H         LINE#         102
  C:7342H         LINE#         104
  C:7380H         LINE#         105
  C:739CH         LINE#         106
  C:739CH         LINE#         107
  C:739EH         LINE#         108
  C:739EH         LINE#         110
  C:73CAH         LINE#         111
  C:73EAH         LINE#         112
  C:740BH         LINE#         113
  C:7414H         LINE#         114
  C:7414H         LINE#         115
  C:7430H         LINE#         116
  C:7432H         LINE#         118
  C:7432H         LINE#         119
  C:7439H         LINE#         120
  C:7439H         LINE#         121
  C:7482H         LINE#         123
  C:7482H         LINE#         124
  -------         ENDPROC       _API_GET_BILL_RECORD_ADDR
  -------         PROC          _API_WRITE_BILL_DATA
  X:0014H         SYMBOL        id
  -------         DO            
  X:0015H         SYMBOL        adr_tmp
  X:0017H         SYMBOL        ptr_tmp
  X:0018H         SYMBOL        buff_int8u
  -------         ENDDO         
  C:8055H         LINE#         140
  C:805AH         LINE#         141
  C:805AH         LINE#         147
  C:8067H         LINE#         150
  C:8093H         LINE#         151
  C:8099H         LINE#         152
  C:80B9H         LINE#         153
  C:80F9H         LINE#         154
  C:8122H         LINE#         157
  C:812BH         LINE#         158
  C:812BH         LINE#         159
  C:812BH         LINE#         160
  C:8133H         LINE#         161
  C:813BH         LINE#         162
  C:8143H         LINE#         163
  C:814BH         LINE#         164
  C:8153H         LINE#         165
  C:815BH         LINE#         166
  C:8175H         LINE#         167
  C:8193H         LINE#         168
  C:81ADH         LINE#         169
BL51 BANKED LINKER/LOCATER V6.22                                                      03/05/2019  13:48:08  PAGE 116


  C:81E4H         LINE#         172
  C:81E4H         LINE#         174
  C:81E4H         LINE#         175
  C:81E7H         LINE#         176
  C:81E7H         LINE#         177
  C:81E7H         LINE#         180
  -------         ENDPROC       _API_WRITE_BILL_DATA
  -------         PROC          API_HANDL_SETTLE_PER_MINUTE
  -------         DO            
  X:0001H         SYMBOL        param_settel
  X:0003H         SYMBOL        u16_hour_A
  X:0005H         SYMBOL        u16_hour_B
  -------         ENDDO         
  C:C90AH         LINE#         195
  C:C90AH         LINE#         196
  C:C90AH         LINE#         200
  C:C913H         LINE#         202
  C:C92BH         LINE#         203
  C:C958H         LINE#         204
  C:C985H         LINE#         206
  C:C99CH         LINE#         207
  C:C99CH         LINE#         208
  C:C9A0H         LINE#         209
  C:C9A3H         LINE#         210
  C:C9A3H         LINE#         211
  -------         ENDPROC       API_HANDL_SETTLE_PER_MINUTE
  -------         PROC          API_FREEZE_ENERGY_PRE_DAY
  -------         DO            
  X:0003H         SYMBOL        Bill_Data
  -------         ENDDO         
  C:C4BCH         LINE#         225
  C:C4BCH         LINE#         226
  C:C4BCH         LINE#         228
  C:C4C7H         LINE#         229
  C:C4C8H         LINE#         230
  C:C4E1H         LINE#         231
  C:C4FBH         LINE#         232
  C:C514H         LINE#         235
  C:C51AH         LINE#         236
  C:C51AH         LINE#         238
  C:C520H         LINE#         239
  C:C520H         LINE#         240
  C:C526H         LINE#         241
  C:C526H         LINE#         242
  C:C53DH         LINE#         243
  C:C544H         LINE#         244
  C:C544H         LINE#         246
  C:C552H         LINE#         247
  C:C557H         LINE#         248
  C:C55AH         LINE#         250
  C:C55AH         LINE#         251
  C:C55AH         LINE#         252
  C:C55AH         LINE#         253
  C:C55AH         LINE#         255
  C:C55AH         LINE#         258
  -------         ENDPROC       API_FREEZE_ENERGY_PRE_DAY
  -------         PROC          API_FREEZE_ENERGY_RAM_PRE_DAY
BL51 BANKED LINKER/LOCATER V6.22                                                      03/05/2019  13:48:08  PAGE 117


  -------         DO            
  X:0007H         SYMBOL        i
  -------         ENDDO         
  C:6EF2H         LINE#         260
  C:6EF2H         LINE#         261
  C:6EF2H         LINE#         265
  C:6EFBH         LINE#         266
  C:6EFBH         LINE#         268
  C:6F04H         LINE#         269
  C:6F04H         LINE#         270
  C:6F0DH         LINE#         271
  C:6F0DH         LINE#         273
  C:6F12H         LINE#         274
  C:6F2BH         LINE#         275
  C:6F3DH         LINE#         276
  C:6F3DH         LINE#         277
  C:6F84H         LINE#         278
  C:6F8CH         LINE#         281
  C:6F94H         LINE#         282
  C:6F9CH         LINE#         283
  C:6FA4H         LINE#         284
  C:6FACH         LINE#         285
  C:6FB4H         LINE#         286
  C:6FC6H         LINE#         287
  C:6FC6H         LINE#         288
  C:700DH         LINE#         289
  C:7015H         LINE#         292
  C:7027H         LINE#         293
  C:7027H         LINE#         294
  C:706EH         LINE#         295
  C:7076H         LINE#         312
  C:707BH         LINE#         313
  C:7098H         LINE#         314
  C:70B5H         LINE#         315
  C:70D2H         LINE#         317
  C:70D2H         LINE#         318
  C:70D2H         LINE#         319
  C:70D2H         LINE#         320
  -------         ENDPROC       API_FREEZE_ENERGY_RAM_PRE_DAY
  -------         PROC          API_HANDL_SETTLE_WHEN_POWERUP
  -------         DO            
  X:06ABH         SYMBOL        last_rec_dateTime
  X:06B1H         SYMBOL        param_settel
  X:06B3H         SYMBOL        u16_month_A
  X:06B5H         SYMBOL        u16_month_B
  X:06B7H         SYMBOL        u16_hour_A
  X:06B9H         SYMBOL        u16_hour_B
  X:06BBH         SYMBOL        months_no_settled
  X:06BDH         SYMBOL        i
  X:06BEH         SYMBOL        j
  -------         ENDDO         
  C:81E8H         LINE#         337
  C:81E8H         LINE#         338
  C:81E8H         LINE#         352
  C:8202H         LINE#         353
  C:822FH         LINE#         354
  C:825CH         LINE#         355
BL51 BANKED LINKER/LOCATER V6.22                                                      03/05/2019  13:48:08  PAGE 118


  C:8274H         LINE#         356
  C:82A1H         LINE#         357
  C:82CEH         LINE#         365
  C:82E3H         LINE#         366
  C:82E3H         LINE#         367
  C:82EBH         LINE#         368
  C:82EDH         LINE#         370
  C:82EDH         LINE#         371
  C:8308H         LINE#         372
  C:8308H         LINE#         373
  C:830DH         LINE#         374
  C:8311H         LINE#         375
  C:8311H         LINE#         376
  C:831AH         LINE#         377
  C:8325H         LINE#         378
  C:832BH         LINE#         379
  C:832BH         LINE#         380
  C:8340H         LINE#         381
  C:8340H         LINE#         382
  C:8340H         LINE#         383
  C:8340H         LINE#         384
  C:8340H         LINE#         385
  C:8340H         LINE#         386
  C:8342H         LINE#         388
  C:8342H         LINE#         389
  C:8342H         LINE#         390
  C:8342H         LINE#         391
  C:8342H         LINE#         393
  C:8342H         LINE#         394
  C:8347H         LINE#         395
  C:8355H         LINE#         396
  C:835BH         LINE#         397
  C:8369H         LINE#         398
  C:8369H         LINE#         399
  C:8375H         LINE#         400
  -------         ENDPROC       API_HANDL_SETTLE_WHEN_POWERUP
  -------         PROC          API_CLR_BILL_DATA
  -------         DO            
  X:0002H         SYMBOL        tmp_bill_var
  X:000BH         SYMBOL        tmp_bill_unit
  -------         ENDDO         
  C:9FC4H         LINE#         416
  C:9FC4H         LINE#         417
  C:9FC4H         LINE#         418
  C:9FC4H         LINE#         420
  C:9FD2H         LINE#         421
  C:9FDFH         LINE#         422
  C:9FECH         LINE#         424
  C:A006H         LINE#         425
  C:A014H         LINE#         427
  C:A025H         LINE#         428
  C:A033H         LINE#         429
  C:A045H         LINE#         430
  C:A053H         LINE#         431
  C:A065H         LINE#         432
  C:A073H         LINE#         433
  C:A085H         LINE#         434
BL51 BANKED LINKER/LOCATER V6.22                                                      03/05/2019  13:48:08  PAGE 119


  C:A093H         LINE#         435
  C:A0A5H         LINE#         436
  C:A0B3H         LINE#         437
  C:A0C5H         LINE#         438
  C:A0D3H         LINE#         454
  -------         ENDPROC       API_CLR_BILL_DATA
  -------         ENDMOD        API_BILL_RECORD

  -------         MODULE        API_DEMAND
  C:0000H         SYMBOL        _ICE_DUMMY_
  D:00CEH         PUBLIC        wdt0
  D:0090H         PUBLIC        P1
  X:033AH         PUBLIC        gs_md_param
  D:00CFH         PUBLIC        wdt1
  D:00B0H         PUBLIC        P3
  D:00A8H         PUBLIC        IE
  D:00B8H         PUBLIC        IP
  C:7658H         PUBLIC        _api_cmp_save_md_data
  C:E1B7H         PUBLIC        lnk_updata_md_var_power_per_second
  C:E7D6H         PUBLIC        api_init_md_data_ram
  C:6462H         PUBLIC        api_updata_md_var_slid_per_minute
  C:D51EH         PUBLIC        api_updata_md_var_min_per_second
  C:D592H         PUBLIC        api_clr_freeze_energy
  D:0098H         PUBLIC        SCON
  D:0088H         PUBLIC        TCON
  C:B297H         PUBLIC        api_clr_current_MD_data
  X:033CH         PUBLIC        gs_md_var
  D:00F0H         PUBLIC        B
  D:00E0H         PUBLIC        ACC
  C:E887H         PUBLIC        _api_check_Demand_para
  D:0080H         PUBLIC        SysCtrl
  D:00C8H         PUBLIC        T2CON
  D:00D0H         PUBLIC        PSW
  -------         PROC          L?0040
  -------         ENDPROC       L?0040
  -------         PROC          _API_CHECK_DEMAND_PARA
  D:0001H         SYMBOL        s_para
  -------         DO            
  D:0007H         SYMBOL        flg
  D:0006H         SYMBOL        u8_period
  D:0005H         SYMBOL        u8_slid
  -------         ENDDO         
  C:E887H         LINE#         37
  C:E887H         LINE#         38
  C:E887H         LINE#         39
  C:E889H         LINE#         42
  C:E88DH         LINE#         43
  C:E894H         LINE#         45
  C:E8A0H         LINE#         46
  C:E8A0H         LINE#         47
  C:E8ABH         LINE#         48
  C:E8ABH         LINE#         49
  C:E8AFH         LINE#         50
  C:E8AFH         LINE#         51
  C:E8B7H         LINE#         52
  C:E8B7H         LINE#         53
  C:E8B8H         LINE#         54
BL51 BANKED LINKER/LOCATER V6.22                                                      03/05/2019  13:48:08  PAGE 120


  C:E8B8H         LINE#         55
  C:E8B8H         LINE#         56
  C:E8B8H         LINE#         57
  C:E8B8H         LINE#         59
  C:E8B8H         LINE#         61
  -------         ENDPROC       _API_CHECK_DEMAND_PARA
  -------         PROC          API_INIT_MD_DATA_RAM
  C:E7D6H         LINE#         76
  C:E7D6H         LINE#         77
  C:E7D6H         LINE#         80
  C:E7EEH         LINE#         82
  C:E7F4H         LINE#         83
  C:E7F4H         LINE#         85
  C:E7FAH         LINE#         86
  C:E7FCH         LINE#         87
  C:E7FCH         LINE#         90
  -------         ENDPROC       API_INIT_MD_DATA_RAM
  -------         PROC          _API_CMP_SAVE_MD_DATA
  X:0007H         SYMBOL        ch
  X:0008H         SYMBOL        val_hex32
  -------         DO            
  X:000CH         SYMBOL        st_mmd_unit
  X:0015H         SYMBOL        adr_offset
  -------         ENDDO         
  C:7658H         LINE#         105
  C:765DH         LINE#         106
  C:765DH         LINE#         111
  C:7665H         LINE#         112
  C:7665H         LINE#         113
  C:7674H         LINE#         114
  C:7695H         LINE#         115
  C:76BAH         LINE#         116
  C:76BAH         LINE#         117
  C:76CCH         LINE#         118
  C:76D4H         LINE#         119
  C:76DCH         LINE#         120
  C:76E4H         LINE#         121
  C:76ECH         LINE#         122
  C:76F4H         LINE#         123
  C:7718H         LINE#         124
  C:7732H         LINE#         125
  C:774CH         LINE#         126
  C:774CH         LINE#         129
  C:776BH         LINE#         130
  C:778CH         LINE#         131
  C:77AEH         LINE#         132
  C:77AEH         LINE#         133
  C:77C0H         LINE#         134
  C:77C8H         LINE#         135
  C:77D0H         LINE#         136
  C:77D8H         LINE#         137
  C:77E0H         LINE#         138
  C:77E8H         LINE#         139
  C:780CH         LINE#         140
  C:780CH         LINE#         160
  C:780CH         LINE#         163
  -------         ENDPROC       _API_CMP_SAVE_MD_DATA
BL51 BANKED LINKER/LOCATER V6.22                                                      03/05/2019  13:48:08  PAGE 121


  -------         PROC          LNK_UPDATA_MD_VAR_POWER_PER_SECOND
  -------         DO            
  X:0002H         SYMBOL        i
  -------         ENDDO         
  C:E1B7H         LINE#         178
  C:E1B7H         LINE#         179
  C:E1B7H         LINE#         182
  C:E1C6H         LINE#         183
  C:E1C6H         LINE#         184
  C:E1CDH         LINE#         185
  C:E1CDH         LINE#         186
  C:E1CDH         LINE#         187
  C:E1D0H         LINE#         188
  C:E1D2H         LINE#         190
  C:E1D2H         LINE#         191
  C:E1F4H         LINE#         192
  C:E1F6H         LINE#         193
  C:E1F6H         LINE#         194
  C:E1F9H         LINE#         195
  C:E1F9H         LINE#         196
  C:E201H         LINE#         198
  -------         ENDPROC       LNK_UPDATA_MD_VAR_POWER_PER_SECOND
  -------         PROC          API_UPDATA_MD_VAR_MIN_PER_SECOND
  -------         DO            
  X:0001H         SYMBOL        i
  -------         ENDDO         
  C:D51EH         LINE#         213
  C:D51EH         LINE#         214
  C:D51EH         LINE#         218
  C:D521H         LINE#         222
  C:D526H         LINE#         223
  C:D526H         LINE#         224
  C:D53BH         LINE#         225
  C:D587H         LINE#         226
  C:D591H         LINE#         228
  -------         ENDPROC       API_UPDATA_MD_VAR_MIN_PER_SECOND
  -------         PROC          API_UPDATA_MD_VAR_SLID_PER_MINUTE
  -------         DO            
  X:0001H         SYMBOL        i
  X:0002H         SYMBOL        j
  X:0003H         SYMBOL        sum_hex32
  -------         ENDDO         
  C:6462H         LINE#         244
  C:6462H         LINE#         245
  C:6462H         LINE#         250
  C:6468H         LINE#         251
  C:6468H         LINE#         253
  C:646EH         LINE#         254
  C:6470H         LINE#         255
  C:6470H         LINE#         257
  C:6482H         LINE#         258
  C:6482H         LINE#         260
  C:6493H         LINE#         261
  C:6493H         LINE#         262
  C:64CCH         LINE#         263
  C:64DCH         LINE#         264
  C:64F1H         LINE#         265
BL51 BANKED LINKER/LOCATER V6.22                                                      03/05/2019  13:48:08  PAGE 122


  C:64F1H         LINE#         268
  C:6512H         LINE#         269
  C:6512H         LINE#         270
  C:655CH         LINE#         271
  C:656DH         LINE#         272
  C:6589H         LINE#         273
  C:6589H         LINE#         274
  C:659EH         LINE#         275
  C:65AEH         LINE#         276
  C:65AEH         LINE#         278
  C:65C8H         LINE#         279
  C:65C8H         LINE#         280
  C:65D2H         LINE#         281
  C:65F2H         LINE#         282
  C:65F2H         LINE#         283
  C:6603H         LINE#         284
  C:6603H         LINE#         285
  C:664FH         LINE#         286
  C:6657H         LINE#         287
  C:6686H         LINE#         288
  C:66AEH         LINE#         289
  C:66AEH         LINE#         290
  C:66AEH         LINE#         291
  C:66AEH         LINE#         293
  C:66B7H         LINE#         295
  -------         ENDPROC       API_UPDATA_MD_VAR_SLID_PER_MINUTE
  -------         PROC          API_CLR_CURRENT_MD_DATA
  -------         DO            
  X:0095H         SYMBOL        tmp_ms_user_data
  X:00C4H         SYMBOL        st_mmd_unit
  -------         ENDDO         
  C:B297H         LINE#         310
  C:B297H         LINE#         311
  C:B297H         LINE#         315
  C:B2B1H         LINE#         316
  C:B2DFH         LINE#         317
  C:B2E5H         LINE#         318
  C:B2FEH         LINE#         320
  C:B30BH         LINE#         321
  C:B318H         LINE#         322
  C:B332H         LINE#         323
  C:B34CH         LINE#         324
  C:B35AH         LINE#         326
  -------         ENDPROC       API_CLR_CURRENT_MD_DATA
  -------         PROC          API_CLR_FREEZE_ENERGY
  C:D592H         LINE#         329
  C:D592H         LINE#         330
  C:D592H         LINE#         331
  C:D59FH         LINE#         332
  C:D5ACH         LINE#         333
  C:D5B9H         LINE#         334
  C:D5D3H         LINE#         335
  C:D5EDH         LINE#         336
  -------         ENDPROC       API_CLR_FREEZE_ENERGY
  -------         ENDMOD        API_DEMAND

  -------         MODULE        API_ENERGY
BL51 BANKED LINKER/LOCATER V6.22                                                      03/05/2019  13:48:08  PAGE 123


  C:0000H         SYMBOL        _ICE_DUMMY_
  D:00CEH         PUBLIC        wdt0
  D:0090H         PUBLIC        P1
  D:00CFH         PUBLIC        wdt1
  D:00B0H         PUBLIC        P3
  B:00A8H.7       PUBLIC        EA
  C:5F9BH         PUBLIC        api_accum_current_energy_data_pre_second
  D:00A8H         PUBLIC        IE
  D:00B8H         PUBLIC        IP
  C:D97AH         PUBLIC        api_clr_current_energy_data
  D:0098H         PUBLIC        SCON
  D:0088H         PUBLIC        TCON
  D:00F0H         PUBLIC        B
  D:00E0H         PUBLIC        ACC
  C:68EFH         PUBLIC        api_init_current_energy_data_ram
  D:0080H         PUBLIC        SysCtrl
  C:DB1EH         PUBLIC        lnk_add_fac_energy_pluse
  X:0449H         PUBLIC        gs_energy_user_data_back
  C:F03CH         PUBLIC        lnk_add_rac_energy_pluse
  D:00C8H         PUBLIC        T2CON
  X:0487H         PUBLIC        gs_energy_user_data
  C:BF76H         PUBLIC        api_check_current_energy_data
  X:04C5H         PUBLIC        gs_energy_var
  D:00D0H         PUBLIC        PSW
  -------         PROC          API_INIT_CURRENT_ENERGY_DATA_RAM
  -------         DO            
  X:0003H         SYMBOL        Bill_Data
  X:0004H         SYMBOL        i
  X:0005H         SYMBOL        u16_month_A
  X:0007H         SYMBOL        u16_month_B
  X:0009H         SYMBOL        u16_day_A
  X:000BH         SYMBOL        u16_day_B
  X:000DH         SYMBOL        last_rec_dateTime
  X:0013H         SYMBOL        max_dateTime
  -------         ENDDO         
  C:68EFH         LINE#         41
  C:68EFH         LINE#         42
  C:68EFH         LINE#         51
  C:6903H         LINE#         52
  C:6917H         LINE#         53
  C:691AH         LINE#         57
  C:6934H         LINE#         58
  C:694EH         LINE#         59
  C:6967H         LINE#         60
  C:696CH         LINE#         78
  C:6985H         LINE#         79
  C:69B2H         LINE#         80
  C:69DFH         LINE#         81
  C:69EDH         LINE#         82
  C:6A05H         LINE#         83
  C:6A05H         LINE#         84
  C:6A22H         LINE#         85
  C:6A22H         LINE#         86
  C:6A28H         LINE#         87
  C:6A2AH         LINE#         89
  C:6A2AH         LINE#         90
  C:6A45H         LINE#         91
BL51 BANKED LINKER/LOCATER V6.22                                                      03/05/2019  13:48:08  PAGE 124


  C:6A62H         LINE#         93
  C:6A71H         LINE#         94
  C:6A71H         LINE#         96
  C:6A89H         LINE#         98
  C:6A91H         LINE#         99
  C:6A91H         LINE#         100
  C:6AA1H         LINE#         101
  C:6AA1H         LINE#         102
  C:6AAFH         LINE#         103
  C:6AC1H         LINE#         104
  C:6AC1H         LINE#         105
  C:6AC6H         LINE#         106
  C:6AD4H         LINE#         107
  C:6ADCH         LINE#         108
  C:6AEAH         LINE#         109
  C:6AEDH         LINE#         111
  C:6AFBH         LINE#         112
  C:6AFBH         LINE#         113
  C:6AFBH         LINE#         121
  C:6AFBH         LINE#         129
  C:6B00H         LINE#         130
  -------         ENDPROC       API_INIT_CURRENT_ENERGY_DATA_RAM
  -------         PROC          API_CHECK_CURRENT_ENERGY_DATA
  -------         DO            
  D:0006H         SYMBOL        csck_tmp
  -------         ENDDO         
  C:BF76H         LINE#         144
  C:BF76H         LINE#         145
  C:BF76H         LINE#         149
  C:BF8DH         LINE#         150
  C:BF9CH         LINE#         151
  C:BF9CH         LINE#         152
  C:BFB3H         LINE#         153
  C:BFBFH         LINE#         154
  C:BFBFH         LINE#         155
  C:BFD8H         LINE#         156
  C:BFF7H         LINE#         166
  C:BFF7H         LINE#         167
  C:C015H         LINE#         168
  C:C024H         LINE#         169
  C:C024H         LINE#         170
  -------         ENDPROC       API_CHECK_CURRENT_ENERGY_DATA
  -------         PROC          LNK_ADD_FAC_ENERGY_PLUSE
  -------         DO            
  D:0007H         SYMBOL        chg_fg
  D:0005H         SYMBOL        u8_tmp
  D:0006H         SYMBOL        i
  -------         ENDDO         
  C:DB1EH         LINE#         184
  C:DB1EH         LINE#         185
  C:DB1EH         LINE#         187
  C:DB20H         LINE#         190
  C:DB21H         LINE#         191
  C:DB21H         LINE#         192
  C:DB32H         LINE#         193
  C:DB32H         LINE#         194
  C:DB34H         LINE#         195
BL51 BANKED LINKER/LOCATER V6.22                                                      03/05/2019  13:48:08  PAGE 125


  C:DB34H         LINE#         196
  C:DB40H         LINE#         197
  C:DB42H         LINE#         199
  C:DB58H         LINE#         201
  C:DB7EH         LINE#         203
  C:DB80H         LINE#         204
  C:DB80H         LINE#         205
  C:DB85H         LINE#         207
  C:DB85H         LINE#         208
  -------         ENDPROC       LNK_ADD_FAC_ENERGY_PLUSE
  -------         PROC          LNK_ADD_RAC_ENERGY_PLUSE
  -------         DO            
  D:0007H         SYMBOL        chg_fg
  -------         ENDDO         
  C:F03CH         LINE#         224
  C:F03CH         LINE#         225
  C:F03CH         LINE#         227
  C:F03EH         LINE#         287
  C:F03EH         LINE#         288
  -------         ENDPROC       LNK_ADD_RAC_ENERGY_PLUSE
  -------         PROC          API_ACCUM_CURRENT_ENERGY_DATA_PRE_SECOND
  -------         DO            
  X:0007H         SYMBOL        save_fg
  X:0008H         SYMBOL        i
  D:0007H         SYMBOL        chg_fg1
  -------         ENDDO         
  C:5F9BH         LINE#         302
  C:5F9BH         LINE#         303
  C:5F9BH         LINE#         304
  C:5FA0H         LINE#         309
  C:5FA3H         LINE#         311
  C:5FA6H         LINE#         313
  C:5FACH         LINE#         315
  C:5FB1H         LINE#         316
  C:5FC0H         LINE#         317
  C:5FC0H         LINE#         318
  C:5FE5H         LINE#         319
  C:5FE5H         LINE#         320
  C:5FF1H         LINE#         321
  C:600BH         LINE#         322
  C:6040H         LINE#         323
  C:6067H         LINE#         324
  C:6067H         LINE#         325
  C:607FH         LINE#         326
  C:607FH         LINE#         327
  C:607FH         LINE#         329
  C:60B9H         LINE#         330
  C:60B9H         LINE#         331
  C:60E6H         LINE#         332
  C:6137H         LINE#         333
  C:6173H         LINE#         334
  C:6173H         LINE#         335
  C:619DH         LINE#         336
  C:619DH         LINE#         337
  C:619DH         LINE#         340
  C:61A6H         LINE#         343
  C:61C5H         LINE#         344
BL51 BANKED LINKER/LOCATER V6.22                                                      03/05/2019  13:48:08  PAGE 126


  C:61E3H         LINE#         347
  C:61EAH         LINE#         348
  C:61EAH         LINE#         349
  C:6203H         LINE#         350
  C:6203H         LINE#         351
  -------         ENDPROC       API_ACCUM_CURRENT_ENERGY_DATA_PRE_SECOND
  -------         PROC          API_CLR_CURRENT_ENERGY_DATA
  C:D97AH         LINE#         367
  C:D97AH         LINE#         368
  C:D97AH         LINE#         370
  C:D98EH         LINE#         371
  C:D9ADH         LINE#         373
  C:D9CBH         LINE#         375
  -------         ENDPROC       API_CLR_CURRENT_ENERGY_DATA
  -------         ENDMOD        API_ENERGY

  -------         MODULE        API_EVENT
  C:0000H         SYMBOL        _ICE_DUMMY_
  D:00CEH         PUBLIC        wdt0
  D:0090H         PUBLIC        P1
  D:00CFH         PUBLIC        wdt1
  D:00B0H         PUBLIC        P3
  C:ED3CH         PUBLIC        api_even_Detect_NOL1
  C:ED1BH         PUBLIC        api_even_Detect_NOL2
  D:00A8H         PUBLIC        IE
  C:B90CH         PUBLIC        _api_deal_even_class_recode
  C:E761H         PUBLIC        gs_even_var
  D:00B8H         PUBLIC        IP
  C:DA4DH         PUBLIC        api_even_ee_err
  C:E540H         PUBLIC        api_even_Detect_sec
  D:0098H         PUBLIC        SCON
  D:0088H         PUBLIC        TCON
  C:9C66H         PUBLIC        api_clr_even_by_comm
  C:A3DFH         PUBLIC        _GetTotalTime
  C:EFC3H         PUBLIC        api_even_Detect_lowbattery
  D:00F0H         PUBLIC        B
  X:06F6H         PUBLIC        gs_even_fun_var
  D:00E0H         PUBLIC        ACC
  C:4A42H         PUBLIC        _api_pwl_cover_even_class_recode
  D:0080H         PUBLIC        SysCtrl
  D:00C8H         PUBLIC        T2CON
  C:002EH         PUBLIC        api_even_Detect_L1reverse
  C:001EH         PUBLIC        api_even_Detect_L2reverse
  C:35CFH         PUBLIC        _lnk_save_even_class1_recode
  C:E77BH         PUBLIC        even_class_I_tab
  C:F042H         PUBLIC        api_even_int
  D:00D0H         PUBLIC        PSW
  -------         PROC          API_EVEN_INT
  C:F042H         LINE#         101
  C:F042H         LINE#         102
  C:F042H         LINE#         104
  C:F043H         LINE#         105
  -------         ENDPROC       API_EVEN_INT
  -------         PROC          _API_PWL_COVER_EVEN_CLASS_RECODE
  X:0007H         SYMBOL        even_id
  D:0005H         SYMBOL        type
  -------         DO            
BL51 BANKED LINKER/LOCATER V6.22                                                      03/05/2019  13:48:08  PAGE 127


  X:0008H         SYMBOL        data_class2
  X:0088H         SYMBOL        buftmp
  X:009EH         SYMBOL        Time
  X:00A2H         SYMBOL        i
  -------         ENDDO         
  C:4A42H         LINE#         110
  C:4A47H         LINE#         111
  C:4A47H         LINE#         120
  C:4A4FH         LINE#         121
  C:4A4FH         LINE#         122
  C:4A6FH         LINE#         123
  C:4A6FH         LINE#         124
  C:4A7FH         LINE#         125
  C:4AA2H         LINE#         126
  C:4AA4H         LINE#         128
  C:4AA4H         LINE#         129
  C:4AB4H         LINE#         130
  C:4AD5H         LINE#         132
  C:4AD5H         LINE#         133
  C:4AEFH         LINE#         136
  C:4B14H         LINE#         137
  C:4B24H         LINE#         138
  C:4B24H         LINE#         139
  C:4B5EH         LINE#         140
  C:4B66H         LINE#         141
  C:4B6EH         LINE#         142
  C:4B76H         LINE#         143
  C:4B7EH         LINE#         144
  C:4B86H         LINE#         145
  C:4B8EH         LINE#         146
  C:4B96H         LINE#         148
  C:4BA6H         LINE#         149
  C:4BA6H         LINE#         150
  C:4BE0H         LINE#         151
  C:4BE8H         LINE#         152
  C:4BF6H         LINE#         154
  C:4C0AH         LINE#         156
  C:4C29H         LINE#         158
  C:4C43H         LINE#         159
  C:4C43H         LINE#         161
  C:4C43H         LINE#         163
  C:4C59H         LINE#         164
  C:4C59H         LINE#         166
  C:4C59H         LINE#         167
  C:4C69H         LINE#         168
  C:4C69H         LINE#         169
  C:4C79H         LINE#         170
  C:4C86H         LINE#         172
  C:4C87H         LINE#         174
  C:4C87H         LINE#         177
  C:4C97H         LINE#         178
  C:4CBAH         LINE#         179
  C:4CC8H         LINE#         180
  C:4CE2H         LINE#         182
  C:4CEAH         LINE#         183
  C:4CF2H         LINE#         184
  C:4CFAH         LINE#         185
BL51 BANKED LINKER/LOCATER V6.22                                                      03/05/2019  13:48:08  PAGE 128


  C:4D02H         LINE#         186
  C:4D0AH         LINE#         187
  C:4D13H         LINE#         189
  C:4D1BH         LINE#         190
  C:4D23H         LINE#         191
  C:4D2BH         LINE#         192
  C:4D33H         LINE#         193
  C:4D3BH         LINE#         194
  C:4D43H         LINE#         196
  C:4D46H         LINE#         197
  C:4D4EH         LINE#         198
  C:4D56H         LINE#         199
  C:4D5EH         LINE#         200
  C:4D66H         LINE#         201
  C:4D6EH         LINE#         203
  C:4D77H         LINE#         205
  C:4D95H         LINE#         207
  C:4DF6H         LINE#         209
  C:4E15H         LINE#         210
  C:4E23H         LINE#         212
  C:4E3DH         LINE#         214
  C:4E4DH         LINE#         215
  C:4E59H         LINE#         216
  C:4E59H         LINE#         218
  C:4E59H         LINE#         221
  -------         ENDPROC       _API_PWL_COVER_EVEN_CLASS_RECODE
  -------         PROC          _LNK_SAVE_EVEN_CLASS1_RECODE
  X:009AH         SYMBOL        ID
  X:009BH         SYMBOL        adr
  X:009DH         SYMBOL        type
  -------         DO            
  X:009EH         SYMBOL        data_class1
  X:00DEH         SYMBOL        data_class2
  X:015EH         SYMBOL        buftmp
  X:0174H         SYMBOL        Time
  X:0178H         SYMBOL        i
  -------         ENDDO         
  C:35CFH         LINE#         237
  C:35E1H         LINE#         238
  C:35E1H         LINE#         246
  C:35ECH         LINE#         248
  C:35FEH         LINE#         249
  C:35FEH         LINE#         251
  C:3619H         LINE#         253
  C:363EH         LINE#         254
  C:364EH         LINE#         255
  C:364EH         LINE#         256
  C:3688H         LINE#         257
  C:3690H         LINE#         259
  C:3698H         LINE#         260
  C:36A0H         LINE#         261
  C:36A8H         LINE#         262
  C:36B0H         LINE#         263
  C:36B8H         LINE#         264
  C:36C0H         LINE#         266
  C:36DFH         LINE#         269
  C:36F8H         LINE#         271
BL51 BANKED LINKER/LOCATER V6.22                                                      03/05/2019  13:48:08  PAGE 129


  C:36F8H         LINE#         274
  C:3717H         LINE#         275
  C:3717H         LINE#         276
  C:3720H         LINE#         277
  C:3720H         LINE#         278
  C:3730H         LINE#         281
  C:3750H         LINE#         282
  C:3769H         LINE#         283
  C:3769H         LINE#         284
  C:3774H         LINE#         285
  C:3777H         LINE#         287
  C:3777H         LINE#         288
  C:3787H         LINE#         289
  C:37ABH         LINE#         290
  C:37B9H         LINE#         292
  C:37CFH         LINE#         293
  C:37CFH         LINE#         294
  C:37E0H         LINE#         295
  C:3800H         LINE#         296
  C:3800H         LINE#         300
  C:381EH         LINE#         303
  C:3843H         LINE#         304
  C:3853H         LINE#         305
  C:3853H         LINE#         306
  C:388DH         LINE#         307
  C:3895H         LINE#         308
  C:389DH         LINE#         309
  C:38A5H         LINE#         310
  C:38ADH         LINE#         311
  C:38B5H         LINE#         312
  C:38BDH         LINE#         313
  C:38C5H         LINE#         315
  C:38D5H         LINE#         316
  C:38D5H         LINE#         317
  C:390FH         LINE#         318
  C:3917H         LINE#         319
  C:3925H         LINE#         322
  C:3939H         LINE#         326
  C:3958H         LINE#         329
  C:396EH         LINE#         330
  C:396EH         LINE#         331
  C:3971H         LINE#         333
  C:3971H         LINE#         334
  C:398DH         LINE#         335
  C:398DH         LINE#         336
  C:39B0H         LINE#         338
  C:39B0H         LINE#         339
  C:39C0H         LINE#         340
  C:39CCH         LINE#         343
  C:39ECH         LINE#         344
  C:3A00H         LINE#         345
  C:3A00H         LINE#         347
  C:3A00H         LINE#         350
  C:3A10H         LINE#         351
  C:3A30H         LINE#         352
  C:3A3EH         LINE#         353
  C:3A5CH         LINE#         355
BL51 BANKED LINKER/LOCATER V6.22                                                      03/05/2019  13:48:08  PAGE 130


  C:3A64H         LINE#         356
  C:3A6CH         LINE#         357
  C:3A74H         LINE#         358
  C:3A7CH         LINE#         359
  C:3A84H         LINE#         360
  C:3A8DH         LINE#         362
  C:3A95H         LINE#         363
  C:3A9DH         LINE#         364
  C:3AA5H         LINE#         365
  C:3AADH         LINE#         366
  C:3AB5H         LINE#         367
  C:3ABDH         LINE#         370
  C:3AC0H         LINE#         371
  C:3AC8H         LINE#         372
  C:3AD0H         LINE#         373
  C:3AD8H         LINE#         374
  C:3AE0H         LINE#         375
  C:3AE8H         LINE#         377
  C:3AF1H         LINE#         379
  C:3B0FH         LINE#         381
  C:3B70H         LINE#         383
  C:3B8FH         LINE#         385
  C:3B9DH         LINE#         388
  C:3BBBH         LINE#         390
  C:3BBBH         LINE#         391
  C:3BBBH         LINE#         393
  C:3BBBH         LINE#         394
  C:3BCBH         LINE#         395
  C:3BD7H         LINE#         396
  C:3BD7H         LINE#         397
  C:3BD7H         LINE#         399
  C:3BD7H         LINE#         402
  -------         ENDPROC       _LNK_SAVE_EVEN_CLASS1_RECODE
  -------         PROC          _API_DEAL_EVEN_CLASS_RECODE
  D:0007H         SYMBOL        even_id
  D:0006H         SYMBOL        type
  -------         DO            
  X:0095H         SYMBOL        i
  X:0096H         SYMBOL        ID
  X:0097H         SYMBOL        tab_class
  -------         ENDDO         
  C:B90CH         LINE#         418
  C:B90EH         LINE#         419
  C:B90EH         LINE#         423
  C:B914H         LINE#         424
  C:B914H         LINE#         425
  C:B923H         LINE#         426
  C:B923H         LINE#         427
  C:B936H         LINE#         428
  C:B93EH         LINE#         430
  C:B94BH         LINE#         432
  C:B957H         LINE#         433
  C:B957H         LINE#         434
  C:B959H         LINE#         435
  C:B964H         LINE#         436
  C:B964H         LINE#         437
  C:B973H         LINE#         438
BL51 BANKED LINKER/LOCATER V6.22                                                      03/05/2019  13:48:08  PAGE 131


  C:B973H         LINE#         439
  C:B986H         LINE#         440
  C:B98EH         LINE#         442
  C:B997H         LINE#         444
  C:B9B7H         LINE#         445
  C:B9BCH         LINE#         446
  C:B9BCH         LINE#         449
  C:B9CEH         LINE#         451
  -------         ENDPROC       _API_DEAL_EVEN_CLASS_RECODE
  -------         PROC          API_CLR_EVEN_BY_COMM
  -------         DO            
  X:0095H         SYMBOL        i
  X:0096H         SYMBOL        data_class1
  X:00D6H         SYMBOL        data_class2
  -------         ENDDO         
  C:9C66H         LINE#         466
  C:9C66H         LINE#         467
  C:9C66H         LINE#         472
  C:9C7AH         LINE#         473
  C:9C8EH         LINE#         474
  C:9C93H         LINE#         475
  C:9CA6H         LINE#         477
  C:9CC0H         LINE#         479
  C:9CDFH         LINE#         480
  C:9CFEH         LINE#         482
  C:9D10H         LINE#         483
  C:9D10H         LINE#         484
  C:9D1EH         LINE#         485
  C:9D49H         LINE#         486
  C:9D77H         LINE#         487
  C:9D85H         LINE#         488
  C:9D8EH         LINE#         491
  -------         ENDPROC       API_CLR_EVEN_BY_COMM
  -------         PROC          _GETTOTALTIME
  X:0179H         SYMBOL        buftmp
  -------         DO            
  X:017CH         SYMBOL        temp1
  X:0180H         SYMBOL        temp2
  -------         ENDDO         
  C:A3DFH         LINE#         502
  C:A3EAH         LINE#         503
  C:A3EAH         LINE#         506
  C:A415H         LINE#         507
  C:A415H         LINE#         508
  C:A41FH         LINE#         509
  C:A429H         LINE#         510
  C:A42BH         LINE#         512
  C:A42BH         LINE#         513
  C:A43BH         LINE#         514
  C:A454H         LINE#         518
  C:A454H         LINE#         520
  C:A479H         LINE#         521
  C:A479H         LINE#         522
  C:A4A4H         LINE#         523
  C:A4A6H         LINE#         525
  C:A4A6H         LINE#         526
  C:A4ADH         LINE#         527
BL51 BANKED LINKER/LOCATER V6.22                                                      03/05/2019  13:48:08  PAGE 132


  C:A4ADH         LINE#         529
  -------         ENDPROC       _GETTOTALTIME
  -------         PROC          API_EVEN_DETECT_SEC
  C:E540H         LINE#         545
  C:E540H         LINE#         546
  C:E540H         LINE#         547
  C:E548H         LINE#         549
  C:E54BH         LINE#         551
  C:E555H         LINE#         552
  C:E55CH         LINE#         562
  C:E566H         LINE#         563
  C:E56DH         LINE#         568
  C:E577H         LINE#         569
  C:E57EH         LINE#         572
  -------         ENDPROC       API_EVEN_DETECT_SEC
  -------         PROC          API_EVEN_DETECT_L2REVERSE
  C:001EH         LINE#         587
  C:001EH         LINE#         588
  C:001EH         LINE#         590
  C:0025H         LINE#         591
  C:0028H         LINE#         593
  C:002AH         LINE#         595
  -------         ENDPROC       API_EVEN_DETECT_L2REVERSE
  -------         PROC          API_EVEN_DETECT_L1REVERSE
  C:002EH         LINE#         611
  C:002EH         LINE#         612
  C:002EH         LINE#         613
  C:0035H         LINE#         614
  C:0038H         LINE#         616
  C:003AH         LINE#         617
  -------         ENDPROC       API_EVEN_DETECT_L1REVERSE
  -------         PROC          API_EVEN_DETECT_NOL2
  C:ED1BH         LINE#         631
  C:ED1BH         LINE#         632
  C:ED1BH         LINE#         634
  C:ED36H         LINE#         635
  C:ED36H         LINE#         637
  C:ED39H         LINE#         638
  C:ED39H         LINE#         640
  C:ED39H         LINE#         642
  C:ED3BH         LINE#         643
  C:ED3BH         LINE#         644
  -------         ENDPROC       API_EVEN_DETECT_NOL2
  -------         PROC          API_EVEN_DETECT_NOL1
  C:ED3CH         LINE#         658
  C:ED3CH         LINE#         659
  C:ED3CH         LINE#         661
  C:ED57H         LINE#         662
  C:ED57H         LINE#         664
  C:ED5AH         LINE#         665
  C:ED5AH         LINE#         667
  C:ED5AH         LINE#         669
  C:ED5CH         LINE#         670
  C:ED5CH         LINE#         671
  -------         ENDPROC       API_EVEN_DETECT_NOL1
  -------         PROC          API_EVEN_DETECT_LOWBATTERY
  C:EFC3H         LINE#         685
BL51 BANKED LINKER/LOCATER V6.22                                                      03/05/2019  13:48:08  PAGE 133


  C:EFC3H         LINE#         686
  C:EFC3H         LINE#         687
  C:EFCAH         LINE#         688
  C:EFCDH         LINE#         690
  C:EFCFH         LINE#         691
  -------         ENDPROC       API_EVEN_DETECT_LOWBATTERY
  -------         PROC          API_EVEN_EE_ERR
  C:DA4DH         LINE#         707
  C:DA4DH         LINE#         708
  C:DA4DH         LINE#         709
  C:DA67H         LINE#         711
  C:DA83H         LINE#         712
  C:DA83H         LINE#         713
  C:DA87H         LINE#         714
  C:DA87H         LINE#         716
  C:DAA8H         LINE#         717
  C:DAA8H         LINE#         718
  C:DAAFH         LINE#         719
  C:DAB5H         LINE#         720
  C:DAB5H         LINE#         722
  C:DAB5H         LINE#         724
  C:DAB5H         LINE#         725
  -------         ENDPROC       API_EVEN_EE_ERR
  -------         ENDMOD        API_EVENT

  -------         MODULE        API_LOADPROFILE
  C:0000H         SYMBOL        _ICE_DUMMY_
  D:00CEH         PUBLIC        wdt0
  D:0090H         PUBLIC        P1
  D:00CFH         PUBLIC        wdt1
  D:00B0H         PUBLIC        P3
  C:F03FH         PUBLIC        ReadLPRunPa
  X:0635H         PUBLIC        LPRunPa
  D:00A8H         PUBLIC        IE
  D:00B8H         PUBLIC        IP
  C:D8A2H         PUBLIC        Init_LoadPro_param
  X:0639H         PUBLIC        LPReadPara
  C:C229H         PUBLIC        _LPRec_Read_1
  C:CC96H         PUBLIC        LoadPro_Rec
  D:0098H         PUBLIC        SCON
  D:0088H         PUBLIC        TCON
  D:00F0H         PUBLIC        B
  D:00E0H         PUBLIC        ACC
  X:063EH         PUBLIC        LPRd
  D:0080H         PUBLIC        SysCtrl
  C:6204H         PUBLIC        _LPRec_Read_Block
  D:00C8H         PUBLIC        T2CON
  C:E47EH         PUBLIC        LoadProRst
  D:00D0H         PUBLIC        PSW
  C:583EH         PUBLIC        _Load_Rec
  -------         PROC          LOADPRORST
  C:E47EH         LINE#         28
  C:E47EH         LINE#         29
  C:E47EH         LINE#         30
  C:E492H         LINE#         31
  C:E4ACH         LINE#         33
  -------         ENDPROC       LOADPRORST
BL51 BANKED LINKER/LOCATER V6.22                                                      03/05/2019  13:48:08  PAGE 134


  -------         PROC          READLPRUNPA
  C:F03FH         LINE#         45
  C:F03FH         LINE#         46
  C:F03FH         LINE#         47
  C:F041H         LINE#         48
  -------         ENDPROC       READLPRUNPA
  -------         PROC          _LPREC_READ_1
  X:00E8H         SYMBOL        dst
  D:0004H         SYMBOL        idNo
  -------         DO            
  X:00EBH         SYMBOL        RecLen
  X:00ECH         SYMBOL        Buffer
  D:0004H         SYMBOL        LPAddr
  X:0100H         SYMBOL        ptr
  -------         ENDDO         
  C:C229H         LINE#         58
  C:C234H         LINE#         59
  C:C234H         LINE#         66
  C:C242H         LINE#         67
  C:C242H         LINE#         68
  C:C247H         LINE#         69
  C:C249H         LINE#         71
  C:C249H         LINE#         72
  C:C26BH         LINE#         73
  C:C26BH         LINE#         75
  C:C271H         LINE#         76
  C:C28FH         LINE#         77
  C:C2AAH         LINE#         78
  C:C2CEH         LINE#         85
  C:C2D3H         LINE#         86
  -------         ENDPROC       _LPREC_READ_1
  -------         PROC          _LPREC_READ_BLOCK
  X:00E8H         SYMBOL        dst
  X:00EBH         SYMBOL        StartARESS
  X:00EDH         SYMBOL        EndARESS
  -------         DO            
  X:00EFH         SYMBOL        Ch
  X:00F0H         SYMBOL        RecLen
  X:00F1H         SYMBOL        Buffer
  X:01B9H         SYMBOL        LPAddr
  X:01BDH         SYMBOL        LPAddr2
  X:01C1H         SYMBOL        HGAddr
  D:0002H         SYMBOL        LWAddr
  X:01C3H         SYMBOL        ComLenth
  X:01C5H         SYMBOL        ptr
  X:01C7H         SYMBOL        ComNo
  X:01C9H         SYMBOL        TempLen
  -------         ENDDO         
  C:6204H         LINE#         94
  C:6215H         LINE#         95
  C:6215H         LINE#         104
  C:6222H         LINE#         105
  C:6230H         LINE#         106
  C:624EH         LINE#         107
  C:6258H         LINE#         109
  C:6274H         LINE#         110
  C:6279H         LINE#         112
BL51 BANKED LINKER/LOCATER V6.22                                                      03/05/2019  13:48:08  PAGE 135


  C:6292H         LINE#         114
  C:62B6H         LINE#         116
  C:62BCH         LINE#         118
  C:62C6H         LINE#         119
  C:62D4H         LINE#         120
  C:62E6H         LINE#         121
  C:62E6H         LINE#         122
  C:632CH         LINE#         123
  C:635DH         LINE#         125
  C:6366H         LINE#         127
  C:6391H         LINE#         128
  C:6396H         LINE#         130
  C:63A5H         LINE#         131
  C:63B3H         LINE#         133
  C:63BCH         LINE#         134
  C:63C3H         LINE#         137
  C:63D1H         LINE#         138
  C:63E8H         LINE#         139
  C:63E8H         LINE#         140
  C:6434H         LINE#         149
  C:6442H         LINE#         150
  C:6450H         LINE#         151
  C:6459H         LINE#         153
  C:6461H         LINE#         154
  -------         ENDPROC       _LPREC_READ_BLOCK
  -------         PROC          _LOAD_REC
  X:0007H         SYMBOL        Ch
  -------         DO            
  X:0008H         SYMBOL        LPAddr
  X:000CH         SYMBOL        Len
  X:000DH         SYMBOL        Buffer
  -------         ENDDO         
  C:583EH         LINE#         233
  C:5843H         LINE#         234
  C:5843H         LINE#         240
  C:584DH         LINE#         248
  C:5861H         LINE#         249
  C:5866H         LINE#         250
  C:588AH         LINE#         251
  C:5891H         LINE#         256
  C:58B0H         LINE#         257
  C:58B7H         LINE#         262
  C:58D2H         LINE#         263
  C:5909H         LINE#         264
  C:5910H         LINE#         269
  C:592BH         LINE#         270
  C:5962H         LINE#         271
  C:5969H         LINE#         275
  C:5987H         LINE#         276
  C:598EH         LINE#         294
  C:59B0H         LINE#         295
  C:59E4H         LINE#         296
  C:5A02H         LINE#         297
  C:5A2BH         LINE#         300
  C:5A35H         LINE#         301
  C:5A82H         LINE#         303
  C:5A9CH         LINE#         312
BL51 BANKED LINKER/LOCATER V6.22                                                      03/05/2019  13:48:08  PAGE 136


  C:5ABEH         LINE#         314
  C:5AC0H         LINE#         315
  -------         ENDPROC       _LOAD_REC
  -------         PROC          LOADPRO_REC
  -------         DO            
  X:0001H         SYMBOL        Ch
  D:0006H         SYMBOL        Addr
  X:0002H         SYMBOL        TimeInv
  X:0004H         SYMBOL        flag
  X:0005H         SYMBOL        Buffer
  -------         ENDDO         
  C:CC96H         LINE#         323
  C:CC96H         LINE#         324
  C:CC96H         LINE#         331
  C:CCA8H         LINE#         332
  C:CCA8H         LINE#         333
  C:CCB4H         LINE#         335
  C:CCCBH         LINE#         336
  C:CCDCH         LINE#         337
  C:CCDFH         LINE#         338
  C:CCDFH         LINE#         339
  C:CCE2H         LINE#         340
  C:CCF1H         LINE#         341
  C:CCF1H         LINE#         348
  C:CCFEH         LINE#         349
  C:CD12H         LINE#         350
  C:CD12H         LINE#         351
  C:CD18H         LINE#         352
  C:CD18H         LINE#         353
  C:CD20H         LINE#         354
  C:CD20H         LINE#         355
  C:CD20H         LINE#         356
  C:CD29H         LINE#         357
  -------         ENDPROC       LOADPRO_REC
  -------         PROC          INIT_LOADPRO_PARAM
  C:D8A2H         LINE#         366
  C:D8A2H         LINE#         367
  C:D8A2H         LINE#         370
  C:D8BCH         LINE#         372
  C:D8D4H         LINE#         373
  C:D8E4H         LINE#         374
  C:D8E4H         LINE#         375
  C:D8EAH         LINE#         376
  C:D8EAH         LINE#         379
  C:D8F4H         LINE#         381
  -------         ENDPROC       INIT_LOADPRO_PARAM
  -------         ENDMOD        API_LOADPROFILE

  -------         MODULE        API_MEASURE
  C:0000H         SYMBOL        _ICE_DUMMY_
  D:00CEH         PUBLIC        wdt0
  D:0090H         PUBLIC        P1
  D:00CFH         PUBLIC        wdt1
  D:00B0H         PUBLIC        P3
  D:00A8H         PUBLIC        IE
  C:8C33H         PUBLIC        api_measure_deal_pre_second
  D:00B8H         PUBLIC        IP
BL51 BANKED LINKER/LOCATER V6.22                                                      03/05/2019  13:48:08  PAGE 137


  C:EB5BH         PUBLIC        api_Measure_ram_INIT
  D:0098H         PUBLIC        SCON
  D:0088H         PUBLIC        TCON
  D:00F0H         PUBLIC        B
  D:00E0H         PUBLIC        ACC
  D:0080H         PUBLIC        SysCtrl
  X:05F3H         PUBLIC        gs_measure_status_judge_var
  X:05F9H         PUBLIC        gs_measure_var_data
  D:00C8H         PUBLIC        T2CON
  C:E928H         PUBLIC        api_measure_VBAT_pre_min
  C:EE70H         PUBLIC        api_measure_temperature_pre_min
  D:00D0H         PUBLIC        PSW
  -------         PROC          API_MEASURE_RAM_INIT
  C:EB5BH         LINE#         37
  C:EB5BH         LINE#         38
  C:EB5BH         LINE#         39
  C:EB6FH         LINE#         40
  -------         ENDPROC       API_MEASURE_RAM_INIT
  -------         PROC          API_MEASURE_DEAL_PRE_SECOND
  -------         DO            
  X:0001H         SYMBOL        u32_UI
  X:0005H         SYMBOL        u32_P
  X:0009H         SYMBOL        u32_PF
  -------         ENDDO         
  C:8C33H         LINE#         55
  C:8C33H         LINE#         56
  C:8C33H         LINE#         57
  C:8C33H         LINE#         58
  C:8C41H         LINE#         61
  C:8C44H         LINE#         64
  C:8C4FH         LINE#         68
  C:8C59H         LINE#         69
  C:8C8EH         LINE#         70
  C:8CC3H         LINE#         72
  C:8CD0H         LINE#         78
  C:8CEEH         LINE#         79
  C:8D1DH         LINE#         80
  C:8D36H         LINE#         81
  C:8D36H         LINE#         82
  C:8D40H         LINE#         83
  C:8D41H         LINE#         85
  C:8D41H         LINE#         86
  C:8D64H         LINE#         87
  C:8D89H         LINE#         88
  C:8D9AH         LINE#         89
  C:8D9AH         LINE#         90
  -------         ENDPROC       API_MEASURE_DEAL_PRE_SECOND
  -------         PROC          API_MEASURE_VBAT_PRE_MIN
  C:E928H         LINE#         103
  C:E928H         LINE#         104
  C:E928H         LINE#         105
  C:E933H         LINE#         107
  C:E93BH         LINE#         108
  C:E93BH         LINE#         109
  C:E946H         LINE#         110
  C:E94EH         LINE#         111
  C:E94EH         LINE#         112
BL51 BANKED LINKER/LOCATER V6.22                                                      03/05/2019  13:48:08  PAGE 138


  C:E955H         LINE#         114
  C:E955H         LINE#         115
  C:E956H         LINE#         117
  C:E956H         LINE#         118
  C:E95DH         LINE#         119
  C:E95DH         LINE#         120
  -------         ENDPROC       API_MEASURE_VBAT_PRE_MIN
  -------         PROC          API_MEASURE_TEMPERATURE_PRE_MIN
  C:EE70H         LINE#         135
  C:EE70H         LINE#         136
  C:EE70H         LINE#         137
  C:EE75H         LINE#         138
  C:EE7CH         LINE#         140
  C:EE87H         LINE#         142
  -------         ENDPROC       API_MEASURE_TEMPERATURE_PRE_MIN
  -------         ENDMOD        API_MEASURE

  -------         MODULE        API_TRIFF
  C:0000H         SYMBOL        _ICE_DUMMY_
  C:DE30H         PUBLIC        api_update_triffNo_pre_minute
  D:0090H         PUBLIC        P1
  C:955AH         PUBLIC        api_get_seasonTab_No
  D:00B0H         PUBLIC        P3
  D:00A8H         PUBLIC        IE
  C:C9BEH         PUBLIC        default_triff_week_tab
  D:00B8H         PUBLIC        IP
  C:C9DCH         PUBLIC        default_triff_day_tab
  D:0098H         PUBLIC        SCON
  C:C41CH         PUBLIC        _api_get_dayTab_No
  D:0088H         PUBLIC        TCON
  D:00F0H         PUBLIC        B
  D:00E0H         PUBLIC        ACC
  D:0080H         PUBLIC        SysCtrl
  D:00C8H         PUBLIC        T2CON
  X:0769H         PUBLIC        gs_current_triff_var
  C:C9A4H         PUBLIC        default_triff_season_tab
  C:7D16H         PUBLIC        _api_get_triff_No
  D:00D0H         PUBLIC        PSW
  -------         PROC          API_GET_SEASONTAB_NO
  -------         DO            
  X:0096H         SYMBOL        s_season_data
  D:0006H         SYMBOL        i
  D:0005H         SYMBOL        result
  D:0007H         SYMBOL        table_ok_len
  -------         ENDDO         
  C:955AH         LINE#         639
  C:955AH         LINE#         640
  C:955AH         LINE#         648
  C:9574H         LINE#         651
  C:9576H         LINE#         652
  C:9577H         LINE#         653
  C:9577H         LINE#         654
  C:958DH         LINE#         655
  C:95A3H         LINE#         656
  C:95B9H         LINE#         657
  C:95BAH         LINE#         658
  C:95BFH         LINE#         660
BL51 BANKED LINKER/LOCATER V6.22                                                      03/05/2019  13:48:08  PAGE 139


  C:95C7H         LINE#         661
  C:95C7H         LINE#         662
  C:95CAH         LINE#         663
  C:95CAH         LINE#         666
  C:95CCH         LINE#         667
  C:95D1H         LINE#         668
  C:95DAH         LINE#         669
  C:95DAH         LINE#         670
  C:95F6H         LINE#         671
  C:960CH         LINE#         674
  C:9626H         LINE#         675
  C:9626H         LINE#         676
  C:9626H         LINE#         677
  C:9626H         LINE#         678
  C:9628H         LINE#         679
  C:962CH         LINE#         680
  C:962CH         LINE#         681
  C:9646H         LINE#         682
  C:9646H         LINE#         683
  C:964CH         LINE#         684
  C:965CH         LINE#         685
  C:965EH         LINE#         687
  C:965EH         LINE#         688
  C:9661H         LINE#         689
  C:9661H         LINE#         690
  C:9661H         LINE#         691
  C:9661H         LINE#         692
  C:9663H         LINE#         693
  C:9663H         LINE#         695
  C:9663H         LINE#         696
  C:9663H         LINE#         697
  C:9663H         LINE#         698
  C:9663H         LINE#         699
  C:9663H         LINE#         701
  C:9663H         LINE#         702
  C:9666H         LINE#         703
  C:9666H         LINE#         704
  C:966BH         LINE#         705
  C:967AH         LINE#         706
  C:967CH         LINE#         707
  C:967CH         LINE#         709
  C:967CH         LINE#         710
  C:967CH         LINE#         711
  C:967CH         LINE#         712
  C:967CH         LINE#         713
  C:9680H         LINE#         715
  C:9686H         LINE#         716
  C:9688H         LINE#         718
  -------         ENDPROC       API_GET_SEASONTAB_NO
  -------         PROC          _API_GET_DAYTAB_NO
  D:0007H         SYMBOL        weekTab_no
  -------         DO            
  X:0096H         SYMBOL        s_weekTab_data
  X:009DH         SYMBOL        result
  -------         ENDDO         
  C:C41CH         LINE#         734
  C:C41CH         LINE#         735
BL51 BANKED LINKER/LOCATER V6.22                                                      03/05/2019  13:48:08  PAGE 140


  C:C41CH         LINE#         740
  C:C424H         LINE#         741
  C:C424H         LINE#         742
  C:C42AH         LINE#         743
  C:C42BH         LINE#         744
  C:C42BH         LINE#         746
  C:C452H         LINE#         750
  C:C477H         LINE#         751
  C:C477H         LINE#         752
  C:C477H         LINE#         753
  C:C47AH         LINE#         754
  C:C47CH         LINE#         755
  C:C47CH         LINE#         756
  C:C47FH         LINE#         757
  C:C481H         LINE#         758
  C:C481H         LINE#         759
  C:C484H         LINE#         760
  C:C486H         LINE#         761
  C:C486H         LINE#         762
  C:C489H         LINE#         763
  C:C48BH         LINE#         764
  C:C48BH         LINE#         765
  C:C48EH         LINE#         766
  C:C490H         LINE#         767
  C:C490H         LINE#         768
  C:C498H         LINE#         769
  C:C49AH         LINE#         770
  C:C49AH         LINE#         771
  C:C4A0H         LINE#         772
  C:C4A2H         LINE#         773
  C:C4A2H         LINE#         774
  C:C4A5H         LINE#         775
  C:C4A5H         LINE#         776
  C:C4A5H         LINE#         778
  C:C4B0H         LINE#         779
  C:C4B0H         LINE#         780
  C:C4B6H         LINE#         781
  C:C4B6H         LINE#         783
  C:C4BBH         LINE#         785
  -------         ENDPROC       _API_GET_DAYTAB_NO
  -------         PROC          _API_GET_TRIFF_NO
  D:0007H         SYMBOL        dayTab_no
  -------         DO            
  X:0096H         SYMBOL        s_dayTab_data
  X:00AEH         SYMBOL        i
  X:00AFH         SYMBOL        table_ok_len
  X:00B0H         SYMBOL        result
  -------         ENDDO         
  C:7D16H         LINE#         800
  C:7D16H         LINE#         801
  C:7D16H         LINE#         809
  C:7D1EH         LINE#         810
  C:7D1EH         LINE#         811
  C:7D24H         LINE#         812
  C:7D25H         LINE#         813
  C:7D25H         LINE#         816
  C:7D4CH         LINE#         819
BL51 BANKED LINKER/LOCATER V6.22                                                      03/05/2019  13:48:08  PAGE 141


  C:7D51H         LINE#         820
  C:7D5FH         LINE#         821
  C:7D5FH         LINE#         822
  C:7D76H         LINE#         823
  C:7D8EH         LINE#         824
  C:7DA2H         LINE#         825
  C:7DBBH         LINE#         826
  C:7DC1H         LINE#         827
  C:7DC9H         LINE#         829
  C:7DD4H         LINE#         830
  C:7DD4H         LINE#         831
  C:7DD7H         LINE#         832
  C:7DD7H         LINE#         836
  C:7DDDH         LINE#         837
  C:7DE2H         LINE#         838
  C:7DF7H         LINE#         839
  C:7DF7H         LINE#         840
  C:7E11H         LINE#         841
  C:7E2DH         LINE#         842
  C:7E42H         LINE#         845
  C:7E4CH         LINE#         846
  C:7E4CH         LINE#         847
  C:7E4CH         LINE#         848
  C:7E4EH         LINE#         849
  C:7E63H         LINE#         850
  C:7E63H         LINE#         851
  C:7E6DH         LINE#         852
  C:7E6DH         LINE#         853
  C:7E83H         LINE#         854
  C:7E85H         LINE#         856
  C:7E85H         LINE#         857
  C:7E8BH         LINE#         858
  C:7E8BH         LINE#         859
  C:7E8BH         LINE#         860
  C:7E8DH         LINE#         861
  C:7E8DH         LINE#         863
  C:7E8DH         LINE#         864
  C:7E8DH         LINE#         865
  C:7E8DH         LINE#         866
  C:7E8DH         LINE#         867
  C:7E8DH         LINE#         869
  C:7E8DH         LINE#         870
  C:7E93H         LINE#         871
  C:7E93H         LINE#         872
  C:7EA7H         LINE#         873
  C:7EA9H         LINE#         874
  C:7EA9H         LINE#         876
  C:7EA9H         LINE#         877
  C:7EA9H         LINE#         878
  C:7EA9H         LINE#         879
  C:7EA9H         LINE#         880
  C:7EB2H         LINE#         882
  C:7EB7H         LINE#         884
  -------         ENDPROC       _API_GET_TRIFF_NO
  -------         PROC          API_UPDATE_TRIFFNO_PRE_MINUTE
  -------         DO            
  X:0095H         SYMBOL        u8_temp
BL51 BANKED LINKER/LOCATER V6.22                                                      03/05/2019  13:48:08  PAGE 142


  -------         ENDDO         
  C:DE30H         LINE#         899
  C:DE30H         LINE#         900
  C:DE30H         LINE#         907
  C:DE36H         LINE#         909
  C:DE39H         LINE#         910
  C:DE39H         LINE#         912
  C:DE3EH         LINE#         914
  C:DE40H         LINE#         916
  C:DE40H         LINE#         918
  C:DE48H         LINE#         919
  C:DE4BH         LINE#         920
  C:DE4BH         LINE#         921
  C:DE51H         LINE#         922
  C:DE51H         LINE#         923
  C:DE53H         LINE#         925
  C:DE53H         LINE#         926
  C:DE5BH         LINE#         927
  C:DE5BH         LINE#         928
  C:DE68H         LINE#         930
  C:DE68H         LINE#         932
  C:DE75H         LINE#         933
  C:DE7DH         LINE#         934
  C:DE7DH         LINE#         935
  C:DE83H         LINE#         936
  C:DE83H         LINE#         938
  C:DE8BH         LINE#         940
  -------         ENDPROC       API_UPDATE_TRIFFNO_PRE_MINUTE
  -------         ENDMOD        API_TRIFF

  -------         MODULE        API_RELAY
  C:0000H         SYMBOL        _ICE_DUMMY_
  D:00CEH         PUBLIC        wdt0
  D:0090H         PUBLIC        P1
  D:00CFH         PUBLIC        wdt1
  D:00B0H         PUBLIC        P3
  C:CB6CH         PUBLIC        Drv_relay_powerup_check
  D:00A8H         PUBLIC        IE
  D:00B8H         PUBLIC        IP
  C:E326H         PUBLIC        _Drv_relay_COMM_CMD_operating
  D:0098H         PUBLIC        SCON
  D:0088H         PUBLIC        TCON
  D:00F0H         PUBLIC        B
  C:F046H         PUBLIC        Drv_relay_run_check
  D:00E0H         PUBLIC        ACC
  X:077CH         PUBLIC        gs_relay_manage_var
  D:0080H         PUBLIC        SysCtrl
  D:00C8H         PUBLIC        T2CON
  D:00D0H         PUBLIC        PSW
  -------         PROC          DRV_RELAY_RUN_CHECK
  C:F046H         LINE#         52
  C:F046H         LINE#         53
  C:F046H         LINE#         99
  -------         ENDPROC       DRV_RELAY_RUN_CHECK
  -------         PROC          DRV_RELAY_POWERUP_CHECK
  C:CB6CH         LINE#         116
  C:CB6CH         LINE#         117
BL51 BANKED LINKER/LOCATER V6.22                                                      03/05/2019  13:48:08  PAGE 143


  C:CB6CH         LINE#         119
  C:CB78H         LINE#         120
  C:CB83H         LINE#         121
  C:CB8AH         LINE#         124
  C:CB95H         LINE#         125
  C:CB9CH         LINE#         126
  C:CBA7H         LINE#         129
  C:CBBFH         LINE#         130
  C:CBC4H         LINE#         133
  C:CBCEH         LINE#         134
  C:CBCEH         LINE#         135
  C:CBD1H         LINE#         136
  C:CBE8H         LINE#         137
  C:CBE8H         LINE#         138
  C:CBEDH         LINE#         139
  C:CBF3H         LINE#         140
  C:CC01H         LINE#         141
  -------         ENDPROC       DRV_RELAY_POWERUP_CHECK
  -------         PROC          _DRV_RELAY_COMM_CMD_OPERATING
  D:0001H         SYMBOL        ptr_cmd
  -------         DO            
  D:0007H         SYMBOL        u8_cmd
  D:0006H         SYMBOL        u8_sta
  -------         ENDDO         
  C:E326H         LINE#         160
  C:E326H         LINE#         161
  C:E326H         LINE#         164
  C:E32AH         LINE#         165
  C:E331H         LINE#         169
  C:E337H         LINE#         171
  C:E33AH         LINE#         172
  C:E33AH         LINE#         174
  C:E33EH         LINE#         175
  C:E342H         LINE#         176
  C:E343H         LINE#         177
  C:E343H         LINE#         178
  C:E345H         LINE#         179
  C:E349H         LINE#         180
  C:E349H         LINE#         182
  C:E34FH         LINE#         183
  C:E352H         LINE#         184
  C:E354H         LINE#         185
  C:E357H         LINE#         186
  C:E359H         LINE#         188
  C:E359H         LINE#         189
  C:E35CH         LINE#         190
  C:E35CH         LINE#         192
  C:E36AH         LINE#         193
  C:E36CH         LINE#         194
  -------         ENDPROC       _DRV_RELAY_COMM_CMD_OPERATING
  -------         ENDMOD        API_RELAY

  -------         MODULE        API_LCD_DISPLAY
  C:0000H         SYMBOL        _ICE_DUMMY_
  C:4E73H         PUBLIC        _api_get_energy_LCD
  D:0090H         PUBLIC        P1
  C:ECD8H         PUBLIC        Link_Get_Dis_RealChar_buff
BL51 BANKED LINKER/LOCATER V6.22                                                      03/05/2019  13:48:08  PAGE 144


  C:03AEH         PUBLIC        _api_chg_LCDDisplay_adj_item
  D:00B0H         PUBLIC        P3
  C:45EEH         PUBLIC        Link_Get_Dis_Data_Num_buff
  D:00A8H         PUBLIC        IE
  D:00B8H         PUBLIC        IP
  C:DBECH         PUBLIC        default_dis_param_tab
  C:DBFCH         PUBLIC        NumSegD1_D6
  C:6B01H         PUBLIC        Link_Get_Dis_Drv_buff
  C:B518H         PUBLIC        api_updated_LCDDisplayPixel_per_second
  C:DC0CH         PUBLIC        NumSegD7_D9
  C:E95EH         PUBLIC        api_init_display
  X:0558H         PUBLIC        gs_dis_pixel_var
  C:E375H         PUBLIC        api_get_next_dis_item
  C:B36EH         PUBLIC        api_updated_LCDDisplayItem_per_second
  D:0098H         PUBLIC        SCON
  D:0088H         PUBLIC        TCON
  C:A5DAH         PUBLIC        _Link_Get_DisTab_Var
  C:5241H         PUBLIC        Link_Get_Dis_OBIS_Num_buff
  D:00F0H         PUBLIC        B
  C:EB83H         PUBLIC        api_handl_dis_sleep
  D:00E0H         PUBLIC        ACC
  C:F047H         PUBLIC        api_updated_LED_per_second
  X:0570H         PUBLIC        gs_dis_ctl_var
  C:DC1CH         PUBLIC        LcdDisTab
  D:0080H         PUBLIC        SysCtrl
  X:057AH         PUBLIC        dis_data_sec
  X:057BH         PUBLIC        dis_data_type
  D:00C8H         PUBLIC        T2CON
  C:8F02H         PUBLIC        _api_LCDDisplay_adj_item
  X:057CH         PUBLIC        gs_dis_param
  C:E5BDH         PUBLIC        api_handl_dis_key
  X:058CH         PUBLIC        dis_num_char
  X:058DH         PUBLIC        gs_LCDDISTAB_var
  C:B846H         PUBLIC        Link_Get_Dis_Char_buff
  D:00D0H         PUBLIC        PSW
  -------         PROC          API_INIT_DISPLAY
  C:E95EH         LINE#         105
  C:E95EH         LINE#         106
  C:E95EH         LINE#         107
  C:E978H         LINE#         108
  C:E97EH         LINE#         109
  C:E981H         LINE#         110
  C:E984H         LINE#         111
  C:E989H         LINE#         112
  C:E98BH         LINE#         113
  C:E98DH         LINE#         114
  C:E991H         LINE#         115
  -------         ENDPROC       API_INIT_DISPLAY
  -------         PROC          API_HANDL_DIS_KEY
  C:E5BDH         LINE#         130
  C:E5BDH         LINE#         131
  C:E5BDH         LINE#         133
  C:E5CAH         LINE#         134
  C:E5CAH         LINE#         135
  C:E5D0H         LINE#         136
  C:E5EAH         LINE#         138
  C:E5EAH         LINE#         140
BL51 BANKED LINKER/LOCATER V6.22                                                      03/05/2019  13:48:08  PAGE 145


  C:E5F2H         LINE#         141
  C:E5FAH         LINE#         143
  -------         ENDPROC       API_HANDL_DIS_KEY
  -------         PROC          API_HANDL_DIS_SLEEP
  C:EB83H         LINE#         157
  C:EB83H         LINE#         158
  C:EB83H         LINE#         159
  C:EB89H         LINE#         160
  C:EB8EH         LINE#         161
  C:EBA8H         LINE#         162
  -------         ENDPROC       API_HANDL_DIS_SLEEP
  -------         PROC          API_UPDATED_LCDDISPLAYPIXEL_PER_SECOND
  C:B518H         LINE#         179
  C:B518H         LINE#         180
  C:B518H         LINE#         181
  C:B52CH         LINE#         182
  C:B540H         LINE#         183
  C:B554H         LINE#         184
  C:B568H         LINE#         187
  C:B578H         LINE#         188
  C:B578H         LINE#         189
  C:B57BH         LINE#         193
  C:B57BH         LINE#         194
  C:B57DH         LINE#         196
  C:B57DH         LINE#         197
  C:B585H         LINE#         198
  C:B585H         LINE#         199
  C:B588H         LINE#         200
  C:B58BH         LINE#         201
  C:B58EH         LINE#         202
  C:B599H         LINE#         203
  C:B59CH         LINE#         204
  C:B59EH         LINE#         206
  C:B59EH         LINE#         207
  C:B5A7H         LINE#         208
  C:B5A7H         LINE#         209
  C:B5AAH         LINE#         210
  C:B5AAH         LINE#         212
  C:B5B0H         LINE#         213
  C:B5B0H         LINE#         214
  C:B5C3H         LINE#         215
  C:B5C5H         LINE#         217
  C:B5C5H         LINE#         218
  C:B5CDH         LINE#         219
  C:B5D0H         LINE#         221
  C:B5D3H         LINE#         222
  C:B5DEH         LINE#         223
  C:B5E1H         LINE#         224
  C:B5E1H         LINE#         226
  C:B5EAH         LINE#         227
  -------         ENDPROC       API_UPDATED_LCDDISPLAYPIXEL_PER_SECOND
  -------         PROC          API_UPDATED_LED_PER_SECOND
  C:F047H         LINE#         242
  C:F047H         LINE#         243
  C:F047H         LINE#         245
  C:F047H         LINE#         246
  C:F047H         LINE#         248
BL51 BANKED LINKER/LOCATER V6.22                                                      03/05/2019  13:48:08  PAGE 146


  C:F047H         LINE#         250
  C:F047H         LINE#         252
  C:F047H         LINE#         253
  -------         ENDPROC       API_UPDATED_LED_PER_SECOND
  -------         PROC          API_UPDATED_LCDDISPLAYITEM_PER_SECOND
  C:B36EH         LINE#         268
  C:B36EH         LINE#         269
  C:B36EH         LINE#         270
  C:B37CH         LINE#         271
  C:B37CH         LINE#         272
  C:B37CH         LINE#         273
  C:B382H         LINE#         274
  C:B388H         LINE#         275
  C:B388H         LINE#         276
  C:B38EH         LINE#         277
  C:B396H         LINE#         278
  C:B39BH         LINE#         279
  C:B3AAH         LINE#         280
  C:B3AFH         LINE#         281
  C:B3AFH         LINE#         282
  C:B3B0H         LINE#         284
  C:B3B0H         LINE#         285
  C:B3B8H         LINE#         286
  C:B3B8H         LINE#         288
  C:B3B9H         LINE#         289
  C:B3C2H         LINE#         290
  C:B3C2H         LINE#         291
  C:B3C5H         LINE#         292
  C:B3C5H         LINE#         293
  C:B3CCH         LINE#         294
  C:B3CCH         LINE#         295
  C:B3CFH         LINE#         296
  C:B3D1H         LINE#         298
  C:B3D1H         LINE#         299
  C:B3D7H         LINE#         300
  C:B3D7H         LINE#         302
  C:B3D7H         LINE#         303
  C:B3D7H         LINE#         304
  C:B3D9H         LINE#         305
  C:B3E1H         LINE#         306
  C:B3E1H         LINE#         307
  C:B3E2H         LINE#         308
  C:B3EBH         LINE#         309
  C:B3EBH         LINE#         310
  C:B3EEH         LINE#         311
  C:B3EEH         LINE#         312
  C:B3F5H         LINE#         313
  C:B3F5H         LINE#         314
  C:B3F8H         LINE#         315
  C:B3FAH         LINE#         317
  C:B3FAH         LINE#         318
  C:B400H         LINE#         319
  C:B400H         LINE#         321
  C:B400H         LINE#         322
  C:B408H         LINE#         323
  C:B409H         LINE#         325
  C:B409H         LINE#         326
BL51 BANKED LINKER/LOCATER V6.22                                                      03/05/2019  13:48:08  PAGE 147


  C:B416H         LINE#         327
  C:B416H         LINE#         328
  C:B418H         LINE#         329
  C:B419H         LINE#         331
  C:B419H         LINE#         332
  C:B41FH         LINE#         333
  C:B422H         LINE#         334
  C:B422H         LINE#         335
  C:B422H         LINE#         336
  C:B42AH         LINE#         338
  C:B433H         LINE#         339
  C:B433H         LINE#         340
  C:B435H         LINE#         341
  C:B436H         LINE#         343
  C:B436H         LINE#         344
  C:B43CH         LINE#         345
  C:B43CH         LINE#         346
  C:B43CH         LINE#         347
  C:B43CH         LINE#         348
  C:B43CH         LINE#         349
  C:B43DH         LINE#         351
  C:B43DH         LINE#         352
  C:B443H         LINE#         353
  C:B443H         LINE#         355
  C:B443H         LINE#         356
  -------         ENDPROC       API_UPDATED_LCDDISPLAYITEM_PER_SECOND
  -------         PROC          L?0185
  -------         ENDPROC       L?0185
  -------         PROC          API_GET_NEXT_DIS_ITEM
  -------         DO            
  D:0007H         SYMBOL        item
  -------         ENDDO         
  C:E375H         LINE#         370
  C:E375H         LINE#         371
  C:E375H         LINE#         375
  C:E377H         LINE#         376
  C:E37FH         LINE#         377
  C:E37FH         LINE#         378
  C:E385H         LINE#         379
  C:E398H         LINE#         380
  C:E398H         LINE#         381
  C:E39DH         LINE#         382
  C:E39DH         LINE#         384
  C:E3ACH         LINE#         385
  C:E3B1H         LINE#         386
  C:E3B1H         LINE#         387
  C:E3B3H         LINE#         388
  C:E3B3H         LINE#         389
  C:E3B3H         LINE#         390
  C:E3B3H         LINE#         391
  -------         ENDPROC       API_GET_NEXT_DIS_ITEM
  -------         PROC          _LINK_GET_DISTAB_VAR
  D:0007H         SYMBOL        u8_dis_itm
  -------         DO            
  D:0005H         SYMBOL        i
  D:0006H         SYMBOL        u8_result
  -------         ENDDO         
BL51 BANKED LINKER/LOCATER V6.22                                                      03/05/2019  13:48:08  PAGE 148


  C:A5DAH         LINE#         401
  C:A5DAH         LINE#         402
  C:A5DAH         LINE#         404
  C:A5DCH         LINE#         406
  C:A5E2H         LINE#         407
  C:A5E2H         LINE#         408
  C:A5E4H         LINE#         409
  C:A5E4H         LINE#         412
  C:A5E6H         LINE#         413
  C:A5E6H         LINE#         414
  C:A5FCH         LINE#         415
  C:A5FCH         LINE#         416
  C:A601H         LINE#         417
  C:A61DH         LINE#         418
  C:A639H         LINE#         419
  C:A655H         LINE#         420
  C:A669H         LINE#         421
  C:A67DH         LINE#         422
  C:A67DH         LINE#         423
  C:A680H         LINE#         424
  C:A680H         LINE#         425
  C:A689H         LINE#         427
  C:A68CH         LINE#         428
  C:A68CH         LINE#         429
  C:A692H         LINE#         430
  C:A6A3H         LINE#         431
  C:A6B4H         LINE#         432
  C:A6C5H         LINE#         433
  C:A6CEH         LINE#         434
  C:A6CEH         LINE#         435
  C:A6D0H         LINE#         437
  -------         ENDPROC       _LINK_GET_DISTAB_VAR
  -------         PROC          LINK_GET_DIS_OBIS_NUM_BUFF
  -------         DO            
  X:0702H         SYMBOL        u8_len
  X:0703H         SYMBOL        u8_mem_type
  X:0704H         SYMBOL        lib_len
  X:0705H         SYMBOL        u32_tmp
  X:0709H         SYMBOL        buffer
  -------         ENDDO         
  C:5241H         LINE#         448
  C:5241H         LINE#         449
  C:5241H         LINE#         453
  C:524DH         LINE#         455
  C:5255H         LINE#         456
  C:525AH         LINE#         458
  C:5261H         LINE#         459
  C:5261H         LINE#         460
  C:5267H         LINE#         461
  C:5270H         LINE#         462
  C:5273H         LINE#         464
  C:5273H         LINE#         466
  C:5292H         LINE#         467
  C:5292H         LINE#         468
  C:5292H         LINE#         469
  C:52B4H         LINE#         470
  C:52C5H         LINE#         471
BL51 BANKED LINKER/LOCATER V6.22                                                      03/05/2019  13:48:08  PAGE 149


  C:52C8H         LINE#         473
  C:52C8H         LINE#         474
  C:52EAH         LINE#         475
  C:52FBH         LINE#         476
  C:52FBH         LINE#         477
  C:52FEH         LINE#         479
  C:52FEH         LINE#         480
  C:5320H         LINE#         481
  C:5331H         LINE#         482
  C:5331H         LINE#         483
  C:5334H         LINE#         485
  C:5334H         LINE#         486
  C:5356H         LINE#         487
  C:536DH         LINE#         488
  C:5383H         LINE#         489
  C:538AH         LINE#         490
  C:538AH         LINE#         491
  C:53A2H         LINE#         492
  C:53A2H         LINE#         493
  C:53A5H         LINE#         494
  C:53A9H         LINE#         495
  C:53A9H         LINE#         496
  C:53C6H         LINE#         497
  C:53C6H         LINE#         498
  C:53C9H         LINE#         499
  C:53D1H         LINE#         500
  C:53D1H         LINE#         501
  C:53E4H         LINE#         502
  C:53E7H         LINE#         503
  C:53EEH         LINE#         504
  C:53EEH         LINE#         505
  C:5402H         LINE#         506
  C:5404H         LINE#         508
  C:5404H         LINE#         509
  C:5410H         LINE#         510
  C:5410H         LINE#         511
  C:5413H         LINE#         512
  C:5413H         LINE#         513
  C:5435H         LINE#         514
  C:544CH         LINE#         515
  C:5462H         LINE#         516
  C:5469H         LINE#         517
  C:5469H         LINE#         518
  C:5486H         LINE#         519
  C:548DH         LINE#         520
  C:5490H         LINE#         521
  C:5494H         LINE#         522
  C:5494H         LINE#         523
  C:54ADH         LINE#         524
  C:54B4H         LINE#         525
  C:54B6H         LINE#         526
  C:54C0H         LINE#         527
  C:54C0H         LINE#         528
  C:54D4H         LINE#         529
  C:54D6H         LINE#         531
  C:54D6H         LINE#         532
  C:54E8H         LINE#         533
BL51 BANKED LINKER/LOCATER V6.22                                                      03/05/2019  13:48:08  PAGE 150


  C:54E8H         LINE#         534
  C:54EAH         LINE#         537
  C:54EAH         LINE#         538
  C:5510H         LINE#         539
  C:5510H         LINE#         540
  C:5510H         LINE#         548
  C:551AH         LINE#         549
  C:551AH         LINE#         550
  C:551AH         LINE#         551
  C:552BH         LINE#         552
  C:5539H         LINE#         553
  C:5540H         LINE#         554
  C:5542H         LINE#         555
  C:5542H         LINE#         556
  C:5553H         LINE#         557
  C:5561H         LINE#         558
  C:5561H         LINE#         559
  C:5561H         LINE#         560
  C:5561H         LINE#         561
  C:5561H         LINE#         564
  -------         ENDPROC       LINK_GET_DIS_OBIS_NUM_BUFF
  -------         PROC          LINK_GET_DIS_DATA_NUM_BUFF
  -------         DO            
  X:0007H         SYMBOL        buffer
  X:000BH         SYMBOL        temp
  X:0011H         SYMBOL        t
  X:001AH         SYMBOL        rtc_data_tmp
  -------         ENDDO         
  C:45EEH         LINE#         576
  C:45EEH         LINE#         577
  C:45EEH         LINE#         584
  C:45FCH         LINE#         585
  C:45FCH         LINE#         586
  C:4605H         LINE#         588
  C:4615H         LINE#         589
  C:4620H         LINE#         590
  C:4630H         LINE#         591
  C:463BH         LINE#         592
  C:464BH         LINE#         593
  C:4656H         LINE#         594
  C:465CH         LINE#         595
  C:4664H         LINE#         596
  C:4665H         LINE#         598
  C:4665H         LINE#         599
  C:466EH         LINE#         600
  C:466EH         LINE#         602
  C:4686H         LINE#         604
  C:4689H         LINE#         609
  C:469AH         LINE#         610
  C:46A8H         LINE#         611
  C:46B9H         LINE#         612
  C:46C7H         LINE#         613
  C:46D9H         LINE#         614
  C:46E1H         LINE#         615
  C:46E1H         LINE#         616
  C:46EFH         LINE#         617
  C:46EFH         LINE#         620
BL51 BANKED LINKER/LOCATER V6.22                                                      03/05/2019  13:48:08  PAGE 151


  C:46F8H         LINE#         621
  C:4701H         LINE#         622
  C:4701H         LINE#         623
  C:470CH         LINE#         624
  C:470CH         LINE#         627
  C:4725H         LINE#         628
  C:473CH         LINE#         635
  C:474AH         LINE#         636
  C:475BH         LINE#         637
  C:4769H         LINE#         638
  C:477AH         LINE#         639
  C:4788H         LINE#         642
  C:479AH         LINE#         647
  C:47A3H         LINE#         648
  C:47ACH         LINE#         649
  C:47ACH         LINE#         650
  C:47B7H         LINE#         651
  C:47B7H         LINE#         654
  C:47CFH         LINE#         655
  C:47E6H         LINE#         661
  C:47F4H         LINE#         662
  C:4805H         LINE#         663
  C:4813H         LINE#         664
  C:4824H         LINE#         665
  C:4832H         LINE#         668
  C:4844H         LINE#         673
  C:484DH         LINE#         674
  C:4856H         LINE#         675
  C:4856H         LINE#         676
  C:4861H         LINE#         677
  C:4861H         LINE#         680
  C:4879H         LINE#         681
  C:487CH         LINE#         686
  C:488DH         LINE#         687
  C:489BH         LINE#         688
  C:48ACH         LINE#         689
  C:48BAH         LINE#         690
  C:48CCH         LINE#         691
  C:48D4H         LINE#         692
  C:48D4H         LINE#         693
  C:48E2H         LINE#         694
  C:48E2H         LINE#         698
  C:48EBH         LINE#         699
  C:48F4H         LINE#         700
  C:48F4H         LINE#         701
  C:48FFH         LINE#         702
  C:48FFH         LINE#         705
  C:4918H         LINE#         706
  C:492FH         LINE#         712
  C:493DH         LINE#         713
  C:494EH         LINE#         714
  C:495CH         LINE#         715
  C:496DH         LINE#         716
  C:497BH         LINE#         719
  C:498DH         LINE#         724
  C:4996H         LINE#         725
  C:4998H         LINE#         726
BL51 BANKED LINKER/LOCATER V6.22                                                      03/05/2019  13:48:08  PAGE 152


  C:4998H         LINE#         727
  C:49A3H         LINE#         728
  C:49A3H         LINE#         731
  C:49BBH         LINE#         732
  C:49D2H         LINE#         738
  C:49E0H         LINE#         739
  C:49F1H         LINE#         740
  C:49FFH         LINE#         741
  C:4A10H         LINE#         742
  C:4A1EH         LINE#         745
  C:4A2FH         LINE#         750
  C:4A38H         LINE#         751
  C:4A41H         LINE#         752
  C:4A41H         LINE#         753
  C:4A41H         LINE#         754
  -------         ENDPROC       LINK_GET_DIS_DATA_NUM_BUFF
  -------         PROC          LINK_GET_DIS_CHAR_BUFF
  C:B846H         LINE#         763
  C:B846H         LINE#         764
  C:B846H         LINE#         769
  C:B84EH         LINE#         770
  C:B84EH         LINE#         771
  C:B860H         LINE#         772
  C:B860H         LINE#         773
  C:B860H         LINE#         774
  C:B867H         LINE#         775
  C:B869H         LINE#         776
  C:B869H         LINE#         777
  C:B870H         LINE#         778
  C:B872H         LINE#         779
  C:B872H         LINE#         780
  C:B879H         LINE#         781
  C:B87BH         LINE#         782
  C:B87BH         LINE#         783
  C:B882H         LINE#         784
  C:B882H         LINE#         785
  C:B882H         LINE#         786
  C:B882H         LINE#         787
  C:B889H         LINE#         788
  C:B889H         LINE#         789
  C:B890H         LINE#         790
  C:B893H         LINE#         791
  C:B895H         LINE#         793
  C:B895H         LINE#         794
  C:B89EH         LINE#         795
  C:B89EH         LINE#         796
  C:B8A6H         LINE#         797
  C:B8A6H         LINE#         798
  C:B8ADH         LINE#         799
  C:B8ADH         LINE#         800
  C:B8B4H         LINE#         801
  C:B8B6H         LINE#         803
  C:B8B6H         LINE#         808
  C:B8BDH         LINE#         809
  C:B8C2H         LINE#         810
  C:B8C7H         LINE#         811
  C:B8C7H         LINE#         812
BL51 BANKED LINKER/LOCATER V6.22                                                      03/05/2019  13:48:08  PAGE 153


  C:B8C7H         LINE#         813
  C:B8CFH         LINE#         814
  C:B8CFH         LINE#         816
  C:B8CFH         LINE#         817
  C:B8D7H         LINE#         818
  C:B8D7H         LINE#         820
  C:B8D7H         LINE#         824
  C:B8ECH         LINE#         825
  C:B8ECH         LINE#         826
  C:B8ECH         LINE#         827
  C:B8F3H         LINE#         828
  C:B8F4H         LINE#         829
  C:B8F4H         LINE#         830
  C:B8FBH         LINE#         831
  C:B8FCH         LINE#         832
  C:B8FCH         LINE#         833
  C:B903H         LINE#         834
  C:B904H         LINE#         835
  C:B904H         LINE#         836
  C:B90BH         LINE#         837
  C:B90BH         LINE#         838
  C:B90BH         LINE#         839
  C:B90BH         LINE#         840
  C:B90BH         LINE#         843
  -------         ENDPROC       LINK_GET_DIS_CHAR_BUFF
  -------         PROC          LINK_GET_DIS_REALCHAR_BUFF
  C:ECD8H         LINE#         853
  C:ECD8H         LINE#         854
  C:ECD8H         LINE#         856
  C:ECE6H         LINE#         857
  C:ECF0H         LINE#         858
  C:ECF0H         LINE#         859
  C:ECF4H         LINE#         860
  C:ECF5H         LINE#         862
  C:ECF5H         LINE#         863
  C:ECF9H         LINE#         864
  C:ECF9H         LINE#         865
  -------         ENDPROC       LINK_GET_DIS_REALCHAR_BUFF
  -------         PROC          LINK_GET_DIS_DRV_BUFF
  C:6B01H         LINE#         876
  C:6B01H         LINE#         877
  C:6B01H         LINE#         878
  C:6B13H         LINE#         879
  C:6B23H         LINE#         880
  C:6B33H         LINE#         881
  C:6B43H         LINE#         882
  C:6B53H         LINE#         883
  C:6B63H         LINE#         885
  C:6B73H         LINE#         886
  C:6B83H         LINE#         887
  C:6B93H         LINE#         891
  C:6BA6H         LINE#         892
  C:6BB4H         LINE#         893
  C:6BC9H         LINE#         894
  C:6BD7H         LINE#         895
  C:6BE5H         LINE#         896
  C:6BF3H         LINE#         897
BL51 BANKED LINKER/LOCATER V6.22                                                      03/05/2019  13:48:08  PAGE 154


  C:6C01H         LINE#         899
  C:6C12H         LINE#         900
  C:6C20H         LINE#         901
  C:6C2EH         LINE#         902
  C:6C3CH         LINE#         903
  C:6C4AH         LINE#         904
  C:6C58H         LINE#         906
  C:6C66H         LINE#         907
  C:6C74H         LINE#         909
  C:6C82H         LINE#         910
  C:6C89H         LINE#         911
  C:6C89H         LINE#         912
  C:6C90H         LINE#         913
  C:6C93H         LINE#         914
  C:6C98H         LINE#         915
  C:6C9BH         LINE#         916
  C:6C9BH         LINE#         917
  C:6CACH         LINE#         918
  C:6CB3H         LINE#         919
  C:6CB3H         LINE#         920
  C:6CBAH         LINE#         921
  C:6CC1H         LINE#         922
  C:6CC4H         LINE#         923
  C:6CC4H         LINE#         924
  C:6CD2H         LINE#         925
  C:6CE0H         LINE#         926
  C:6CEEH         LINE#         927
  C:6CFCH         LINE#         929
  -------         ENDPROC       LINK_GET_DIS_DRV_BUFF
  -------         PROC          L?0184
  -------         ENDPROC       L?0184
  -------         PROC          _API_GET_ENERGY_LCD
  X:00E8H         SYMBOL        temp
  X:00EBH         SYMBOL        type
  X:00ECH         SYMBOL        result
  -------         DO            
  X:00EFH         SYMBOL        u32_result
  X:00F3H         SYMBOL        BCD_temp
  X:00F7H         SYMBOL        ec_tmp
  -------         ENDDO         
  C:4E73H         LINE#         944
  C:4E81H         LINE#         945
  C:4E81H         LINE#         951
  C:4EA6H         LINE#         953
  C:4EB0H         LINE#         955
  C:4EB7H         LINE#         956
  C:4EB7H         LINE#         957
  C:4EF5H         LINE#         958
  C:4F0CH         LINE#         959
  C:4F0CH         LINE#         961
  C:4F17H         LINE#         962
  C:4F17H         LINE#         964
  C:4F54H         LINE#         965
  C:4F6BH         LINE#         966
  C:4F73H         LINE#         967
  C:4F7BH         LINE#         968
  C:4F83H         LINE#         971
BL51 BANKED LINKER/LOCATER V6.22                                                      03/05/2019  13:48:08  PAGE 155


  C:4F9AH         LINE#         972
  C:4FA9H         LINE#         974
  C:4FA9H         LINE#         975
  C:4FB0H         LINE#         976
  C:4FB0H         LINE#         977
  C:4FEEH         LINE#         978
  C:5005H         LINE#         979
  C:5005H         LINE#         981
  C:5010H         LINE#         982
  C:5010H         LINE#         984
  C:504DH         LINE#         985
  C:5064H         LINE#         986
  C:506CH         LINE#         987
  C:5074H         LINE#         988
  C:507CH         LINE#         991
  C:5093H         LINE#         992
  C:50A2H         LINE#         994
  C:50A2H         LINE#         995
  C:50ADH         LINE#         996
  C:50ADH         LINE#         998
  C:50EAH         LINE#         999
  C:5101H         LINE#         1000
  C:5106H         LINE#         1001
  C:511CH         LINE#         1002
  C:5132H         LINE#         1003
  C:5145H         LINE#         1006
  C:515CH         LINE#         1007
  C:517BH         LINE#         1008
  C:517BH         LINE#         1009
  C:5186H         LINE#         1010
  C:5186H         LINE#         1012
  C:51C3H         LINE#         1013
  C:51DAH         LINE#         1014
  C:51DFH         LINE#         1015
  C:51F5H         LINE#         1016
  C:520BH         LINE#         1017
  C:521EH         LINE#         1018
  C:521EH         LINE#         1020
  -------         ENDPROC       _API_GET_ENERGY_LCD
  -------         PROC          _API_CHG_LCDDISPLAY_ADJ_ITEM
  D:0007H         SYMBOL        u8_item
  C:03AEH         LINE#         1037
  C:03AEH         LINE#         1038
  C:03AEH         LINE#         1039
  C:03BAH         LINE#         1040
  C:03BAH         LINE#         1042
  C:03C0H         LINE#         1043
  C:03C7H         LINE#         1044
  C:03C7H         LINE#         1045
  C:03CAH         LINE#         1046
  C:03CCH         LINE#         1048
  C:03CCH         LINE#         1049
  C:03CFH         LINE#         1050
  C:03CFH         LINE#         1052
  C:03D4H         LINE#         1053
  C:03D9H         LINE#         1054
  C:03DBH         LINE#         1056
BL51 BANKED LINKER/LOCATER V6.22                                                      03/05/2019  13:48:08  PAGE 156


  C:03DBH         LINE#         1058
  C:03E1H         LINE#         1059
  C:03E9H         LINE#         1060
  C:03EEH         LINE#         1061
  C:03FDH         LINE#         1062
  C:03FDH         LINE#         1064
  -------         ENDPROC       _API_CHG_LCDDISPLAY_ADJ_ITEM
  -------         PROC          _API_LCDDISPLAY_ADJ_ITEM
  X:0007H         SYMBOL        u8_item
  -------         DO            
  X:0008H         SYMBOL        adr
  -------         ENDDO         
  C:8F02H         LINE#         1079
  C:8F07H         LINE#         1080
  C:8F07H         LINE#         1082
  C:8F14H         LINE#         1083
  C:8F14H         LINE#         1085
  C:8F14H         LINE#         1087
  C:8F28H         LINE#         1088
  C:8F3CH         LINE#         1089
  C:8F50H         LINE#         1092
  C:8F67H         LINE#         1093
  C:8F67H         LINE#         1094
  C:8F67H         LINE#         1095
  C:8F67H         LINE#         1096
  C:8F67H         LINE#         1097
  C:8F67H         LINE#         1098
  C:8F70H         LINE#         1099
  C:8F74H         LINE#         1100
  C:8F7DH         LINE#         1101
  C:8F81H         LINE#         1102
  C:8F87H         LINE#         1103
  C:8F89H         LINE#         1105
  C:8F89H         LINE#         1106
  C:8F89H         LINE#         1107
  C:8F89H         LINE#         1108
  C:8F89H         LINE#         1109
  C:8F92H         LINE#         1110
  C:8F96H         LINE#         1111
  C:8F9FH         LINE#         1112
  C:8FA3H         LINE#         1113
  C:8FB1H         LINE#         1114
  C:8FB2H         LINE#         1116
  C:8FB2H         LINE#         1117
  C:8FBBH         LINE#         1118
  C:8FBFH         LINE#         1119
  C:8FC3H         LINE#         1120
  C:8FC4H         LINE#         1122
  C:8FC4H         LINE#         1123
  C:8FDEH         LINE#         1124
  C:8FECH         LINE#         1125
  C:8FFEH         LINE#         1126
  C:9009H         LINE#         1127
  C:901BH         LINE#         1128
  C:9026H         LINE#         1129
  C:9038H         LINE#         1130
  C:9043H         LINE#         1131
BL51 BANKED LINKER/LOCATER V6.22                                                      03/05/2019  13:48:08  PAGE 157


  C:9055H         LINE#         1132
  C:9060H         LINE#         1133
  C:9061H         LINE#         1134
  C:9061H         LINE#         1135
  C:9064H         LINE#         1136
  C:9064H         LINE#         1137
  C:9064H         LINE#         1139
  -------         ENDPROC       _API_LCDDISPLAY_ADJ_ITEM
  -------         ENDMOD        API_LCD_DISPLAY

  -------         MODULE        API_USER_COMM
  C:0000H         SYMBOL        _ICE_DUMMY_
  C:0600H         PUBLIC        _IEC_Cmd_Read_Deal
  C:A0D4H         PUBLIC        _api_handl_COMM_pre_10ms
  D:00CEH         PUBLIC        wdt0
  D:0090H         PUBLIC        P1
  D:00CFH         PUBLIC        wdt1
  D:00B0H         PUBLIC        P3
  B:00A8H.7       PUBLIC        EA
  X:04C7H         PUBLIC        P_IEC_BUFF
  C:25FFH         PUBLIC        IEC_ComDisTab
  D:00A8H         PUBLIC        IE
  C:1D1DH         PUBLIC        _IEC_Cmd_Write_Deal
  D:00B8H         PUBLIC        IP
  C:B1BEH         PUBLIC        _lnk_tx_comm_ready
  C:E500H         PUBLIC        RF_comm_deal
  X:04CAH         PUBLIC        g_ch_comm
  X:04CBH         PUBLIC        meter_info_IR
  X:04DBH         PUBLIC        comm_data
  X:04E7H         PUBLIC        Super_mima_iec
  C:868CH         PUBLIC        _get_IEC_comm_var
  X:04EFH         PUBLIC        meter_info
  D:0098H         PUBLIC        SCON
  X:04FFH         PUBLIC        mima_info
  D:0088H         PUBLIC        TCON
  X:0509H         PUBLIC        clr_flag
  D:00F0H         PUBLIC        B
  D:00E0H         PUBLIC        ACC
  C:E5FBH         PUBLIC        _get_meter_id_asclen
  D:0080H         PUBLIC        SysCtrl
  C:A9A5H         PUBLIC        _IEC_Cmd_Password_Deal
  X:050AH         PUBLIC        gs_uart_iec_app_var
  C:4196H         PUBLIC        _process_iec62056_21
  D:00C8H         PUBLIC        T2CON
  C:EA57H         PUBLIC        _IEC_Cmd_Break_Deal
  C:EFD0H         PUBLIC        SecurityCK
  C:D90EH         PUBLIC        _api_handl_COMM_FRAME_ERROR
  D:00D0H         PUBLIC        PSW
  -------         PROC          _GET_METER_ID_ASCLEN
  X:00E8H         SYMBOL        Addr
  D:0005H         SYMBOL        numbyte
  -------         DO            
  D:0006H         SYMBOL        i
  D:0007H         SYMBOL        asclen
  -------         ENDDO         
  C:E5FBH         LINE#         323
  C:E606H         LINE#         324
BL51 BANKED LINKER/LOCATER V6.22                                                      03/05/2019  13:48:08  PAGE 158


  C:E606H         LINE#         326
  C:E608H         LINE#         327
  C:E60EH         LINE#         328
  C:E60EH         LINE#         329
  C:E629H         LINE#         330
  C:E629H         LINE#         331
  C:E62AH         LINE#         332
  C:E62AH         LINE#         333
  C:E62BH         LINE#         334
  C:E632H         LINE#         335
  C:E632H         LINE#         336
  C:E633H         LINE#         337
  C:E633H         LINE#         338
  C:E634H         LINE#         339
  C:E637H         LINE#         340
  C:E637H         LINE#         341
  -------         ENDPROC       _GET_METER_ID_ASCLEN
  -------         PROC          L?0232
  -------         ENDPROC       L?0232
  -------         PROC          _GET_IEC_COMM_VAR
  X:00E8H         SYMBOL        id
  -------         DO            
  X:00ECH         SYMBOL        i
  -------         ENDDO         
  C:868CH         LINE#         352
  C:8692H         LINE#         353
  C:8692H         LINE#         356
  C:86C5H         LINE#         357
  C:86C5H         LINE#         358
  C:86C5H         LINE#         359
  C:86C5H         LINE#         360
  C:86C5H         LINE#         361
  C:86C5H         LINE#         362
  C:86C7H         LINE#         363
  C:86C7H         LINE#         364
  C:86FAH         LINE#         365
  C:86FAH         LINE#         366
  C:8703H         LINE#         367
  C:870CH         LINE#         368
  C:8710H         LINE#         369
  C:8711H         LINE#         370
  C:8714H         LINE#         371
  C:8714H         LINE#         372
  C:872EH         LINE#         373
  C:872EH         LINE#         374
  C:875BH         LINE#         375
  C:875BH         LINE#         376
  C:878AH         LINE#         377
  C:87ABH         LINE#         378
  C:87C9H         LINE#         379
  C:87E2H         LINE#         380
  C:87E5H         LINE#         381
  C:87E5H         LINE#         382
  C:87F6H         LINE#         383
  C:87F8H         LINE#         496
  -------         ENDPROC       _GET_IEC_COMM_VAR
  -------         PROC          SECURITYCK
BL51 BANKED LINKER/LOCATER V6.22                                                      03/05/2019  13:48:08  PAGE 159


  -------         DO            
  X:0095H         SYMBOL        secType
  -------         ENDDO         
  C:EFD0H         LINE#         506
  C:EFD0H         LINE#         507
  C:EFD0H         LINE#         509
  C:EFDAH         LINE#         519
  C:EFDCH         LINE#         520
  -------         ENDPROC       SECURITYCK
  -------         PROC          _IEC_CMD_PASSWORD_DEAL
  X:0045H         SYMBOL        sptr
  -------         DO            
  X:0048H         SYMBOL        tmp_8u_01
  X:004CH         SYMBOL        tmp_8u_02
  -------         ENDDO         
  C:A9A5H         LINE#         529
  C:A9B0H         LINE#         530
  C:A9B0H         LINE#         534
  C:A9CBH         LINE#         536
  C:A9E5H         LINE#         537
  C:AA00H         LINE#         540
  C:AA28H         LINE#         541
  C:AA28H         LINE#         542
  C:AA28H         LINE#         543
  C:AA28H         LINE#         544
  C:AA28H         LINE#         545
  C:AA2AH         LINE#         546
  C:AA2AH         LINE#         548
  C:AA2AH         LINE#         549
  C:AA52H         LINE#         550
  C:AA52H         LINE#         551
  C:AA67H         LINE#         552
  C:AA75H         LINE#         553
  C:AA89H         LINE#         554
  C:AA8BH         LINE#         555
  C:AA8BH         LINE#         556
  C:AA8BH         LINE#         557
  C:AA92H         LINE#         558
  C:AA94H         LINE#         559
  -------         ENDPROC       _IEC_CMD_PASSWORD_DEAL
  -------         PROC          _IEC_CMD_READ_DEAL
  X:0045H         SYMBOL        sptr
  -------         DO            
  X:0048H         SYMBOL        i
  D:0007H         SYMBOL        j
  X:0049H         SYMBOL        mem_type
  X:004AH         SYMBOL        data_buff
  X:00CAH         SYMBOL        ptr_adr
  D:0006H         SYMBOL        ctmp1
  X:00CDH         SYMBOL        long_tmp
  X:00D1H         SYMBOL        LPRecStart
  X:00D3H         SYMBOL        LPRecEnd
  X:00D5H         SYMBOL        t
  X:00DFH         SYMBOL        te
  -------         ENDDO         
  C:0600H         LINE#         569
  C:060BH         LINE#         570
BL51 BANKED LINKER/LOCATER V6.22                                                      03/05/2019  13:48:08  PAGE 160


  C:060BH         LINE#         581
  C:0626H         LINE#         583
  C:064EH         LINE#         586
  C:0656H         LINE#         587
  C:0660H         LINE#         589
  C:066DH         LINE#         591
  C:068FH         LINE#         593
  C:06A4H         LINE#         597
  C:06DDH         LINE#         598
  C:06DDH         LINE#         599
  C:06EDH         LINE#         600
  C:06FAH         LINE#         601
  C:06FAH         LINE#         602
  C:0716H         LINE#         603
  C:071AH         LINE#         604
  C:071CH         LINE#         606
  C:071CH         LINE#         610
  C:0721H         LINE#         611
  C:0721H         LINE#         616
  C:073BH         LINE#         617
  C:074BH         LINE#         618
  C:075EH         LINE#         619
  C:0783H         LINE#         620
  C:07B2H         LINE#         621
  C:07C0H         LINE#         623
  C:07C3H         LINE#         624
  C:07C3H         LINE#         627
  C:07FCH         LINE#         628
  C:07FCH         LINE#         629
  C:0829H         LINE#         630
  C:083DH         LINE#         632
  C:0843H         LINE#         633
  C:0843H         LINE#         634
  C:0852H         LINE#         635
  C:0861H         LINE#         636
  C:0861H         LINE#         638
  C:0890H         LINE#         641
  C:0898H         LINE#         643
  C:08B2H         LINE#         644
  C:08C0H         LINE#         645
  C:08D0H         LINE#         646
  C:08F1H         LINE#         647
  C:0908H         LINE#         648
  C:0945H         LINE#         649
  C:0997H         LINE#         650
  C:09A5H         LINE#         651
  C:09A8H         LINE#         653
  C:09A8H         LINE#         656
  C:0A2FH         LINE#         657
  C:0A2FH         LINE#         658
  C:0A2FH         LINE#         659
  C:0A2FH         LINE#         660
  C:0A46H         LINE#         661
  C:0A53H         LINE#         662
  C:0A53H         LINE#         663
  C:0A55H         LINE#         665
  C:0A55H         LINE#         666
BL51 BANKED LINKER/LOCATER V6.22                                                      03/05/2019  13:48:08  PAGE 161


  C:0A55H         LINE#         667
  C:0A5EH         LINE#         668
  C:0A5EH         LINE#         669
  C:0A5EH         LINE#         670
  C:0A60H         LINE#         672
  C:0A60H         LINE#         673
  C:0A69H         LINE#         674
  C:0A69H         LINE#         675
  C:0A69H         LINE#         676
  C:0A6BH         LINE#         678
  C:0A6BH         LINE#         679
  C:0A6BH         LINE#         680
  C:0A74H         LINE#         681
  C:0A74H         LINE#         682
  C:0A74H         LINE#         683
  C:0A76H         LINE#         685
  C:0A76H         LINE#         686
  C:0A8DH         LINE#         687
  C:0AA1H         LINE#         688
  C:0AA1H         LINE#         689
  C:0AA3H         LINE#         691
  C:0AA3H         LINE#         692
  C:0AA3H         LINE#         693
  C:0AB4H         LINE#         694
  C:0AC8H         LINE#         695
  C:0AC8H         LINE#         696
  C:0ACAH         LINE#         698
  C:0ACAH         LINE#         699
  C:0ADBH         LINE#         700
  C:0AF9H         LINE#         701
  C:0AF9H         LINE#         702
  C:0AFBH         LINE#         704
  C:0AFBH         LINE#         705
  C:0B26H         LINE#         706
  C:0B2EH         LINE#         707
  C:0B36H         LINE#         708
  C:0B3EH         LINE#         709
  C:0B46H         LINE#         710
  C:0B4EH         LINE#         711
  C:0B51H         LINE#         712
  C:0B54H         LINE#         713
  C:0B57H         LINE#         714
  C:0B7CH         LINE#         715
  C:0B7FH         LINE#         717
  C:0B7FH         LINE#         718
  C:0BA6H         LINE#         719
  C:0BB6H         LINE#         720
  C:0BBEH         LINE#         721
  C:0BDEH         LINE#         722
  C:0BE1H         LINE#         724
  C:0BE1H         LINE#         725
  C:0C1EH         LINE#         726
  C:0C21H         LINE#         728
  C:0C21H         LINE#         730
  C:0C3AH         LINE#         731
  C:0C53H         LINE#         732
  C:0C78H         LINE#         734
BL51 BANKED LINKER/LOCATER V6.22                                                      03/05/2019  13:48:08  PAGE 162


  C:0C90H         LINE#         735
  C:0CB5H         LINE#         736
  C:0CD3H         LINE#         737
  C:0CF4H         LINE#         738
  C:0CF7H         LINE#         740
  C:0CF7H         LINE#         741
  C:0CF7H         LINE#         742
  C:0CF7H         LINE#         743
  C:0CF7H         LINE#         744
  C:0CFFH         LINE#         745
  C:0D23H         LINE#         746
  C:0D3CH         LINE#         747
  C:0D61H         LINE#         749
  C:0D89H         LINE#         750
  C:0DA6H         LINE#         751
  C:0DC4H         LINE#         752
  C:0DF4H         LINE#         753
  C:0E22H         LINE#         754
  C:0E3EH         LINE#         755
  C:0E40H         LINE#         756
  C:0E40H         LINE#         757
  C:0E51H         LINE#         758
  C:0E51H         LINE#         759
  C:0E68H         LINE#         760
  C:0E68H         LINE#         761
  C:0E6DH         LINE#         762
  C:0E92H         LINE#         765
  C:0EBAH         LINE#         766
  C:0ED7H         LINE#         767
  C:0EF5H         LINE#         768
  C:0F25H         LINE#         769
  C:0F53H         LINE#         770
  C:0F6FH         LINE#         771
  C:0F71H         LINE#         772
  C:0F71H         LINE#         773
  C:0F82H         LINE#         774
  C:0F82H         LINE#         775
  C:0F99H         LINE#         776
  C:0F99H         LINE#         777
  C:0F9EH         LINE#         778
  C:0FC3H         LINE#         780
  C:0FCBH         LINE#         781
  C:0FD3H         LINE#         782
  C:0FDBH         LINE#         783
  C:0FE3H         LINE#         784
  C:0FEBH         LINE#         785
  C:1010H         LINE#         786
  C:1019H         LINE#         787
  C:1019H         LINE#         788
  C:1026H         LINE#         789
  C:1026H         LINE#         790
  C:1050H         LINE#         791
  C:1053H         LINE#         793
  C:1053H         LINE#         795
  C:1059H         LINE#         796
  C:1059H         LINE#         797
  C:105FH         LINE#         798
BL51 BANKED LINKER/LOCATER V6.22                                                      03/05/2019  13:48:08  PAGE 163


  C:105FH         LINE#         801
  C:1069H         LINE#         802
  C:1069H         LINE#         803
  C:1096H         LINE#         804
  C:1099H         LINE#         805
  C:10A3H         LINE#         806
  C:10A3H         LINE#         807
  C:10CCH         LINE#         808
  C:10F7H         LINE#         809
  C:10F9H         LINE#         812
  C:10F9H         LINE#         813
  C:1100H         LINE#         814
  C:1100H         LINE#         815
  C:112BH         LINE#         816
  C:112DH         LINE#         818
  C:112DH         LINE#         819
  C:1154H         LINE#         820
  C:1154H         LINE#         821
  C:1154H         LINE#         823
  C:115AH         LINE#         824
  C:115AH         LINE#         825
  C:1177H         LINE#         826
  C:1190H         LINE#         827
  C:1196H         LINE#         828
  C:1196H         LINE#         832
  C:119DH         LINE#         833
  C:119DH         LINE#         834
  C:11BBH         LINE#         835
  C:11D2H         LINE#         836
  C:11D2H         LINE#         843
  C:11DAH         LINE#         844
  C:11DAH         LINE#         845
  C:11F6H         LINE#         846
  C:120EH         LINE#         847
  C:1210H         LINE#         849
  C:1210H         LINE#         850
  C:1239H         LINE#         851
  C:1239H         LINE#         852
  C:1239H         LINE#         853
  C:1239H         LINE#         856
  C:1253H         LINE#         857
  C:1263H         LINE#         858
  C:1276H         LINE#         859
  C:128DH         LINE#         860
  C:12BCH         LINE#         861
  C:130EH         LINE#         863
  C:1310H         LINE#         864
  -------         ENDPROC       _IEC_CMD_READ_DEAL
  -------         PROC          _IEC_CMD_WRITE_DEAL
  X:0045H         SYMBOL        sptr
  X:0048H         SYMBOL        len
  -------         DO            
  X:0049H         SYMBOL        mem_type
  X:004AH         SYMBOL        data_buff
  D:0007H         SYMBOL        sectemp
  X:0090H         SYMBOL        i
  X:0091H         SYMBOL        MeterID_LenTmp
BL51 BANKED LINKER/LOCATER V6.22                                                      03/05/2019  13:48:08  PAGE 164


  X:0092H         SYMBOL        ptr_adr
  -------         ENDDO         
  C:1D1DH         LINE#         874
  C:1D2BH         LINE#         875
  C:1D2BH         LINE#         883
  C:1D46H         LINE#         885
  C:1D6EH         LINE#         887
  C:1D76H         LINE#         889
  C:1D80H         LINE#         891
  C:1D8EH         LINE#         892
  C:1D91H         LINE#         893
  C:1D98H         LINE#         896
  C:1DB0H         LINE#         897
  C:1DCCH         LINE#         898
  C:1DCCH         LINE#         899
  C:1DECH         LINE#         900
  C:1DEFH         LINE#         901
  C:1DEFH         LINE#         903
  C:1DEFH         LINE#         904
  C:1E03H         LINE#         905
  C:1E06H         LINE#         906
  C:1E06H         LINE#         908
  C:1E1BH         LINE#         911
  C:1EA2H         LINE#         912
  C:1EA2H         LINE#         914
  C:1EA2H         LINE#         915
  C:1ECEH         LINE#         916
  C:1ED6H         LINE#         917
  C:1EDEH         LINE#         918
  C:1EE6H         LINE#         919
  C:1EEEH         LINE#         920
  C:1EF6H         LINE#         921
  C:1EFEH         LINE#         922
  C:1F06H         LINE#         923
  C:1F08H         LINE#         924
  C:1F11H         LINE#         925
  C:1F13H         LINE#         926
  C:1F2DH         LINE#         927
  C:1F34H         LINE#         928
  C:1F37H         LINE#         930
  C:1F3AH         LINE#         932
  C:1F3DH         LINE#         936
  C:1F3DH         LINE#         937
  C:1F48H         LINE#         938
  C:1F4BH         LINE#         939
  C:1F4BH         LINE#         940
  C:1F59H         LINE#         941
  C:1F59H         LINE#         942
  C:1F89H         LINE#         943
  C:1F91H         LINE#         944
  C:1FA4H         LINE#         945
  C:1FAEH         LINE#         946
  C:1FAEH         LINE#         947
  C:1FB6H         LINE#         948
  C:1FCAH         LINE#         949
  C:1FF6H         LINE#         950
  C:1FF6H         LINE#         951
BL51 BANKED LINKER/LOCATER V6.22                                                      03/05/2019  13:48:08  PAGE 165


  C:1FF9H         LINE#         954
  C:1FF9H         LINE#         955
  C:2025H         LINE#         956
  C:203BH         LINE#         957
  C:203BH         LINE#         958
  C:203EH         LINE#         959
  C:203EH         LINE#         960
  C:203EH         LINE#         961
  C:2041H         LINE#         970
  C:2041H         LINE#         971
  C:206DH         LINE#         972
  C:208AH         LINE#         973
  C:208AH         LINE#         974
  C:208DH         LINE#         975
  C:208DH         LINE#         976
  C:20B4H         LINE#         977
  C:20B7H         LINE#         978
  C:20BAH         LINE#         982
  C:20BAH         LINE#         983
  C:20BAH         LINE#         984
  C:20BAH         LINE#         985
  C:20BAH         LINE#         986
  C:20BAH         LINE#         987
  C:20BAH         LINE#         988
  C:20C8H         LINE#         989
  C:20CBH         LINE#         991
  C:20CBH         LINE#         992
  C:20F7H         LINE#         993
  C:20F7H         LINE#         994
  C:2101H         LINE#         995
  C:2101H         LINE#         998
  C:210BH         LINE#         1005
  C:2119H         LINE#         1006
  C:2119H         LINE#         1007
  C:211DH         LINE#         1008
  C:211DH         LINE#         1009
  C:2127H         LINE#         1010
  C:2131H         LINE#         1011
  C:213BH         LINE#         1012
  C:2145H         LINE#         1013
  C:214FH         LINE#         1014
  C:215DH         LINE#         1015
  C:215DH         LINE#         1016
  C:2160H         LINE#         1017
  C:2160H         LINE#         1018
  C:2163H         LINE#         1020
  C:2163H         LINE#         1021
  C:2166H         LINE#         1022
  C:2166H         LINE#         1023
  C:2166H         LINE#         1025
  C:2166H         LINE#         1026
  C:2197H         LINE#         1027
  C:2197H         LINE#         1029
  C:219DH         LINE#         1030
  C:21B5H         LINE#         1031
  C:21B5H         LINE#         1032
  C:21B7H         LINE#         1033
BL51 BANKED LINKER/LOCATER V6.22                                                      03/05/2019  13:48:08  PAGE 166


  C:21E8H         LINE#         1034
  C:21E8H         LINE#         1036
  C:21EDH         LINE#         1037
  C:2204H         LINE#         1038
  C:2207H         LINE#         1039
  C:220AH         LINE#         1041
  C:220AH         LINE#         1042
  C:220DH         LINE#         1043
  C:220DH         LINE#         1044
  C:220DH         LINE#         1046
  C:220DH         LINE#         1047
  C:222AH         LINE#         1048
  C:222AH         LINE#         1049
  C:222DH         LINE#         1050
  C:222DH         LINE#         1051
  C:222FH         LINE#         1053
  C:222FH         LINE#         1054
  C:2232H         LINE#         1055
  C:2232H         LINE#         1056
  C:2232H         LINE#         1058
  C:2232H         LINE#         1059
  C:225EH         LINE#         1060
  C:2267H         LINE#         1061
  C:226AH         LINE#         1062
  C:2271H         LINE#         1063
  C:2271H         LINE#         1064
  C:2273H         LINE#         1066
  C:2273H         LINE#         1069
  C:2290H         LINE#         1070
  C:2290H         LINE#         1071
  C:2293H         LINE#         1072
  C:22A1H         LINE#         1073
  C:22A4H         LINE#         1075
  C:22A4H         LINE#         1076
  C:22A7H         LINE#         1077
  C:22A7H         LINE#         1078
  C:22A7H         LINE#         1081
  C:22A7H         LINE#         1082
  C:22D3H         LINE#         1083
  C:22E8H         LINE#         1084
  C:22F6H         LINE#         1085
  C:22FCH         LINE#         1086
  C:22FFH         LINE#         1088
  C:22FFH         LINE#         1089
  C:232BH         LINE#         1090
  C:2333H         LINE#         1091
  C:2336H         LINE#         1092
  C:2339H         LINE#         1094
  C:2339H         LINE#         1095
  C:2365H         LINE#         1096
  C:2373H         LINE#         1097
  C:239AH         LINE#         1098
  C:23A8H         LINE#         1099
  C:23A8H         LINE#         1100
  C:23A8H         LINE#         1101
  C:23A9H         LINE#         1102
  C:23ABH         LINE#         1103
BL51 BANKED LINKER/LOCATER V6.22                                                      03/05/2019  13:48:08  PAGE 167


  C:23ABH         LINE#         1104
  C:23ABH         LINE#         1107
  C:23ABH         LINE#         1108
  C:23DBH         LINE#         1109
  C:23DBH         LINE#         1110
  C:23E0H         LINE#         1112
  C:23E3H         LINE#         1114
  C:23E3H         LINE#         1115
  C:23E3H         LINE#         1116
  C:23E4H         LINE#         1117
  C:23E6H         LINE#         1118
  C:23E6H         LINE#         1119
  C:23E6H         LINE#         1120
  C:2416H         LINE#         1121
  C:2416H         LINE#         1122
  C:241BH         LINE#         1123
  C:241BH         LINE#         1124
  C:241BH         LINE#         1125
  C:241CH         LINE#         1126
  C:241EH         LINE#         1127
  C:241EH         LINE#         1128
  C:241EH         LINE#         1130
  C:241EH         LINE#         1131
  C:2421H         LINE#         1132
  C:2421H         LINE#         1133
  C:2421H         LINE#         1135
  C:2421H         LINE#         1136
  C:244DH         LINE#         1138
  C:2457H         LINE#         1139
  C:2457H         LINE#         1140
  C:247BH         LINE#         1141
  C:247DH         LINE#         1143
  C:247DH         LINE#         1144
  C:24A1H         LINE#         1145
  C:24A1H         LINE#         1147
  C:24A1H         LINE#         1149
  C:24A1H         LINE#         1153
  C:2506H         LINE#         1155
  C:2506H         LINE#         1157
  C:2509H         LINE#         1158
  C:2509H         LINE#         1162
  C:2525H         LINE#         1163
  C:2525H         LINE#         1164
  C:253CH         LINE#         1165
  C:253CH         LINE#         1167
  C:2558H         LINE#         1168
  C:2558H         LINE#         1169
  C:256FH         LINE#         1170
  C:256FH         LINE#         1172
  C:25B9H         LINE#         1173
  C:25B9H         LINE#         1174
  C:25D3H         LINE#         1175
  C:25D3H         LINE#         1177
  C:25DAH         LINE#         1178
  C:25EEH         LINE#         1179
  C:25FCH         LINE#         1180
  C:25FEH         LINE#         1181
BL51 BANKED LINKER/LOCATER V6.22                                                      03/05/2019  13:48:08  PAGE 168


  -------         ENDPROC       _IEC_CMD_WRITE_DEAL
  -------         PROC          _IEC_CMD_BREAK_DEAL
  D:0001H         SYMBOL        sptr
  C:EA57H         LINE#         1191
  C:EA57H         LINE#         1192
  C:EA57H         LINE#         1194
  C:EA6DH         LINE#         1195
  C:EA7EH         LINE#         1196
  C:EA81H         LINE#         1197
  C:EA83H         LINE#         1198
  -------         ENDPROC       _IEC_CMD_BREAK_DEAL
  -------         PROC          _LNK_TX_COMM_READY
  X:0002H         SYMBOL        ch
  X:0003H         SYMBOL        start_index
  -------         DO            
  X:0004H         SYMBOL        u16_badu
  -------         ENDDO         
  C:B1BEH         LINE#         1212
  C:B1C8H         LINE#         1213
  C:B1C8H         LINE#         1216
  C:B1E8H         LINE#         1217
  C:B1E8H         LINE#         1218
  C:B1E8H         LINE#         1219
  C:B1E8H         LINE#         1220
  C:B1EAH         LINE#         1221
  C:B1EAH         LINE#         1222
  C:B1F4H         LINE#         1223
  C:B1F6H         LINE#         1224
  C:B1F6H         LINE#         1225
  C:B200H         LINE#         1226
  C:B202H         LINE#         1227
  C:B202H         LINE#         1228
  C:B20CH         LINE#         1229
  C:B20EH         LINE#         1230
  C:B20EH         LINE#         1231
  C:B218H         LINE#         1232
  C:B21AH         LINE#         1233
  C:B21AH         LINE#         1234
  C:B224H         LINE#         1235
  C:B226H         LINE#         1237
  C:B230H         LINE#         1239
  C:B230H         LINE#         1240
  C:B230H         LINE#         1242
  C:B252H         LINE#         1244
  -------         ENDPROC       _LNK_TX_COMM_READY
  -------         PROC          _API_HANDL_COMM_FRAME_ERROR
  X:0038H         SYMBOL        ch
  C:D90EH         LINE#         1260
  C:D913H         LINE#         1261
  C:D913H         LINE#         1262
  C:D915H         LINE#         1263
  C:D915H         LINE#         1264
  C:D92BH         LINE#         1265
  C:D932H         LINE#         1266
  C:D93AH         LINE#         1267
  C:D94EH         LINE#         1268
  C:D94EH         LINE#         1270
BL51 BANKED LINKER/LOCATER V6.22                                                      03/05/2019  13:48:08  PAGE 169


  C:D956H         LINE#         1271
  C:D956H         LINE#         1272
  C:D96BH         LINE#         1273
  C:D973H         LINE#         1274
  C:D976H         LINE#         1275
  C:D979H         LINE#         1276
  C:D979H         LINE#         1279
  -------         ENDPROC       _API_HANDL_COMM_FRAME_ERROR
  -------         PROC          _PROCESS_IEC62056_21
  X:0002H         SYMBOL        ch
  -------         DO            
  X:0003H         SYMBOL        buff_size
  X:0004H         SYMBOL        start_index
  X:0005H         SYMBOL        meterID_len
  X:0006H         SYMBOL        tmp_8u_01
  X:0016H         SYMBOL        tmp_8u_02
  X:0036H         SYMBOL        i
  -------         ENDDO         
  C:4196H         LINE#         1288
  C:419BH         LINE#         1289
  C:419BH         LINE#         1300
  C:41A3H         LINE#         1302
  C:41BDH         LINE#         1303
  C:41BDH         LINE#         1305
  C:41BDH         LINE#         1307
  C:41CBH         LINE#         1308
  C:41D0H         LINE#         1311
  C:41E5H         LINE#         1312
  C:41E5H         LINE#         1313
  C:41F3H         LINE#         1314
  C:4201H         LINE#         1315
  C:4201H         LINE#         1319
  C:4210H         LINE#         1320
  C:4210H         LINE#         1321
  C:4232H         LINE#         1322
  C:423AH         LINE#         1324
  C:4243H         LINE#         1325
  C:4243H         LINE#         1327
  C:4246H         LINE#         1329
  C:4246H         LINE#         1331
  C:425AH         LINE#         1332
  C:426CH         LINE#         1333
  C:427CH         LINE#         1334
  C:4281H         LINE#         1336
  C:42B5H         LINE#         1337
  C:42B5H         LINE#         1338
  C:42C4H         LINE#         1340
  C:42E0H         LINE#         1341
  C:42E0H         LINE#         1342
  C:42E0H         LINE#         1343
  C:42F6H         LINE#         1344
  C:42F6H         LINE#         1345
  C:42F9H         LINE#         1347
  C:42F9H         LINE#         1348
  C:4313H         LINE#         1349
  C:4323H         LINE#         1350
  C:433EH         LINE#         1351
BL51 BANKED LINKER/LOCATER V6.22                                                      03/05/2019  13:48:08  PAGE 170


  C:437CH         LINE#         1352
  C:437CH         LINE#         1353
  C:4382H         LINE#         1354
  C:4382H         LINE#         1355
  C:43ADH         LINE#         1356
  C:43ADH         LINE#         1357
  C:43B4H         LINE#         1358
  C:43B4H         LINE#         1359
  C:43DFH         LINE#         1360
  C:43DFH         LINE#         1361
  C:43F4H         LINE#         1362
  C:4400H         LINE#         1363
  C:4403H         LINE#         1365
  C:4403H         LINE#         1367
  C:440BH         LINE#         1369
  C:440BH         LINE#         1370
  C:440BH         LINE#         1372
  C:440BH         LINE#         1373
  C:4421H         LINE#         1374
  C:4421H         LINE#         1375
  C:4424H         LINE#         1377
  C:4424H         LINE#         1378
  C:4449H         LINE#         1379
  C:4449H         LINE#         1380
  C:447CH         LINE#         1381
  C:4495H         LINE#         1382
  C:44AAH         LINE#         1383
  C:44BCH         LINE#         1384
  C:44BFH         LINE#         1386
  C:44BFH         LINE#         1387
  C:44D4H         LINE#         1388
  C:44D4H         LINE#         1389
  C:44D4H         LINE#         1390
  C:44D4H         LINE#         1392
  C:44D6H         LINE#         1394
  C:44D6H         LINE#         1395
  C:44ECH         LINE#         1396
  C:44ECH         LINE#         1397
  C:44EFH         LINE#         1399
  C:44EFH         LINE#         1401
  C:4514H         LINE#         1402
  C:4514H         LINE#         1405
  C:452FH         LINE#         1406
  C:4543H         LINE#         1407
  C:4543H         LINE#         1408
  C:4545H         LINE#         1410
  C:4545H         LINE#         1411
  C:4554H         LINE#         1412
  C:4556H         LINE#         1413
  C:4556H         LINE#         1415
  C:4556H         LINE#         1417
  C:4556H         LINE#         1418
  C:456BH         LINE#         1419
  C:456BH         LINE#         1421
  C:4581H         LINE#         1422
  C:4581H         LINE#         1424
  C:4584H         LINE#         1426
BL51 BANKED LINKER/LOCATER V6.22                                                      03/05/2019  13:48:08  PAGE 171


  C:4584H         LINE#         1428
  C:4584H         LINE#         1429
  C:4599H         LINE#         1430
  C:45ABH         LINE#         1431
  C:45BDH         LINE#         1432
  C:45BDH         LINE#         1433
  C:45D5H         LINE#         1434
  C:45D5H         LINE#         1435
  C:45EDH         LINE#         1436
  C:45EDH         LINE#         1437
  -------         ENDPROC       _PROCESS_IEC62056_21
  -------         PROC          _API_HANDL_COMM_PRE_10MS
  X:0001H         SYMBOL        ch
  C:A0D4H         LINE#         1452
  C:A0D9H         LINE#         1453
  C:A0D9H         LINE#         1455
  C:A0DCH         LINE#         1457
  C:A0FAH         LINE#         1458
  C:A0FAH         LINE#         1460
  C:A0FDH         LINE#         1461
  C:A0FDH         LINE#         1463
  C:A128H         LINE#         1464
  C:A128H         LINE#         1466
  C:A13BH         LINE#         1467
  C:A14EH         LINE#         1468
  C:A14EH         LINE#         1470
  C:A159H         LINE#         1471
  C:A159H         LINE#         1472
  C:A15AH         LINE#         1473
  C:A168H         LINE#         1474
  C:A16BH         LINE#         1475
  C:A179H         LINE#         1476
  C:A17CH         LINE#         1477
  C:A18AH         LINE#         1479
  C:A18DH         LINE#         1481
  C:A1A2H         LINE#         1482
  C:A1A5H         LINE#         1483
  C:A1B3H         LINE#         1484
  C:A1B6H         LINE#         1485
  C:A1C4H         LINE#         1487
  C:A1C7H         LINE#         1488
  C:A1D5H         LINE#         1489
  C:A1DAH         LINE#         1490
  C:A1DAH         LINE#         1492
  -------         ENDPROC       _API_HANDL_COMM_PRE_10MS
  -------         PROC          RF_COMM_DEAL
  C:E500H         LINE#         1503
  C:E500H         LINE#         1504
  C:E500H         LINE#         1506
  C:E507H         LINE#         1507
  C:E50CH         LINE#         1508
  C:E513H         LINE#         1511
  C:E51CH         LINE#         1512
  C:E52AH         LINE#         1513
  C:E531H         LINE#         1514
  C:E537H         LINE#         1516
  C:E53FH         LINE#         1518
BL51 BANKED LINKER/LOCATER V6.22                                                      03/05/2019  13:48:08  PAGE 172


  -------         ENDPROC       RF_COMM_DEAL
  -------         ENDMOD        API_USER_COMM

  -------         MODULE        IEC62056_21
  C:0000H         SYMBOL        _ICE_DUMMY_
  D:0090H         PUBLIC        P1
  C:E8BFH         PUBLIC        _Get_Bcc_Chk
  D:00B0H         PUBLIC        P3
  C:DC52H         PUBLIC        _IEC_Comm_Acknowledgement_Cmd_Judge
  D:00A8H         PUBLIC        IE
  D:00B8H         PUBLIC        IP
  C:003EH         PUBLIC        _Get_ACK_Answer
  C:9689H         PUBLIC        _IEC_Comm_Command_Cmd_Judge
  D:0098H         PUBLIC        SCON
  D:0088H         PUBLIC        TCON
  D:00F0H         PUBLIC        B
  C:B5EBH         PUBLIC        _Get_IEC_Comm_Operand_Answer
  D:00E0H         PUBLIC        ACC
  C:97B8H         PUBLIC        _IEC_Comm_Request_Cmd_Judge
  D:0080H         PUBLIC        SysCtrl
  C:CF62H         PUBLIC        _Get_IEC_Comm_Request_Cmd_Answer
  C:0016H         PUBLIC        _Get_Error_Answer
  D:00C8H         PUBLIC        T2CON
  D:00D0H         PUBLIC        PSW
  -------         PROC          _IEC_COMM_REQUEST_CMD_JUDGE
  X:0038H         SYMBOL        sptr
  D:0005H         SYMBOL        len
  X:003CH         SYMBOL        id_ptr
  X:003FH         SYMBOL        meter_id_lenth
  -------         DO            
  D:0007H         SYMBOL        i
  -------         ENDDO         
  C:97B8H         LINE#         34
  C:97C3H         LINE#         35
  C:97C3H         LINE#         38
  C:97C8H         LINE#         39
  C:97C8H         LINE#         40
  C:97DDH         LINE#         41
  C:97EAH         LINE#         42
  C:97F7H         LINE#         43
  C:9804H         LINE#         44
  C:9811H         LINE#         45
  C:9814H         LINE#         46
  C:9814H         LINE#         48
  C:9814H         LINE#         49
  C:9829H         LINE#         50
  C:9836H         LINE#         51
  C:9842H         LINE#         52
  C:9842H         LINE#         53
  C:9874H         LINE#         54
  C:9874H         LINE#         55
  C:9877H         LINE#         56
  C:9877H         LINE#         57
  C:987AH         LINE#         58
  C:989DH         LINE#         59
  C:98BDH         LINE#         60
  C:98E2H         LINE#         62
BL51 BANKED LINKER/LOCATER V6.22                                                      03/05/2019  13:48:08  PAGE 173


  -------         ENDPROC       _IEC_COMM_REQUEST_CMD_JUDGE
  -------         PROC          _IEC_COMM_ACKNOWLEDGEMENT_CMD_JUDGE
  D:0001H         SYMBOL        sptr
  D:0005H         SYMBOL        len
  C:DC52H         LINE#         81
  C:DC52H         LINE#         82
  C:DC52H         LINE#         83
  C:DC5AH         LINE#         85
  C:DC64H         LINE#         86
  C:DC71H         LINE#         87
  C:DC86H         LINE#         88
  C:DC99H         LINE#         89
  C:DCA6H         LINE#         90
  C:DCB3H         LINE#         92
  C:DCB5H         LINE#         94
  -------         ENDPROC       _IEC_COMM_ACKNOWLEDGEMENT_CMD_JUDGE
  -------         PROC          _IEC_COMM_COMMAND_CMD_JUDGE
  X:0038H         SYMBOL        sptr
  X:003BH         SYMBOL        len
  -------         DO            
  X:003CH         SYMBOL        u8_a
  -------         ENDDO         
  C:9689H         LINE#         107
  C:9699H         LINE#         108
  C:9699H         LINE#         111
  C:96A3H         LINE#         112
  C:96C7H         LINE#         114
  C:96FAH         LINE#         117
  C:9710H         LINE#         118
  C:971AH         LINE#         119
  C:9724H         LINE#         120
  C:972EH         LINE#         121
  C:9738H         LINE#         122
  C:9742H         LINE#         123
  C:974CH         LINE#         124
  C:9756H         LINE#         125
  C:9760H         LINE#         127
  C:9771H         LINE#         128
  C:9771H         LINE#         129
  C:9771H         LINE#         130
  C:977FH         LINE#         131
  C:977FH         LINE#         133
  C:977FH         LINE#         135
  C:978DH         LINE#         136
  C:978DH         LINE#         138
  C:978DH         LINE#         139
  C:979EH         LINE#         140
  C:979EH         LINE#         143
  C:979EH         LINE#         145
  C:979EH         LINE#         146
  C:97A0H         LINE#         147
  C:97A0H         LINE#         153
  C:97A0H         LINE#         154
  C:97B5H         LINE#         155
  -------         ENDPROC       _IEC_COMM_COMMAND_CMD_JUDGE
  -------         PROC          _GET_IEC_COMM_REQUEST_CMD_ANSWER
  X:0038H         SYMBOL        sptr
BL51 BANKED LINKER/LOCATER V6.22                                                      03/05/2019  13:48:08  PAGE 174


  X:003BH         SYMBOL        len
  X:003CH         SYMBOL        info_ptr
  -------         DO            
  D:0007H         SYMBOL        i
  -------         ENDDO         
  C:CF62H         LINE#         176
  C:CF72H         LINE#         177
  C:CF72H         LINE#         180
  C:CF77H         LINE#         182
  C:CF83H         LINE#         183
  C:CF83H         LINE#         184
  C:CFB1H         LINE#         185
  C:CFB4H         LINE#         187
  C:CFD3H         LINE#         188
  -------         ENDPROC       _GET_IEC_COMM_REQUEST_CMD_ANSWER
  -------         PROC          _GET_IEC_COMM_OPERAND_ANSWER
  X:0038H         SYMBOL        sptr
  X:003BH         SYMBOL        len
  X:003CH         SYMBOL        info_ptr
  -------         DO            
  D:0007H         SYMBOL        i
  -------         ENDDO         
  C:B5EBH         LINE#         203
  C:B5F9H         LINE#         204
  C:B5F9H         LINE#         207
  C:B609H         LINE#         208
  C:B61CH         LINE#         209
  C:B624H         LINE#         210
  C:B62CH         LINE#         212
  C:B638H         LINE#         213
  C:B638H         LINE#         214
  C:B666H         LINE#         215
  C:B669H         LINE#         217
  C:B688H         LINE#         218
  -------         ENDPROC       _GET_IEC_COMM_OPERAND_ANSWER
  -------         PROC          _GET_ERROR_ANSWER
  D:0001H         SYMBOL        sptr
  C:0016H         LINE#         233
  C:0016H         LINE#         234
  C:0016H         LINE#         235
  -------         ENDPROC       _GET_ERROR_ANSWER
  -------         PROC          _GET_ACK_ANSWER
  D:0001H         SYMBOL        sptr
  C:003EH         LINE#         250
  C:003EH         LINE#         251
  C:003EH         LINE#         252
  -------         ENDPROC       _GET_ACK_ANSWER
  -------         PROC          L?0052
  -------         ENDPROC       L?0052
  -------         PROC          _GET_BCC_CHK
  X:00E8H         SYMBOL        yourBuf
  D:0005H         SYMBOL        StartID
  X:00ECH         SYMBOL        EndID
  -------         DO            
  D:0006H         SYMBOL        i
  D:0007H         SYMBOL        tmp
  -------         ENDDO         
BL51 BANKED LINKER/LOCATER V6.22                                                      03/05/2019  13:48:08  PAGE 175


  C:E8BFH         LINE#         266
  C:E8CAH         LINE#         267
  C:E8CAH         LINE#         271
  C:E8CCH         LINE#         272
  C:E8D8H         LINE#         273
  C:E8D8H         LINE#         274
  C:E8EDH         LINE#         275
  C:E8F0H         LINE#         276
  C:E8F0H         LINE#         277
  -------         ENDPROC       _GET_BCC_CHK
  -------         ENDMOD        IEC62056_21

  -------         MODULE        ?C?FPADD
  C:1318H         PUBLIC        ?C?FPADD
  C:1314H         PUBLIC        ?C?FPSUB
  -------         ENDMOD        ?C?FPADD

  -------         MODULE        ?C?FPMUL
  C:1409H         PUBLIC        ?C?FPMUL
  -------         ENDMOD        ?C?FPMUL

  -------         MODULE        ?C?FPDIV
  C:1512H         PUBLIC        ?C?FPDIV
  -------         ENDMOD        ?C?FPDIV

  -------         MODULE        ?C?FPCMP
  C:15B1H         PUBLIC        ?C?FPCMP
  C:15AFH         PUBLIC        ?C?FPCMP3
  -------         ENDMOD        ?C?FPCMP

  -------         MODULE        ?C?FCAST
  C:1626H         PUBLIC        ?C?FCASTC
  C:1621H         PUBLIC        ?C?FCASTI
  C:161CH         PUBLIC        ?C?FCASTL
  -------         ENDMOD        ?C?FCAST

  -------         MODULE        ?C?CASTF
  C:165AH         PUBLIC        ?C?CASTF
  -------         ENDMOD        ?C?CASTF

  -------         MODULE        ATOF
  C:E295H         PUBLIC        _ATOF
  -------         ENDMOD        ATOF

  -------         MODULE        SQRT
  C:C0D6H         PUBLIC        _SQRT
  -------         ENDMOD        SQRT

  -------         MODULE        FLOOR
  C:AA95H         PUBLIC        _floor
  -------         ENDMOD        FLOOR

  -------         MODULE        ?C?FPNEG
  C:16DBH         PUBLIC        ?C?FPNEG
  -------         ENDMOD        ?C?FPNEG

  -------         MODULE        ?C?FTNPWR
BL51 BANKED LINKER/LOCATER V6.22                                                      03/05/2019  13:48:08  PAGE 176


  C:171CH         PUBLIC        ?C?FTNPWR
  -------         ENDMOD        ?C?FTNPWR

  -------         MODULE        ?C?COPY
  C:182CH         PUBLIC        ?C?COPY
  -------         ENDMOD        ?C?COPY

  -------         MODULE        ?C?CLDPTR
  C:1852H         PUBLIC        ?C?CLDPTR
  -------         ENDMOD        ?C?CLDPTR

  -------         MODULE        ?C?CLDOPTR
  C:186BH         PUBLIC        ?C?CLDOPTR
  -------         ENDMOD        ?C?CLDOPTR

  -------         MODULE        ?C?CILDPTR
  C:1898H         PUBLIC        ?C?CILDPTR
  -------         ENDMOD        ?C?CILDPTR

  -------         MODULE        ?C?CSTPTR
  C:18BAH         PUBLIC        ?C?CSTPTR
  -------         ENDMOD        ?C?CSTPTR

  -------         MODULE        ?C?CSTOPTR
  C:18CCH         PUBLIC        ?C?CSTOPTR
  -------         ENDMOD        ?C?CSTOPTR

  -------         MODULE        ?C?IMUL
  C:18EEH         PUBLIC        ?C?IMUL
  -------         ENDMOD        ?C?IMUL

  -------         MODULE        ?C?UIDIV
  C:1900H         PUBLIC        ?C?UIDIV
  -------         ENDMOD        ?C?UIDIV

  -------         MODULE        ?C?SIDIV
  C:1955H         PUBLIC        ?C?SIDIV
  -------         ENDMOD        ?C?SIDIV

  -------         MODULE        ?C?IILDX
  C:198BH         PUBLIC        ?C?IILDX
  -------         ENDMOD        ?C?IILDX

  -------         MODULE        ?C?ILDIX
  C:19A1H         PUBLIC        ?C?ILDIX
  -------         ENDMOD        ?C?ILDIX

  -------         MODULE        ?C?ISTPTR
  C:19B7H         PUBLIC        ?C?ISTPTR
  -------         ENDMOD        ?C?ISTPTR

  -------         MODULE        ?C?LMUL
  C:19D6H         PUBLIC        ?C?LMUL
  -------         ENDMOD        ?C?LMUL

  -------         MODULE        ?C?ULDIV
  C:1A61H         PUBLIC        ?C?ULDIV
BL51 BANKED LINKER/LOCATER V6.22                                                      03/05/2019  13:48:08  PAGE 177


  -------         ENDMOD        ?C?ULDIV

  -------         MODULE        ?C?SLDIV
  C:E3B4H         PUBLIC        ?C?SLDIV
  -------         ENDMOD        ?C?SLDIV

  -------         MODULE        ?C?LNOT
  C:1AF3H         PUBLIC        ?C?LNOT
  -------         ENDMOD        ?C?LNOT

  -------         MODULE        ?C?LNEG
  C:1B00H         PUBLIC        ?C?LNEG
  -------         ENDMOD        ?C?LNEG

  -------         MODULE        ?C?SLCMP
  C:1B0EH         PUBLIC        ?C?SLCMP
  -------         ENDMOD        ?C?SLCMP

  -------         MODULE        ?C?ULCMP
  C:1B24H         PUBLIC        ?C?ULCMP
  -------         ENDMOD        ?C?ULCMP

  -------         MODULE        ?C?ULSHR
  C:1B35H         PUBLIC        ?C?ULSHR
  -------         ENDMOD        ?C?ULSHR

  -------         MODULE        ?C?LSHL
  C:1B48H         PUBLIC        ?C?LSHL
  -------         ENDMOD        ?C?LSHL

  -------         MODULE        ?C?LLDPTR
  C:1B5BH         PUBLIC        ?C?LLDPTR
  -------         ENDMOD        ?C?LLDPTR

  -------         MODULE        ?C?LLDXDATA
  C:1B7BH         PUBLIC        ?C?LLDXDATA
  -------         ENDMOD        ?C?LLDXDATA

  -------         MODULE        ?C?LLDCODE
  C:1B87H         PUBLIC        ?C?LLDCODE
  -------         ENDMOD        ?C?LLDCODE

  -------         MODULE        ?C?LLDCODE0
  C:1B97H         PUBLIC        ?C?LLDCODE0
  -------         ENDMOD        ?C?LLDCODE0

  -------         MODULE        ?C?LSTXDATA
  C:1BA7H         PUBLIC        ?C?LSTXDATA
  -------         ENDMOD        ?C?LSTXDATA

  -------         MODULE        ?C?LSTKXDATA
  C:1BB3H         PUBLIC        ?C?LSTKXDATA
  -------         ENDMOD        ?C?LSTKXDATA

  -------         MODULE        ?C?OFFXADD
  C:1BE4H         PUBLIC        ?C?OFFXADD
  -------         ENDMOD        ?C?OFFXADD
BL51 BANKED LINKER/LOCATER V6.22                                                      03/05/2019  13:48:08  PAGE 178



  -------         MODULE        ?C?PLDIXDATA
  C:1BF0H         PUBLIC        ?C?PLDIXDATA
  -------         ENDMOD        ?C?PLDIXDATA

  -------         MODULE        ?C?PSTXDATA
  C:1C07H         PUBLIC        ?C?PSTXDATA
  -------         ENDMOD        ?C?PSTXDATA

  -------         MODULE        ?C?PSTPTR
  C:1C10H         PUBLIC        ?C?PSTPTR
  -------         ENDMOD        ?C?PSTPTR

  -------         MODULE        ?C?ICASE
  C:1C5FH         PUBLIC        ?C?ICASE
  -------         ENDMOD        ?C?ICASE

  -------         MODULE        ?C?LCASE
  C:1C8CH         PUBLIC        ?C?LCASE
  -------         ENDMOD        ?C?LCASE

  -------         MODULE        ?C?LIMUL
  C:1CC6H         PUBLIC        ?C?LIMUL
  -------         ENDMOD        ?C?LIMUL

  -------         MODULE        ISSPACE
  C:EF6CH         PUBLIC        _isspace
  -------         ENDMOD        ISSPACE

  -------         MODULE        ?C?LLDIDATA
  C:1CF3H         PUBLIC        ?C?LLDIDATA
  -------         ENDMOD        ?C?LLDIDATA

  -------         MODULE        ?C?LLDPDATA
  C:1CFFH         PUBLIC        ?C?LLDPDATA
  -------         ENDMOD        ?C?LLDPDATA

  -------         MODULE        ?C?PSTIDATA
  C:1D0BH         PUBLIC        ?C?PSTIDATA
  -------         ENDMOD        ?C?PSTIDATA

  -------         MODULE        ?C?PSTPDATA
  C:1D14H         PUBLIC        ?C?PSTPDATA
  -------         ENDMOD        ?C?PSTPDATA

*** WARNING L1: UNRESOLVED EXTERNAL SYMBOL
    SYMBOL:  _READRACCOON
    MODULE:  .\Lnk_EMU_Adj.obj (LNK_EMU_ADJ)

*** WARNING L1: UNRESOLVED EXTERNAL SYMBOL
    SYMBOL:  _WRITERACCOON
    MODULE:  .\Lnk_EMU_Adj.obj (LNK_EMU_ADJ)

*** WARNING L1: UNRESOLVED EXTERNAL SYMBOL
    SYMBOL:  ?_WRITERACCOON?BYTE
    MODULE:  .\Lnk_EMU_Adj.obj (LNK_EMU_ADJ)

BL51 BANKED LINKER/LOCATER V6.22                                                      03/05/2019  13:48:08  PAGE 179


*** WARNING L1: UNRESOLVED EXTERNAL SYMBOL
    SYMBOL:  GS_RACCTRL
    MODULE:  .\Lnk_EMU_Adj.obj (LNK_EMU_ADJ)

*** WARNING L2: REFERENCE MADE TO UNRESOLVED EXTERNAL
    SYMBOL:  _READRACCOON
    MODULE:  .\Lnk_EMU_Adj.obj (LNK_EMU_ADJ)
    ADDRESS: 8871H

*** WARNING L2: REFERENCE MADE TO UNRESOLVED EXTERNAL
    SYMBOL:  GS_RACCTRL
    MODULE:  .\Lnk_EMU_Adj.obj (LNK_EMU_ADJ)
    ADDRESS: 887FH

*** WARNING L2: REFERENCE MADE TO UNRESOLVED EXTERNAL
    SYMBOL:  GS_RACCTRL
    MODULE:  .\Lnk_EMU_Adj.obj (LNK_EMU_ADJ)
    ADDRESS: 8881H

*** WARNING L2: REFERENCE MADE TO UNRESOLVED EXTERNAL
    SYMBOL:  _READRACCOON
    MODULE:  .\Lnk_EMU_Adj.obj (LNK_EMU_ADJ)
    ADDRESS: 89DAH

*** WARNING L2: REFERENCE MADE TO UNRESOLVED EXTERNAL
    SYMBOL:  GS_RACCTRL
    MODULE:  .\Lnk_EMU_Adj.obj (LNK_EMU_ADJ)
    ADDRESS: 89E8H

*** WARNING L2: REFERENCE MADE TO UNRESOLVED EXTERNAL
    SYMBOL:  GS_RACCTRL
    MODULE:  .\Lnk_EMU_Adj.obj (LNK_EMU_ADJ)
    ADDRESS: 89EAH

*** WARNING L2: REFERENCE MADE TO UNRESOLVED EXTERNAL
    SYMBOL:  ?_WRITERACCOON?BYTE
    MODULE:  .\Lnk_EMU_Adj.obj (LNK_EMU_ADJ)
    ADDRESS: 9F26H

*** WARNING L2: REFERENCE MADE TO UNRESOLVED EXTERNAL
    SYMBOL:  _WRITERACCOON
    MODULE:  .\Lnk_EMU_Adj.obj (LNK_EMU_ADJ)
    ADDRESS: 9F33H

*** WARNING L2: REFERENCE MADE TO UNRESOLVED EXTERNAL
    SYMBOL:  ?_WRITERACCOON?BYTE
    MODULE:  .\Lnk_EMU_Adj.obj (LNK_EMU_ADJ)
    ADDRESS: 9F44H

*** WARNING L2: REFERENCE MADE TO UNRESOLVED EXTERNAL
    SYMBOL:  _WRITERACCOON
    MODULE:  .\Lnk_EMU_Adj.obj (LNK_EMU_ADJ)
    ADDRESS: 9F51H

*** WARNING L2: REFERENCE MADE TO UNRESOLVED EXTERNAL
    SYMBOL:  ?_WRITERACCOON?BYTE
    MODULE:  .\Lnk_EMU_Adj.obj (LNK_EMU_ADJ)
BL51 BANKED LINKER/LOCATER V6.22                                                      03/05/2019  13:48:08  PAGE 180


    ADDRESS: B494H

*** WARNING L2: REFERENCE MADE TO UNRESOLVED EXTERNAL
    SYMBOL:  _WRITERACCOON
    MODULE:  .\Lnk_EMU_Adj.obj (LNK_EMU_ADJ)
    ADDRESS: B4A1H

*** WARNING L2: REFERENCE MADE TO UNRESOLVED EXTERNAL
    SYMBOL:  ?_WRITERACCOON?BYTE
    MODULE:  .\Lnk_EMU_Adj.obj (LNK_EMU_ADJ)
    ADDRESS: 74C3H

*** WARNING L2: REFERENCE MADE TO UNRESOLVED EXTERNAL
    SYMBOL:  _WRITERACCOON
    MODULE:  .\Lnk_EMU_Adj.obj (LNK_EMU_ADJ)
    ADDRESS: 74D6H

*** WARNING L2: REFERENCE MADE TO UNRESOLVED EXTERNAL
    SYMBOL:  _READRACCOON
    MODULE:  .\Lnk_EMU_Adj.obj (LNK_EMU_ADJ)
    ADDRESS: 328CH

*** WARNING L2: REFERENCE MADE TO UNRESOLVED EXTERNAL
    SYMBOL:  GS_RACCTRL
    MODULE:  .\Lnk_EMU_Adj.obj (LNK_EMU_ADJ)
    ADDRESS: 329AH

*** WARNING L2: REFERENCE MADE TO UNRESOLVED EXTERNAL
    SYMBOL:  GS_RACCTRL
    MODULE:  .\Lnk_EMU_Adj.obj (LNK_EMU_ADJ)
    ADDRESS: 329CH

*** WARNING L2: REFERENCE MADE TO UNRESOLVED EXTERNAL
    SYMBOL:  _READRACCOON
    MODULE:  .\Lnk_EMU_Adj.obj (LNK_EMU_ADJ)
    ADDRESS: 33BDH

*** WARNING L2: REFERENCE MADE TO UNRESOLVED EXTERNAL
    SYMBOL:  GS_RACCTRL
    MODULE:  .\Lnk_EMU_Adj.obj (LNK_EMU_ADJ)
    ADDRESS: 33CBH

*** WARNING L2: REFERENCE MADE TO UNRESOLVED EXTERNAL
    SYMBOL:  GS_RACCTRL
    MODULE:  .\Lnk_EMU_Adj.obj (LNK_EMU_ADJ)
    ADDRESS: 33CDH

*** WARNING L1: UNRESOLVED EXTERNAL SYMBOL
    SYMBOL:  _READRACCOON
    MODULE:  .\Lnk_EMU_handl.obj (LNK_EMU_HANDL)

*** WARNING L1: UNRESOLVED EXTERNAL SYMBOL
    SYMBOL:  GS_RACCTRL
    MODULE:  .\Lnk_EMU_handl.obj (LNK_EMU_HANDL)

*** WARNING L2: REFERENCE MADE TO UNRESOLVED EXTERNAL
    SYMBOL:  _READRACCOON
BL51 BANKED LINKER/LOCATER V6.22                                                      03/05/2019  13:48:08  PAGE 181


    MODULE:  .\Lnk_EMU_handl.obj (LNK_EMU_HANDL)
    ADDRESS: 8E05H

*** WARNING L2: REFERENCE MADE TO UNRESOLVED EXTERNAL
    SYMBOL:  GS_RACCTRL
    MODULE:  .\Lnk_EMU_handl.obj (LNK_EMU_HANDL)
    ADDRESS: 8E13H

*** WARNING L2: REFERENCE MADE TO UNRESOLVED EXTERNAL
    SYMBOL:  GS_RACCTRL
    MODULE:  .\Lnk_EMU_handl.obj (LNK_EMU_HANDL)
    ADDRESS: 8E15H

*** WARNING L2: REFERENCE MADE TO UNRESOLVED EXTERNAL
    SYMBOL:  _READRACCOON
    MODULE:  .\Lnk_EMU_handl.obj (LNK_EMU_HANDL)
    ADDRESS: 6D1DH

*** WARNING L2: REFERENCE MADE TO UNRESOLVED EXTERNAL
    SYMBOL:  GS_RACCTRL
    MODULE:  .\Lnk_EMU_handl.obj (LNK_EMU_HANDL)
    ADDRESS: 6D2BH

*** WARNING L2: REFERENCE MADE TO UNRESOLVED EXTERNAL
    SYMBOL:  GS_RACCTRL
    MODULE:  .\Lnk_EMU_handl.obj (LNK_EMU_HANDL)
    ADDRESS: 6D2DH

*** WARNING L2: REFERENCE MADE TO UNRESOLVED EXTERNAL
    SYMBOL:  _READRACCOON
    MODULE:  .\Lnk_EMU_handl.obj (LNK_EMU_HANDL)
    ADDRESS: 6DCFH

*** WARNING L2: REFERENCE MADE TO UNRESOLVED EXTERNAL
    SYMBOL:  GS_RACCTRL
    MODULE:  .\Lnk_EMU_handl.obj (LNK_EMU_HANDL)
    ADDRESS: 6DDDH

*** WARNING L2: REFERENCE MADE TO UNRESOLVED EXTERNAL
    SYMBOL:  GS_RACCTRL
    MODULE:  .\Lnk_EMU_handl.obj (LNK_EMU_HANDL)
    ADDRESS: 6DDFH

*** WARNING L2: REFERENCE MADE TO UNRESOLVED EXTERNAL
    SYMBOL:  _READRACCOON
    MODULE:  .\Lnk_EMU_handl.obj (LNK_EMU_HANDL)
    ADDRESS: B11EH

*** WARNING L2: REFERENCE MADE TO UNRESOLVED EXTERNAL
    SYMBOL:  GS_RACCTRL
    MODULE:  .\Lnk_EMU_handl.obj (LNK_EMU_HANDL)
    ADDRESS: B12EH

*** WARNING L2: REFERENCE MADE TO UNRESOLVED EXTERNAL
    SYMBOL:  GS_RACCTRL
    MODULE:  .\Lnk_EMU_handl.obj (LNK_EMU_HANDL)
    ADDRESS: B130H
BL51 BANKED LINKER/LOCATER V6.22                                                      03/05/2019  13:48:08  PAGE 182



*** WARNING L2: REFERENCE MADE TO UNRESOLVED EXTERNAL
    SYMBOL:  _READRACCOON
    MODULE:  .\Lnk_EMU_handl.obj (LNK_EMU_HANDL)
    ADDRESS: 3C19H

*** WARNING L2: REFERENCE MADE TO UNRESOLVED EXTERNAL
    SYMBOL:  GS_RACCTRL
    MODULE:  .\Lnk_EMU_handl.obj (LNK_EMU_HANDL)
    ADDRESS: 3C29H

*** WARNING L2: REFERENCE MADE TO UNRESOLVED EXTERNAL
    SYMBOL:  GS_RACCTRL
    MODULE:  .\Lnk_EMU_handl.obj (LNK_EMU_HANDL)
    ADDRESS: 3C2BH

*** WARNING L2: REFERENCE MADE TO UNRESOLVED EXTERNAL
    SYMBOL:  _READRACCOON
    MODULE:  .\Lnk_EMU_handl.obj (LNK_EMU_HANDL)
    ADDRESS: 7A26H

*** WARNING L2: REFERENCE MADE TO UNRESOLVED EXTERNAL
    SYMBOL:  GS_RACCTRL
    MODULE:  .\Lnk_EMU_handl.obj (LNK_EMU_HANDL)
    ADDRESS: 7A34H

*** WARNING L2: REFERENCE MADE TO UNRESOLVED EXTERNAL
    SYMBOL:  GS_RACCTRL
    MODULE:  .\Lnk_EMU_handl.obj (LNK_EMU_HANDL)
    ADDRESS: 7A36H

*** WARNING L1: UNRESOLVED EXTERNAL SYMBOL
    SYMBOL:  _SX1276_TXPACKET
    MODULE:  .\Drv_UART.obj (DRV_UART)

*** WARNING L1: UNRESOLVED EXTERNAL SYMBOL
    SYMBOL:  RX_MODE
    MODULE:  .\Drv_UART.obj (DRV_UART)

*** WARNING L1: UNRESOLVED EXTERNAL SYMBOL
    SYMBOL:  GS_RACCTRL
    MODULE:  .\Drv_UART.obj (DRV_UART)

*** WARNING L1: UNRESOLVED EXTERNAL SYMBOL
    SYMBOL:  G_LORACONFIG
    MODULE:  .\Drv_UART.obj (DRV_UART)

*** WARNING L2: REFERENCE MADE TO UNRESOLVED EXTERNAL
    SYMBOL:  G_LORACONFIG
    MODULE:  .\Drv_UART.obj (DRV_UART)
    ADDRESS: 7993H

*** WARNING L2: REFERENCE MADE TO UNRESOLVED EXTERNAL
    SYMBOL:  _SX1276_TXPACKET
    MODULE:  .\Drv_UART.obj (DRV_UART)
    ADDRESS: 79AAH

BL51 BANKED LINKER/LOCATER V6.22                                                      03/05/2019  13:48:08  PAGE 183


*** WARNING L2: REFERENCE MADE TO UNRESOLVED EXTERNAL
    SYMBOL:  RX_MODE
    MODULE:  .\Drv_UART.obj (DRV_UART)
    ADDRESS: 79ADH

*** WARNING L2: REFERENCE MADE TO UNRESOLVED EXTERNAL
    SYMBOL:  GS_RACCTRL
    MODULE:  .\Drv_UART.obj (DRV_UART)
    ADDRESS: E038H

*** WARNING L2: REFERENCE MADE TO UNRESOLVED EXTERNAL
    SYMBOL:  GS_RACCTRL
    MODULE:  .\Drv_UART.obj (DRV_UART)
    ADDRESS: E04AH

*** WARNING L2: REFERENCE MADE TO UNRESOLVED EXTERNAL
    SYMBOL:  GS_RACCTRL
    MODULE:  .\Drv_UART.obj (DRV_UART)
    ADDRESS: E050H

*** WARNING L2: REFERENCE MADE TO UNRESOLVED EXTERNAL
    SYMBOL:  GS_RACCTRL
    MODULE:  .\Drv_UART.obj (DRV_UART)
    ADDRESS: E069H

*** WARNING L2: REFERENCE MADE TO UNRESOLVED EXTERNAL
    SYMBOL:  GS_RACCTRL
    MODULE:  .\Drv_UART.obj (DRV_UART)
    ADDRESS: E070H

*** WARNING L2: REFERENCE MADE TO UNRESOLVED EXTERNAL
    SYMBOL:  GS_RACCTRL
    MODULE:  .\Drv_UART.obj (DRV_UART)
    ADDRESS: E076H

*** WARNING L2: REFERENCE MADE TO UNRESOLVED EXTERNAL
    SYMBOL:  GS_RACCTRL
    MODULE:  .\Drv_UART.obj (DRV_UART)
    ADDRESS: E080H

*** WARNING L1: UNRESOLVED EXTERNAL SYMBOL
    SYMBOL:  RX_MODE
    MODULE:  .\Api_User_Comm.obj (API_USER_COMM)

*** WARNING L1: UNRESOLVED EXTERNAL SYMBOL
    SYMBOL:  SX127X_INIT
    MODULE:  .\Api_User_Comm.obj (API_USER_COMM)

*** WARNING L1: UNRESOLVED EXTERNAL SYMBOL
    SYMBOL:  _LSD_RF_RXPACKET
    MODULE:  .\Api_User_Comm.obj (API_USER_COMM)

*** WARNING L1: UNRESOLVED EXTERNAL SYMBOL
    SYMBOL:  G_LORACONFIG
    MODULE:  .\Api_User_Comm.obj (API_USER_COMM)

*** WARNING L2: REFERENCE MADE TO UNRESOLVED EXTERNAL
BL51 BANKED LINKER/LOCATER V6.22                                                      03/05/2019  13:48:08  PAGE 184


    SYMBOL:  SX127X_INIT
    MODULE:  .\Api_User_Comm.obj (API_USER_COMM)
    ADDRESS: D974H

*** WARNING L2: REFERENCE MADE TO UNRESOLVED EXTERNAL
    SYMBOL:  RX_MODE
    MODULE:  .\Api_User_Comm.obj (API_USER_COMM)
    ADDRESS: D977H

*** WARNING L2: REFERENCE MADE TO UNRESOLVED EXTERNAL
    SYMBOL:  _LSD_RF_RXPACKET
    MODULE:  .\Api_User_Comm.obj (API_USER_COMM)
    ADDRESS: E51AH

*** WARNING L2: REFERENCE MADE TO UNRESOLVED EXTERNAL
    SYMBOL:  G_LORACONFIG
    MODULE:  .\Api_User_Comm.obj (API_USER_COMM)
    ADDRESS: E538H

Program Size: data=19.6 xdata=1923 code=61512
LINK/LOCATE RUN COMPLETE.  66 WARNING(S),  0 ERROR(S)
