BL51 BANKED LINKER/LOCATER V6.22                                                        02/16/2019  15:29:57  PAGE 1


BL51 BANKED LINKER/LOCATER V6.22, INVOKED BY:
C:\KEIL\C51\BIN\BL51.EXE .\STARTUP.obj, .\main.obj, .\Proc_Data.obj, .\Proc_EXmem.obj, .\Proc_System_Check.obj, .\Proc_S
>> ystem_Initialize.obj, .\Proc_System_Interrupt.obj, .\Proc_System_Tou.obj, .\Drv_E2P_24CXXX.obj, .\Drv_E2P_i2cSoft.obj
>> , .\Drv_EMU_hard.obj, .\Lnk_EMU_Adj.obj, .\Lnk_EMU_handl.obj, .\Drv_ADC.obj, .\Drv_core.obj, .\Drv_GPIO.obj, .\Drv_KE
>> Y_IO.obj, .\Drv_LCD.obj, .\Drv_RTC.obj, .\Drv_TMR.obj, .\Drv_UART.obj, .\Lib_myMath.obj, .\Lib_mySpring.obj, .\Lib_my
>> Timer.obj, .\Api_AdjErr.obj, .\Api_Bill_Record.obj, .\Api_Demand.obj, .\Api_Energy.obj, .\Api_Event.obj, .\Api_LoadPr
>> ofile.obj, .\Api_Measure.obj, .\Api_Triff.obj, .\API_Relay.obj, .\Api_Lcd_Display.obj, .\Api_User_Comm.obj, .\IEC6205
>> 6_21.obj TO DI03B_9811A_V10 RAMSIZE (256) DISABLEWARNING (16) CODE (0X0000-0XFFFE) XDATA (0X0000-0X0F7E)


MEMORY MODEL: LARGE WITH FLOATING POINT ARITHMETIC


INPUT MODULES INCLUDED:
  .\STARTUP.obj (?C_STARTUP)
  .\main.obj (MAIN)
  .\Proc_Data.obj (PROC_DATA)
  .\Proc_EXmem.obj (PROC_EXMEM)
  .\Proc_System_Check.obj (PROC_SYSTEM_CHECK)
  .\Proc_System_Initialize.obj (PROC_SYSTEM_INITIALIZE)
  .\Proc_System_Interrupt.obj (PROC_SYSTEM_INTERRUPT)
  .\Proc_System_Tou.obj (PROC_SYSTEM_TOU)
  .\Drv_E2P_24CXXX.obj (DRV_E2P_24CXXX)
  .\Drv_E2P_i2cSoft.obj (DRV_E2P_I2CSOFT)
  .\Drv_EMU_hard.obj (DRV_EMU_HARD)
  .\Lnk_EMU_Adj.obj (LNK_EMU_ADJ)
  .\Lnk_EMU_handl.obj (LNK_EMU_HANDL)
  .\Drv_ADC.obj (DRV_ADC)
  .\Drv_core.obj (DRV_CORE)
  .\Drv_GPIO.obj (DRV_GPIO)
  .\Drv_KEY_IO.obj (DRV_KEY_IO)
  .\Drv_LCD.obj (DRV_LCD)
  .\Drv_RTC.obj (DRV_RTC)
  .\Drv_TMR.obj (DRV_TMR)
  .\Drv_UART.obj (DRV_UART)
  .\Lib_myMath.obj (LIB_MYMATH)
  .\Lib_mySpring.obj (LIB_MYSPRING)
  .\Lib_myTimer.obj (LIB_MYTIMER)
  .\Api_AdjErr.obj (API_ADJERR)
  .\Api_Bill_Record.obj (API_BILL_RECORD)
  .\Api_Demand.obj (API_DEMAND)
  .\Api_Energy.obj (API_ENERGY)
  .\Api_Event.obj (API_EVENT)
  .\Api_LoadProfile.obj (API_LOADPROFILE)
  .\Api_Measure.obj (API_MEASURE)
  .\Api_Triff.obj (API_TRIFF)
  .\API_Relay.obj (API_RELAY)
  .\Api_Lcd_Display.obj (API_LCD_DISPLAY)
  .\Api_User_Comm.obj (API_USER_COMM)
  .\IEC62056_21.obj (IEC62056_21)
  C:\KEIL\C51\LIB\C51FPL.LIB (?C?FPADD)
  C:\KEIL\C51\LIB\C51FPL.LIB (?C?FPMUL)
  C:\KEIL\C51\LIB\C51FPL.LIB (?C?FPDIV)
  C:\KEIL\C51\LIB\C51FPL.LIB (?C?FPCMP)
  C:\KEIL\C51\LIB\C51FPL.LIB (?C?FCAST)
  C:\KEIL\C51\LIB\C51FPL.LIB (?C?CASTF)
  C:\KEIL\C51\LIB\C51FPL.LIB (ATOF)
  C:\KEIL\C51\LIB\C51FPL.LIB (SQRT)
BL51 BANKED LINKER/LOCATER V6.22                                                      02/16/2019  15:29:57  PAGE 2


  C:\KEIL\C51\LIB\C51FPL.LIB (FLOOR)
  C:\KEIL\C51\LIB\C51FPL.LIB (?C?FPGETOPN)
  C:\KEIL\C51\LIB\C51FPL.LIB (?C?ATOF)
  C:\KEIL\C51\LIB\C51FPL.LIB (?C?FPNEG)
  C:\KEIL\C51\LIB\C51FPL.LIB (?C?FTNPWR)
  C:\KEIL\C51\LIB\C51L.LIB (?C_INIT)
  C:\KEIL\C51\LIB\C51L.LIB (?C?COPY)
  C:\KEIL\C51\LIB\C51L.LIB (?C?CLDPTR)
  C:\KEIL\C51\LIB\C51L.LIB (?C?CLDOPTR)
  C:\KEIL\C51\LIB\C51L.LIB (?C?CILDPTR)
  C:\KEIL\C51\LIB\C51L.LIB (?C?CSTPTR)
  C:\KEIL\C51\LIB\C51L.LIB (?C?CSTOPTR)
  C:\KEIL\C51\LIB\C51L.LIB (?C?IMUL)
  C:\KEIL\C51\LIB\C51L.LIB (?C?UIDIV)
  C:\KEIL\C51\LIB\C51L.LIB (?C?SIDIV)
  C:\KEIL\C51\LIB\C51L.LIB (?C?IILDX)
  C:\KEIL\C51\LIB\C51L.LIB (?C?ILDIX)
  C:\KEIL\C51\LIB\C51L.LIB (?C?ISTPTR)
  C:\KEIL\C51\LIB\C51L.LIB (?C?LMUL)
  C:\KEIL\C51\LIB\C51L.LIB (?C?ULDIV)
  C:\KEIL\C51\LIB\C51L.LIB (?C?SLDIV)
  C:\KEIL\C51\LIB\C51L.LIB (?C?LNOT)
  C:\KEIL\C51\LIB\C51L.LIB (?C?LNEG)
  C:\KEIL\C51\LIB\C51L.LIB (?C?SLCMP)
  C:\KEIL\C51\LIB\C51L.LIB (?C?ULCMP)
  C:\KEIL\C51\LIB\C51L.LIB (?C?ULSHR)
  C:\KEIL\C51\LIB\C51L.LIB (?C?LSHL)
  C:\KEIL\C51\LIB\C51L.LIB (?C?LLDPTR)
  C:\KEIL\C51\LIB\C51L.LIB (?C?LLDXDATA)
  C:\KEIL\C51\LIB\C51L.LIB (?C?LLDCODE)
  C:\KEIL\C51\LIB\C51L.LIB (?C?LLDCODE0)
  C:\KEIL\C51\LIB\C51L.LIB (?C?LSTXDATA)
  C:\KEIL\C51\LIB\C51L.LIB (?C?LSTKXDATA)
  C:\KEIL\C51\LIB\C51L.LIB (?C?OFFXADD)
  C:\KEIL\C51\LIB\C51L.LIB (?C?PLDIXDATA)
  C:\KEIL\C51\LIB\C51L.LIB (?C?PSTXDATA)
  C:\KEIL\C51\LIB\C51L.LIB (?C?PSTPTR)
  C:\KEIL\C51\LIB\C51L.LIB (?C?ICASE)
  C:\KEIL\C51\LIB\C51L.LIB (?C?LCASE)
  C:\KEIL\C51\LIB\C51L.LIB (?C?LIMUL)
  C:\KEIL\C51\LIB\C51L.LIB (ISSPACE)
  C:\KEIL\C51\LIB\C51L.LIB (?C?LLDIDATA)
  C:\KEIL\C51\LIB\C51L.LIB (?C?LLDPDATA)
  C:\KEIL\C51\LIB\C51L.LIB (?C?PSTIDATA)
  C:\KEIL\C51\LIB\C51L.LIB (?C?PSTPDATA)


LINK MAP OF MODULE:  DI03B_9811A_V10 (?C_STARTUP)


            TYPE    BASE      LENGTH    RELOCATION   SEGMENT NAME
            -----------------------------------------------------

            * * * * * * *   D A T A   M E M O R Y   * * * * * * *
            REG     0000H     0008H     ABSOLUTE     "REG BANK 0"
            DATA    0008H     0002H     UNIT         _DATA_GROUP_
                    000AH     0006H                  *** GAP ***
BL51 BANKED LINKER/LOCATER V6.22                                                      02/16/2019  15:29:57  PAGE 3


            REG     0010H     0008H     ABSOLUTE     "REG BANK 2"
                    0018H     0008H                  *** GAP ***
            BIT     0020H.0   0000H.5   UNIT         _BIT_GROUP_
            BIT     0020H.5   0000H.1   UNIT         ?BI?_SOFTADJUST_IB5_PROCESS?LNK_EMU_ADJ
                    0020H.6   0000H.2                *** GAP ***
            IDATA   0021H     0001H     UNIT         ?STACK

            * * * * * * *  X D A T A   M E M O R Y  * * * * * * *
            XDATA   0000H     0238H     UNIT         _XDATA_GROUP_
            XDATA   0238H     0102H     UNIT         ?XD?DRV_UART
            XDATA   033AH     008FH     UNIT         ?XD?API_DEMAND
            XDATA   03C9H     0080H     UNIT         ?XD?API_BILL_RECORD
            XDATA   0449H     007EH     UNIT         ?XD?API_ENERGY
            XDATA   04C7H     004DH     UNIT         ?XD?API_USER_COMM
            XDATA   0514H     0044H     UNIT         ?XD?LNK_EMU_ADJ
            XDATA   0558H     003EH     UNIT         ?XD?API_LCD_DISPLAY
            XDATA   0596H     002FH     UNIT         ?XD?HARDWARE_ADJUSTDIV_SUB?LNK_EMU_ADJ
            XDATA   05C5H     002EH     UNIT         ?XD?LIB_MYMATH
            XDATA   05F3H     0026H     UNIT         ?XD?API_MEASURE
            XDATA   0619H     001CH     UNIT         ?XD?LNK_GET_EMU_RACTIVE_CONST?LNK_EMU_HANDL
            XDATA   0635H     0019H     UNIT         ?XD?API_LOADPROFILE
            XDATA   064EH     0018H     UNIT         ?XD?PROC_DATA
            XDATA   0666H     0018H     UNIT         ?XD?PROC_SYSTEM_TOU
            XDATA   067EH     0015H     UNIT         ?XD?_LNK_GET_EMU_ACTIVEPOWER?LNK_EMU_HANDL
            XDATA   0693H     0014H     UNIT         ?XD?API_HANDL_SETTLE_WHEN_POWERUP?API_BILL_RECORD
            XDATA   06A7H     0013H     UNIT         ?XD?_GET_ORIGINAL_POWER?LNK_EMU_ADJ
            XDATA   06BAH     0013H     UNIT         ?XD?_GET_ORIGINAL_IRMS?LNK_EMU_ADJ
            XDATA   06CDH     0011H     UNIT         ?XD?_LNK_GET_EMU_RACTIVEPOWER?LNK_EMU_HANDL
            XDATA   06DEH     000CH     UNIT         ?XD?API_EVENT
            XDATA   06EAH     000BH     UNIT         ?XD?LINK_GET_DIS_OBIS_NUM_BUFF?API_LCD_DISPLAY
            XDATA   06F5H     000AH     UNIT         ?XD?_SETRTCNORMAL?DRV_RTC
            XDATA   06FFH     000AH     UNIT         ?XD?_LIB_ASC_BCD?LIB_MYMATH
            XDATA   0709H     000AH     UNIT         ?XD?_LIB_BCD_ASC?LIB_MYMATH
            XDATA   0713H     0009H     UNIT         ?XD?_SOFTADJUST_IB_PROCESS?LNK_EMU_ADJ
            XDATA   071CH     0009H     UNIT         ?XD?_SOFTADJUST_IB5_PROCESS?LNK_EMU_ADJ
            XDATA   0725H     0009H     UNIT         ?XD?_SOFTADJUST_PHASE_PROCESS?LNK_EMU_ADJ
            XDATA   072EH     0007H     UNIT         ?XD?_SETMETERCFGI?DRV_EMU_HARD
            XDATA   0735H     0007H     UNIT         ?XD?_LIB_GET_DATA_0XFF_ASCLEN?LIB_MYSPRING
            XDATA   073CH     0006H     UNIT         ?XD?_SETMETERCFGACKPM800K?DRV_EMU_HARD
            XDATA   0742H     0005H     UNIT         ?XD?PROC_SYSTEM_CHECK
            XDATA   0747H     0005H     UNIT         ?XD?_LIB_ENOB_GET?LIB_MYMATH
            XDATA   074CH     0005H     UNIT         ?XD?_LIB_MATH_GET_BCC_CHK?LIB_MYMATH
            XDATA   0751H     0004H     UNIT         ?XD?API_TRIFF
            XDATA   0755H     0003H     UNIT         ?XD?LNK_EMU_HANDL
            XDATA   0758H     0003H     UNIT         ?XD?_LIB_BCD_INC?LIB_MYMATH
            XDATA   075BH     0003H     UNIT         ?XD?_LIB_BCD_ARRY_ADD1?LIB_MYMATH
            XDATA   075EH     0003H     UNIT         ?XD?_LIB_MVHALFBYTE_R?LIB_MYSPRING
            XDATA   0761H     0003H     UNIT         ?XD?_LIB_MVHALFBYTE_L?LIB_MYSPRING
            XDATA   0764H     0003H     UNIT         ?XD?API_RELAY
            XDATA   0767H     0001H     UNIT         ?XD?MAIN
            XDATA   0768H     0001H     UNIT         ?XD?API_ADJERR

            * * * * * * *   C O D E   M E M O R Y   * * * * * * *
            CODE    0000H     0003H     ABSOLUTE     
            CODE    0003H     0003H     ABSOLUTE     
            CODE    0006H     0005H     UNIT         ?PR?START_TIMER?DRV_TMR
            CODE    000BH     0003H     ABSOLUTE     
BL51 BANKED LINKER/LOCATER V6.22                                                      02/16/2019  15:29:57  PAGE 4


            CODE    000EH     0005H     UNIT         ?PR?STOP_TIMER?DRV_TMR
            CODE    0013H     0003H     ABSOLUTE     
            CODE    0016H     0005H     UNIT         ?PR?_GET_ERROR_ANSWER?IEC62056_21
            CODE    001BH     0003H     ABSOLUTE     
            CODE    001EH     000DH     UNIT         ?PR?API_EVEN_DETECT_L2REVERSE?API_EVENT
            CODE    002BH     0003H     ABSOLUTE     
            CODE    002EH     000DH     UNIT         ?PR?API_EVEN_DETECT_L1REVERSE?API_EVENT
            CODE    003BH     0003H     ABSOLUTE     
            CODE    003EH     0005H     UNIT         ?PR?_GET_ACK_ANSWER?IEC62056_21
            CODE    0043H     0003H     ABSOLUTE     
            CODE    0046H     0004H     UNIT         ?PR?INTERRUPT_INT0?PROC_SYSTEM_INTERRUPT
            CODE    004AH     0001H     UNIT         ?PR?PROC_CHECK_SYSTEM_PRE_CYCLE?PROC_SYSTEM_CHECK
            CODE    004BH     0003H     ABSOLUTE     
            CODE    004EH     0004H     UNIT         ?PR?INTERRUPT_INT1?PROC_SYSTEM_INTERRUPT
            CODE    0052H     0001H     UNIT         ?PR?PROC_AUTO_CLRMETER_PRE_SEC?PROC_SYSTEM_TOU
            CODE    0053H     0003H     ABSOLUTE     
            CODE    0056H     0358H     UNIT         ?PR?CAL_TEMPERATURE_DATA?DRV_ADC
            CODE    03AEH     0052H     UNIT         ?PR?_API_CHG_LCDDISPLAY_ADJ_ITEM?API_LCD_DISPLAY
            CODE    0400H     0001H     ABSOLUTE     
            CODE    0401H     01FFH     ABSOLUTE     
            CODE    0600H     0D11H     UNIT         ?PR?_IEC_CMD_READ_DEAL?API_USER_COMM
            CODE    1311H     0A0CH     UNIT         ?C?LIB_CODE
            CODE    1D1DH     08E2H     UNIT         ?PR?_IEC_CMD_WRITE_DEAL?API_USER_COMM
            CODE    25FFH     07F3H     UNIT         ?CO?API_USER_COMM
            CODE    2DF2H     07DDH     UNIT         ?PR?HARDWARE_ADJUSTDIV_SUB?LNK_EMU_ADJ
            CODE    35CFH     0609H     UNIT         ?PR?_LNK_SAVE_EVEN_CLASS1_RECODE?API_EVENT
            CODE    3BD8H     05BEH     UNIT         ?PR?LNK_GET_EMU_RACTIVE_CONST?LNK_EMU_HANDL
            CODE    4196H     0458H     UNIT         ?PR?_PROCESS_IEC62056_21?API_USER_COMM
            CODE    45EEH     0454H     UNIT         ?PR?LINK_GET_DIS_DATA_NUM_BUFF?API_LCD_DISPLAY
            CODE    4A42H     0418H     UNIT         ?PR?_API_PWL_COVER_EVEN_CLASS_RECODE?API_EVENT
            CODE    4E5AH     03E7H     UNIT         ?PR?_API_GET_ENERGY_LCD?API_LCD_DISPLAY
            CODE    5241H     0321H     UNIT         ?PR?LINK_GET_DIS_OBIS_NUM_BUFF?API_LCD_DISPLAY
            CODE    5562H     02DCH     UNIT         ?PR?_MEASURE_ELECTRIC_ERR_GAIN?LNK_EMU_ADJ
            CODE    583EH     0283H     UNIT         ?PR?_LOAD_REC?API_LOADPROFILE
            CODE    5AC1H     0279H     UNIT         ?PR?_INIT_EMU?LNK_EMU_HANDL
            CODE    5D3AH     026EH     UNIT         ?PR?_CALIBRATION_CURRENT?LNK_EMU_ADJ
            CODE    5FA8H     0269H     UNIT         ?PR?API_ACCUM_CURRENT_ENERGY_DATA_PRE_SECOND?API_ENERGY
            CODE    6211H     025EH     UNIT         ?PR?_LPREC_READ_BLOCK?API_LOADPROFILE
            CODE    646FH     0256H     UNIT         ?PR?API_UPDATA_MD_VAR_SLID_PER_MINUTE?API_DEMAND
            CODE    66C5H     0237H     UNIT         ?PR?CHECK_EMU_ADJPARAM?LNK_EMU_ADJ
            CODE    68FCH     0212H     UNIT         ?PR?API_INIT_CURRENT_ENERGY_DATA_RAM?API_ENERGY
            CODE    6B0EH     01FCH     UNIT         ?PR?LINK_GET_DIS_DRV_BUFF?API_LCD_DISPLAY
            CODE    6D0AH     01F5H     UNIT         ?PR?_LNK_GET_EMU_ACTIVEPOWER?LNK_EMU_HANDL
            CODE    6EFFH     01E1H     UNIT         ?PR?API_FREEZE_ENERGY_RAM_PRE_DAY?API_BILL_RECORD
            CODE    70E0H     01D8H     UNIT         ?PR?MEM_DB_CHECK?PROC_EXMEM
            CODE    72B8H     01D8H     UNIT         ?PR?_API_GET_BILL_RECORD_ADDR?API_BILL_RECORD
            CODE    7490H     01D5H     UNIT         ?PR?_SOFTADJUST_PHASE_PROCESS?LNK_EMU_ADJ
            CODE    7665H     01B5H     UNIT         ?PR?_API_CMP_SAVE_MD_DATA?API_DEMAND
            CODE    781AH     01B3H     UNIT         ?PR?_TX_UART_FRIST?DRV_UART
            CODE    79CDH     01AFH     UNIT         ?PR?_LNK_GET_EMU_RACTIVEPOWER?LNK_EMU_HANDL
            CODE    7B7CH     01A7H     UNIT         ?PR?_CALIBRATION_SMALL_SIGNAL?LNK_EMU_ADJ
            CODE    7D23H     01A7H     UNIT         ?PR?LNK_CAL_EMU_CONSTSUM_PER_SECOND?LNK_EMU_HANDL
            CODE    7ECAH     01A2H     UNIT         ?PR?_API_GET_TRIFF_NO?API_TRIFF
            CODE    806CH     019DH     UNIT         ?PR?_CALCULATESCHZ?LNK_EMU_ADJ
            CODE    8209H     0193H     UNIT         ?PR?_API_WRITE_BILL_DATA?API_BILL_RECORD
            CODE    839CH     018EH     UNIT         ?PR?API_HANDL_SETTLE_WHEN_POWERUP?API_BILL_RECORD
            CODE    852AH     018BH     UNIT         ?PR?PROC_JUDGE_POWER_DOWN_PROCESS?PROC_SYSTEM_INITIALIZE
BL51 BANKED LINKER/LOCATER V6.22                                                      02/16/2019  15:29:57  PAGE 5


            CODE    86B5H     017DH     UNIT         ?PR?_SETRTCNORMAL?DRV_RTC
            CODE    8832H     017BH     UNIT         ?PR?_GET_IEC_COMM_VAR?API_USER_COMM
            CODE    89ADH     0169H     UNIT         ?PR?_GET_ORIGINAL_POWER?LNK_EMU_ADJ
            CODE    8B16H     0169H     UNIT         ?PR?_GET_ORIGINAL_IRMS?LNK_EMU_ADJ
            CODE    8C7FH     0168H     UNIT         ?PR?API_MEASURE_DEAL_PRE_SECOND?API_MEASURE
            CODE    8DE7H     0167H     UNIT         ?PR?_LNK_GET_EMU_VOLTAGE?LNK_EMU_HANDL
            CODE    8F4EH     0163H     UNIT         ?PR?_API_LCDDISPLAY_ADJ_ITEM?API_LCD_DISPLAY
            CODE    90B1H     014BH     UNIT         ?PR?_READMETERPARAACK?DRV_EMU_HARD
            CODE    91FCH     0142H     UNIT         ?PR?INTERRUPT_EXINT2?PROC_SYSTEM_INTERRUPT
            CODE    933EH     0138H     UNIT         ?C_INITSEG
            CODE    9476H     012FH     UNIT         ?PR?API_GET_SEASONTAB_NO?API_TRIFF
            CODE    95A5H     012FH     UNIT         ?PR?_IEC_COMM_COMMAND_CMD_JUDGE?IEC62056_21
            CODE    96D4H     012DH     UNIT         ?PR?PROC_HANDL_TOU_1S?PROC_SYSTEM_TOU
            CODE    9801H     012DH     UNIT         ?PR?_IEC_COMM_REQUEST_CMD_JUDGE?IEC62056_21
            CODE    992EH     012CH     UNIT         ?PR?_MEM_DB_WRITE?PROC_EXMEM
            CODE    9A5AH     012BH     UNIT         ?PR?_LNK_GET_EMU_CURRENT?LNK_EMU_HANDL
            CODE    9B85H     0129H     UNIT         ?PR?API_CLR_EVEN_BY_COMM?API_EVENT
            CODE    9CAEH     0124H     UNIT         ?PR?_CALIBRATION_ANGULAR?LNK_EMU_ADJ
            CODE    9DD2H     0111H     UNIT         ?PR?_SOFTADJUST_IB_PROCESS?LNK_EMU_ADJ
            CODE    9EE3H     0110H     UNIT         ?PR?API_CLR_BILL_DATA?API_BILL_RECORD
            CODE    9FF3H     0107H     UNIT         ?PR?_API_HANDL_COMM_PRE_10MS?API_USER_COMM
            CODE    A0FAH     0103H     UNIT         ?PR?_CALCULATEAC?LNK_EMU_ADJ
            CODE    A1FDH     0101H     UNIT         ?PR?_GET_DEFAULT_MEM_DATA?PROC_EXMEM
            CODE    A2FEH     00FEH     UNIT         ?PR?_GETTOTALTIME?API_EVENT
            CODE    A3FCH     00FDH     UNIT         ?PR?TIMEEVENTPROC?LNK_EMU_ADJ
            CODE    A4F9H     00F7H     UNIT         ?PR?_LINK_GET_DISTAB_VAR?API_LCD_DISPLAY
            CODE    A5F0H     00F2H     UNIT         ?PR?_CALCULATESC?LNK_EMU_ADJ
            CODE    A6E2H     00F2H     UNIT         ?PR?_GET_UART_RX_BUFF?DRV_UART
            CODE    A7D4H     00F0H     UNIT         ?PR?_LIB_CHECK_RTC_DATA_FORM?LIB_MYMATH
            CODE    A8C4H     00F0H     UNIT         ?PR?_IEC_CMD_PASSWORD_DEAL?API_USER_COMM
            CODE    A9B4H     00F0H     UNIT         ?PR?_FLOOR?FLOOR
            CODE    AAA4H     00EFH     UNIT         ?PR?_MEM_TO_MEM?PROC_EXMEM
            CODE    AB93H     00E6H     UNIT         ?PR??C?ATOF??C?ATOF
            CODE    AC79H     00E5H     UNIT         ?PR?PROC_INITIALIZE_INRAM?PROC_SYSTEM_INITIALIZE
            CODE    AD5EH     00E5H     UNIT         ?PR?_SET_MCUCLOCK?DRV_CORE
            CODE    AE43H     00E0H     UNIT         ?PR?_WRITE_LCD?DRV_LCD
            CODE    AF23H     00DEH     UNIT         ?PR?_HDL_UART_10MS_RUN?DRV_UART
            CODE    B001H     00DCH     UNIT         ?PR?_LNK_GET_EMU_FREQ?LNK_EMU_HANDL
            CODE    B0DDH     00D9H     UNIT         ?PR?_LNK_TX_COMM_READY?API_USER_COMM
            CODE    B1B6H     00D7H     UNIT         ?PR?API_CLR_CURRENT_MD_DATA?API_DEMAND
            CODE    B28DH     00D6H     UNIT         ?PR?API_UPDATED_LCDDISPLAYITEM_PER_SECOND?API_LCD_DISPLAY
            CODE    B363H     00D4H     UNIT         ?PR?_SOFTADJUST_IB5_PROCESS?LNK_EMU_ADJ
            CODE    B437H     00D3H     UNIT         ?PR?API_UPDATED_LCDDISPLAYPIXEL_PER_SECOND?API_LCD_DISPLAY
            CODE    B50AH     00CBH     UNIT         ?PR?_GET_IEC_COMM_OPERAND_ANSWER?IEC62056_21
            CODE    B5D5H     00C9H     UNIT         ?PR?_LIB_BCD4_LONG?LIB_MYMATH
            CODE    B69EH     00C7H     UNIT         ?PR?_GET_MEM_CK_DATA?PROC_EXMEM
            CODE    B765H     00C6H     UNIT         ?PR?LINK_GET_DIS_CHAR_BUFF?API_LCD_DISPLAY
            CODE    B82BH     00C4H     UNIT         ?PR?_CALIBRATION_POWER?LNK_EMU_ADJ
            CODE    B8EFH     00C3H     UNIT         ?PR?_API_DEAL_EVEN_CLASS_RECODE?API_EVENT
            CODE    B9B2H     00C0H     UNIT         ?PR?_MEM_DB_CLR?PROC_EXMEM
            CODE    BA72H     00B9H     UNIT         ?CO?LNK_EMU_ADJ
            CODE    BB2BH     00B7H     UNIT         ?PR?_LIB_LONG_BCD4?LIB_MYMATH
            CODE    BBE2H     00B5H     UNIT         ?PR?MAIN?MAIN
            CODE    BC97H     00B4H     UNIT         ?PR?_READ_EEPROM_PAGE_SUB?DRV_E2P_24CXXX
            CODE    BD4BH     00B0H     UNIT         ?PR?_SET_EMUCLOCK?DRV_CORE
            CODE    BDFBH     00AFH     UNIT         ?PR?PROC_CHECK_PROKEY_PRE_SEC?PROC_SYSTEM_CHECK
            CODE    BEAAH     00AFH     UNIT         ?PR?_SETMETERCFGI?DRV_EMU_HARD
BL51 BANKED LINKER/LOCATER V6.22                                                      02/16/2019  15:29:57  PAGE 6


            CODE    BF59H     00AFH     UNIT         ?PR?API_CHECK_CURRENT_ENERGY_DATA?API_ENERGY
            CODE    C008H     00ADH     UNIT         ?PR?_LIB_REV_COPY_ARRY?LIB_MYSPRING
            CODE    C0B5H     00ACH     UNIT         ?PR?SQRT?SQRT
            CODE    C161H     00ABH     UNIT         ?PR?_WRITE_EEPROM_PAGE_SUB?DRV_E2P_24CXXX
            CODE    C20CH     00ABH     UNIT         ?PR?_LPREC_READ_1?API_LOADPROFILE
            CODE    C2B7H     00A8H     UNIT         ?PR?_INIT_UART_SOFT?DRV_UART
            CODE    C35FH     00A0H     UNIT         ?PR?_READ_EEPROM?DRV_E2P_24CXXX
            CODE    C3FFH     00A0H     UNIT         ?PR?_API_GET_DAYTAB_NO?API_TRIFF
            CODE    C49FH     009FH     UNIT         ?PR?API_FREEZE_ENERGY_PRE_DAY?API_BILL_RECORD
            CODE    C53EH     009EH     UNIT         ?PR?_MEM_FILL?PROC_EXMEM
            CODE    C5DCH     009EH     UNIT         ?PR?_SETMETERCFGACKPM800K?DRV_EMU_HARD
            CODE    C67AH     009EH     UNIT         ?PR?_SETMETERCFGACK?DRV_EMU_HARD
            CODE    C718H     009DH     UNIT         ?PR?_WRITE_EEPROM?DRV_E2P_24CXXX
            CODE    C7B5H     009DH     UNIT         ?PR?_E2P_TXBYTE_I2C?DRV_E2P_I2CSOFT
            CODE    C852H     009BH     UNIT         ?PR?_MEM_WRITE?PROC_EXMEM
            CODE    C8EDH     009AH     UNIT         ?PR?API_HANDL_SETTLE_PER_MINUTE?API_BILL_RECORD
            CODE    C987H     009AH     UNIT         ?CO?API_TRIFF
            CODE    CA21H     0097H     UNIT         ?PR?PROC_GET_CLOCK?PROC_SYSTEM_TOU
            CODE    CAB8H     0097H     UNIT         ?PR?_LIB_GETGMDAY?LIB_MYMATH
            CODE    CB4FH     0096H     UNIT         ?PR?DRV_RELAY_POWERUP_CHECK?API_RELAY
            CODE    CBE5H     0094H     UNIT         ?PR?_MEM_READ?PROC_EXMEM
            CODE    CC79H     0094H     UNIT         ?PR?LOADPRO_REC?API_LOADPROFILE
            CODE    CD0DH     0091H     UNIT         ?PR?_GET_MEM_TABLE_INDEX?PROC_EXMEM
            CODE    CD9EH     008EH     UNIT         ?PR?_E2P_RXBYTE_I2C?DRV_E2P_I2CSOFT
            CODE    CE2CH     008DH     UNIT         ?PR?_WRITE_EEPROM_PAGE?DRV_E2P_24CXXX
            CODE    CEB9H     008CH     UNIT         ?PR?INIT_GPIO_RUN?DRV_GPIO
            CODE    CF45H     0088H     UNIT         ?PR?_GET_IEC_COMM_REQUEST_CMD_ANSWER?IEC62056_21
            CODE    CFCDH     0086H     UNIT         ?C_C51STARTUP
            CODE    D053H     007BH     UNIT         ?PR?_READ_EEPROM_PAGE?DRV_E2P_24CXXX
            CODE    D0CEH     007AH     UNIT         ?PR?PROC_INITIALIZE_SYSTERM_NORMAL_MODE?PROC_SYSTEM_INITIALIZE
            CODE    D148H     0079H     UNIT         ?PR?_LIB_CMP_TWOARRY?LIB_MYSPRING
            CODE    D1C1H     0079H     UNIT         ?PR?_LIB_MVHALFBYTE_L?LIB_MYSPRING
            CODE    D23AH     0078H     UNIT         ?PR?_LIB_BCD_ASC?LIB_MYMATH
            CODE    D2B2H     0077H     UNIT         ?PR?_LIB_WORD_BCD2?LIB_MYMATH
            CODE    D329H     0076H     UNIT         ?PR?SET_SLEEP_OUT?DRV_CORE
            CODE    D39FH     0076H     UNIT         ?PR?_SET_UART2_BADU?DRV_UART
            CODE    D415H     0076H     UNIT         ?PR?_SET_UART4_BADU?DRV_UART
            CODE    D48BH     0076H     UNIT         ?PR?_LIB_GET_DATA_0XFF_ASCLEN?LIB_MYSPRING
            CODE    D501H     0074H     UNIT         ?PR?API_UPDATA_MD_VAR_MIN_PER_SECOND?API_DEMAND
            CODE    D575H     0074H     UNIT         ?PR?API_CLR_FREEZE_ENERGY?API_DEMAND
            CODE    D5E9H     0073H     UNIT         ?PR?PROC_SYS_DATA_INIT?PROC_DATA
            CODE    D65CH     0071H     UNIT         ?PR?_LIB_ASC_BCDA?LIB_MYMATH
            CODE    D6CDH     0071H     UNIT         ?PR?_LIB_BCD_ASCA?LIB_MYMATH
            CODE    D73EH     006EH     UNIT         ?PR?_LIB_ASC_BCD?LIB_MYMATH
            CODE    D7ACH     006DH     UNIT         ?PR?INIT_LCD?DRV_LCD
            CODE    D819H     006CH     UNIT         ?CO?PROC_EXMEM
            CODE    D885H     006CH     UNIT         ?PR?INIT_LOADPRO_PARAM?API_LOADPROFILE
            CODE    D8F1H     006CH     UNIT         ?PR?_API_HANDL_COMM_FRAME_ERROR?API_USER_COMM
            CODE    D95DH     006AH     UNIT         ?PR?API_CLR_CURRENT_ENERGY_DATA?API_ENERGY
            CODE    D9C7H     0069H     UNIT         ?PR?_SET_RTCTIME?DRV_RTC
            CODE    DA30H     0069H     UNIT         ?PR?API_EVEN_EE_ERR?API_EVENT
            CODE    DA99H     0068H     UNIT         ?PR?API_HANDL_BUTTON_PRE_10MS?PROC_SYSTEM_TOU
            CODE    DB01H     0068H     UNIT         ?PR?LNK_ADD_FAC_ENERGY_PLUSE?API_ENERGY
            CODE    DB69H     0066H     UNIT         ?PR?INTERRUPT_EXINT3?PROC_SYSTEM_INTERRUPT
            CODE    DBCFH     0066H     UNIT         ?CO?API_LCD_DISPLAY
            CODE    DC35H     0064H     UNIT         ?PR?_IEC_COMM_ACKNOWLEDGEMENT_CMD_JUDGE?IEC62056_21
            CODE    DC99H     0061H     UNIT         ?CO?PROC_DATA
BL51 BANKED LINKER/LOCATER V6.22                                                      02/16/2019  15:29:57  PAGE 7


            CODE    DCFAH     005FH     UNIT         ?PR?_GET_RTCTIME?DRV_RTC
            CODE    DD59H     005DH     UNIT         ?PR?_LIB_COPY_STR_TWOARRY?LIB_MYSPRING
            CODE    DDB6H     005DH     UNIT         ?PR?_LIB_MVHALFBYTE_R?LIB_MYSPRING
            CODE    DE13H     005CH     UNIT         ?PR?API_UPDATE_TRIFFNO_PRE_MINUTE?API_TRIFF
            CODE    DE6FH     005AH     UNIT         ?PR?INTERRUPT_TIMER0?PROC_SYSTEM_INTERRUPT
            CODE    DEC9H     0057H     UNIT         ?PR?INIT_GPIO_SLEEP?DRV_GPIO
            CODE    DF20H     0055H     UNIT         ?PR?PROC_CHECK_COVER_PRE_SEC?PROC_SYSTEM_CHECK
            CODE    DF75H     0055H     UNIT         ?PR?SET_MCUSLEEP?DRV_CORE
            CODE    DFCAH     0050H     UNIT         ?PR?PROC_HANDLE_WHEN_SYSTERM_RESET?PROC_SYSTEM_INITIALIZE
            CODE    E01AH     004FH     UNIT         ?PR?UART4_TRANSMIT?DRV_UART
            CODE    E069H     004DH     UNIT         ?PR?PROC_DISPLAY_POWER_DOWN_PROCESS?PROC_SYSTEM_INITIALIZE
            CODE    E0B6H     004CH     UNIT         ?PR?_LIB_BCD_INC?LIB_MYMATH
            CODE    E102H     004CH     UNIT         ?PR?_LIB_GETGMMIN?LIB_MYMATH
            CODE    E14EH     004CH     UNIT         ?PR?_LIB_GETGMSEC?LIB_MYMATH
            CODE    E19AH     004BH     UNIT         ?PR?LNK_UPDATA_MD_VAR_POWER_PER_SECOND?API_DEMAND
            CODE    E1E5H     004AH     UNIT         ?PR?_LIB_GETGMHOUR?LIB_MYMATH
            CODE    E22FH     0049H     UNIT         ?PR?EN_UART2_RX?DRV_UART
            CODE    E278H     0049H     UNIT         ?PR?ATOF?ATOF
            CODE    E2C1H     0048H     UNIT         ?PR?PROC_SLEEP_WHEN_RESET?PROC_SYSTEM_INITIALIZE
            CODE    E309H     0047H     UNIT         ?PR?_DRV_RELAY_COMM_CMD_OPERATING?API_RELAY
            CODE    E350H     0047H     UNIT         ?PR?API_GET_NEXT_DIS_ITEM?API_LCD_DISPLAY
            CODE    E397H     0044H     UNIT         ?C?LDIV
            CODE    E3DBH     0043H     UNIT         ?PR?EN_UART4_RX?DRV_UART
            CODE    E41EH     0043H     UNIT         ?PR?_LIB_BCD_ARRY_ADD1?LIB_MYMATH
            CODE    E461H     0042H     UNIT         ?PR?LOADPRORST?API_LOADPROFILE
            CODE    E4A3H     0040H     UNIT         ?CO?DRV_ADC
            CODE    E4E3H     0040H     UNIT         ?PR?RF_COMM_DEAL?API_USER_COMM
            CODE    E523H     003FH     UNIT         ?PR?API_EVEN_DETECT_SEC?API_EVENT
            CODE    E562H     003EH     UNIT         ?PR?GET_EMU_ADJPARAM?LNK_EMU_ADJ
            CODE    E5A0H     003EH     UNIT         ?PR?API_HANDL_DIS_KEY?API_LCD_DISPLAY
            CODE    E5DEH     003DH     UNIT         ?PR?_GET_METER_ID_ASCLEN?API_USER_COMM
            CODE    E61BH     003CH     UNIT         ?PR?_ENABLE_M_ADC?DRV_ADC
            CODE    E657H     003CH     UNIT         ?PR?SAMLPE_BATADC?DRV_ADC
            CODE    E693H     003BH     UNIT         ?PR?E2P_STOP_I2C?DRV_E2P_I2CSOFT
            CODE    E6CEH     003BH     UNIT         ?PR?_SETEXTRTC?DRV_RTC
            CODE    E709H     003BH     UNIT         ?PR?_LIB_ATOB?LIB_MYMATH
            CODE    E744H     003BH     UNIT         ?CO?API_EVENT
            CODE    E77FH     003AH     UNIT         ?PR?_LIB_FCPYTMEM?LIB_MYSPRING
            CODE    E7B9H     003AH     UNIT         ?PR?API_INIT_MD_DATA_RAM?API_DEMAND
            CODE    E7F3H     0039H     UNIT         ?PR?SAVE_EMU_ADJPARAM?LNK_EMU_ADJ
            CODE    E82CH     0038H     UNIT         ?PR?_LIB_ENOB_GET?LIB_MYMATH
            CODE    E864H     0038H     UNIT         ?PR?_API_CHECK_DEMAND_PARA?API_DEMAND
            CODE    E89CH     0038H     UNIT         ?PR?_GET_BCC_CHK?IEC62056_21
            CODE    E8D4H     0037H     UNIT         ?PR?E2P_START_I2C?DRV_E2P_I2CSOFT
            CODE    E90BH     0036H     UNIT         ?PR?API_MEASURE_VBAT_PRE_MIN?API_MEASURE
            CODE    E941H     0034H     UNIT         ?PR?API_INIT_DISPLAY?API_LCD_DISPLAY
            CODE    E975H     0032H     UNIT         ?PR?_LIB_MATH_GET_BCC_CHK?LIB_MYMATH
            CODE    E9A7H     0031H     UNIT         ?PR?PROC_INITIALIZE_SYSTERM_RESET?PROC_SYSTEM_INITIALIZE
            CODE    E9D8H     0031H     UNIT         ?PR?SAMLPE_TEMPERATUREADC?DRV_ADC
            CODE    EA09H     0031H     UNIT         ?PR?_LIB_GET_CSCK_INT16U_NUM?LIB_MYMATH
            CODE    EA3AH     002DH     UNIT         ?PR?_IEC_CMD_BREAK_DEAL?API_USER_COMM
            CODE    EA67H     002CH     UNIT         ?PR?INTERRUPT_EXINT4?PROC_SYSTEM_INTERRUPT
            CODE    EA93H     002CH     UNIT         ?PR?DISABLE_M_ADC?DRV_ADC
            CODE    EABFH     002BH     UNIT         ?PR?_LIB_BTOA?LIB_MYMATH
            CODE    EAEAH     002BH     UNIT         ?PR?_LIB_SET_STRING?LIB_MYSPRING
            CODE    EB15H     0029H     UNIT         ?PR?_LIB_SYSTEMDELAY?LIB_MYTIMER
            CODE    EB3EH     0028H     UNIT         ?PR?API_MEASURE_RAM_INIT?API_MEASURE
BL51 BANKED LINKER/LOCATER V6.22                                                      02/16/2019  15:29:57  PAGE 8


            CODE    EB66H     0028H     UNIT         ?PR?API_HANDL_DIS_SLEEP?API_LCD_DISPLAY
            CODE    EB8EH     0027H     UNIT         ?PR?CLOSE_CF?DRV_EMU_HARD
            CODE    EBB5H     0027H     UNIT         ?PR?_FULL_SEG?DRV_LCD
            CODE    EBDCH     0027H     UNIT         ?PR?_LIB_GET_CSCK_INT8U_NUM?LIB_MYMATH
            CODE    EC03H     0027H     UNIT         ?PR?_LIB_BCDCHK?LIB_MYMATH
            CODE    EC2AH     0025H     UNIT         ?PR?PROC_HANDL_TOU_10MS?PROC_SYSTEM_TOU
            CODE    EC4FH     0025H     UNIT         ?PR?_LIB_BCD2_WORD?LIB_MYMATH
            CODE    EC74H     0025H     UNIT         ?PR?_JUDAGE_MONTH?API_BILL_RECORD
            CODE    EC99H     0022H     UNIT         ?PR?_LIB_DELAY_SEC?LIB_MYTIMER
            CODE    ECBBH     0022H     UNIT         ?PR?LINK_GET_DIS_REALCHAR_BUFF?API_LCD_DISPLAY
            CODE    ECDDH     0021H     UNIT         ?PR?_JUDAGE_YEAR?API_BILL_RECORD
            CODE    ECFEH     0021H     UNIT         ?PR?API_EVEN_DETECT_NOL2?API_EVENT
            CODE    ED1FH     0021H     UNIT         ?PR?API_EVEN_DETECT_NOL1?API_EVENT
            CODE    ED40H     001EH     UNIT         ?PR?E2P_IIC_INITAIL?DRV_E2P_I2CSOFT
            CODE    ED5EH     001EH     UNIT         ?PR?_LIB_CLR_STRING_U16?LIB_MYSPRING
            CODE    ED7CH     001CH     UNIT         ?PR?CLR_ALL_LCD?DRV_LCD
            CODE    ED98H     001CH     UNIT         ?PR?_LIB_BYTE_BCD?LIB_MYMATH
            CODE    EDB4H     001BH     UNIT         ?PR?CLR_RTC_ADJPARAM?DRV_RTC
            CODE    EDCFH     001BH     UNIT         ?PR?_LIB_BCD_BYTE?LIB_MYMATH
            CODE    EDEAH     001BH     UNIT         ?PR?_LIB_CLR_STRING?LIB_MYSPRING
            CODE    EE05H     001AH     UNIT         ?PR?JUDGE_ERR_ADJ_KEY?DRV_KEY_IO
            CODE    EE1FH     001AH     UNIT         ?PR?JUDGE_PG_DN_KEY?DRV_KEY_IO
            CODE    EE39H     001AH     UNIT         ?PR?JUDGE_MAGN_CHK_KEY?DRV_KEY_IO
            CODE    EE53H     001AH     UNIT         ?PR?API_MEASURE_TEMPERATURE_PRE_MIN?API_MEASURE
            CODE    EE6DH     0019H     UNIT         ?PR?_LIB_DELAY_MS?LIB_MYTIMER
            CODE    EE86H     0018H     UNIT         ?PR?CHECKPOWERUP?PROC_SYSTEM_CHECK
            CODE    EE9EH     0018H     UNIT         ?PR?JUDGE_MD_CLEAR_KEY?DRV_KEY_IO
            CODE    EEB6H     0018H     UNIT         ?PR?JUDGE_ERR_COVER_KEY?DRV_KEY_IO
            CODE    EECEH     0017H     UNIT         ?PR?INTERRUPT_UART1?PROC_SYSTEM_INTERRUPT
            CODE    EEE5H     0016H     UNIT         ?PR?EN_UART2_TX?DRV_UART
            CODE    EEFBH     0016H     UNIT         ?PR?EN_UART4_TX?DRV_UART
            CODE    EF11H     0016H     UNIT         ?PR?_LIB_CHECK_BITNUM?LIB_MYMATH
            CODE    EF27H     0014H     UNIT         ?PR?PROC_INIT_CHECK_VAR?PROC_SYSTEM_CHECK
            CODE    EF3BH     0014H     UNIT         ?PR?OPENCF?DRV_EMU_HARD
            CODE    EF4FH     0014H     UNIT         ?PR?_ISSPACE?ISSPACE
            CODE    EF63H     0013H     UNIT         ?PR?SYS_ERR?PROC_SYSTEM_INITIALIZE
            CODE    EF76H     0013H     UNIT         ?PR?OPEN_SECOUT?DRV_RTC
            CODE    EF89H     000FH     UNIT         ?PR?INIT_TIMER?DRV_TMR
            CODE    EF98H     000EH     UNIT         ?PR?LCD_ON?DRV_LCD
            CODE    EFA6H     000DH     UNIT         ?PR?API_EVEN_DETECT_LOWBATTERY?API_EVENT
            CODE    EFB3H     000DH     UNIT         ?PR?SECURITYCK?API_USER_COMM
            CODE    EFC0H     000BH     UNIT         ?PR?INIT_RTC?DRV_RTC
            CODE    EFCBH     000BH     UNIT         ?PR?_LIB_DELAY_2US?LIB_MYTIMER
            CODE    EFD6H     000AH     UNIT         ?PR?INITLIZE_AUTO_CLRMETER_VAR?PROC_SYSTEM_TOU
            CODE    EFE0H     000AH     UNIT         ?PR?_LIB_DELAY_NOP?LIB_MYTIMER
            CODE    EFEAH     0008H     UNIT         ?PR?DIS_UART2_RX?DRV_UART
            CODE    EFF2H     0008H     UNIT         ?PR?DIS_UART4_RX?DRV_UART
            CODE    EFFAH     0008H     UNIT         ?CO?API_BILL_RECORD
            CODE    F002H     0006H     UNIT         ?PR?_INIT_UART2_HARD?DRV_UART
            CODE    F008H     0006H     UNIT         ?PR?_INIT_UART4_HARD?DRV_UART
            CODE    F00EH     0004H     UNIT         ?PR?INTERRUPT_TIMER1?PROC_SYSTEM_INTERRUPT
            CODE    F012H     0004H     UNIT         ?PR?INTERRUPT_TIMER2?PROC_SYSTEM_INTERRUPT
            CODE    F016H     0003H     UNIT         ?PR?PROC_INIT_TOU_VAR?PROC_SYSTEM_TOU
            CODE    F019H     0003H     UNIT         ?PR?INIT_EMU_RAM?LNK_EMU_HANDL
            CODE    F01CH     0003H     UNIT         ?PR?LCD_OFF?DRV_LCD
            CODE    F01FH     0003H     UNIT         ?PR?LNK_ADD_RAC_ENERGY_PLUSE?API_ENERGY
            CODE    F022H     0003H     UNIT         ?PR?READLPRUNPA?API_LOADPROFILE
BL51 BANKED LINKER/LOCATER V6.22                                                      02/16/2019  15:29:57  PAGE 9


            CODE    F025H     0002H     UNIT         ?PR?API_EVEN_INT?API_EVENT
            CODE    F027H     0001H     UNIT         ?PR?CLOSE_EMUPWR?DRV_EMU_HARD
            CODE    F028H     0001H     UNIT         ?PR?HANDL_RTC_ADJ_PER_MINU?DRV_RTC
            CODE    F029H     0001H     UNIT         ?PR?DRV_RELAY_RUN_CHECK?API_RELAY
            CODE    F02AH     0001H     UNIT         ?PR?API_UPDATED_LED_PER_SECOND?API_LCD_DISPLAY



OVERLAY MAP OF MODULE:   DI03B_9811A_V10 (?C_STARTUP)


SEGMENT                                             BIT_GROUP          DATA_GROUP          XDATA_GROUP
  +--> CALLED SEGMENT                            START    LENGTH     START    LENGTH     START    LENGTH
--------------------------------------------------------------------------------------------------------
?C_C51STARTUP                                    -----    -----      -----    -----      -----    -----
  +--> ?PR?MAIN?MAIN
  +--> ?C_INITSEG

?PR?MAIN?MAIN                                    -----    -----      -----    -----      -----    -----
  +--> ?PR?PROC_INITIALIZE_SYSTERM_RESET?PRO...
  +--> ?PR?CHECKPOWERUP?PROC_SYSTEM_CHECK
  +--> ?PR?PROC_HANDL_TOU_10MS?PROC_SYSTEM_TOU
  +--> ?PR?PROC_JUDGE_POWER_DOWN_PROCESS?PRO...
  +--> ?PR?PROC_HANDL_TOU_1S?PROC_SYSTEM_TOU
  +--> ?PR?API_UPDATED_LCDDISPLAYITEM_PER_SE...
  +--> ?PR?API_CLR_CURRENT_MD_DATA?API_DEMAND
  +--> ?PR?_API_DEAL_EVEN_CLASS_RECODE?API_E...
  +--> ?PR?_FULL_SEG?DRV_LCD
  +--> ?PR?DRV_RELAY_RUN_CHECK?API_RELAY

?PR?PROC_INITIALIZE_SYSTERM_RESET?PRO...         -----    -----      -----    -----      -----    -----
  +--> ?PR?PROC_HANDLE_WHEN_SYSTERM_RESET?PR...
  +--> ?PR?CHECKPOWERUP?PROC_SYSTEM_CHECK
  +--> ?PR?_LIB_DELAY_MS?LIB_MYTIMER
  +--> ?PR?PROC_SLEEP_WHEN_RESET?PROC_SYSTEM...
  +--> ?PR?PROC_INITIALIZE_SYSTERM_NORMAL_MO...

?PR?PROC_HANDLE_WHEN_SYSTERM_RESET?PR...         -----    -----      -----    -----      -----    -----
  +--> ?PR?_SET_MCUCLOCK?DRV_CORE
  +--> ?PR?INIT_GPIO_SLEEP?DRV_GPIO
  +--> ?PR?E2P_IIC_INITAIL?DRV_E2P_I2CSOFT
  +--> ?PR?E2P_STOP_I2C?DRV_E2P_I2CSOFT

?PR?_SET_MCUCLOCK?DRV_CORE                       -----    -----      -----    -----      0007H    0005H
  +--> ?PR?SYS_ERR?PROC_SYSTEM_INITIALIZE

?PR?PROC_SLEEP_WHEN_RESET?PROC_SYSTEM...         -----    -----      -----    -----      0000H    0002H
  +--> ?PR?API_MEASURE_RAM_INIT?API_MEASURE
  +--> ?PR?API_INIT_CURRENT_ENERGY_DATA_RAM?...
  +--> ?PR?INIT_LCD?DRV_LCD
  +--> ?PR?API_HANDL_DIS_SLEEP?API_LCD_DISPLAY
  +--> ?PR?INIT_GPIO_SLEEP?DRV_GPIO
  +--> ?PR?_SETEXTRTC?DRV_RTC
  +--> ?PR?SET_MCUSLEEP?DRV_CORE
  +--> ?PR?SYS_ERR?PROC_SYSTEM_INITIALIZE

?PR?API_MEASURE_RAM_INIT?API_MEASURE             -----    -----      -----    -----      -----    -----
BL51 BANKED LINKER/LOCATER V6.22                                                      02/16/2019  15:29:57  PAGE 10


  +--> ?PR?_LIB_SET_STRING?LIB_MYSPRING

?PR?_LIB_SET_STRING?LIB_MYSPRING                 -----    -----      -----    -----      0179H    0006H

?PR?API_INIT_CURRENT_ENERGY_DATA_RAM?...         -----    -----      -----    -----      0003H    0011H
  +--> ?PR?_LIB_SET_STRING?LIB_MYSPRING
  +--> ?PR?API_CHECK_CURRENT_ENERGY_DATA?API...
  +--> ?PR?_MEM_READ?PROC_EXMEM
  +--> ?PR?_LIB_BCD_BYTE?LIB_MYMATH
  +--> ?PR?_JUDAGE_MONTH?API_BILL_RECORD
  +--> ?PR?_API_WRITE_BILL_DATA?API_BILL_RECORD
  +--> ?PR?API_CLR_CURRENT_MD_DATA?API_DEMAND

?PR?API_CHECK_CURRENT_ENERGY_DATA?API...         -----    -----      -----    -----      -----    -----
  +--> ?PR?_LIB_GET_CSCK_INT16U_NUM?LIB_MYMATH
  +--> ?PR?_MEM_READ?PROC_EXMEM
  +--> ?PR?_LIB_COPY_STR_TWOARRY?LIB_MYSPRING

?PR?_LIB_GET_CSCK_INT16U_NUM?LIB_MYMATH          -----    -----      -----    -----      01D3H    0007H

?PR?_MEM_READ?PROC_EXMEM                         -----    -----      -----    -----      01D3H    000BH
  +--> ?PR?_LIB_COPY_STR_TWOARRY?LIB_MYSPRING
  +--> ?PR?_READ_EEPROM?DRV_E2P_24CXXX
  +--> ?PR?SYS_ERR?PROC_SYSTEM_INITIALIZE

?PR?_LIB_COPY_STR_TWOARRY?LIB_MYSPRING           -----    -----      -----    -----      01DEH    0008H

?PR?_READ_EEPROM?DRV_E2P_24CXXX                  -----    -----      -----    -----      01DEH    0008H
  +--> ?PR?_READ_EEPROM_PAGE?DRV_E2P_24CXXX

?PR?_READ_EEPROM_PAGE?DRV_E2P_24CXXX             -----    -----      -----    -----      01E6H    0047H
  +--> ?PR?_READ_EEPROM_PAGE_SUB?DRV_E2P_24CXXX
  +--> ?PR?_LIB_CMP_TWOARRY?LIB_MYSPRING

?PR?_READ_EEPROM_PAGE_SUB?DRV_E2P_24CXXX         -----    -----      -----    -----      022DH    0009H
  +--> ?PR?E2P_STOP_I2C?DRV_E2P_I2CSOFT
  +--> ?PR?E2P_START_I2C?DRV_E2P_I2CSOFT
  +--> ?PR?_E2P_TXBYTE_I2C?DRV_E2P_I2CSOFT
  +--> ?PR?_E2P_RXBYTE_I2C?DRV_E2P_I2CSOFT

?PR?_E2P_TXBYTE_I2C?DRV_E2P_I2CSOFT              -----    -----      0008H    0001H      -----    -----
  +--> ?PR?E2P_STOP_I2C?DRV_E2P_I2CSOFT

?PR?_E2P_RXBYTE_I2C?DRV_E2P_I2CSOFT              -----    -----      0008H    0002H      -----    -----

?PR?_LIB_CMP_TWOARRY?LIB_MYSPRING                -----    -----      -----    -----      022DH    0007H

?PR?_JUDAGE_MONTH?API_BILL_RECORD                -----    -----      -----    -----      -----    -----
  +--> ?PR?_JUDAGE_YEAR?API_BILL_RECORD

?PR?_API_WRITE_BILL_DATA?API_BILL_RECORD         -----    -----      -----    -----      0014H    0073H
  +--> ?PR?_LIB_CLR_STRING?LIB_MYSPRING
  +--> ?CO?API_BILL_RECORD
  +--> ?PR?_MEM_READ?PROC_EXMEM
  +--> ?PR?_MEM_DB_WRITE?PROC_EXMEM
  +--> ?PR?_LIB_COPY_STR_TWOARRY?LIB_MYSPRING
  +--> ?PR?SYS_ERR?PROC_SYSTEM_INITIALIZE
BL51 BANKED LINKER/LOCATER V6.22                                                      02/16/2019  15:29:57  PAGE 11



?PR?_MEM_DB_WRITE?PROC_EXMEM                     -----    -----      -----    -----      0179H    0012H
  +--> ?PR?_GET_MEM_TABLE_INDEX?PROC_EXMEM
  +--> ?PR?SYS_ERR?PROC_SYSTEM_INITIALIZE
  +--> ?CO?PROC_EXMEM
  +--> ?PR?_MEM_WRITE?PROC_EXMEM
  +--> ?PR?_GET_MEM_CK_DATA?PROC_EXMEM

?PR?_GET_MEM_TABLE_INDEX?PROC_EXMEM              -----    -----      -----    -----      018BH    0004H
  +--> ?CO?PROC_EXMEM

?PR?_MEM_WRITE?PROC_EXMEM                        -----    -----      -----    -----      018BH    0008H
  +--> ?PR?_LIB_COPY_STR_TWOARRY?LIB_MYSPRING
  +--> ?PR?_WRITE_EEPROM?DRV_E2P_24CXXX
  +--> ?PR?SYS_ERR?PROC_SYSTEM_INITIALIZE

?PR?_WRITE_EEPROM?DRV_E2P_24CXXX                 -----    -----      -----    -----      0193H    0008H
  +--> ?PR?_WRITE_EEPROM_PAGE?DRV_E2P_24CXXX

?PR?_WRITE_EEPROM_PAGE?DRV_E2P_24CXXX            -----    -----      -----    -----      019BH    0047H
  +--> ?PR?SYS_ERR?PROC_SYSTEM_INITIALIZE
  +--> ?PR?_WRITE_EEPROM_PAGE_SUB?DRV_E2P_24...
  +--> ?PR?_READ_EEPROM_PAGE_SUB?DRV_E2P_24CXXX
  +--> ?PR?_LIB_CMP_TWOARRY?LIB_MYSPRING

?PR?_WRITE_EEPROM_PAGE_SUB?DRV_E2P_24...         -----    -----      -----    -----      01E2H    0009H
  +--> ?PR?E2P_STOP_I2C?DRV_E2P_I2CSOFT
  +--> ?PR?E2P_START_I2C?DRV_E2P_I2CSOFT
  +--> ?PR?_E2P_TXBYTE_I2C?DRV_E2P_I2CSOFT
  +--> ?PR?_LIB_DELAY_MS?LIB_MYTIMER

?PR?_GET_MEM_CK_DATA?PROC_EXMEM                  -----    -----      -----    -----      018BH    0048H
  +--> ?PR?_MEM_READ?PROC_EXMEM
  +--> ?PR?_LIB_GET_CSCK_INT16U_NUM?LIB_MYMATH

?PR?API_CLR_CURRENT_MD_DATA?API_DEMAND           -----    -----      -----    -----      0095H    0038H
  +--> ?PR?_MEM_READ?PROC_EXMEM
  +--> ?PR?_MEM_WRITE?PROC_EXMEM
  +--> ?PR?_LIB_CLR_STRING?LIB_MYSPRING
  +--> ?PR?_MEM_DB_WRITE?PROC_EXMEM
  +--> ?PR?_LIB_SET_STRING?LIB_MYSPRING

?PR?INIT_LCD?DRV_LCD                             -----    -----      -----    -----      -----    -----
  +--> ?PR?LCD_ON?DRV_LCD

?PR?API_HANDL_DIS_SLEEP?API_LCD_DISPLAY          -----    -----      -----    -----      -----    -----
  +--> ?PR?_MEM_READ?PROC_EXMEM
  +--> ?PR?API_UPDATED_LCDDISPLAYPIXEL_PER_S...

?PR?API_UPDATED_LCDDISPLAYPIXEL_PER_S...         -----    -----      -----    -----      -----    -----
  +--> ?PR?_LIB_SET_STRING?LIB_MYSPRING
  +--> ?PR?_API_LCDDISPLAY_ADJ_ITEM?API_LCD_...
  +--> ?PR?LINK_GET_DIS_DATA_NUM_BUFF?API_LC...
  +--> ?PR?LINK_GET_DIS_CHAR_BUFF?API_LCD_DI...
  +--> ?PR?LINK_GET_DIS_REALCHAR_BUFF?API_LC...
  +--> ?PR?LINK_GET_DIS_DRV_BUFF?API_LCD_DIS...
  +--> ?PR?_LINK_GET_DISTAB_VAR?API_LCD_DISPLAY
BL51 BANKED LINKER/LOCATER V6.22                                                      02/16/2019  15:29:57  PAGE 12


  +--> ?PR?_WRITE_LCD?DRV_LCD

?PR?_API_LCDDISPLAY_ADJ_ITEM?API_LCD_...         -----    -----      -----    -----      0007H    0007H
  +--> ?PR?_LIB_SET_STRING?LIB_MYSPRING
  +--> ?CO?API_LCD_DISPLAY
  +--> ?PR?_MEM_READ?PROC_EXMEM
  +--> ?PR?SYS_ERR?PROC_SYSTEM_INITIALIZE

?PR?LINK_GET_DIS_DATA_NUM_BUFF?API_LC...         -----    -----      -----    -----      0007H    001AH
  +--> ?PR?_GET_RTCTIME?DRV_RTC
  +--> ?CO?API_LCD_DISPLAY
  +--> ?PR?_MEM_READ?PROC_EXMEM
  +--> ?PR?_API_GET_ENERGY_LCD?API_LCD_DISPLAY
  +--> ?PR?_LIB_LONG_BCD4?LIB_MYMATH

?PR?_GET_RTCTIME?DRV_RTC                         -----    -----      -----    -----      0021H    0004H
  +--> ?PR?_LIB_DELAY_2US?LIB_MYTIMER

?PR?_API_GET_ENERGY_LCD?API_LCD_DISPLAY          -----    -----      -----    -----      00E8H    0015H
  +--> ?PR?_LIB_COPY_STR_TWOARRY?LIB_MYSPRING
  +--> ?PR?_LIB_LONG_BCD4?LIB_MYMATH
  +--> ?PR?_LIB_BYTE_BCD?LIB_MYMATH

?PR?_LIB_LONG_BCD4?LIB_MYMATH                    -----    -----      -----    -----      00FDH    0007H
  +--> ?PR?_LIB_WORD_BCD2?LIB_MYMATH

?PR?_LIB_WORD_BCD2?LIB_MYMATH                    -----    -----      -----    -----      0104H    0005H
  +--> ?PR?_LIB_BYTE_BCD?LIB_MYMATH

?PR?_LINK_GET_DISTAB_VAR?API_LCD_DISPLAY         -----    -----      -----    -----      -----    -----
  +--> ?CO?API_LCD_DISPLAY

?PR?_SETEXTRTC?DRV_RTC                           -----    -----      -----    -----      0007H    0002H
  +--> ?PR?_LIB_DELAY_2US?LIB_MYTIMER

?PR?SET_MCUSLEEP?DRV_CORE                        -----    -----      -----    -----      0007H    0001H
  +--> ?PR?SYS_ERR?PROC_SYSTEM_INITIALIZE
  +--> ?PR?_LIB_DELAY_2US?LIB_MYTIMER

?PR?PROC_INITIALIZE_SYSTERM_NORMAL_MO...         -----    -----      -----    -----      -----    -----
  +--> ?PR?_SET_MCUCLOCK?DRV_CORE
  +--> ?PR?INIT_GPIO_RUN?DRV_GPIO
  +--> ?PR?INIT_LCD?DRV_LCD
  +--> ?PR?_FULL_SEG?DRV_LCD
  +--> ?PR?PROC_INITIALIZE_INRAM?PROC_SYSTEM...
  +--> ?PR?INIT_TIMER?DRV_TMR
  +--> ?PR?_API_HANDL_COMM_FRAME_ERROR?API_U...
  +--> ?PR?INIT_RTC?DRV_RTC
  +--> ?PR?_INIT_EMU?LNK_EMU_HANDL
  +--> ?PR?CHECK_EMU_ADJPARAM?LNK_EMU_ADJ
  +--> ?PR?_LIB_SET_STRING?LIB_MYSPRING
  +--> ?PR?_API_DEAL_EVEN_CLASS_RECODE?API_E...

?PR?PROC_INITIALIZE_INRAM?PROC_SYSTEM...         -----    -----      -----    -----      0000H    0003H
  +--> ?PR?_MEM_READ?PROC_EXMEM
  +--> ?PR?API_FREEZE_ENERGY_PRE_DAY?API_BIL...
  +--> ?PR?_MEM_FILL?PROC_EXMEM
BL51 BANKED LINKER/LOCATER V6.22                                                      02/16/2019  15:29:57  PAGE 13


  +--> ?PR?_MEM_DB_CLR?PROC_EXMEM
  +--> ?PR?MEM_DB_CHECK?PROC_EXMEM
  +--> ?PR?PROC_SYS_DATA_INIT?PROC_DATA
  +--> ?PR?PROC_INIT_CHECK_VAR?PROC_SYSTEM_C...
  +--> ?PR?INIT_EMU_RAM?LNK_EMU_HANDL
  +--> ?PR?PROC_INIT_TOU_VAR?PROC_SYSTEM_TOU
  +--> ?PR?INIT_LOADPRO_PARAM?API_LOADPROFILE
  +--> ?PR?API_INIT_MD_DATA_RAM?API_DEMAND
  +--> ?PR?API_INIT_CURRENT_ENERGY_DATA_RAM?...
  +--> ?PR?API_MEASURE_RAM_INIT?API_MEASURE
  +--> ?PR?API_MEASURE_VBAT_PRE_MIN?API_MEASURE
  +--> ?PR?API_MEASURE_TEMPERATURE_PRE_MIN?A...
  +--> ?PR?API_UPDATE_TRIFFNO_PRE_MINUTE?API...
  +--> ?PR?API_INIT_DISPLAY?API_LCD_DISPLAY

?PR?API_FREEZE_ENERGY_PRE_DAY?API_BIL...         -----    -----      -----    -----      0003H    0001H
  +--> ?PR?_MEM_WRITE?PROC_EXMEM
  +--> ?PR?_MEM_READ?PROC_EXMEM
  +--> ?PR?_API_WRITE_BILL_DATA?API_BILL_RECORD
  +--> ?PR?API_CLR_CURRENT_MD_DATA?API_DEMAND

?PR?_MEM_FILL?PROC_EXMEM                         -----    -----      -----    -----      007AH    0047H
  +--> ?PR?_LIB_SET_STRING?LIB_MYSPRING
  +--> ?PR?_MEM_WRITE?PROC_EXMEM

?PR?_MEM_DB_CLR?PROC_EXMEM                       -----    -----      -----    -----      0095H    0007H
  +--> ?CO?PROC_EXMEM
  +--> ?PR?_MEM_WRITE?PROC_EXMEM

?PR?MEM_DB_CHECK?PROC_EXMEM                      -----    -----      -----    -----      0003H    000DH
  +--> ?CO?PROC_EXMEM
  +--> ?PR?_GET_MEM_CK_DATA?PROC_EXMEM
  +--> ?PR?_MEM_READ?PROC_EXMEM
  +--> ?PR?_MEM_TO_MEM?PROC_EXMEM
  +--> ?PR?_GET_DEFAULT_MEM_DATA?PROC_EXMEM
  +--> ?PR?_MEM_WRITE?PROC_EXMEM
  +--> ?PR?SYS_ERR?PROC_SYSTEM_INITIALIZE

?PR?_MEM_TO_MEM?PROC_EXMEM                       -----    -----      -----    -----      0010H    0048H
  +--> ?PR?_MEM_READ?PROC_EXMEM
  +--> ?PR?_MEM_WRITE?PROC_EXMEM

?PR?_GET_DEFAULT_MEM_DATA?PROC_EXMEM             -----    -----      -----    -----      0010H    0004H
  +--> ?CO?PROC_EXMEM
  +--> ?CO?PROC_DATA
  +--> ?CO?API_LCD_DISPLAY
  +--> ?CO?LNK_EMU_ADJ
  +--> ?CO?API_TRIFF
  +--> ?PR?_MEM_WRITE?PROC_EXMEM
  +--> ?PR?_MEM_FILL?PROC_EXMEM

?PR?PROC_SYS_DATA_INIT?PROC_DATA                 -----    -----      -----    -----      -----    -----
  +--> ?PR?_MEM_READ?PROC_EXMEM

?PR?PROC_INIT_CHECK_VAR?PROC_SYSTEM_C...         -----    -----      -----    -----      -----    -----
  +--> ?PR?_LIB_SET_STRING?LIB_MYSPRING

BL51 BANKED LINKER/LOCATER V6.22                                                      02/16/2019  15:29:57  PAGE 14


?PR?INIT_EMU_RAM?LNK_EMU_HANDL                   -----    -----      -----    -----      -----    -----
  +--> ?PR?GET_EMU_ADJPARAM?LNK_EMU_ADJ

?PR?GET_EMU_ADJPARAM?LNK_EMU_ADJ                 -----    -----      -----    -----      -----    -----
  +--> ?PR?_LIB_GET_CSCK_INT16U_NUM?LIB_MYMATH
  +--> ?PR?_MEM_READ?PROC_EXMEM

?PR?PROC_INIT_TOU_VAR?PROC_SYSTEM_TOU            -----    -----      -----    -----      -----    -----
  +--> ?PR?PROC_GET_CLOCK?PROC_SYSTEM_TOU

?PR?PROC_GET_CLOCK?PROC_SYSTEM_TOU               -----    -----      -----    -----      0003H    0007H
  +--> ?PR?_GET_RTCTIME?DRV_RTC
  +--> ?PR?_LIB_CHECK_RTC_DATA_FORM?LIB_MYMATH
  +--> ?PR?_MEM_READ?PROC_EXMEM
  +--> ?PR?_MEM_DB_WRITE?PROC_EXMEM
  +--> ?PR?_SET_RTCTIME?DRV_RTC
  +--> ?PR?_LIB_COPY_STR_TWOARRY?LIB_MYSPRING

?PR?_LIB_CHECK_RTC_DATA_FORM?LIB_MYMATH          -----    -----      -----    -----      -----    -----
  +--> ?PR?_LIB_BCD_BYTE?LIB_MYMATH
  +--> ?PR?_LIB_BYTE_BCD?LIB_MYMATH

?PR?_SET_RTCTIME?DRV_RTC                         -----    -----      -----    -----      0095H    0003H
  +--> ?PR?_LIB_DELAY_2US?LIB_MYTIMER

?PR?INIT_LOADPRO_PARAM?API_LOADPROFILE           -----    -----      -----    -----      -----    -----
  +--> ?PR?_MEM_READ?PROC_EXMEM

?PR?API_INIT_MD_DATA_RAM?API_DEMAND              -----    -----      -----    -----      -----    -----
  +--> ?PR?_MEM_READ?PROC_EXMEM
  +--> ?PR?_API_CHECK_DEMAND_PARA?API_DEMAND
  +--> ?PR?_LIB_SET_STRING?LIB_MYSPRING

?PR?API_MEASURE_VBAT_PRE_MIN?API_MEASURE         -----    -----      -----    -----      -----    -----
  +--> ?PR?SAMLPE_BATADC?DRV_ADC

?PR?SAMLPE_BATADC?DRV_ADC                        -----    -----      -----    -----      -----    -----
  +--> ?PR?_ENABLE_M_ADC?DRV_ADC
  +--> ?PR?_LIB_DELAY_MS?LIB_MYTIMER
  +--> ?PR?_READMETERPARAACK?DRV_EMU_HARD

?PR?_ENABLE_M_ADC?DRV_ADC                        -----    -----      -----    -----      -----    -----
  +--> ?PR?_READMETERPARAACK?DRV_EMU_HARD
  +--> ?PR?_SETMETERCFGACK?DRV_EMU_HARD

?PR?_READMETERPARAACK?DRV_EMU_HARD               -----    -----      0008H    0001H      00C8H    0008H

?PR?_SETMETERCFGACK?DRV_EMU_HARD                 -----    -----      -----    -----      00C8H    0006H

?PR?API_MEASURE_TEMPERATURE_PRE_MIN?A...         -----    -----      -----    -----      -----    -----
  +--> ?PR?_ENABLE_M_ADC?DRV_ADC
  +--> ?PR?_LIB_DELAY_MS?LIB_MYTIMER
  +--> ?PR?SAMLPE_TEMPERATUREADC?DRV_ADC
  +--> ?PR?DISABLE_M_ADC?DRV_ADC

?PR?SAMLPE_TEMPERATUREADC?DRV_ADC                -----    -----      -----    -----      0003H    0004H
  +--> ?PR?_ENABLE_M_ADC?DRV_ADC
BL51 BANKED LINKER/LOCATER V6.22                                                      02/16/2019  15:29:57  PAGE 15


  +--> ?PR?_LIB_DELAY_MS?LIB_MYTIMER
  +--> ?PR?CAL_TEMPERATURE_DATA?DRV_ADC

?PR?CAL_TEMPERATURE_DATA?DRV_ADC                 -----    -----      -----    -----      0007H    0027H
  +--> ?PR?_LIB_FCPYTMEM?LIB_MYSPRING
  +--> ?PR?_LIB_GET_CSCK_INT8U_NUM?LIB_MYMATH
  +--> ?PR?_LIB_REV_COPY_ARRY?LIB_MYSPRING
  +--> ?PR?_READMETERPARAACK?DRV_EMU_HARD
  +--> ?CO?DRV_ADC
  +--> ?PR?SQRT?SQRT

?PR?_LIB_FCPYTMEM?LIB_MYSPRING                   -----    -----      -----    -----      002EH    0004H

?PR?_LIB_GET_CSCK_INT8U_NUM?LIB_MYMATH           -----    -----      -----    -----      002EH    0006H

?PR?_LIB_REV_COPY_ARRY?LIB_MYSPRING              -----    -----      -----    -----      002EH    0006H

?PR?SQRT?SQRT                                    -----    -----      -----    -----      002EH    0004H

?PR?DISABLE_M_ADC?DRV_ADC                        -----    -----      -----    -----      -----    -----
  +--> ?PR?_READMETERPARAACK?DRV_EMU_HARD
  +--> ?PR?_SETMETERCFGACK?DRV_EMU_HARD

?PR?API_UPDATE_TRIFFNO_PRE_MINUTE?API...         -----    -----      -----    -----      0095H    0001H
  +--> ?PR?API_GET_SEASONTAB_NO?API_TRIFF
  +--> ?PR?_API_GET_DAYTAB_NO?API_TRIFF
  +--> ?PR?_API_GET_TRIFF_NO?API_TRIFF

?PR?API_GET_SEASONTAB_NO?API_TRIFF               -----    -----      -----    -----      0096H    0018H
  +--> ?PR?_MEM_READ?PROC_EXMEM

?PR?_API_GET_DAYTAB_NO?API_TRIFF                 -----    -----      -----    -----      0096H    0008H
  +--> ?PR?_MEM_READ?PROC_EXMEM
  +--> ?PR?SYS_ERR?PROC_SYSTEM_INITIALIZE

?PR?_API_GET_TRIFF_NO?API_TRIFF                  -----    -----      -----    -----      0096H    001BH
  +--> ?PR?_MEM_READ?PROC_EXMEM
  +--> ?PR?_LIB_BCDCHK?LIB_MYMATH

?PR?API_INIT_DISPLAY?API_LCD_DISPLAY             -----    -----      -----    -----      -----    -----
  +--> ?PR?_MEM_READ?PROC_EXMEM

?PR?INIT_TIMER?DRV_TMR                           -----    -----      -----    -----      -----    -----
  +--> ?PR?START_TIMER?DRV_TMR

?PR?_API_HANDL_COMM_FRAME_ERROR?API_U...         -----    -----      -----    -----      0038H    0001H
  +--> ?PR?_LIB_CLR_STRING?LIB_MYSPRING
  +--> ?PR?_INIT_UART4_HARD?DRV_UART
  +--> ?PR?_INIT_UART_SOFT?DRV_UART
  +--> ?PR?_LIB_SET_STRING?LIB_MYSPRING

?PR?_INIT_UART4_HARD?DRV_UART                    -----    -----      -----    -----      -----    -----
  +--> ?PR?_SET_UART4_BADU?DRV_UART
  +--> ?PR?EN_UART4_RX?DRV_UART

?PR?_INIT_EMU?LNK_EMU_HANDL                      -----    -----      -----    -----      0000H    0001H
  +--> ?PR?_SETMETERCFGACK?DRV_EMU_HARD
BL51 BANKED LINKER/LOCATER V6.22                                                      02/16/2019  15:29:57  PAGE 16


  +--> ?PR?_SET_EMUCLOCK?DRV_CORE
  +--> ?PR?SYS_ERR?PROC_SYSTEM_INITIALIZE

?PR?_SET_EMUCLOCK?DRV_CORE                       -----    -----      -----    -----      0001H    0005H
  +--> ?PR?SYS_ERR?PROC_SYSTEM_INITIALIZE

?PR?CHECK_EMU_ADJPARAM?LNK_EMU_ADJ               -----    -----      -----    -----      00B3H    0015H
  +--> ?PR?GET_EMU_ADJPARAM?LNK_EMU_ADJ
  +--> ?PR?_MEM_READ?PROC_EXMEM
  +--> ?PR?_SETMETERCFGACK?DRV_EMU_HARD
  +--> ?CO?LNK_EMU_ADJ
  +--> ?PR?_READMETERPARAACK?DRV_EMU_HARD

?PR?_API_DEAL_EVEN_CLASS_RECODE?API_E...         -----    -----      -----    -----      0095H    0005H
  +--> ?CO?API_EVENT
  +--> ?PR?_LNK_SAVE_EVEN_CLASS1_RECODE?API_...

?PR?_LNK_SAVE_EVEN_CLASS1_RECODE?API_...         -----    -----      -----    -----      009AH    00DFH
  +--> ?PR?_MEM_READ?PROC_EXMEM
  +--> ?PR?_LIB_COPY_STR_TWOARRY?LIB_MYSPRING
  +--> ?PR?_LIB_GET_CSCK_INT16U_NUM?LIB_MYMATH
  +--> ?CO?API_EVENT
  +--> ?PR?_MEM_DB_WRITE?PROC_EXMEM
  +--> ?PR?_LIB_SET_STRING?LIB_MYSPRING
  +--> ?PR?_GETTOTALTIME?API_EVENT
  +--> ?PR?_MEM_WRITE?PROC_EXMEM

?PR?_GETTOTALTIME?API_EVENT                      -----    -----      -----    -----      0179H    000BH
  +--> ?PR?_LIB_GETGMSEC?LIB_MYMATH
  +--> ?PR?_LIB_COPY_STR_TWOARRY?LIB_MYSPRING

?PR?_LIB_GETGMSEC?LIB_MYMATH                     -----    -----      -----    -----      0184H    0003H
  +--> ?PR?_LIB_GETGMMIN?LIB_MYMATH
  +--> ?PR?_LIB_BCD_BYTE?LIB_MYMATH

?PR?_LIB_GETGMMIN?LIB_MYMATH                     -----    -----      -----    -----      0187H    0003H
  +--> ?PR?_LIB_GETGMHOUR?LIB_MYMATH
  +--> ?PR?_LIB_BCD_BYTE?LIB_MYMATH

?PR?_LIB_GETGMHOUR?LIB_MYMATH                    -----    -----      -----    -----      018AH    0003H
  +--> ?PR?_LIB_GETGMDAY?LIB_MYMATH
  +--> ?PR?_LIB_BCD_BYTE?LIB_MYMATH

?PR?_LIB_GETGMDAY?LIB_MYMATH                     -----    -----      -----    -----      018DH    0004H
  +--> ?PR?_LIB_BCD_BYTE?LIB_MYMATH

?PR?PROC_HANDL_TOU_10MS?PROC_SYSTEM_TOU          -----    -----      -----    -----      0000H    0001H
  +--> ?PR?_HDL_UART_10MS_RUN?DRV_UART
  +--> ?PR?_API_HANDL_COMM_PRE_10MS?API_USER...
  +--> ?PR?API_HANDL_BUTTON_PRE_10MS?PROC_SY...

?PR?_HDL_UART_10MS_RUN?DRV_UART                  -----    -----      -----    -----      -----    -----
  +--> ?PR?EN_UART4_RX?DRV_UART
  +--> ?PR?_INIT_UART_SOFT?DRV_UART

?PR?_API_HANDL_COMM_PRE_10MS?API_USER...         -----    -----      -----    -----      0001H    0001H
  +--> ?PR?_PROCESS_IEC62056_21?API_USER_COMM
BL51 BANKED LINKER/LOCATER V6.22                                                      02/16/2019  15:29:57  PAGE 17


  +--> ?PR?_API_HANDL_COMM_FRAME_ERROR?API_U...
  +--> ?PR?_LNK_TX_COMM_READY?API_USER_COMM
  +--> ?PR?API_CLR_CURRENT_ENERGY_DATA?API_E...
  +--> ?PR?API_CLR_CURRENT_MD_DATA?API_DEMAND
  +--> ?PR?API_CLR_BILL_DATA?API_BILL_RECORD
  +--> ?PR?LOADPRORST?API_LOADPROFILE
  +--> ?PR?API_CLR_EVEN_BY_COMM?API_EVENT
  +--> ?PR?API_CLR_FREEZE_ENERGY?API_DEMAND
  +--> ?PR?_API_CHG_LCDDISPLAY_ADJ_ITEM?API_...

?PR?_PROCESS_IEC62056_21?API_USER_COMM           -----    -----      -----    -----      0002H    0036H
  +--> ?PR?_GET_UART_RX_BUFF?DRV_UART
  +--> ?PR?_MEM_READ?PROC_EXMEM
  +--> ?PR?_GET_METER_ID_ASCLEN?API_USER_COMM
  +--> ?PR?_LIB_BCD_ASCA?LIB_MYMATH
  +--> ?PR?_IEC_COMM_REQUEST_CMD_JUDGE?IEC62...
  +--> ?PR?_GET_IEC_COMM_REQUEST_CMD_ANSWER?...
  +--> ?PR?_IEC_COMM_ACKNOWLEDGEMENT_CMD_JUD...
  +--> ?PR?_GET_IEC_COMM_OPERAND_ANSWER?IEC6...
  +--> ?PR?_IEC_COMM_COMMAND_CMD_JUDGE?IEC62...
  +--> ?PR?_GET_ERROR_ANSWER?IEC62056_21
  +--> ?PR?_API_HANDL_COMM_FRAME_ERROR?API_U...

?PR?_GET_UART_RX_BUFF?DRV_UART                   -----    -----      -----    -----      0038H    0004H
  +--> ?PR?DIS_UART4_RX?DRV_UART

?PR?_GET_METER_ID_ASCLEN?API_USER_COMM           -----    -----      -----    -----      00E8H    0003H

?PR?_LIB_BCD_ASCA?LIB_MYMATH                     -----    -----      -----    -----      01CBH    000AH
  +--> ?PR?_LIB_BTOA?LIB_MYMATH

?PR?_IEC_COMM_REQUEST_CMD_JUDGE?IEC62...         -----    -----      -----    -----      0038H    0008H

?PR?_GET_IEC_COMM_REQUEST_CMD_ANSWER?...         -----    -----      -----    -----      0038H    0007H

?PR?_GET_IEC_COMM_OPERAND_ANSWER?IEC6...         -----    -----      -----    -----      0038H    0007H
  +--> ?PR?_GET_BCC_CHK?IEC62056_21

?PR?_GET_BCC_CHK?IEC62056_21                     -----    -----      -----    -----      00E8H    0005H

?PR?_IEC_COMM_COMMAND_CMD_JUDGE?IEC62...         -----    -----      -----    -----      0038H    000DH
  +--> ?PR?_GET_BCC_CHK?IEC62056_21
  +--> ?PR?_IEC_CMD_PASSWORD_DEAL?API_USER_COMM
  +--> ?PR?_IEC_CMD_READ_DEAL?API_USER_COMM
  +--> ?PR?_IEC_CMD_WRITE_DEAL?API_USER_COMM

?PR?_IEC_CMD_PASSWORD_DEAL?API_USER_COMM         -----    -----      -----    -----      0045H    000FH
  +--> ?PR?_MEM_READ?PROC_EXMEM
  +--> ?PR?_LIB_BCD_ASCA?LIB_MYMATH
  +--> ?PR?_LIB_CMP_TWOARRY?LIB_MYSPRING
  +--> ?PR?_GET_ACK_ANSWER?IEC62056_21
  +--> ?PR?_API_DEAL_EVEN_CLASS_RECODE?API_E...

?PR?_IEC_CMD_READ_DEAL?API_USER_COMM             -----    -----      -----    -----      0045H    00A3H
  +--> ?PR?_LIB_ASC_BCDA?LIB_MYMATH
  +--> ?PR?_GET_IEC_COMM_VAR?API_USER_COMM
  +--> ?PR?_LIB_SET_STRING?LIB_MYSPRING
BL51 BANKED LINKER/LOCATER V6.22                                                      02/16/2019  15:29:57  PAGE 18


  +--> ?PR?_LPREC_READ_1?API_LOADPROFILE
  +--> ?PR?_LPREC_READ_BLOCK?API_LOADPROFILE
  +--> ?PR?_GET_BCC_CHK?IEC62056_21
  +--> ?PR?_LIB_LONG_BCD4?LIB_MYMATH
  +--> ?PR?_LIB_WORD_BCD2?LIB_MYMATH
  +--> ?PR?_LIB_COPY_STR_TWOARRY?LIB_MYSPRING
  +--> ?PR?_MEM_READ?PROC_EXMEM
  +--> ?PR?_GET_METER_ID_ASCLEN?API_USER_COMM
  +--> ?PR?_API_GET_ENERGY_LCD?API_LCD_DISPLAY
  +--> ?PR?_LIB_BCD_ASCA?LIB_MYMATH
  +--> ?PR?_API_GET_BILL_RECORD_ADDR?API_BIL...
  +--> ?PR?_LIB_BTOA?LIB_MYMATH

?PR?_LIB_ASC_BCDA?LIB_MYMATH                     -----    -----      -----    -----      00E8H    000AH
  +--> ?PR?_LIB_ATOB?LIB_MYMATH

?PR?_GET_IEC_COMM_VAR?API_USER_COMM              -----    -----      -----    -----      00E8H    0006H
  +--> ?CO?API_USER_COMM

?CO?API_USER_COMM                                -----    -----      -----    -----      -----    -----
  +--> ?CO?PROC_DATA

?PR?_LPREC_READ_1?API_LOADPROFILE                -----    -----      -----    -----      00E8H    001AH
  +--> ?PR?_MEM_READ?PROC_EXMEM
  +--> ?PR?_LIB_BCD_ASCA?LIB_MYMATH

?PR?_LPREC_READ_BLOCK?API_LOADPROFILE            -----    -----      -----    -----      00E8H    00E3H
  +--> ?PR?_MEM_READ?PROC_EXMEM
  +--> ?PR?_LIB_BCD_ASCA?LIB_MYMATH

?PR?_API_GET_BILL_RECORD_ADDR?API_BIL...         -----    -----      -----    -----      00E8H    0006H
  +--> ?CO?API_BILL_RECORD
  +--> ?PR?_MEM_READ?PROC_EXMEM

?PR?_IEC_CMD_WRITE_DEAL?API_USER_COMM            -----    -----      -----    -----      0045H    0050H
  +--> ?PR?_LIB_ASC_BCDA?LIB_MYMATH
  +--> ?PR?_GET_IEC_COMM_VAR?API_USER_COMM
  +--> ?PR?SECURITYCK?API_USER_COMM
  +--> ?PR?_LIB_SET_STRING?LIB_MYSPRING
  +--> ?PR?_SET_RTCTIME?DRV_RTC
  +--> ?PR?_MEM_DB_WRITE?PROC_EXMEM
  +--> ?PR?_API_DEAL_EVEN_CLASS_RECODE?API_E...
  +--> ?PR?API_INIT_MD_DATA_RAM?API_DEMAND
  +--> ?PR?API_UPDATE_TRIFFNO_PRE_MINUTE?API...
  +--> ?PR?_MEASURE_ELECTRIC_ERR_GAIN?LNK_EM...
  +--> ?PR?SAVE_EMU_ADJPARAM?LNK_EMU_ADJ
  +--> ?PR?CHECK_EMU_ADJPARAM?LNK_EMU_ADJ
  +--> ?PR?API_CLR_EVEN_BY_COMM?API_EVENT
  +--> ?PR?API_CLR_CURRENT_MD_DATA?API_DEMAND
  +--> ?PR?LOADPRORST?API_LOADPROFILE
  +--> ?PR?_MEM_DB_CLR?PROC_EXMEM
  +--> ?PR?API_CLR_FREEZE_ENERGY?API_DEMAND
  +--> ?PR?_MEM_WRITE?PROC_EXMEM
  +--> ?PR?_MEM_READ?PROC_EXMEM
  +--> ?PR?_GET_ACK_ANSWER?IEC62056_21

?PR?SECURITYCK?API_USER_COMM                     -----    -----      -----    -----      0095H    0001H
BL51 BANKED LINKER/LOCATER V6.22                                                      02/16/2019  15:29:57  PAGE 19



?PR?_MEASURE_ELECTRIC_ERR_GAIN?LNK_EM...         -----    -----      -----    -----      0095H    001EH
  +--> ?PR?_LIB_ATOB?LIB_MYMATH
  +--> ?PR?_LIB_BCD4_LONG?LIB_MYMATH
  +--> ?PR?_LIB_COPY_STR_TWOARRY?LIB_MYSPRING
  +--> ?PR?ATOF?ATOF
  +--> ?PR?_CALIBRATION_POWER?LNK_EMU_ADJ
  +--> ?PR?_CALIBRATION_CURRENT?LNK_EMU_ADJ
  +--> ?PR?_CALIBRATION_ANGULAR?LNK_EMU_ADJ
  +--> ?PR?_CALIBRATION_SMALL_SIGNAL?LNK_EMU...
  +--> ?PR?SAVE_EMU_ADJPARAM?LNK_EMU_ADJ
  +--> ?PR?CHECK_EMU_ADJPARAM?LNK_EMU_ADJ

?PR?_LIB_BCD4_LONG?LIB_MYMATH                    -----    -----      -----    -----      00B3H    0003H
  +--> ?PR?_LIB_BCD_BYTE?LIB_MYMATH

?PR?ATOF?ATOF                                    -----    -----      -----    -----      00B3H    0003H
  +--> ?PR?_ISSPACE?ISSPACE
  +--> ?PR??C?ATOF??C?ATOF

?PR??C?ATOF??C?ATOF                              0020H.0  0000H.5    0008H    0002H      -----    -----

?PR?_CALIBRATION_POWER?LNK_EMU_ADJ               -----    -----      -----    -----      00B3H    000FH
  +--> ?PR?_READMETERPARAACK?DRV_EMU_HARD
  +--> ?PR?_CALCULATESC?LNK_EMU_ADJ
  +--> ?PR?_SETMETERCFGACK?DRV_EMU_HARD

?PR?_CALCULATESC?LNK_EMU_ADJ                     -----    -----      -----    -----      00C7H    001CH
  +--> ?PR?_FLOOR?FLOOR

?PR?_FLOOR?FLOOR                                 -----    -----      -----    -----      00E3H    0008H

?PR?_CALIBRATION_CURRENT?LNK_EMU_ADJ             -----    -----      -----    -----      00B3H    0014H
  +--> ?PR?_READMETERPARAACK?DRV_EMU_HARD
  +--> ?PR?_CALCULATESC?LNK_EMU_ADJ
  +--> ?PR?_SETMETERCFGACK?DRV_EMU_HARD

?PR?_CALIBRATION_ANGULAR?LNK_EMU_ADJ             -----    -----      -----    -----      00B3H    0015H
  +--> ?PR?_CALCULATEAC?LNK_EMU_ADJ
  +--> ?PR?_LIB_LONG_BCD4?LIB_MYMATH
  +--> ?PR?_SETMETERCFGACK?DRV_EMU_HARD

?PR?_CALCULATEAC?LNK_EMU_ADJ                     -----    -----      -----    -----      00C8H    000BH

?PR?_CALIBRATION_SMALL_SIGNAL?LNK_EMU...         -----    -----      -----    -----      00B3H    0011H
  +--> ?PR?_READMETERPARAACK?DRV_EMU_HARD
  +--> ?PR?_SETMETERCFGACK?DRV_EMU_HARD

?PR?SAVE_EMU_ADJPARAM?LNK_EMU_ADJ                -----    -----      -----    -----      -----    -----
  +--> ?PR?_LIB_GET_CSCK_INT16U_NUM?LIB_MYMATH
  +--> ?PR?_MEM_DB_WRITE?PROC_EXMEM

?PR?API_CLR_EVEN_BY_COMM?API_EVENT               -----    -----      -----    -----      0095H    00C1H
  +--> ?PR?_LIB_SET_STRING?LIB_MYSPRING
  +--> ?PR?_MEM_DB_WRITE?PROC_EXMEM
  +--> ?PR?_LIB_GET_CSCK_INT16U_NUM?LIB_MYMATH
  +--> ?CO?API_EVENT
BL51 BANKED LINKER/LOCATER V6.22                                                      02/16/2019  15:29:57  PAGE 20


  +--> ?PR?_MEM_WRITE?PROC_EXMEM

?PR?LOADPRORST?API_LOADPROFILE                   -----    -----      -----    -----      -----    -----
  +--> ?PR?_LIB_SET_STRING?LIB_MYSPRING
  +--> ?PR?_MEM_DB_WRITE?PROC_EXMEM

?PR?API_CLR_FREEZE_ENERGY?API_DEMAND             -----    -----      -----    -----      -----    -----
  +--> ?PR?_LIB_CLR_STRING?LIB_MYSPRING
  +--> ?PR?_MEM_WRITE?PROC_EXMEM

?PR?_LNK_TX_COMM_READY?API_USER_COMM             -----    -----      -----    -----      0002H    0004H
  +--> ?PR?_TX_UART_FRIST?DRV_UART

?PR?_TX_UART_FRIST?DRV_UART                      -----    -----      -----    -----      0006H    0008H
  +--> ?PR?_SET_UART4_BADU?DRV_UART
  +--> ?PR?DIS_UART4_RX?DRV_UART
  +--> ?PR?EN_UART4_TX?DRV_UART

?PR?API_CLR_CURRENT_ENERGY_DATA?API_E...         -----    -----      -----    -----      -----    -----
  +--> ?PR?_LIB_SET_STRING?LIB_MYSPRING
  +--> ?PR?_LIB_GET_CSCK_INT16U_NUM?LIB_MYMATH
  +--> ?PR?_LIB_COPY_STR_TWOARRY?LIB_MYSPRING
  +--> ?PR?_MEM_DB_WRITE?PROC_EXMEM

?PR?API_CLR_BILL_DATA?API_BILL_RECORD            -----    -----      -----    -----      0002H    0078H
  +--> ?PR?_LIB_CLR_STRING?LIB_MYSPRING
  +--> ?PR?_MEM_DB_WRITE?PROC_EXMEM
  +--> ?PR?_MEM_FILL?PROC_EXMEM

?PR?_API_CHG_LCDDISPLAY_ADJ_ITEM?API_...         -----    -----      -----    -----      -----    -----
  +--> ?PR?API_UPDATED_LCDDISPLAYPIXEL_PER_S...

?PR?API_HANDL_BUTTON_PRE_10MS?PROC_SY...         -----    -----      -----    -----      -----    -----
  +--> ?PR?JUDGE_PG_DN_KEY?DRV_KEY_IO
  +--> ?PR?JUDGE_MD_CLEAR_KEY?DRV_KEY_IO
  +--> ?PR?JUDGE_MAGN_CHK_KEY?DRV_KEY_IO

?PR?PROC_JUDGE_POWER_DOWN_PROCESS?PRO...         -----    -----      -----    -----      0000H    0007H
  +--> ?PR?CHECKPOWERUP?PROC_SYSTEM_CHECK
  +--> ?PR?API_ACCUM_CURRENT_ENERGY_DATA_PRE...
  +--> ?PR?_MEM_DB_WRITE?PROC_EXMEM
  +--> ?PR?_API_DEAL_EVEN_CLASS_RECODE?API_E...
  +--> ?PR?_MEM_READ?PROC_EXMEM
  +--> ?PR?API_CHECK_CURRENT_ENERGY_DATA?API...
  +--> ?PR?API_HANDL_DIS_SLEEP?API_LCD_DISPLAY
  +--> ?PR?INIT_GPIO_SLEEP?DRV_GPIO
  +--> ?PR?E2P_IIC_INITAIL?DRV_E2P_I2CSOFT
  +--> ?PR?E2P_STOP_I2C?DRV_E2P_I2CSOFT
  +--> ?PR?API_MEASURE_RAM_INIT?API_MEASURE
  +--> ?PR?_SETEXTRTC?DRV_RTC
  +--> ?PR?INIT_RTC?DRV_RTC
  +--> ?PR?SET_MCUSLEEP?DRV_CORE
  +--> ?PR?_SET_MCUCLOCK?DRV_CORE
  +--> ?PR?_GET_RTCTIME?DRV_RTC
  +--> ?PR?_LIB_COPY_STR_TWOARRY?LIB_MYSPRING
  +--> ?PR?JUDGE_ERR_COVER_KEY?DRV_KEY_IO
  +--> ?PR?_API_PWL_COVER_EVEN_CLASS_RECODE?...
BL51 BANKED LINKER/LOCATER V6.22                                                      02/16/2019  15:29:57  PAGE 21


  +--> ?PR?INIT_GPIO_RUN?DRV_GPIO
  +--> ?PR?E2P_START_I2C?DRV_E2P_I2CSOFT
  +--> ?PR?_MEM_WRITE?PROC_EXMEM
  +--> ?PR?SYS_ERR?PROC_SYSTEM_INITIALIZE
  +--> ?PR?API_FREEZE_ENERGY_RAM_PRE_DAY?API...
  +--> ?PR?PROC_DISPLAY_POWER_DOWN_PROCESS?P...

?PR?API_ACCUM_CURRENT_ENERGY_DATA_PRE...         -----    -----      -----    -----      0007H    0002H
  +--> ?PR?API_CHECK_CURRENT_ENERGY_DATA?API...
  +--> ?PR?LNK_ADD_FAC_ENERGY_PLUSE?API_ENERGY
  +--> ?PR?_LIB_GET_CSCK_INT16U_NUM?LIB_MYMATH
  +--> ?PR?_LIB_COPY_STR_TWOARRY?LIB_MYSPRING
  +--> ?PR?_MEM_DB_WRITE?PROC_EXMEM

?PR?_API_PWL_COVER_EVEN_CLASS_RECODE?...         -----    -----      -----    -----      0007H    009CH
  +--> ?PR?_MEM_DB_WRITE?PROC_EXMEM
  +--> ?PR?_MEM_READ?PROC_EXMEM
  +--> ?PR?_LIB_COPY_STR_TWOARRY?LIB_MYSPRING
  +--> ?PR?_LIB_SET_STRING?LIB_MYSPRING
  +--> ?PR?_LIB_GET_CSCK_INT16U_NUM?LIB_MYMATH
  +--> ?PR?_MEM_WRITE?PROC_EXMEM
  +--> ?PR?_GETTOTALTIME?API_EVENT

?PR?API_FREEZE_ENERGY_RAM_PRE_DAY?API...         -----    -----      -----    -----      0007H    0001H
  +--> ?PR?_MEM_READ?PROC_EXMEM
  +--> ?PR?_MEM_WRITE?PROC_EXMEM
  +--> ?PR?_LIB_GET_CSCK_INT16U_NUM?LIB_MYMATH

?PR?PROC_DISPLAY_POWER_DOWN_PROCESS?P...         -----    -----      -----    -----      -----    -----
  +--> ?PR?JUDGE_PG_DN_KEY?DRV_KEY_IO
  +--> ?PR?API_UPDATED_LCDDISPLAYPIXEL_PER_S...

?PR?PROC_HANDL_TOU_1S?PROC_SYSTEM_TOU            -----    -----      -----    -----      0000H    0001H
  +--> ?PR?PROC_GET_CLOCK?PROC_SYSTEM_TOU
  +--> ?PR?API_MEASURE_RAM_INIT?API_MEASURE
  +--> ?PR?API_MEASURE_DEAL_PRE_SECOND?API_M...
  +--> ?PR?API_ACCUM_CURRENT_ENERGY_DATA_PRE...
  +--> ?PR?API_EVEN_DETECT_SEC?API_EVENT
  +--> ?PR?API_UPDATA_MD_VAR_MIN_PER_SECOND?...
  +--> ?PR?PROC_CHECK_PROKEY_PRE_SEC?PROC_SY...
  +--> ?PR?API_UPDATED_LED_PER_SECOND?API_LC...
  +--> ?PR?API_MEASURE_VBAT_PRE_MIN?API_MEASURE
  +--> ?PR?API_UPDATED_LCDDISPLAYITEM_PER_SE...
  +--> ?PR?API_UPDATED_LCDDISPLAYPIXEL_PER_S...
  +--> ?PR?TIMEEVENTPROC?LNK_EMU_ADJ
  +--> ?PR?CHECK_EMU_ADJPARAM?LNK_EMU_ADJ
  +--> ?PR?API_UPDATA_MD_VAR_SLID_PER_MINUTE...
  +--> ?PR?API_FREEZE_ENERGY_RAM_PRE_DAY?API...
  +--> ?PR?API_FREEZE_ENERGY_PRE_DAY?API_BIL...
  +--> ?PR?_MEM_READ?PROC_EXMEM
  +--> ?PR?API_HANDL_SETTLE_PER_MINUTE?API_B...
  +--> ?PR?LOADPRO_REC?API_LOADPROFILE
  +--> ?PR?API_UPDATE_TRIFFNO_PRE_MINUTE?API...
  +--> ?PR?HANDL_RTC_ADJ_PER_MINU?DRV_RTC
  +--> ?PR?API_MEASURE_TEMPERATURE_PRE_MIN?A...

?PR?API_MEASURE_DEAL_PRE_SECOND?API_M...         -----    -----      -----    -----      0001H    000CH
BL51 BANKED LINKER/LOCATER V6.22                                                      02/16/2019  15:29:57  PAGE 22


  +--> ?PR?LNK_CAL_EMU_CONSTSUM_PER_SECOND?L...
  +--> ?PR?_LNK_GET_EMU_VOLTAGE?LNK_EMU_HANDL
  +--> ?PR?_LNK_GET_EMU_CURRENT?LNK_EMU_HANDL
  +--> ?PR?_LNK_GET_EMU_FREQ?LNK_EMU_HANDL

?PR?LNK_CAL_EMU_CONSTSUM_PER_SECOND?L...         -----    -----      -----    -----      000DH    0010H
  +--> ?PR?_READMETERPARAACK?DRV_EMU_HARD
  +--> ?PR?_SETMETERCFGACK?DRV_EMU_HARD
  +--> ?CO?LNK_EMU_ADJ

?PR?_LNK_GET_EMU_VOLTAGE?LNK_EMU_HANDL           -----    -----      -----    -----      000DH    0011H
  +--> ?PR?_READMETERPARAACK?DRV_EMU_HARD
  +--> ?PR?_LIB_REV_COPY_ARRY?LIB_MYSPRING

?PR?_LNK_GET_EMU_CURRENT?LNK_EMU_HANDL           -----    -----      -----    -----      000DH    0011H
  +--> ?PR?_READMETERPARAACK?DRV_EMU_HARD

?PR?_LNK_GET_EMU_FREQ?LNK_EMU_HANDL              -----    -----      -----    -----      000DH    000DH
  +--> ?PR?_READMETERPARAACK?DRV_EMU_HARD
  +--> ?PR?_LIB_REV_COPY_ARRY?LIB_MYSPRING

?PR?API_EVEN_DETECT_SEC?API_EVENT                -----    -----      -----    -----      -----    -----
  +--> ?PR?CHECKPOWERUP?PROC_SYSTEM_CHECK
  +--> ?PR?API_EVEN_EE_ERR?API_EVENT
  +--> ?PR?API_EVEN_DETECT_LOWBATTERY?API_EVENT
  +--> ?PR?_API_DEAL_EVEN_CLASS_RECODE?API_E...
  +--> ?PR?API_EVEN_DETECT_L1REVERSE?API_EVENT
  +--> ?PR?JUDGE_ERR_COVER_KEY?DRV_KEY_IO

?PR?API_EVEN_EE_ERR?API_EVENT                    -----    -----      -----    -----      -----    -----
  +--> ?PR?_MEM_READ?PROC_EXMEM
  +--> ?PR?_API_DEAL_EVEN_CLASS_RECODE?API_E...

?PR?API_UPDATA_MD_VAR_MIN_PER_SECOND?...         -----    -----      -----    -----      0001H    0001H
  +--> ?PR?LNK_UPDATA_MD_VAR_POWER_PER_SECON...

?PR?LNK_UPDATA_MD_VAR_POWER_PER_SECON...         -----    -----      -----    -----      0002H    0001H
  +--> ?PR?SYS_ERR?PROC_SYSTEM_INITIALIZE

?PR?PROC_CHECK_PROKEY_PRE_SEC?PROC_SY...         -----    -----      -----    -----      -----    -----
  +--> ?PR?JUDGE_ERR_ADJ_KEY?DRV_KEY_IO
  +--> ?PR?API_CLR_CURRENT_ENERGY_DATA?API_E...
  +--> ?PR?API_CLR_CURRENT_MD_DATA?API_DEMAND
  +--> ?PR?API_CLR_FREEZE_ENERGY?API_DEMAND
  +--> ?PR?API_CLR_BILL_DATA?API_BILL_RECORD
  +--> ?PR?LOADPRORST?API_LOADPROFILE
  +--> ?PR?API_CLR_EVEN_BY_COMM?API_EVENT
  +--> ?PR?_API_CHG_LCDDISPLAY_ADJ_ITEM?API_...

?PR?API_UPDATED_LCDDISPLAYITEM_PER_SE...         -----    -----      -----    -----      -----    -----
  +--> ?PR?API_GET_NEXT_DIS_ITEM?API_LCD_DIS...

?PR?TIMEEVENTPROC?LNK_EMU_ADJ                    -----    -----      -----    -----      0001H    0002H
  +--> ?PR?_READMETERPARAACK?DRV_EMU_HARD
  +--> ?PR?_CALCULATESCHZ?LNK_EMU_ADJ
  +--> ?PR?_SETMETERCFGACK?DRV_EMU_HARD

BL51 BANKED LINKER/LOCATER V6.22                                                      02/16/2019  15:29:57  PAGE 23


?PR?_CALCULATESCHZ?LNK_EMU_ADJ                   -----    -----      -----    -----      0003H    0018H

?PR?API_UPDATA_MD_VAR_SLID_PER_MINUTE...         -----    -----      -----    -----      0001H    0006H
  +--> ?PR?_API_CHECK_DEMAND_PARA?API_DEMAND
  +--> ?PR?_API_CMP_SAVE_MD_DATA?API_DEMAND

?PR?_API_CMP_SAVE_MD_DATA?API_DEMAND             -----    -----      -----    -----      0007H    0010H
  +--> ?PR?_MEM_READ?PROC_EXMEM
  +--> ?PR?_MEM_DB_WRITE?PROC_EXMEM
  +--> ?PR?_MEM_WRITE?PROC_EXMEM

?PR?API_HANDL_SETTLE_PER_MINUTE?API_B...         -----    -----      -----    -----      0001H    0006H
  +--> ?PR?_MEM_READ?PROC_EXMEM
  +--> ?PR?_LIB_BCD_BYTE?LIB_MYMATH
  +--> ?PR?_API_WRITE_BILL_DATA?API_BILL_RECORD
  +--> ?PR?API_CLR_CURRENT_MD_DATA?API_DEMAND

?PR?LOADPRO_REC?API_LOADPROFILE                  -----    -----      -----    -----      0001H    0006H
  +--> ?PR?_MEM_READ?PROC_EXMEM
  +--> ?PR?_LIB_BCD2_WORD?LIB_MYMATH
  +--> ?PR?_LIB_BCD_BYTE?LIB_MYMATH
  +--> ?PR?_LOAD_REC?API_LOADPROFILE

?PR?_LIB_BCD2_WORD?LIB_MYMATH                    -----    -----      -----    -----      -----    -----
  +--> ?PR?_LIB_BCD_BYTE?LIB_MYMATH

?PR?_LOAD_REC?API_LOADPROFILE                    -----    -----      -----    -----      0007H    001AH
  +--> ?PR?_LIB_SET_STRING?LIB_MYSPRING
  +--> ?PR?_LIB_COPY_STR_TWOARRY?LIB_MYSPRING
  +--> ?PR?_API_GET_ENERGY_LCD?API_LCD_DISPLAY
  +--> ?PR?_LIB_LONG_BCD4?LIB_MYMATH
  +--> ?PR?_MEM_READ?PROC_EXMEM
  +--> ?PR?_MEM_DB_WRITE?PROC_EXMEM
  +--> ?PR?_MEM_WRITE?PROC_EXMEM

?PR?HANDL_RTC_ADJ_PER_MINU?DRV_RTC               -----    -----      -----    -----      0001H    0012H

*** NEW ROOT ***************************************************

?PR?INTERRUPT_EXINT2?PROC_SYSTEM_INTE...         -----    -----      -----    -----      0236H    0002H
  +--> ?PR?EN_UART4_RX?DRV_UART
  +--> ?PR?_INIT_UART_SOFT?DRV_UART



UNRESOLVED EXTERNAL SYMBOLS:
   ?_WRITERACCOON?BYTE
   GS_RACCTRL
   G_LORACONFIG
   RX_MODE
   SX127X_INIT
   _LSD_RF_RXPACKET
   _READRACCOON
   _SX1276_TXPACKET
   _WRITERACCOON


BL51 BANKED LINKER/LOCATER V6.22                                                      02/16/2019  15:29:57  PAGE 24



SYMBOL TABLE OF MODULE:  DI03B_9811A_V10 (?C_STARTUP)

  VALUE           TYPE          NAME
  ----------------------------------

  -------         MODULE        ?C_STARTUP
  C:CFCDH         SEGMENT       ?C_C51STARTUP
  I:0021H         SEGMENT       ?STACK
  C:0000H         PUBLIC        ?C_STARTUP
  D:00E0H         SYMBOL        ACC
  D:00F0H         SYMBOL        B
  D:0083H         SYMBOL        DPH
  D:0082H         SYMBOL        DPL
  N:0000H         SYMBOL        IBPSTACK
  N:0100H         SYMBOL        IBPSTACKTOP
  N:0080H         SYMBOL        IDATALEN
  N:0000H         SYMBOL        PBPSTACK
  N:0000H         SYMBOL        PBPSTACKTOP
  N:0000H         SYMBOL        PDATALEN
  N:0000H         SYMBOL        PDATASTART
  N:0000H         SYMBOL        PPAGE
  N:0000H         SYMBOL        PPAGEENABLE
  D:00A0H         SYMBOL        PPAGE_SFR
  D:0081H         SYMBOL        SP
  C:CFCDH         SYMBOL        STARTUP1
  N:0000H         SYMBOL        XBPSTACK
  N:0000H         SYMBOL        XBPSTACKTOP
  N:0000H         SYMBOL        XDATALEN
  N:0000H         SYMBOL        XDATASTART
  C:0400H         LINE#         82
  C:0000H         LINE#         105
  C:CFCDH         LINE#         163
  C:CFD0H         LINE#         167
  -------         ENDMOD        ?C_STARTUP

  -------         MODULE        MAIN
  C:0000H         SYMBOL        _ICE_DUMMY_
  D:00CEH         PUBLIC        wdt0
  D:0090H         PUBLIC        P1
  D:00CFH         PUBLIC        wdt1
  D:00B0H         PUBLIC        P3
  B:00A8H.7       PUBLIC        EA
  D:00A8H         PUBLIC        IE
  D:00B8H         PUBLIC        IP
  C:BBE2H         PUBLIC        main
  D:0098H         PUBLIC        SCON
  D:0088H         PUBLIC        TCON
  D:00F0H         PUBLIC        B
  D:00E0H         PUBLIC        ACC
  D:0080H         PUBLIC        SysCtrl
  D:00C8H         PUBLIC        T2CON
  X:0767H         PUBLIC        debug_tmp1
  D:00D0H         PUBLIC        PSW
  -------         PROC          MAIN
  C:BBE2H         LINE#         30
  C:BBE2H         LINE#         31
BL51 BANKED LINKER/LOCATER V6.22                                                      02/16/2019  15:29:57  PAGE 25


  C:BBE2H         LINE#         33
  C:BBE3H         LINE#         34
  C:BBF1H         LINE#         35
  C:BBF3H         LINE#         36
  C:BBF6H         LINE#         37
  C:BBF8H         LINE#         38
  C:BBF9H         LINE#         39
  C:BBF9H         LINE#         40
  C:BBF9H         LINE#         41
  C:BC07H         LINE#         42
  C:BC12H         LINE#         43
  C:BC12H         LINE#         44
  C:BC20H         LINE#         45
  C:BC28H         LINE#         46
  C:BC28H         LINE#         47
  C:BC2BH         LINE#         48
  C:BC2EH         LINE#         49
  C:BC2EH         LINE#         51
  C:BC31H         LINE#         52
  C:BC39H         LINE#         53
  C:BC39H         LINE#         54
  C:BC3CH         LINE#         55
  C:BC3FH         LINE#         56
  C:BC3FH         LINE#         57
  C:BC4EH         LINE#         58
  C:BC4EH         LINE#         59
  C:BC51H         LINE#         60
  C:BC51H         LINE#         61
  C:BC59H         LINE#         62
  C:BC59H         LINE#         63
  C:BC5AH         LINE#         64
  C:BC5DH         LINE#         65
  C:BC6BH         LINE#         66
  C:BC72H         LINE#         67
  C:BC77H         LINE#         68
  C:BC7DH         LINE#         69
  C:BC7DH         LINE#         71
  C:BC80H         LINE#         72
  C:BC83H         LINE#         73
  C:BC91H         LINE#         74
  C:BC91H         LINE#         76
  C:BC94H         LINE#         77
  -------         ENDPROC       MAIN
  -------         ENDMOD        MAIN

  -------         MODULE        PROC_DATA
  C:0000H         SYMBOL        _ICE_DUMMY_
  D:0090H         PUBLIC        P1
  D:00B0H         PUBLIC        P3
  D:00A8H         PUBLIC        IE
  D:00B8H         PUBLIC        IP
  D:0098H         PUBLIC        SCON
  D:0088H         PUBLIC        TCON
  D:00F0H         PUBLIC        B
  D:00E0H         PUBLIC        ACC
  C:DCA8H         PUBLIC        default_meter_parm1_tab
  X:064EH         PUBLIC        gs_sys_run
BL51 BANKED LINKER/LOCATER V6.22                                                      02/16/2019  15:29:57  PAGE 26


  D:0080H         PUBLIC        SysCtrl
  D:00C8H         PUBLIC        T2CON
  C:D5E9H         PUBLIC        Proc_sys_data_init
  C:DC99H         PUBLIC        sys_parm
  D:00D0H         PUBLIC        PSW
  X:0650H         PUBLIC        gs_sys_globaL_var
  -------         PROC          PROC_SYS_DATA_INIT
  C:D5E9H         LINE#         82
  C:D5E9H         LINE#         83
  C:D5E9H         LINE#         84
  C:D5EEH         LINE#         85
  C:D5F0H         LINE#         86
  C:D5F6H         LINE#         87
  C:D5FBH         LINE#         88
  C:D612H         LINE#         89
  C:D62AH         LINE#         90
  C:D642H         LINE#         92
  -------         ENDPROC       PROC_SYS_DATA_INIT
  -------         ENDMOD        PROC_DATA

  -------         MODULE        PROC_EXMEM
  C:0000H         SYMBOL        _ICE_DUMMY_
  D:00CEH         PUBLIC        wdt0
  D:0090H         PUBLIC        P1
  D:00CFH         PUBLIC        wdt1
  D:00B0H         PUBLIC        P3
  C:B9B2H         PUBLIC        _mem_db_clr
  D:00A8H         PUBLIC        IE
  C:B6B0H         PUBLIC        _get_mem_ck_data
  D:00B8H         PUBLIC        IP
  C:AAC7H         PUBLIC        _mem_to_mem
  C:A1FDH         PUBLIC        _get_default_mem_data
  C:CD0DH         PUBLIC        _get_mem_table_Index
  C:D819H         PUBLIC        mem_table
  D:0098H         PUBLIC        SCON
  D:0088H         PUBLIC        TCON
  C:CBF0H         PUBLIC        _mem_read
  D:00F0H         PUBLIC        B
  D:00E0H         PUBLIC        ACC
  C:70E0H         PUBLIC        mem_db_check
  C:C53EH         PUBLIC        _mem_fill
  C:C873H         PUBLIC        _mem_write
  D:0080H         PUBLIC        SysCtrl
  D:00C8H         PUBLIC        T2CON
  C:992EH         PUBLIC        _mem_db_write
  D:00D0H         PUBLIC        PSW
  C:B6A6H         SYMBOL        L?0090
  C:B6A9H         SYMBOL        L?0091
  -------         PROC          L?0089
  -------         ENDPROC       L?0089
  C:B6A6H         SYMBOL        L?0090
  C:B6A9H         SYMBOL        L?0091
  -------         PROC          _GET_MEM_CK_DATA
  X:018BH         SYMBOL        src
  X:018DH         SYMBOL        lenth
  X:018FH         SYMBOL        memType
  -------         DO            
BL51 BANKED LINKER/LOCATER V6.22                                                      02/16/2019  15:29:57  PAGE 27


  X:0190H         SYMBOL        size
  X:0191H         SYMBOL        tmpBuf
  X:01D1H         SYMBOL        sum
  -------         ENDDO         
  C:B6B0H         LINE#         77
  C:B6C1H         LINE#         78
  C:B6C1H         LINE#         81
  C:B6CBH         LINE#         83
  C:B6DEH         LINE#         84
  C:B6DEH         LINE#         85
  C:B6E9H         LINE#         86
  C:B6E9H         LINE#         87
  C:B6ECH         LINE#         88
  C:B6EEH         LINE#         90
  C:B6EEH         LINE#         91
  C:B6F0H         LINE#         92
  C:B6F0H         LINE#         93
  C:B716H         LINE#         94
  C:B739H         LINE#         95
  C:B74CH         LINE#         96
  C:B759H         LINE#         97
  C:B75CH         LINE#         99
  C:B764H         LINE#         100
  -------         ENDPROC       _GET_MEM_CK_DATA
  -------         PROC          _GET_MEM_TABLE_INDEX
  X:018BH         SYMBOL        adr
  D:0005H         SYMBOL        memType
  -------         DO            
  D:0007H         SYMBOL        i
  D:0001H         SYMBOL        len
  X:018DH         SYMBOL        blkAddr
  -------         ENDDO         
  C:CD0DH         LINE#         109
  C:CD15H         LINE#         110
  C:CD15H         LINE#         115
  C:CD17H         LINE#         116
  C:CD17H         LINE#         117
  C:CD2AH         LINE#         118
  C:CD2AH         LINE#         119
  C:CD2FH         LINE#         120
  C:CD2FH         LINE#         121
  C:CD32H         LINE#         122
  C:CD32H         LINE#         124
  C:CD32H         LINE#         125
  C:CD4EH         LINE#         126
  C:CD4EH         LINE#         127
  C:CD60H         LINE#         129
  C:CD91H         LINE#         130
  C:CD91H         LINE#         131
  C:CD92H         LINE#         132
  C:CD92H         LINE#         133
  C:CD92H         LINE#         134
  C:CD9BH         LINE#         135
  C:CD9DH         LINE#         136
  -------         ENDPROC       _GET_MEM_TABLE_INDEX
  C:AAB3H         SYMBOL        L?0088
  -------         PROC          L?0087
BL51 BANKED LINKER/LOCATER V6.22                                                      02/16/2019  15:29:57  PAGE 28


  -------         ENDPROC       L?0087
  C:AAB3H         SYMBOL        L?0088
  -------         PROC          _MEM_TO_MEM
  X:0010H         SYMBOL        dst
  X:0012H         SYMBOL        src
  X:0014H         SYMBOL        lenth
  X:0016H         SYMBOL        mode
  -------         DO            
  X:0017H         SYMBOL        tmp_Buffer
  X:0057H         SYMBOL        size
  -------         ENDDO         
  C:AAC7H         LINE#         142
  C:AADBH         LINE#         143
  C:AADBH         LINE#         147
  C:AAEEH         LINE#         148
  C:AAEEH         LINE#         149
  C:AAFAH         LINE#         150
  C:AAFAH         LINE#         151
  C:AAFDH         LINE#         152
  C:AAFFH         LINE#         154
  C:AAFFH         LINE#         155
  C:AB01H         LINE#         156
  C:AB01H         LINE#         157
  C:AB2BH         LINE#         158
  C:AB39H         LINE#         159
  C:AB61H         LINE#         160
  C:AB75H         LINE#         161
  C:AB81H         LINE#         162
  C:AB8FH         LINE#         163
  C:AB92H         LINE#         165
  -------         ENDPROC       _MEM_TO_MEM
  -------         PROC          _MEM_FILL
  X:007AH         SYMBOL        dst
  X:007CH         SYMBOL        lenth
  D:0007H         SYMBOL        xx
  X:007FH         SYMBOL        memType
  -------         DO            
  X:0080H         SYMBOL        tmp_Buffer
  X:00C0H         SYMBOL        size
  -------         ENDDO         
  C:C53EH         LINE#         171
  C:C54EH         LINE#         172
  C:C54EH         LINE#         176
  C:C562H         LINE#         178
  C:C572H         LINE#         179
  C:C572H         LINE#         180
  C:C57EH         LINE#         181
  C:C57EH         LINE#         182
  C:C581H         LINE#         183
  C:C583H         LINE#         185
  C:C583H         LINE#         186
  C:C585H         LINE#         187
  C:C585H         LINE#         188
  C:C5ABH         LINE#         189
  C:C5B9H         LINE#         190
  C:C5CCH         LINE#         191
  C:C5D9H         LINE#         192
BL51 BANKED LINKER/LOCATER V6.22                                                      02/16/2019  15:29:57  PAGE 29


  C:C5DBH         LINE#         193
  -------         ENDPROC       _MEM_FILL
  -------         PROC          L?0092
  -------         ENDPROC       L?0092
  -------         PROC          _MEM_READ
  X:01D3H         SYMBOL        dst
  X:01D6H         SYMBOL        src
  X:01D8H         SYMBOL        lenth
  X:01DAH         SYMBOL        memType
  -------         DO            
  X:01DBH         SYMBOL        ptr_adr
  -------         ENDDO         
  C:CBF0H         LINE#         198
  C:CC01H         LINE#         199
  C:CC01H         LINE#         202
  C:CC0CH         LINE#         203
  C:CC0CH         LINE#         204
  C:CC0CH         LINE#         205
  C:CC22H         LINE#         206
  C:CC54H         LINE#         208
  C:CC54H         LINE#         210
  C:CC54H         LINE#         211
  C:CC75H         LINE#         212
  C:CC75H         LINE#         214
  C:CC75H         LINE#         215
  C:CC78H         LINE#         216
  C:CC78H         LINE#         217
  C:CC78H         LINE#         218
  -------         ENDPROC       _MEM_READ
  C:C861H         SYMBOL        L?0085
  C:C868H         SYMBOL        L?0086
  -------         PROC          L?0084
  -------         ENDPROC       L?0084
  C:C861H         SYMBOL        L?0085
  C:C868H         SYMBOL        L?0086
  -------         PROC          _MEM_WRITE
  X:018BH         SYMBOL        dst
  X:018DH         SYMBOL        src
  X:0190H         SYMBOL        lenth
  X:0192H         SYMBOL        memType
  -------         DO            
  D:0001H         SYMBOL        ptr_adr
  -------         ENDDO         
  C:C873H         LINE#         223
  C:C884H         LINE#         224
  C:C884H         LINE#         227
  C:C88FH         LINE#         228
  C:C88FH         LINE#         229
  C:C88FH         LINE#         230
  C:C89BH         LINE#         231
  C:C8C8H         LINE#         232
  C:C8C8H         LINE#         234
  C:C8C8H         LINE#         235
  C:C8E9H         LINE#         236
  C:C8E9H         LINE#         238
  C:C8E9H         LINE#         239
  C:C8ECH         LINE#         241
BL51 BANKED LINKER/LOCATER V6.22                                                      02/16/2019  15:29:57  PAGE 30


  C:C8ECH         LINE#         242
  C:C8ECH         LINE#         243
  -------         ENDPROC       _MEM_WRITE
  -------         PROC          _MEM_DB_WRITE
  X:0179H         SYMBOL        dst
  X:017BH         SYMBOL        src
  X:017EH         SYMBOL        len
  X:0180H         SYMBOL        memType
  -------         DO            
  X:0181H         SYMBOL        index
  X:0182H         SYMBOL        checkNum
  X:0184H         SYMBOL        adr_dst
  X:0186H         SYMBOL        adr_csck
  X:0188H         SYMBOL        lenth
  X:018AH         SYMBOL        id_No
  -------         ENDDO         
  C:992EH         LINE#         259
  C:9941H         LINE#         260
  C:9941H         LINE#         269
  C:994EH         LINE#         271
  C:9953H         LINE#         272
  C:9953H         LINE#         273
  C:9956H         LINE#         274
  C:9956H         LINE#         275
  C:9976H         LINE#         276
  C:9996H         LINE#         277
  C:99A8H         LINE#         278
  C:99BFH         LINE#         280
  C:99E8H         LINE#         281
  C:99FEH         LINE#         282
  C:9A08H         LINE#         283
  C:9A11H         LINE#         284
  C:9A11H         LINE#         285
  C:9A42H         LINE#         286
  C:9A59H         LINE#         287
  C:9A59H         LINE#         289
  -------         ENDPROC       _MEM_DB_WRITE
  -------         PROC          _GET_DEFAULT_MEM_DATA
  D:0007H         SYMBOL        index
  -------         DO            
  X:0010H         SYMBOL        adrAry
  X:0012H         SYMBOL        lenth
  D:0006H         SYMBOL        i
  -------         ENDDO         
  C:A1FDH         LINE#         300
  C:A1FDH         LINE#         301
  C:A1FDH         LINE#         306
  C:A1FFH         LINE#         307
  C:A1FFH         LINE#         308
  C:A212H         LINE#         309
  C:A217H         LINE#         311
  C:A220H         LINE#         314
  C:A23CH         LINE#         315
  C:A25BH         LINE#         317
  C:A272H         LINE#         318
  C:A272H         LINE#         319
  C:A272H         LINE#         320
BL51 BANKED LINKER/LOCATER V6.22                                                      02/16/2019  15:29:57  PAGE 31


  C:A280H         LINE#         321
  C:A282H         LINE#         323
  C:A282H         LINE#         324
  C:A290H         LINE#         325
  C:A292H         LINE#         328
  C:A292H         LINE#         329
  C:A2A0H         LINE#         330
  C:A2A2H         LINE#         337
  C:A2A2H         LINE#         338
  C:A2B0H         LINE#         339
  C:A2B2H         LINE#         341
  C:A2B2H         LINE#         342
  C:A2C0H         LINE#         343
  C:A2C2H         LINE#         345
  C:A2C2H         LINE#         346
  C:A2E4H         LINE#         347
  C:A2E4H         LINE#         353
  C:A2E4H         LINE#         354
  C:A2FDH         LINE#         355
  C:A2FDH         LINE#         356
  C:A2FDH         LINE#         357
  -------         ENDPROC       _GET_DEFAULT_MEM_DATA
  -------         PROC          MEM_DB_CHECK
  -------         DO            
  X:0003H         SYMBOL        i
  X:0004H         SYMBOL        checkNum0
  X:0006H         SYMBOL        checkNum1
  X:0008H         SYMBOL        adr_dst
  X:000AH         SYMBOL        adr_csck
  X:000CH         SYMBOL        lenth
  X:000EH         SYMBOL        staus
  X:000FH         SYMBOL        u8_No
  -------         ENDDO         
  C:70E0H         LINE#         372
  C:70E0H         LINE#         373
  C:70E0H         LINE#         383
  C:70F2H         LINE#         384
  C:70F2H         LINE#         385
  C:70F7H         LINE#         386
  C:7117H         LINE#         387
  C:7136H         LINE#         388
  C:714FH         LINE#         389
  C:7163H         LINE#         391
  C:7171H         LINE#         393
  C:7186H         LINE#         394
  C:7197H         LINE#         395
  C:71B2H         LINE#         397
  C:71BBH         LINE#         398
  C:71BBH         LINE#         400
  C:71D4H         LINE#         401
  C:71EBH         LINE#         402
  C:7206H         LINE#         403
  C:7206H         LINE#         409
  C:7214H         LINE#         410
  C:7228H         LINE#         411
  C:7228H         LINE#         412
  C:7228H         LINE#         414
BL51 BANKED LINKER/LOCATER V6.22                                                      02/16/2019  15:29:57  PAGE 32


  C:7228H         LINE#         416
  C:7228H         LINE#         417
  C:7231H         LINE#         418
  C:7231H         LINE#         419
  C:7243H         LINE#         420
  C:7246H         LINE#         422
  C:7246H         LINE#         423
  C:724EH         LINE#         424
  C:7251H         LINE#         425
  C:7254H         LINE#         426
  C:7254H         LINE#         427
  C:7254H         LINE#         428
  C:7257H         LINE#         430
  C:7257H         LINE#         431
  C:7260H         LINE#         432
  C:7260H         LINE#         433
  C:7263H         LINE#         434
  C:7263H         LINE#         435
  C:7263H         LINE#         437
  C:7265H         LINE#         439
  C:7265H         LINE#         440
  C:726DH         LINE#         441
  C:7270H         LINE#         442
  C:7273H         LINE#         443
  C:7281H         LINE#         444
  C:728AH         LINE#         445
  C:728AH         LINE#         446
  C:728DH         LINE#         447
  C:729BH         LINE#         448
  C:729BH         LINE#         449
  C:729DH         LINE#         451
  C:729DH         LINE#         452
  C:72A0H         LINE#         453
  C:72A0H         LINE#         454
  C:72A0H         LINE#         455
  C:72AEH         LINE#         457
  C:72B7H         LINE#         459
  -------         ENDPROC       MEM_DB_CHECK
  -------         PROC          _MEM_DB_CLR
  X:0095H         SYMBOL        type
  -------         DO            
  X:0096H         SYMBOL        i
  X:0097H         SYMBOL        checkNum0
  D:0004H         SYMBOL        adr_dst
  X:0099H         SYMBOL        adr_csck
  D:0006H         SYMBOL        lenth
  X:009BH         SYMBOL        u8_No
  -------         ENDDO         
  C:B9B2H         LINE#         475
  C:B9B7H         LINE#         476
  C:B9B7H         LINE#         484
  C:B9C7H         LINE#         485
  C:B9C7H         LINE#         486
  C:B9DDH         LINE#         487
  C:B9F0H         LINE#         488
  C:B9FBH         LINE#         489
  C:BA10H         LINE#         491
BL51 BANKED LINKER/LOCATER V6.22                                                      02/16/2019  15:29:57  PAGE 33


  C:BA1BH         LINE#         492
  C:BA1BH         LINE#         493
  C:BA29H         LINE#         495
  C:BA30H         LINE#         496
  C:BA41H         LINE#         498
  C:BA4AH         LINE#         499
  C:BA4AH         LINE#         501
  C:BA51H         LINE#         502
  C:BA68H         LINE#         503
  C:BA68H         LINE#         504
  C:BA68H         LINE#         506
  C:BA71H         LINE#         508
  -------         ENDPROC       _MEM_DB_CLR
  -------         ENDMOD        PROC_EXMEM

  -------         MODULE        PROC_SYSTEM_CHECK
  C:0000H         SYMBOL        _ICE_DUMMY_
  D:00CEH         PUBLIC        wdt0
  D:0090H         PUBLIC        P1
  D:00CFH         PUBLIC        wdt1
  D:00B0H         PUBLIC        P3
  D:00A8H         PUBLIC        IE
  C:EE86H         PUBLIC        CheckPOWERUP
  D:00B8H         PUBLIC        IP
  C:EF27H         PUBLIC        Proc_init_Check_var
  C:004AH         PUBLIC        Proc_Check_System_Pre_Cycle
  X:0742H         PUBLIC        gs_sys_check_var
  D:0098H         PUBLIC        SCON
  D:0088H         PUBLIC        TCON
  C:BDFBH         PUBLIC        Proc_Check_PROKEY_Pre_sec
  D:00F0H         PUBLIC        B
  D:00E0H         PUBLIC        ACC
  D:0080H         PUBLIC        SysCtrl
  C:DF20H         PUBLIC        Proc_Check_COVER_Pre_sec
  D:00C8H         PUBLIC        T2CON
  D:00A1H         PUBLIC        Systate
  D:00D0H         PUBLIC        PSW
  -------         PROC          PROC_CHECK_PROKEY_PRE_SEC
  C:BDFBH         LINE#         31
  C:BDFBH         LINE#         32
  C:BDFBH         LINE#         33
  C:BE06H         LINE#         34
  C:BE06H         LINE#         35
  C:BE12H         LINE#         36
  C:BE12H         LINE#         37
  C:BE15H         LINE#         38
  C:BE1EH         LINE#         39
  C:BE1EH         LINE#         40
  C:BE29H         LINE#         41
  C:BE29H         LINE#         42
  C:BE31H         LINE#         43
  C:BE31H         LINE#         46
  C:BE34H         LINE#         47
  C:BE42H         LINE#         48
  C:BE45H         LINE#         49
  C:BE53H         LINE#         50
  C:BE56H         LINE#         51
BL51 BANKED LINKER/LOCATER V6.22                                                      02/16/2019  15:29:57  PAGE 34


  C:BE64H         LINE#         53
  C:BE67H         LINE#         55
  C:BE6AH         LINE#         56
  C:BE78H         LINE#         57
  C:BE7BH         LINE#         58
  C:BE89H         LINE#         59
  C:BE8EH         LINE#         60
  C:BE94H         LINE#         61
  C:BE94H         LINE#         62
  C:BE94H         LINE#         63
  C:BE94H         LINE#         64
  C:BE94H         LINE#         65
  C:BE95H         LINE#         67
  C:BE95H         LINE#         68
  C:BEA1H         LINE#         69
  C:BEA9H         LINE#         70
  C:BEA9H         LINE#         71
  -------         ENDPROC       PROC_CHECK_PROKEY_PRE_SEC
  -------         PROC          PROC_CHECK_COVER_PRE_SEC
  C:DF20H         LINE#         73
  C:DF20H         LINE#         74
  C:DF20H         LINE#         75
  C:DF28H         LINE#         76
  C:DF28H         LINE#         77
  C:DF31H         LINE#         78
  C:DF31H         LINE#         79
  C:DF34H         LINE#         80
  C:DF3AH         LINE#         81
  C:DF3AH         LINE#         83
  C:DF3AH         LINE#         84
  C:DF40H         LINE#         85
  C:DF40H         LINE#         86
  C:DF47H         LINE#         87
  C:DF4DH         LINE#         89
  C:DF4DH         LINE#         90
  C:DF4DH         LINE#         91
  C:DF4DH         LINE#         92
  C:DF4DH         LINE#         93
  C:DF4EH         LINE#         95
  C:DF4EH         LINE#         96
  C:DF5DH         LINE#         97
  C:DF63H         LINE#         98
  C:DF63H         LINE#         99
  C:DF68H         LINE#         100
  C:DF68H         LINE#         101
  C:DF6FH         LINE#         102
  C:DF74H         LINE#         103
  C:DF74H         LINE#         105
  C:DF74H         LINE#         106
  C:DF74H         LINE#         107
  -------         ENDPROC       PROC_CHECK_COVER_PRE_SEC
  -------         PROC          PROC_INIT_CHECK_VAR
  C:EF27H         LINE#         121
  C:EF27H         LINE#         122
  C:EF27H         LINE#         123
  -------         ENDPROC       PROC_INIT_CHECK_VAR
  -------         PROC          PROC_CHECK_SYSTEM_PRE_CYCLE
BL51 BANKED LINKER/LOCATER V6.22                                                      02/16/2019  15:29:57  PAGE 35


  C:004AH         LINE#         135
  C:004AH         LINE#         136
  C:004AH         LINE#         140
  -------         ENDPROC       PROC_CHECK_SYSTEM_PRE_CYCLE
  -------         PROC          CHECKPOWERUP
  -------         DO            
  D:0007H         SYMBOL        i
  -------         ENDDO         
  C:EE86H         LINE#         151
  C:EE86H         LINE#         152
  C:EE86H         LINE#         155
  C:EE88H         LINE#         156
  C:EE88H         LINE#         163
  C:EE8DH         LINE#         166
  C:EE8DH         LINE#         167
  C:EE92H         LINE#         168
  C:EE98H         LINE#         169
  C:EE9BH         LINE#         171
  C:EE9DH         LINE#         173
  -------         ENDPROC       CHECKPOWERUP
  -------         ENDMOD        PROC_SYSTEM_CHECK

  -------         MODULE        PROC_SYSTEM_INITIALIZE
  C:0000H         SYMBOL        _ICE_DUMMY_
  C:DFCAH         PUBLIC        Proc_handle_when_systerm_reset
  D:00CEH         PUBLIC        wdt0
  D:0090H         PUBLIC        P1
  D:00CFH         PUBLIC        wdt1
  C:D0CEH         PUBLIC        Proc_Initialize_systerm_normal_mode
  D:00B0H         PUBLIC        P3
  B:00A8H.7       PUBLIC        EA
  C:EF63H         PUBLIC        sys_err
  D:00A8H         PUBLIC        IE
  C:E9A7H         PUBLIC        Proc_Initialize_systerm_reset
  D:00A5H         PUBLIC        P9IE
  D:00B8H         PUBLIC        IP
  D:00A4H         PUBLIC        P9OE
  C:AC79H         PUBLIC        Proc_Initialize_INRam
  C:E2C1H         PUBLIC        Proc_sleep_when_reset
  D:0098H         PUBLIC        SCON
  D:0088H         PUBLIC        TCON
  D:00C9H         PUBLIC        IOWK
  D:008FH         PUBLIC        SPCFNC
  D:00F0H         PUBLIC        B
  D:00E0H         PUBLIC        ACC
  D:0090H         PUBLIC        RTCPEN
  D:0097H         PUBLIC        RTCPWD
  D:0080H         PUBLIC        SysCtrl
  D:00A0H         PUBLIC        CBANK
  C:E069H         PUBLIC        Proc_display_Power_down_process
  B:0080H.4       PUBLIC        PMG
  D:00C8H         PUBLIC        T2CON
  D:00A1H         PUBLIC        Systate
  D:0094H         PUBLIC        RTCCH
  C:852AH         PUBLIC        Proc_judge_Power_down_process
  D:0095H         PUBLIC        RTCCL
  D:00D0H         PUBLIC        PSW
BL51 BANKED LINKER/LOCATER V6.22                                                      02/16/2019  15:29:57  PAGE 36


  -------         PROC          PROC_HANDLE_WHEN_SYSTERM_RESET
  C:DFCAH         LINE#         30
  C:DFCAH         LINE#         31
  C:DFCAH         LINE#         40
  C:DFD0H         LINE#         42
  C:DFE8H         LINE#         43
  C:DFE8H         LINE#         44
  C:DFEBH         LINE#         45
  C:DFEEH         LINE#         46
  C:DFF1H         LINE#         47
  C:DFF3H         LINE#         48
  C:DFF6H         LINE#         49
  C:DFF9H         LINE#         50
  C:DFF9H         LINE#         51
  C:DFFAH         LINE#         54
  C:DFFDH         LINE#         55
  C:E003H         LINE#         56
  C:E006H         LINE#         57
  C:E009H         LINE#         58
  C:E011H         LINE#         62
  C:E014H         LINE#         63
  C:E017H         LINE#         64
  -------         ENDPROC       PROC_HANDLE_WHEN_SYSTERM_RESET
  -------         PROC          PROC_INITIALIZE_INRAM
  -------         DO            
  X:0000H         SYMBOL        eeprom_flg
  -------         ENDDO         
  C:AC79H         LINE#         77
  C:AC79H         LINE#         78
  C:AC79H         LINE#         93
  C:AC92H         LINE#         94
  C:ACA4H         LINE#         95
  C:ACA4H         LINE#         96
  C:ACAAH         LINE#         97
  C:ACADH         LINE#         98
  C:ACBEH         LINE#         99
  C:ACC3H         LINE#         100
  C:ACD1H         LINE#         101
  C:ACD1H         LINE#         106
  C:ACD7H         LINE#         107
  C:ACD7H         LINE#         108
  C:ACDAH         LINE#         109
  C:ACE8H         LINE#         110
  C:ACE8H         LINE#         114
  C:ACEBH         LINE#         115
  C:ACEEH         LINE#         116
  C:ACFCH         LINE#         120
  C:AD16H         LINE#         121
  C:AD19H         LINE#         122
  C:AD1CH         LINE#         127
  C:AD1FH         LINE#         128
  C:AD2DH         LINE#         129
  C:AD30H         LINE#         130
  C:AD33H         LINE#         131
  C:AD36H         LINE#         132
  C:AD39H         LINE#         133
  C:AD3CH         LINE#         134
BL51 BANKED LINKER/LOCATER V6.22                                                      02/16/2019  15:29:57  PAGE 37


  C:AD4AH         LINE#         140
  C:AD4DH         LINE#         141
  C:AD5BH         LINE#         171
  -------         ENDPROC       PROC_INITIALIZE_INRAM
  -------         PROC          PROC_SLEEP_WHEN_RESET
  -------         DO            
  X:0000H         SYMBOL        check_cnt
  X:0001H         SYMBOL        check_cnt2
  -------         ENDDO         
  C:E2C1H         LINE#         183
  C:E2C1H         LINE#         184
  C:E2C1H         LINE#         188
  C:E2C6H         LINE#         189
  C:E2C8H         LINE#         191
  C:E2D6H         LINE#         259
  C:E2E4H         LINE#         260
  C:E2E7H         LINE#         261
  C:E2EAH         LINE#         263
  C:E2EDH         LINE#         264
  C:E2F0H         LINE#         265
  C:E2F3H         LINE#         266
  C:E2FAH         LINE#         268
  C:E2FDH         LINE#         269
  C:E300H         LINE#         270
  C:E305H         LINE#         271
  C:E305H         LINE#         272
  C:E308H         LINE#         273
  C:E308H         LINE#         275
  -------         ENDPROC       PROC_SLEEP_WHEN_RESET
  -------         PROC          PROC_INITIALIZE_SYSTERM_NORMAL_MODE
  C:D0CEH         LINE#         290
  C:D0CEH         LINE#         291
  C:D0CEH         LINE#         292
  C:D0D9H         LINE#         293
  C:D0DCH         LINE#         294
  C:D0DFH         LINE#         295
  C:D0E4H         LINE#         296
  C:D0F2H         LINE#         297
  C:D0F5H         LINE#         300
  C:D0F8H         LINE#         301
  C:D0FDH         LINE#         302
  C:D100H         LINE#         303
  C:D105H         LINE#         304
  C:D108H         LINE#         305
  C:D11CH         LINE#         306
  C:D122H         LINE#         307
  C:D126H         LINE#         308
  C:D12DH         LINE#         309
  C:D141H         LINE#         310
  C:D147H         LINE#         311
  -------         ENDPROC       PROC_INITIALIZE_SYSTERM_NORMAL_MODE
  -------         PROC          PROC_INITIALIZE_SYSTERM_RESET
  C:E9A7H         LINE#         323
  C:E9A7H         LINE#         324
  C:E9A7H         LINE#         326
  C:E9AAH         LINE#         327
  C:E9B0H         LINE#         328
BL51 BANKED LINKER/LOCATER V6.22                                                      02/16/2019  15:29:57  PAGE 38


  C:E9B0H         LINE#         329
  C:E9B7H         LINE#         330
  C:E9B7H         LINE#         331
  C:E9BDH         LINE#         332
  C:E9BDH         LINE#         333
  C:E9C3H         LINE#         334
  C:E9C5H         LINE#         336
  C:E9C5H         LINE#         337
  C:E9CAH         LINE#         338
  C:E9CAH         LINE#         340
  C:E9D1H         LINE#         341
  C:E9D1H         LINE#         342
  C:E9D4H         LINE#         343
  C:E9D4H         LINE#         345
  C:E9D4H         LINE#         346
  C:E9D7H         LINE#         347
  C:E9D7H         LINE#         348
  -------         ENDPROC       PROC_INITIALIZE_SYSTERM_RESET
  -------         PROC          PROC_DISPLAY_POWER_DOWN_PROCESS
  C:E069H         LINE#         350
  C:E069H         LINE#         351
  C:E069H         LINE#         357
  C:E072H         LINE#         358
  C:E072H         LINE#         359
  C:E077H         LINE#         362
  C:E077H         LINE#         369
  C:E07EH         LINE#         370
  C:E07EH         LINE#         371
  C:E080H         LINE#         372
  C:E087H         LINE#         373
  C:E087H         LINE#         374
  C:E089H         LINE#         375
  C:E08BH         LINE#         377
  C:E08BH         LINE#         378
  C:E091H         LINE#         379
  C:E091H         LINE#         380
  C:E094H         LINE#         381
  C:E09AH         LINE#         382
  C:E09CH         LINE#         384
  C:E09CH         LINE#         385
  C:E0A5H         LINE#         386
  C:E0A8H         LINE#         387
  C:E0A8H         LINE#         388
  C:E0AEH         LINE#         389
  C:E0AEH         LINE#         390
  C:E0B2H         LINE#         391
  C:E0B5H         LINE#         392
  C:E0B5H         LINE#         394
  -------         ENDPROC       PROC_DISPLAY_POWER_DOWN_PROCESS
  -------         PROC          PROC_JUDGE_POWER_DOWN_PROCESS
  -------         DO            
  X:0000H         SYMBOL        rtc_data_tmp
  -------         ENDDO         
  C:852AH         LINE#         404
  C:852AH         LINE#         405
  C:852AH         LINE#         408
  C:8533H         LINE#         409
BL51 BANKED LINKER/LOCATER V6.22                                                      02/16/2019  15:29:57  PAGE 39


  C:8533H         LINE#         410
  C:8535H         LINE#         411
  C:8537H         LINE#         412
  C:853AH         LINE#         413
  C:8553H         LINE#         417
  C:8559H         LINE#         419
  C:8573H         LINE#         421
  C:8579H         LINE#         422
  C:8580H         LINE#         430
  C:8586H         LINE#         431
  C:858AH         LINE#         432
  C:8591H         LINE#         437
  C:85A9H         LINE#         439
  C:85ACH         LINE#         440
  C:85AFH         LINE#         442
  C:85B2H         LINE#         445
  C:85B7H         LINE#         446
  C:85BEH         LINE#         448
  C:85C1H         LINE#         449
  C:85C4H         LINE#         450
  C:85C7H         LINE#         452
  C:85CDH         LINE#         453
  C:85D2H         LINE#         454
  C:85D6H         LINE#         456
  C:85DAH         LINE#         457
  C:85DEH         LINE#         458
  C:85DEH         LINE#         459
  C:85DEH         LINE#         460
  C:85ECH         LINE#         461
  C:85F3H         LINE#         462
  C:85F6H         LINE#         463
  C:85F9H         LINE#         464
  C:85FCH         LINE#         467
  C:860AH         LINE#         468
  C:8615H         LINE#         472
  C:861EH         LINE#         473
  C:863CH         LINE#         474
  C:8642H         LINE#         475
  C:8646H         LINE#         477
  C:864DH         LINE#         479
  C:8652H         LINE#         480
  C:8652H         LINE#         481
  C:8655H         LINE#         482
  C:8658H         LINE#         483
  C:865BH         LINE#         485
  C:8675H         LINE#         486
  C:868FH         LINE#         487
  C:86A8H         LINE#         492
  C:86ABH         LINE#         493
  C:86ABH         LINE#         494
  C:86AEH         LINE#         496
  C:86B1H         LINE#         497
  C:86B4H         LINE#         498
  C:86B4H         LINE#         500
  C:86B4H         LINE#         502
  C:86B4H         LINE#         503
  -------         ENDPROC       PROC_JUDGE_POWER_DOWN_PROCESS
BL51 BANKED LINKER/LOCATER V6.22                                                      02/16/2019  15:29:57  PAGE 40


  -------         PROC          SYS_ERR
  C:EF63H         LINE#         514
  C:EF63H         LINE#         515
  C:EF63H         LINE#         516
  C:EF71H         LINE#         518
  C:EF71H         LINE#         519
  C:EF71H         LINE#         520
  C:EF72H         LINE#         521
  C:EF73H         LINE#         522
  C:EF74H         LINE#         523
  -------         ENDPROC       SYS_ERR
  -------         ENDMOD        PROC_SYSTEM_INITIALIZE

  -------         MODULE        PROC_SYSTEM_INTERRUPT
  C:0000H         SYMBOL        _ICE_DUMMY_
  D:0090H         PUBLIC        P1
  D:00B0H         PUBLIC        P3
  C:EECEH         PUBLIC        Interrupt_Uart1
  D:00A8H         PUBLIC        IE
  C:0046H         PUBLIC        Interrupt_Int0
  C:004EH         PUBLIC        Interrupt_Int1
  D:00B8H         PUBLIC        IP
  D:0091H         PUBLIC        EXIF
  D:0098H         PUBLIC        SCON
  D:0088H         PUBLIC        TCON
  D:00F0H         PUBLIC        B
  D:00E0H         PUBLIC        ACC
  D:008CH         PUBLIC        TH0
  B:00D0H.0       PUBLIC        P
  D:008AH         PUBLIC        TL0
  C:91FCH         PUBLIC        Interrupt_ExInt2
  C:DB69H         PUBLIC        Interrupt_ExInt3
  C:EA67H         PUBLIC        Interrupt_ExInt4
  D:0080H         PUBLIC        SysCtrl
  D:00C0H         PUBLIC        SCON1
  D:00C8H         PUBLIC        T2CON
  C:DE6FH         PUBLIC        Interrupt_Timer0
  C:F00EH         PUBLIC        Interrupt_Timer1
  C:F012H         PUBLIC        Interrupt_Timer2
  D:00D0H         PUBLIC        PSW
  -------         PROC          INTERRUPT_INT0
  C:0046H         LINE#         27
  C:0046H         LINE#         29
  C:0049H         LINE#         32
  -------         ENDPROC       INTERRUPT_INT0
  -------         PROC          INTERRUPT_TIMER0
  C:DE6FH         LINE#         38
  C:DE77H         LINE#         41
  C:DE7AH         LINE#         42
  C:DE7DH         LINE#         45
  C:DE84H         LINE#         47
  C:DE98H         LINE#         48
  C:DE9FH         LINE#         49
  C:DE9FH         LINE#         50
  C:DEBAH         LINE#         51
  C:DEBAH         LINE#         66
  C:DEC0H         LINE#         81
BL51 BANKED LINKER/LOCATER V6.22                                                      02/16/2019  15:29:57  PAGE 41


  -------         ENDPROC       INTERRUPT_TIMER0
  -------         PROC          INTERRUPT_INT1
  C:004EH         LINE#         87
  C:004EH         LINE#         89
  C:0051H         LINE#         90
  -------         ENDPROC       INTERRUPT_INT1
  -------         PROC          INTERRUPT_TIMER1
  C:F00EH         LINE#         95
  C:F00EH         LINE#         97
  C:F011H         LINE#         101
  -------         ENDPROC       INTERRUPT_TIMER1
  -------         PROC          INTERRUPT_TIMER2
  C:F012H         LINE#         107
  C:F012H         LINE#         109
  C:F015H         LINE#         112
  -------         ENDPROC       INTERRUPT_TIMER2
  -------         PROC          INTERRUPT_UART1
  C:EECEH         LINE#         118
  C:EED0H         LINE#         120
  C:EED5H         LINE#         121
  C:EED5H         LINE#         122
  C:EED8H         LINE#         124
  C:EEDAH         LINE#         125
  C:EEDFH         LINE#         126
  C:EEDFH         LINE#         127
  C:EEE2H         LINE#         129
  C:EEE2H         LINE#         130
  -------         ENDPROC       INTERRUPT_UART1
  -------         PROC          INTERRUPT_EXINT2
  -------         DO            
  X:0236H         SYMBOL        buf
  X:0237H         SYMBOL        temp_ifg
  -------         ENDDO         
  C:91FCH         LINE#         138
  C:9209H         LINE#         143
  C:9217H         LINE#         222
  C:921EH         LINE#         223
  C:921EH         LINE#         224
  C:9225H         LINE#         225
  C:922CH         LINE#         226
  C:9235H         LINE#         227
  C:9235H         LINE#         228
  C:9246H         LINE#         229
  C:924DH         LINE#         230
  C:924DH         LINE#         232
  C:9255H         LINE#         233
  C:9258H         LINE#         234
  C:9258H         LINE#         235
  C:925CH         LINE#         236
  C:925EH         LINE#         238
  C:925EH         LINE#         239
  C:9263H         LINE#         240
  C:9263H         LINE#         241
  C:9263H         LINE#         242
  C:926BH         LINE#         243
  C:9272H         LINE#         244
  C:927EH         LINE#         245
BL51 BANKED LINKER/LOCATER V6.22                                                      02/16/2019  15:29:57  PAGE 42


  C:9284H         LINE#         246
  C:928AH         LINE#         247
  C:928CH         LINE#         249
  C:928CH         LINE#         251
  C:9291H         LINE#         252
  C:9297H         LINE#         253
  C:929AH         LINE#         254
  C:929FH         LINE#         255
  C:929FH         LINE#         278
  C:929FH         LINE#         287
  C:92A7H         LINE#         288
  C:92A7H         LINE#         290
  C:92AEH         LINE#         291
  C:92B5H         LINE#         292
  C:92BBH         LINE#         293
  C:92CEH         LINE#         294
  C:92D5H         LINE#         295
  C:92DBH         LINE#         296
  C:92E2H         LINE#         297
  C:92E2H         LINE#         298
  C:92E3H         LINE#         299
  C:92E4H         LINE#         300
  C:92E4H         LINE#         301
  C:92F0H         LINE#         302
  C:92F5H         LINE#         303
  C:92F5H         LINE#         304
  C:92F6H         LINE#         305
  C:92F7H         LINE#         306
  C:92F7H         LINE#         323
  C:92F7H         LINE#         329
  C:92FBH         LINE#         330
  C:92FBH         LINE#         331
  C:9302H         LINE#         333
  C:9302H         LINE#         334
  C:9309H         LINE#         335
  C:9309H         LINE#         336
  C:9310H         LINE#         338
  C:9310H         LINE#         339
  C:9318H         LINE#         340
  C:9318H         LINE#         341
  C:931FH         LINE#         343
  C:931FH         LINE#         348
  C:9323H         LINE#         349
  C:9323H         LINE#         350
  C:932AH         LINE#         352
  C:9330H         LINE#         354
  C:9330H         LINE#         360
  C:9333H         LINE#         361
  -------         ENDPROC       INTERRUPT_EXINT2
  -------         PROC          INTERRUPT_EXINT3
  -------         DO            
  D:0015H         SYMBOL        temp_ifg
  -------         ENDDO         
  C:DB69H         LINE#         368
  C:DB74H         LINE#         372
  C:DB7FH         LINE#         373
  C:DB82H         LINE#         374
BL51 BANKED LINKER/LOCATER V6.22                                                      02/16/2019  15:29:57  PAGE 43


  C:DB82H         LINE#         375
  C:DB89H         LINE#         377
  C:DB89H         LINE#         378
  C:DB8FH         LINE#         379
  C:DB8FH         LINE#         380
  C:DB96H         LINE#         382
  C:DB96H         LINE#         383
  C:DB9CH         LINE#         384
  C:DB9CH         LINE#         385
  C:DBA3H         LINE#         387
  C:DBAAH         LINE#         388
  C:DBB0H         LINE#         390
  C:DBB0H         LINE#         393
  C:DBB6H         LINE#         394
  C:DBB6H         LINE#         395
  C:DBBDH         LINE#         396
  C:DBC3H         LINE#         401
  C:DBC3H         LINE#         402
  C:DBC6H         LINE#         403
  -------         ENDPROC       INTERRUPT_EXINT3
  -------         PROC          INTERRUPT_EXINT4
  -------         DO            
  D:0017H         SYMBOL        temp_ifg
  -------         ENDDO         
  C:EA67H         LINE#         409
  C:EA72H         LINE#         414
  C:EA7DH         LINE#         430
  C:EA80H         LINE#         431
  C:EA80H         LINE#         441
  C:EA87H         LINE#         443
  C:EA87H         LINE#         455
  C:EA8AH         LINE#         456
  -------         ENDPROC       INTERRUPT_EXINT4
  -------         ENDMOD        PROC_SYSTEM_INTERRUPT

  -------         MODULE        PROC_SYSTEM_TOU
  C:0000H         SYMBOL        _ICE_DUMMY_
  D:00CEH         PUBLIC        wdt0
  D:0090H         PUBLIC        P1
  D:00CFH         PUBLIC        wdt1
  D:00B0H         PUBLIC        P3
  X:0666H         PUBLIC        MD_delay
  X:0667H         PUBLIC        MD_flag
  D:00A8H         PUBLIC        IE
  X:0668H         PUBLIC        button_delay
  C:F016H         PUBLIC        Proc_init_tou_var
  X:0669H         PUBLIC        MAGN_delay
  D:00B8H         PUBLIC        IP
  X:066AH         PUBLIC        button_flag
  X:066BH         PUBLIC        MAGN_flag
  X:066CH         PUBLIC        MD_dis_delay
  C:CA21H         PUBLIC        Proc_get_clock
  D:0098H         PUBLIC        SCON
  D:0088H         PUBLIC        TCON
  C:0052H         PUBLIC        Proc_Auto_ClrMeter_Pre_sec
  C:96D4H         PUBLIC        Proc_handl_tou_1s
  X:066DH         PUBLIC        gs_tou_var
BL51 BANKED LINKER/LOCATER V6.22                                                      02/16/2019  15:29:57  PAGE 44


  D:00F0H         PUBLIC        B
  X:0675H         PUBLIC        gs_auto_clrMeter_var
  D:00E0H         PUBLIC        ACC
  C:EFD6H         PUBLIC        Initlize_Auto_ClrMeter_Var
  D:0080H         PUBLIC        SysCtrl
  C:EC2AH         PUBLIC        Proc_handl_tou_10ms
  D:00C8H         PUBLIC        T2CON
  C:DA99H         PUBLIC        api_handl_button_pre_10ms
  X:0677H         PUBLIC        gs_CurDateTime
  D:00D0H         PUBLIC        PSW
  -------         PROC          PROC_GET_CLOCK
  -------         DO            
  X:0003H         SYMBOL        rtc_data_tmp
  -------         ENDDO         
  C:CA21H         LINE#         47
  C:CA21H         LINE#         48
  C:CA21H         LINE#         52
  C:CA2AH         LINE#         53
  C:CA36H         LINE#         54
  C:CA36H         LINE#         55
  C:CA4FH         LINE#         56
  C:CA5BH         LINE#         57
  C:CA5BH         LINE#         59
  C:CA61H         LINE#         60
  C:CA65H         LINE#         61
  C:CA69H         LINE#         62
  C:CA6DH         LINE#         63
  C:CA71H         LINE#         64
  C:CA75H         LINE#         65
  C:CA77H         LINE#         66
  C:CA91H         LINE#         67
  C:CA91H         LINE#         68
  C:CA9AH         LINE#         69
  C:CA9AH         LINE#         70
  -------         ENDPROC       PROC_GET_CLOCK
  -------         PROC          PROC_INIT_TOU_VAR
  C:F016H         LINE#         86
  C:F016H         LINE#         87
  C:F016H         LINE#         88
  -------         ENDPROC       PROC_INIT_TOU_VAR
  -------         PROC          API_HANDL_BUTTON_PRE_10MS
  C:DA99H         LINE#         91
  C:DA99H         LINE#         92
  C:DA99H         LINE#         93
  C:DAA8H         LINE#         94
  C:DAA8H         LINE#         95
  C:DAADH         LINE#         96
  C:DAB1H         LINE#         98
  C:DAB1H         LINE#         99
  C:DAB8H         LINE#         100
  C:DAB8H         LINE#         101
  C:DABCH         LINE#         102
  C:DABCH         LINE#         103
  C:DACBH         LINE#         104
  C:DACBH         LINE#         105
  C:DACEH         LINE#         106
  C:DAD2H         LINE#         107
BL51 BANKED LINKER/LOCATER V6.22                                                      02/16/2019  15:29:57  PAGE 45


  C:DAD2H         LINE#         108
  C:DAD9H         LINE#         109
  C:DAD9H         LINE#         110
  C:DADDH         LINE#         111
  C:DADDH         LINE#         112
  C:DAECH         LINE#         113
  C:DAECH         LINE#         114
  C:DAF1H         LINE#         115
  C:DAF5H         LINE#         117
  C:DAF5H         LINE#         118
  C:DAFCH         LINE#         119
  C:DAFCH         LINE#         120
  C:DB00H         LINE#         121
  C:DB00H         LINE#         122
  -------         ENDPROC       API_HANDL_BUTTON_PRE_10MS
  -------         PROC          PROC_HANDL_TOU_10MS
  -------         DO            
  X:0000H         SYMBOL        i
  -------         ENDDO         
  C:EC2AH         LINE#         137
  C:EC2AH         LINE#         138
  C:EC2AH         LINE#         142
  C:EC39H         LINE#         143
  C:EC39H         LINE#         144
  C:EC3CH         LINE#         145
  C:EC44H         LINE#         146
  C:EC4CH         LINE#         147
  -------         ENDPROC       PROC_HANDL_TOU_10MS
  -------         PROC          PROC_HANDL_TOU_1S
  -------         DO            
  X:0000H         SYMBOL        Bill_Data
  -------         ENDDO         
  C:96D4H         LINE#         165
  C:96D4H         LINE#         166
  C:96D4H         LINE#         171
  C:96D7H         LINE#         173
  C:96E5H         LINE#         174
  C:96EEH         LINE#         175
  C:96EEH         LINE#         176
  C:96F1H         LINE#         177
  C:96F4H         LINE#         178
  C:96F4H         LINE#         180
  C:96FAH         LINE#         181
  C:96FAH         LINE#         184
  C:96FDH         LINE#         185
  C:970BH         LINE#         187
  C:970EH         LINE#         188
  C:971CH         LINE#         189
  C:971FH         LINE#         191
  C:9722H         LINE#         192
  C:9730H         LINE#         194
  C:9733H         LINE#         196
  C:9736H         LINE#         197
  C:9739H         LINE#         198
  C:9739H         LINE#         199
  C:973FH         LINE#         200
  C:973FH         LINE#         202
BL51 BANKED LINKER/LOCATER V6.22                                                      02/16/2019  15:29:57  PAGE 46


  C:9742H         LINE#         204
  C:9745H         LINE#         205
  C:9747H         LINE#         207
  C:9747H         LINE#         208
  C:974DH         LINE#         209
  C:974DH         LINE#         214
  C:9750H         LINE#         216
  C:9756H         LINE#         217
  C:9756H         LINE#         218
  C:9759H         LINE#         219
  C:9767H         LINE#         220
  C:976AH         LINE#         221
  C:9778H         LINE#         223
  C:977BH         LINE#         224
  C:977EH         LINE#         225
  C:9796H         LINE#         227
  C:979DH         LINE#         228
  C:979DH         LINE#         229
  C:97ABH         LINE#         230
  C:97AEH         LINE#         231
  C:97AEH         LINE#         232
  C:97BCH         LINE#         234
  C:97BFH         LINE#         235
  C:97CDH         LINE#         237
  C:97D0H         LINE#         240
  C:97D0H         LINE#         242
  C:97D7H         LINE#         243
  C:97D7H         LINE#         244
  C:97DAH         LINE#         245
  C:97E8H         LINE#         246
  C:97E8H         LINE#         249
  C:97EFH         LINE#         250
  C:97EFH         LINE#         251
  C:97F2H         LINE#         252
  C:9800H         LINE#         253
  C:9800H         LINE#         255
  -------         ENDPROC       PROC_HANDL_TOU_1S
  -------         PROC          PROC_AUTO_CLRMETER_PRE_SEC
  C:0052H         LINE#         265
  C:0052H         LINE#         266
  C:0052H         LINE#         269
  -------         ENDPROC       PROC_AUTO_CLRMETER_PRE_SEC
  -------         PROC          INITLIZE_AUTO_CLRMETER_VAR
  C:EFD6H         LINE#         280
  C:EFD6H         LINE#         281
  C:EFD6H         LINE#         283
  C:EFDBH         LINE#         284
  C:EFDFH         LINE#         286
  -------         ENDPROC       INITLIZE_AUTO_CLRMETER_VAR
  -------         ENDMOD        PROC_SYSTEM_TOU

  -------         MODULE        DRV_E2P_24CXXX
  C:0000H         SYMBOL        _ICE_DUMMY_
  D:0090H         PUBLIC        P1
  D:00B0H         PUBLIC        P3
  C:D053H         PUBLIC        _Read_EEPROM_Page
  D:00A8H         PUBLIC        IE
BL51 BANKED LINKER/LOCATER V6.22                                                      02/16/2019  15:29:57  PAGE 47


  C:BCA2H         PUBLIC        _Read_EEPROM_Page_Sub
  C:CE2CH         PUBLIC        _Write_EEPROM_Page
  D:00B8H         PUBLIC        IP
  C:C161H         PUBLIC        _Write_EEPROM_Page_Sub
  C:C35FH         PUBLIC        _Read_EEPROM
  D:0098H         PUBLIC        SCON
  D:0088H         PUBLIC        TCON
  C:C718H         PUBLIC        _Write_EEPROM
  D:00F0H         PUBLIC        B
  D:00E0H         PUBLIC        ACC
  D:0080H         PUBLIC        SysCtrl
  D:00C8H         PUBLIC        T2CON
  D:00D0H         PUBLIC        PSW
  C:BC9CH         SYMBOL        L?0054
  -------         PROC          L?0053
  -------         ENDPROC       L?0053
  C:BC9CH         SYMBOL        L?0054
  -------         PROC          _READ_EEPROM_PAGE_SUB
  X:022DH         SYMBOL        Buf
  X:0230H         SYMBOL        Addr
  X:0232H         SYMBOL        Len
  -------         DO            
  X:0233H         SYMBOL        NewWrCmd
  X:0234H         SYMBOL        NewRdCmd
  X:0235H         SYMBOL        err_cnt
  -------         ENDDO         
  C:BCA2H         LINE#         30
  C:BCB3H         LINE#         31
  C:BCB3H         LINE#         36
  C:BCB8H         LINE#         47
  C:BCBEH         LINE#         48
  C:BCC1H         LINE#         52
  C:BCC1H         LINE#         53
  C:BCC4H         LINE#         54
  C:BCCAH         LINE#         55
  C:BCD3H         LINE#         56
  C:BCD6H         LINE#         57
  C:BCE1H         LINE#         62
  C:BCF1H         LINE#         63
  C:BD02H         LINE#         66
  C:BD05H         LINE#         68
  C:BD15H         LINE#         70
  C:BD1FH         LINE#         71
  C:BD1FH         LINE#         72
  C:BD39H         LINE#         73
  C:BD43H         LINE#         74
  C:BD45H         LINE#         75
  C:BD48H         LINE#         76
  C:BD4AH         LINE#         77
  -------         ENDPROC       _READ_EEPROM_PAGE_SUB
  -------         PROC          _WRITE_EEPROM_PAGE_SUB
  X:01E2H         SYMBOL        Addr
  X:01E4H         SYMBOL        Buf
  X:01E7H         SYMBOL        Len
  -------         DO            
  X:01E8H         SYMBOL        NewWrCmd
  X:01E9H         SYMBOL        NewRdCmd
BL51 BANKED LINKER/LOCATER V6.22                                                      02/16/2019  15:29:57  PAGE 48


  X:01EAH         SYMBOL        err_cnt
  -------         ENDDO         
  C:C161H         LINE#         88
  C:C172H         LINE#         89
  C:C172H         LINE#         95
  C:C177H         LINE#         104
  C:C17DH         LINE#         105
  C:C180H         LINE#         108
  C:C181H         LINE#         110
  C:C181H         LINE#         111
  C:C184H         LINE#         112
  C:C18AH         LINE#         113
  C:C193H         LINE#         114
  C:C196H         LINE#         115
  C:C1A1H         LINE#         120
  C:C1B1H         LINE#         121
  C:C1C2H         LINE#         125
  C:C1C2H         LINE#         126
  C:C1D9H         LINE#         127
  C:C1D9H         LINE#         128
  C:C1DAH         LINE#         129
  C:C1DDH         LINE#         130
  C:C1DDH         LINE#         131
  C:C1E7H         LINE#         132
  C:C1F5H         LINE#         133
  C:C1FBH         LINE#         134
  C:C1FEH         LINE#         136
  C:C201H         LINE#         138
  C:C208H         LINE#         140
  C:C209H         LINE#         142
  C:C20BH         LINE#         143
  -------         ENDPROC       _WRITE_EEPROM_PAGE_SUB
  -------         PROC          _READ_EEPROM_PAGE
  X:01E6H         SYMBOL        u8p_dst
  X:01E9H         SYMBOL        u16_src
  X:01EBH         SYMBOL        u8_len
  -------         DO            
  X:01ECH         SYMBOL        data00
  X:022CH         SYMBOL        i
  -------         ENDDO         
  C:D053H         LINE#         157
  C:D064H         LINE#         158
  C:D064H         LINE#         162
  C:D072H         LINE#         163
  C:D072H         LINE#         164
  C:D075H         LINE#         165
  C:D075H         LINE#         166
  C:D07AH         LINE#         167
  C:D07AH         LINE#         168
  C:D086H         LINE#         169
  C:D095H         LINE#         170
  C:D0BFH         LINE#         171
  C:D0CBH         LINE#         172
  C:D0CDH         LINE#         173
  -------         ENDPROC       _READ_EEPROM_PAGE
  -------         PROC          _WRITE_EEPROM_PAGE
  X:019BH         SYMBOL        u16_dst
BL51 BANKED LINKER/LOCATER V6.22                                                      02/16/2019  15:29:57  PAGE 49


  X:019DH         SYMBOL        u8p_src
  X:01A0H         SYMBOL        u8_len
  -------         DO            
  X:01A1H         SYMBOL        data00
  X:01E1H         SYMBOL        i
  -------         ENDDO         
  C:CE2CH         LINE#         186
  C:CE3DH         LINE#         187
  C:CE3DH         LINE#         191
  C:CE4BH         LINE#         192
  C:CE4BH         LINE#         193
  C:CE4EH         LINE#         194
  C:CE4EH         LINE#         195
  C:CE53H         LINE#         196
  C:CE53H         LINE#         197
  C:CE6DH         LINE#         198
  C:CE80H         LINE#         199
  C:CEAAH         LINE#         200
  C:CEB6H         LINE#         201
  C:CEB8H         LINE#         202
  -------         ENDPROC       _WRITE_EEPROM_PAGE
  -------         PROC          _READ_EEPROM
  X:01DEH         SYMBOL        u8p_dst
  X:01E1H         SYMBOL        u16_src
  X:01E3H         SYMBOL        u16_len
  -------         DO            
  D:0005H         SYMBOL        tmp
  X:01E5H         SYMBOL        u8_lenth
  -------         ENDDO         
  C:C35FH         LINE#         216
  C:C370H         LINE#         217
  C:C370H         LINE#         221
  C:C380H         LINE#         222
  C:C380H         LINE#         223
  C:C388H         LINE#         224
  C:C38AH         LINE#         225
  C:C38AH         LINE#         226
  C:C391H         LINE#         227
  C:C393H         LINE#         229
  C:C393H         LINE#         230
  C:C399H         LINE#         231
  C:C399H         LINE#         232
  C:C3ADH         LINE#         234
  C:C3CEH         LINE#         235
  C:C3DFH         LINE#         236
  C:C3EBH         LINE#         237
  C:C3F9H         LINE#         238
  C:C3FCH         LINE#         239
  C:C3FEH         LINE#         240
  -------         ENDPROC       _READ_EEPROM
  -------         PROC          _WRITE_EEPROM
  X:0193H         SYMBOL        u16_dst
  X:0195H         SYMBOL        u8p_src
  X:0198H         SYMBOL        u16_len
  -------         DO            
  D:0003H         SYMBOL        tmp
  X:019AH         SYMBOL        u8_lenth
BL51 BANKED LINKER/LOCATER V6.22                                                      02/16/2019  15:29:57  PAGE 50


  -------         ENDDO         
  C:C718H         LINE#         253
  C:C729H         LINE#         254
  C:C729H         LINE#         258
  C:C739H         LINE#         259
  C:C739H         LINE#         260
  C:C744H         LINE#         261
  C:C746H         LINE#         262
  C:C746H         LINE#         263
  C:C74DH         LINE#         264
  C:C74FH         LINE#         266
  C:C74FH         LINE#         267
  C:C755H         LINE#         268
  C:C755H         LINE#         269
  C:C769H         LINE#         272
  C:C784H         LINE#         273
  C:C798H         LINE#         274
  C:C7A1H         LINE#         275
  C:C7AFH         LINE#         276
  C:C7B2H         LINE#         277
  C:C7B4H         LINE#         278
  -------         ENDPROC       _WRITE_EEPROM
  -------         ENDMOD        DRV_E2P_24CXXX

  -------         MODULE        DRV_E2P_I2CSOFT
  C:0000H         SYMBOL        _ICE_DUMMY_
  D:0090H         PUBLIC        P1
  D:00B0H         PUBLIC        P3
  C:CD9EH         PUBLIC        _E2p_RxByte_i2c
  C:C7B5H         PUBLIC        _E2p_TxByte_i2c
  D:00A8H         PUBLIC        IE
  D:00B8H         PUBLIC        IP
  D:0098H         PUBLIC        SCON
  D:0088H         PUBLIC        TCON
  C:E8D4H         PUBLIC        E2p_Start_i2c
  D:00F0H         PUBLIC        B
  D:00E0H         PUBLIC        ACC
  C:ED40H         PUBLIC        E2p_IIC_Initail
  C:E693H         PUBLIC        E2p_Stop_i2c
  D:0080H         PUBLIC        SysCtrl
  D:00C8H         PUBLIC        T2CON
  D:00D0H         PUBLIC        PSW
  -------         PROC          E2P_IIC_INITAIL
  C:ED40H         LINE#         28
  C:ED40H         LINE#         29
  C:ED40H         LINE#         30
  C:ED4CH         LINE#         31
  C:ED51H         LINE#         32
  C:ED5DH         LINE#         33
  -------         ENDPROC       E2P_IIC_INITAIL
  -------         PROC          E2P_START_I2C
  C:E8D4H         LINE#         43
  C:E8D4H         LINE#         44
  C:E8D4H         LINE#         45
  C:E8E0H         LINE#         46
  C:E8E5H         LINE#         47
  C:E8EBH         LINE#         48
BL51 BANKED LINKER/LOCATER V6.22                                                      02/16/2019  15:29:57  PAGE 51


  C:E8FDH         LINE#         49
  C:E903H         LINE#         50
  C:E90AH         LINE#         51
  -------         ENDPROC       E2P_START_I2C
  -------         PROC          E2P_STOP_I2C
  C:E693H         LINE#         61
  C:E693H         LINE#         62
  C:E693H         LINE#         82
  C:E6A8H         LINE#         83
  C:E6AEH         LINE#         84
  C:E6B5H         LINE#         85
  C:E6BBH         LINE#         86
  C:E6C7H         LINE#         87
  C:E6CDH         LINE#         88
  -------         ENDPROC       E2P_STOP_I2C
  -------         PROC          _E2P_TXBYTE_I2C
  D:0007H         SYMBOL        txData
  -------         DO            
  D:0008H         SYMBOL        i
  -------         ENDDO         
  C:C7B5H         LINE#         99
  C:C7B5H         LINE#         100
  C:C7B5H         LINE#         101
  C:C7B8H         LINE#         104
  C:C7BAH         LINE#         105
  C:C7BAH         LINE#         106
  C:C7C1H         LINE#         107
  C:C7C5H         LINE#         108
  C:C7C5H         LINE#         109
  C:C7D1H         LINE#         110
  C:C7D3H         LINE#         112
  C:C7D3H         LINE#         113
  C:C7E8H         LINE#         114
  C:C7E8H         LINE#         115
  C:C7ECH         LINE#         116
  C:C7F3H         LINE#         117
  C:C7F9H         LINE#         118
  C:C800H         LINE#         121
  C:C807H         LINE#         122
  C:C813H         LINE#         123
  C:C816H         LINE#         124
  C:C819H         LINE#         125
  C:C819H         LINE#         126
  C:C820H         LINE#         127
  C:C820H         LINE#         128
  C:C827H         LINE#         129
  C:C82DH         LINE#         130
  C:C831H         LINE#         131
  C:C834H         LINE#         132
  C:C834H         LINE#         133
  C:C83BH         LINE#         136
  C:C842H         LINE#         137
  C:C848H         LINE#         138
  C:C84CH         LINE#         139
  C:C84FH         LINE#         141
  C:C851H         LINE#         142
  -------         ENDPROC       _E2P_TXBYTE_I2C
BL51 BANKED LINKER/LOCATER V6.22                                                      02/16/2019  15:29:57  PAGE 52


  -------         PROC          _E2P_RXBYTE_I2C
  D:0007H         SYMBOL        u8_ack
  -------         DO            
  D:0008H         SYMBOL        i
  D:0009H         SYMBOL        rxData
  -------         ENDDO         
  C:CD9EH         LINE#         153
  C:CD9EH         LINE#         154
  C:CD9EH         LINE#         155
  C:CDA1H         LINE#         156
  C:CDA3H         LINE#         158
  C:CDAFH         LINE#         159
  C:CDB4H         LINE#         162
  C:CDB7H         LINE#         163
  C:CDB7H         LINE#         164
  C:CDBDH         LINE#         165
  C:CDC4H         LINE#         166
  C:CDCAH         LINE#         167
  C:CDCFH         LINE#         168
  C:CDCFH         LINE#         169
  C:CDD2H         LINE#         170
  C:CDD2H         LINE#         171
  C:CDD9H         LINE#         172
  C:CDDFH         LINE#         173
  C:CDE6H         LINE#         176
  C:CDE9H         LINE#         177
  C:CDE9H         LINE#         178
  C:CDFEH         LINE#         179
  C:CE00H         LINE#         181
  C:CE00H         LINE#         182
  C:CE0CH         LINE#         183
  C:CE0CH         LINE#         185
  C:CE13H         LINE#         186
  C:CE19H         LINE#         187
  C:CE1DH         LINE#         188
  C:CE29H         LINE#         190
  C:CE2BH         LINE#         191
  -------         ENDPROC       _E2P_RXBYTE_I2C
  -------         ENDMOD        DRV_E2P_I2CSOFT

  -------         MODULE        DRV_EMU_HARD
  C:0000H         SYMBOL        _ICE_DUMMY_
  D:0090H         PUBLIC        P1
  C:EB8EH         PUBLIC        Close_Cf
  D:00B0H         PUBLIC        P3
  C:BEAAH         PUBLIC        _SetMeterCfgI
  D:00A8H         PUBLIC        IE
  C:C67AH         PUBLIC        _SetMeterCfgACK
  C:C5DCH         PUBLIC        _SetMeterCfgACKPM800K
  D:00B8H         PUBLIC        IP
  C:EF3BH         PUBLIC        OpenCF
  D:0098H         PUBLIC        SCON
  D:0088H         PUBLIC        TCON
  C:F027H         PUBLIC        Close_EmuPwr
  B:0080H.7       PUBLIC        MEAFRQ
  D:00F0H         PUBLIC        B
  D:00E0H         PUBLIC        ACC
BL51 BANKED LINKER/LOCATER V6.22                                                      02/16/2019  15:29:57  PAGE 53


  D:00E8H         PUBLIC        EIE
  C:90B1H         PUBLIC        _ReadMeterParaACK
  D:0080H         PUBLIC        SysCtrl
  D:00C8H         PUBLIC        T2CON
  D:00D0H         PUBLIC        PSW
  -------         PROC          CLOSE_EMUPWR
  C:F027H         LINE#         91
  C:F027H         LINE#         92
  C:F027H         LINE#         94
  -------         ENDPROC       CLOSE_EMUPWR
  -------         PROC          OPENCF
  C:EF3BH         LINE#         103
  C:EF3BH         LINE#         104
  C:EF3BH         LINE#         105
  C:EF43H         LINE#         106
  C:EF4EH         LINE#         108
  -------         ENDPROC       OPENCF
  -------         PROC          CLOSE_CF
  -------         DO            
  D:0004H         SYMBOL        PmPara
  -------         ENDDO         
  C:EB8EH         LINE#         118
  C:EB8EH         LINE#         119
  C:EB8EH         LINE#         122
  C:EB95H         LINE#         123
  C:EB99H         LINE#         124
  C:EBA6H         LINE#         126
  C:EBADH         LINE#         128
  C:EBB4H         LINE#         129
  -------         ENDPROC       CLOSE_CF
  -------         PROC          _SETMETERCFGACKPM800K
  X:073CH         SYMBOL        u32PMdatal
  X:0740H         SYMBOL        addr
  -------         DO            
  D:0007H         SYMBOL        index
  -------         ENDDO         
  C:C5DCH         LINE#         140
  C:C5E2H         LINE#         141
  C:C5E2H         LINE#         143
  C:C5E4H         LINE#         145
  C:C5EAH         LINE#         146
  C:C5ECH         LINE#         147
  C:C5F2H         LINE#         148
  C:C5F2H         LINE#         149
  C:C5F3H         LINE#         150
  C:C5F9H         LINE#         151
  C:C5F9H         LINE#         152
  C:C5FCH         LINE#         153
  C:C5FCH         LINE#         154
  C:C5FCH         LINE#         155
  C:C609H         LINE#         156
  C:C621H         LINE#         157
  C:C639H         LINE#         158
  C:C651H         LINE#         159
  C:C65EH         LINE#         160
  C:C65FH         LINE#         161
  C:C665H         LINE#         162
BL51 BANKED LINKER/LOCATER V6.22                                                      02/16/2019  15:29:57  PAGE 54


  C:C667H         LINE#         163
  C:C66DH         LINE#         164
  C:C66DH         LINE#         165
  C:C66EH         LINE#         166
  C:C674H         LINE#         167
  C:C677H         LINE#         168
  C:C677H         LINE#         169
  C:C679H         LINE#         171
  -------         ENDPROC       _SETMETERCFGACKPM800K
  -------         PROC          _SETMETERCFGI
  X:072EH         SYMBOL        u32PMdatal
  X:0732H         SYMBOL        addr
  -------         DO            
  D:0003H         SYMBOL        index
  X:0734H         SYMBOL        i
  -------         ENDDO         
  C:BEAAH         LINE#         184
  C:BEB0H         LINE#         185
  C:BEB0H         LINE#         187
  C:BEB2H         LINE#         189
  C:BEB8H         LINE#         190
  C:BEBAH         LINE#         191
  C:BEC0H         LINE#         192
  C:BEC0H         LINE#         193
  C:BEC1H         LINE#         194
  C:BEC7H         LINE#         195
  C:BEC7H         LINE#         196
  C:BECAH         LINE#         197
  C:BECAH         LINE#         198
  C:BECAH         LINE#         199
  C:BED7H         LINE#         200
  C:BEEFH         LINE#         201
  C:BF07H         LINE#         202
  C:BF1FH         LINE#         204
  C:BF21H         LINE#         205
  C:BF24H         LINE#         206
  C:BF24H         LINE#         207
  C:BF2AH         LINE#         208
  C:BF30H         LINE#         209
  C:BF30H         LINE#         210
  C:BF30H         LINE#         211
  C:BF30H         LINE#         213
  C:BF3DH         LINE#         214
  C:BF3EH         LINE#         215
  C:BF44H         LINE#         216
  C:BF46H         LINE#         217
  C:BF4CH         LINE#         218
  C:BF4CH         LINE#         219
  C:BF4DH         LINE#         220
  C:BF53H         LINE#         221
  C:BF56H         LINE#         222
  C:BF56H         LINE#         224
  C:BF58H         LINE#         226
  -------         ENDPROC       _SETMETERCFGI
  -------         PROC          _SETMETERCFGACK
  X:00C8H         SYMBOL        u32PMdatal
  X:00CCH         SYMBOL        addr
BL51 BANKED LINKER/LOCATER V6.22                                                      02/16/2019  15:29:57  PAGE 55


  -------         DO            
  D:0007H         SYMBOL        index
  -------         ENDDO         
  C:C67AH         LINE#         237
  C:C680H         LINE#         238
  C:C680H         LINE#         240
  C:C682H         LINE#         242
  C:C688H         LINE#         243
  C:C68AH         LINE#         244
  C:C690H         LINE#         245
  C:C690H         LINE#         246
  C:C691H         LINE#         247
  C:C697H         LINE#         248
  C:C697H         LINE#         249
  C:C69AH         LINE#         250
  C:C69AH         LINE#         251
  C:C69AH         LINE#         252
  C:C6A7H         LINE#         253
  C:C6BFH         LINE#         254
  C:C6D7H         LINE#         255
  C:C6EFH         LINE#         256
  C:C6FCH         LINE#         257
  C:C6FDH         LINE#         258
  C:C703H         LINE#         259
  C:C705H         LINE#         260
  C:C70BH         LINE#         261
  C:C70BH         LINE#         262
  C:C70CH         LINE#         263
  C:C712H         LINE#         264
  C:C715H         LINE#         265
  C:C715H         LINE#         267
  C:C717H         LINE#         268
  -------         ENDPROC       _SETMETERCFGACK
  -------         PROC          _READMETERPARAACK
  D:0006H         SYMBOL        addr
  -------         DO            
  D:0008H         SYMBOL        index
  X:00C8H         SYMBOL        u32PMdatal
  X:00CCH         SYMBOL        temp
  -------         ENDDO         
  C:90B1H         LINE#         279
  C:90B1H         LINE#         280
  C:90B1H         LINE#         284
  C:90B7H         LINE#         285
  C:90B9H         LINE#         286
  C:90BBH         LINE#         287
  C:90C1H         LINE#         288
  C:90C1H         LINE#         289
  C:90C3H         LINE#         290
  C:90CAH         LINE#         291
  C:90CAH         LINE#         292
  C:90CCH         LINE#         293
  C:90CCH         LINE#         294
  C:90CCH         LINE#         296
  C:90D3H         LINE#         297
  C:90D6H         LINE#         298
  C:90DEH         LINE#         299
BL51 BANKED LINKER/LOCATER V6.22                                                      02/16/2019  15:29:57  PAGE 56


  C:90E1H         LINE#         300
  C:90E7H         LINE#         301
  C:90E7H         LINE#         302
  C:90E9H         LINE#         303
  C:90F0H         LINE#         304
  C:90F0H         LINE#         305
  C:90F6H         LINE#         306
  C:90F6H         LINE#         307
  C:90F6H         LINE#         308
  C:9105H         LINE#         309
  C:9119H         LINE#         310
  C:9145H         LINE#         311
  C:9154H         LINE#         312
  C:916DH         LINE#         313
  C:9199H         LINE#         314
  C:91A8H         LINE#         315
  C:91C1H         LINE#         316
  C:91EDH         LINE#         317
  C:91FBH         LINE#         319
  -------         ENDPROC       _READMETERPARAACK
  -------         ENDMOD        DRV_EMU_HARD

  -------         MODULE        LNK_EMU_ADJ
  C:0000H         SYMBOL        _ICE_DUMMY_
  D:00CEH         PUBLIC        wdt0
  D:0090H         PUBLIC        P1
  D:00CFH         PUBLIC        wdt1
  D:00B0H         PUBLIC        P3
  B:00A8H.7       PUBLIC        EA
  X:051CH         PUBLIC        gs_adj_emu_param
  D:00A8H         PUBLIC        IE
  C:806CH         PUBLIC        _CalculateSChz
  C:66C5H         PUBLIC        Check_EMU_AdjParam
  C:A0FAH         PUBLIC        _CalculateAC
  D:00B8H         PUBLIC        IP
  C:9CAEH         PUBLIC        _Calibration_Angular
  C:7490H         PUBLIC        _SoftAdjust_Phase_Process
  C:A612H         PUBLIC        _CalculateSC
  C:89ADH         PUBLIC        _Get_Original_Power
  C:A3FCH         PUBLIC        TimeEventProc
  C:BA72H         PUBLIC        default_adj_emu_param_tab
  C:2DF2H         PUBLIC        Hardware_AdjustDiv_Sub
  D:0098H         PUBLIC        SCON
  C:BAF5H         PUBLIC        cst_emu_constchck_tab
  D:0088H         PUBLIC        TCON
  C:BAC8H         PUBLIC        cst_emu_selfchck_tab
  C:5D3AH         PUBLIC        _Calibration_Current
  C:8B16H         PUBLIC        _Get_Original_Irms
  C:9DD2H         PUBLIC        _SoftAdjust_IB_Process
  C:E7F3H         PUBLIC        Save_EMU_AdjParam
  X:0556H         PUBLIC        gs_emu_adj_var
  D:00F0H         PUBLIC        B
  D:00E0H         PUBLIC        ACC
  C:BB01H         PUBLIC        cst_emu_constchck_tab_9260f
  C:7B7CH         PUBLIC        _Calibration_small_signal
  C:E562H         PUBLIC        Get_EMU_AdjParam
  C:5562H         PUBLIC        _Measure_Electric_Err_Gain
BL51 BANKED LINKER/LOCATER V6.22                                                      02/16/2019  15:29:57  PAGE 57


  D:0080H         PUBLIC        SysCtrl
  C:B82BH         PUBLIC        _Calibration_Power
  C:BAACH         PUBLIC        cst_adj_const
  D:00C8H         PUBLIC        T2CON
  C:B363H         PUBLIC        _SoftAdjust_IB5_Process
  D:00D0H         PUBLIC        PSW
  -------         PROC          SAVE_EMU_ADJPARAM
  C:E7F3H         LINE#         100
  C:E7F3H         LINE#         101
  C:E7F3H         LINE#         102
  C:E812H         LINE#         103
  -------         ENDPROC       SAVE_EMU_ADJPARAM
  -------         PROC          GET_EMU_ADJPARAM
  -------         DO            
  D:0006H         SYMBOL        csck_u16
  -------         ENDDO         
  C:E562H         LINE#         114
  C:E562H         LINE#         115
  C:E562H         LINE#         119
  C:E579H         LINE#         120
  C:E585H         LINE#         121
  C:E585H         LINE#         122
  C:E59FH         LINE#         123
  C:E59FH         LINE#         124
  -------         ENDPROC       GET_EMU_ADJPARAM
  -------         PROC          CHECK_EMU_ADJPARAM
  -------         DO            
  X:00B3H         SYMBOL        regval
  X:00B7H         SYMBOL        i
  X:00B8H         SYMBOL        tmp_tab
  X:00BDH         SYMBOL        tmp_const_tab
  X:00C3H         SYMBOL        ucSum
  X:00C7H         SYMBOL        u8_tmp
  -------         ENDDO         
  C:66C5H         LINE#         133
  C:66C5H         LINE#         134
  C:66C5H         LINE#         139
  C:66CFH         LINE#         143
  C:66D2H         LINE#         146
  C:66EAH         LINE#         147
  C:66F4H         LINE#         148
  C:66F4H         LINE#         150
  C:6706H         LINE#         151
  C:6718H         LINE#         152
  C:671AH         LINE#         154
  C:671AH         LINE#         155
  C:672CH         LINE#         156
  C:6741H         LINE#         157
  C:6741H         LINE#         161
  C:6746H         LINE#         162
  C:6746H         LINE#         163
  C:6766H         LINE#         164
  C:677DH         LINE#         165
  C:6787H         LINE#         166
  C:6798H         LINE#         167
  C:67BAH         LINE#         168
  C:67BAH         LINE#         169
BL51 BANKED LINKER/LOCATER V6.22                                                      02/16/2019  15:29:57  PAGE 58


  C:67CEH         LINE#         170
  C:67EEH         LINE#         171
  C:67EEH         LINE#         172
  C:67FDH         LINE#         174
  C:6802H         LINE#         175
  C:6802H         LINE#         176
  C:6822H         LINE#         177
  C:6845H         LINE#         178
  C:684FH         LINE#         179
  C:6860H         LINE#         180
  C:687BH         LINE#         181
  C:687BH         LINE#         182
  C:6890H         LINE#         183
  C:6890H         LINE#         184
  C:6894H         LINE#         185
  C:6894H         LINE#         186
  C:6894H         LINE#         187
  C:6896H         LINE#         189
  C:6896H         LINE#         190
  C:68B8H         LINE#         191
  C:68B8H         LINE#         192
  C:68CCH         LINE#         193
  C:68ECH         LINE#         194
  C:68ECH         LINE#         195
  C:68ECH         LINE#         196
  C:68FBH         LINE#         198
  -------         ENDPROC       CHECK_EMU_ADJPARAM
  -------         PROC          _GET_ORIGINAL_POWER
  X:06A7H         SYMBOL        avr_times
  X:06A8H         SYMBOL        ch
  -------         DO            
  X:06A9H         SYMBOL        val
  X:06ADH         SYMBOL        i
  X:06AEH         SYMBOL        aery_old
  D:0004H         SYMBOL        aery_val
  X:06B2H         SYMBOL        avr_aery
  X:06B6H         SYMBOL        TempValue
  -------         ENDDO         
  C:89ADH         LINE#         206
  C:89B5H         LINE#         207
  C:89B5H         LINE#         208
  C:89B5H         LINE#         214
  C:89C3H         LINE#         216
  C:89CDH         LINE#         217
  C:89D2H         LINE#         218
  C:89E6H         LINE#         219
  C:89E6H         LINE#         220
  C:89F4H         LINE#         221
  C:89FAH         LINE#         222
  C:89FFH         LINE#         223
  C:8A0DH         LINE#         224
  C:8A13H         LINE#         225
  C:8A13H         LINE#         226
  C:8A1AH         LINE#         227
  C:8A1CH         LINE#         229
  C:8A1CH         LINE#         231
  C:8A2AH         LINE#         232
BL51 BANKED LINKER/LOCATER V6.22                                                      02/16/2019  15:29:57  PAGE 59


  C:8A2AH         LINE#         233
  C:8A3DH         LINE#         234
  C:8A48H         LINE#         235
  C:8A5CH         LINE#         236
  C:8A5EH         LINE#         238
  C:8A5EH         LINE#         239
  C:8A65H         LINE#         240
  C:8A65H         LINE#         241
  C:8A65H         LINE#         243
  C:8A7FH         LINE#         244
  C:8A7FH         LINE#         245
  C:8AA3H         LINE#         246
  C:8AA3H         LINE#         248
  C:8AB7H         LINE#         249
  C:8AE3H         LINE#         250
  C:8AECH         LINE#         252
  C:8B06H         LINE#         253
  C:8B14H         LINE#         254
  C:8B15H         LINE#         255
  C:8B15H         LINE#         256
  -------         ENDPROC       _GET_ORIGINAL_POWER
  -------         PROC          _GET_ORIGINAL_IRMS
  X:06BAH         SYMBOL        avr_times
  X:06BBH         SYMBOL        ch
  -------         DO            
  X:06BCH         SYMBOL        val
  X:06C0H         SYMBOL        i
  X:06C1H         SYMBOL        aery_old
  D:0004H         SYMBOL        aery_val
  X:06C5H         SYMBOL        avr_aery
  X:06C9H         SYMBOL        TempValue
  -------         ENDDO         
  C:8B16H         LINE#         266
  C:8B1EH         LINE#         267
  C:8B1EH         LINE#         268
  C:8B1EH         LINE#         274
  C:8B2CH         LINE#         276
  C:8B36H         LINE#         277
  C:8B3BH         LINE#         278
  C:8B4FH         LINE#         279
  C:8B4FH         LINE#         280
  C:8B5DH         LINE#         281
  C:8B63H         LINE#         282
  C:8B68H         LINE#         283
  C:8B76H         LINE#         284
  C:8B7CH         LINE#         285
  C:8B7CH         LINE#         286
  C:8B83H         LINE#         287
  C:8B85H         LINE#         289
  C:8B85H         LINE#         291
  C:8B93H         LINE#         292
  C:8B93H         LINE#         293
  C:8BA6H         LINE#         294
  C:8BB1H         LINE#         295
  C:8BC5H         LINE#         296
  C:8BC7H         LINE#         298
  C:8BC7H         LINE#         299
BL51 BANKED LINKER/LOCATER V6.22                                                      02/16/2019  15:29:57  PAGE 60


  C:8BCEH         LINE#         300
  C:8BCEH         LINE#         301
  C:8BCEH         LINE#         303
  C:8BE8H         LINE#         304
  C:8BE8H         LINE#         305
  C:8C0CH         LINE#         306
  C:8C0CH         LINE#         308
  C:8C20H         LINE#         309
  C:8C4CH         LINE#         310
  C:8C55H         LINE#         312
  C:8C6FH         LINE#         313
  C:8C7DH         LINE#         314
  C:8C7EH         LINE#         315
  C:8C7EH         LINE#         316
  -------         ENDPROC       _GET_ORIGINAL_IRMS
  C:A5F3H         SYMBOL        L?0165
  C:A607H         SYMBOL        L?0166
  -------         PROC          L?0164
  -------         ENDPROC       L?0164
  C:A5F3H         SYMBOL        L?0165
  C:A607H         SYMBOL        L?0166
  -------         PROC          _CALCULATESC
  D:0004H         SYMBOL        CurValue
  X:00CBH         SYMBOL        TarValue
  -------         DO            
  D:0004H         SYMBOL        s32_tmp0
  X:00CFH         SYMBOL        f_CurValue
  X:00D3H         SYMBOL        f_TarValue
  X:00D7H         SYMBOL        f_Error
  X:00DBH         SYMBOL        f_s32_tmp0
  X:00DFH         SYMBOL        f_s32_tmp1
  D:0004H         SYMBOL        f_s32_tmp2
  D:0004H         SYMBOL        f_s32_tmp3
  -------         ENDDO         
  C:A612H         LINE#         337
  C:A612H         LINE#         338
  C:A612H         LINE#         345
  C:A61CH         LINE#         346
  C:A634H         LINE#         347
  C:A676H         LINE#         349
  C:A6A6H         LINE#         351
  C:A6C4H         LINE#         353
  C:A6DBH         LINE#         355
  C:A6DEH         LINE#         356
  C:A6E1H         LINE#         357
  C:A6E1H         LINE#         358
  -------         ENDPROC       _CALCULATESC
  -------         PROC          _CALCULATEAC
  X:00C8H         SYMBOL        CurValue
  X:00CCH         SYMBOL        TarValue
  -------         DO            
  X:00D0H         SYMBOL        Error
  D:0007H         SYMBOL        Result
  X:00D2H         SYMBOL        JCFH
  -------         ENDDO         
  C:A0FAH         LINE#         378
  C:A100H         LINE#         379
BL51 BANKED LINKER/LOCATER V6.22                                                      02/16/2019  15:29:57  PAGE 61


  C:A100H         LINE#         385
  C:A105H         LINE#         386
  C:A121H         LINE#         388
  C:A141H         LINE#         389
  C:A141H         LINE#         391
  C:A188H         LINE#         392
  C:A18CH         LINE#         393
  C:A18EH         LINE#         395
  C:A18EH         LINE#         397
  C:A1D8H         LINE#         398
  C:A1D8H         LINE#         399
  C:A1F1H         LINE#         400
  C:A1F8H         LINE#         401
  C:A1F8H         LINE#         402
  C:A1FCH         LINE#         403
  C:A1FCH         LINE#         404
  C:A1FCH         LINE#         405
  -------         ENDPROC       _CALCULATEAC
  -------         PROC          _SOFTADJUST_IB_PROCESS
  X:0713H         SYMBOL        jzval
  X:0717H         SYMBOL        channel
  -------         DO            
  X:0718H         SYMBOL        val
  D:0004H         SYMBOL        adjust_wcval
  -------         ENDDO         
  C:9DD2H         LINE#         414
  C:9DD8H         LINE#         415
  C:9DD8H         LINE#         416
  C:9DD8H         LINE#         419
  C:9DE6H         LINE#         420
  C:9DECH         LINE#         421
  C:9DECH         LINE#         422
  C:9DF4H         LINE#         423
  C:9E0FH         LINE#         424
  C:9E2AH         LINE#         425
  C:9E2CH         LINE#         427
  C:9E2CH         LINE#         428
  C:9E36H         LINE#         429
  C:9E54H         LINE#         431
  C:9E72H         LINE#         432
  C:9E72H         LINE#         433
  C:9E7CH         LINE#         434
  C:9EA9H         LINE#         436
  C:9EB7H         LINE#         437
  C:9EBDH         LINE#         438
  C:9EBDH         LINE#         439
  C:9ECCH         LINE#         440
  C:9ECEH         LINE#         442
  C:9ECEH         LINE#         443
  C:9EE2H         LINE#         444
  C:9EE2H         LINE#         445
  -------         ENDPROC       _SOFTADJUST_IB_PROCESS
  -------         PROC          _SOFTADJUST_IB5_PROCESS
  X:071CH         SYMBOL        jzval
  X:0720H         SYMBOL        channel
  -------         DO            
  B:0020H.5       SYMBOL        Flag_fu
BL51 BANKED LINKER/LOCATER V6.22                                                      02/16/2019  15:29:57  PAGE 62


  X:0721H         SYMBOL        val
  D:0004H         SYMBOL        adjust_wcval
  -------         ENDDO         
  C:B363H         LINE#         454
  C:B369H         LINE#         455
  C:B369H         LINE#         456
  C:B36BH         LINE#         462
  C:B379H         LINE#         463
  C:B383H         LINE#         464
  C:B389H         LINE#         465
  C:B389H         LINE#         466
  C:B3A2H         LINE#         467
  C:B3A4H         LINE#         469
  C:B3A4H         LINE#         471
  C:B3C2H         LINE#         472
  C:B3C2H         LINE#         473
  C:B3CCH         LINE#         474
  C:B3FDH         LINE#         476
  C:B40BH         LINE#         477
  C:B411H         LINE#         478
  C:B411H         LINE#         479
  C:B420H         LINE#         480
  C:B422H         LINE#         482
  C:B422H         LINE#         483
  C:B436H         LINE#         484
  C:B436H         LINE#         486
  -------         ENDPROC       _SOFTADJUST_IB5_PROCESS
  -------         PROC          _SOFTADJUST_PHASE_PROCESS
  X:0725H         SYMBOL        jzval
  X:0729H         SYMBOL        channel
  -------         DO            
  X:072AH         SYMBOL        val
  D:0004H         SYMBOL        adjust_wcval
  -------         ENDDO         
  C:7490H         LINE#         495
  C:7496H         LINE#         496
  C:7496H         LINE#         497
  C:7496H         LINE#         502
  C:74A4H         LINE#         503
  C:74AEH         LINE#         504
  C:74B4H         LINE#         505
  C:74B4H         LINE#         506
  C:74CDH         LINE#         507
  C:74CFH         LINE#         509
  C:74CFH         LINE#         510
  C:74E5H         LINE#         511
  C:74E5H         LINE#         512
  C:74F3H         LINE#         514
  C:74F8H         LINE#         515
  C:74FEH         LINE#         516
  C:7503H         LINE#         518
  C:750DH         LINE#         519
  C:753EH         LINE#         521
  C:754CH         LINE#         522
  C:7552H         LINE#         523
  C:7552H         LINE#         524
  C:755EH         LINE#         525
BL51 BANKED LINKER/LOCATER V6.22                                                      02/16/2019  15:29:57  PAGE 63


  C:7561H         LINE#         527
  C:7561H         LINE#         528
  C:7571H         LINE#         529
  C:7571H         LINE#         530
  C:7585H         LINE#         531
  C:75ABH         LINE#         532
  C:75C4H         LINE#         533
  C:75D5H         LINE#         534
  C:75D7H         LINE#         536
  C:75D7H         LINE#         537
  C:75FAH         LINE#         538
  C:7613H         LINE#         539
  C:762CH         LINE#         540
  C:762CH         LINE#         541
  C:7636H         LINE#         542
  C:7664H         LINE#         543
  C:7664H         LINE#         545
  -------         ENDPROC       _SOFTADJUST_PHASE_PROCESS
  -------         PROC          _CALCULATESCHZ
  D:0006H         SYMBOL        error
  X:0005H         SYMBOL        LastSC
  -------         DO            
  X:0009H         SYMBOL        Error
  X:000BH         SYMBOL        Stemp0remd
  X:000DH         SYMBOL        Stemp2remd
  X:000FH         SYMBOL        Stemp0
  X:0013H         SYMBOL        Stemp1
  X:0017H         SYMBOL        Stemp2
  D:0004H         SYMBOL        Stemp3
  D:0004H         SYMBOL        Result
  -------         ENDDO         
  C:806CH         LINE#         593
  C:806CH         LINE#         594
  C:806CH         LINE#         603
  C:8074H         LINE#         604
  C:8095H         LINE#         605
  C:80BDH         LINE#         606
  C:80E4H         LINE#         607
  C:8138H         LINE#         609
  C:8164H         LINE#         610
  C:8196H         LINE#         611
  C:81B6H         LINE#         612
  C:81EDH         LINE#         614
  C:8208H         LINE#         615
  C:8208H         LINE#         617
  -------         ENDPROC       _CALCULATESCHZ
  -------         PROC          TIMEEVENTPROC
  -------         DO            
  X:0514H         SYMBOL        temp
  X:0001H         SYMBOL        HZ
  -------         ENDDO         
  C:A3FCH         LINE#         618
  C:A3FCH         LINE#         619
  C:A3FCH         LINE#         623
  C:A41CH         LINE#         624
  C:A436H         LINE#         625
  C:A436H         LINE#         626
BL51 BANKED LINKER/LOCATER V6.22                                                      02/16/2019  15:29:57  PAGE 64


  C:A44AH         LINE#         627
  C:A453H         LINE#         628
  C:A453H         LINE#         629
  C:A460H         LINE#         630
  C:A460H         LINE#         631
  C:A462H         LINE#         632
  C:A472H         LINE#         633
  C:A472H         LINE#         634
  C:A4AEH         LINE#         635
  C:A4C9H         LINE#         636
  C:A4C9H         LINE#         638
  C:A4C9H         LINE#         639
  C:A4E4H         LINE#         640
  C:A4F8H         LINE#         641
  C:A4F8H         LINE#         642
  C:A4F8H         LINE#         644
  -------         ENDPROC       TIMEEVENTPROC
  -------         PROC          HARDWARE_ADJUSTDIV_SUB
  -------         DO            
  X:0596H         SYMBOL        i
  X:0597H         SYMBOL        val
  X:059BH         SYMBOL        tmpval
  X:059FH         SYMBOL        tmpval1
  X:05A3H         SYMBOL        jzwcval
  X:05A7H         SYMBOL        ajust1_type
  X:05A8H         SYMBOL        ajust2_type
  X:05A9H         SYMBOL        cmp_val
  X:05B9H         SYMBOL        adjust1_wcval
  X:05BDH         SYMBOL        adjust2_wcval
  X:05C1H         SYMBOL        TempValue
  -------         ENDDO         
  C:2DF2H         LINE#         651
  C:2DF2H         LINE#         652
  C:2DF2H         LINE#         656
  C:2DFCH         LINE#         665
  C:2E02H         LINE#         668
  C:2E08H         LINE#         670
  C:2E14H         LINE#         671
  C:2E3AH         LINE#         672
  C:2E60H         LINE#         673
  C:2E86H         LINE#         674
  C:2EACH         LINE#         676
  C:2EBAH         LINE#         679
  C:2EC7H         LINE#         680
  C:2EE9H         LINE#         681
  C:2EE9H         LINE#         682
  C:2EEEH         LINE#         683
  C:2EF1H         LINE#         684
  C:2F13H         LINE#         685
  C:2F13H         LINE#         686
  C:2F19H         LINE#         687
  C:2F1BH         LINE#         688
  C:2F3DH         LINE#         689
  C:2F3DH         LINE#         690
  C:2F43H         LINE#         691
  C:2F45H         LINE#         692
  C:2F68H         LINE#         693
BL51 BANKED LINKER/LOCATER V6.22                                                      02/16/2019  15:29:57  PAGE 65


  C:2F68H         LINE#         694
  C:2F6BH         LINE#         695
  C:2F6DH         LINE#         697
  C:2F6DH         LINE#         698
  C:2F70H         LINE#         699
  C:2F70H         LINE#         730
  C:2F76H         LINE#         731
  C:2F76H         LINE#         732
  C:2F80H         LINE#         733
  C:2F8AH         LINE#         734
  C:2F8FH         LINE#         735
  C:2F8FH         LINE#         738
  C:2F9AH         LINE#         739
  C:2F9AH         LINE#         741
  C:2FB0H         LINE#         744
  C:2FBAH         LINE#         745
  C:2FBFH         LINE#         746
  C:2FBFH         LINE#         747
  C:2FC6H         LINE#         748
  C:2FD3H         LINE#         749
  C:2FEDH         LINE#         750
  C:2FEDH         LINE#         751
  C:3011H         LINE#         752
  C:3011H         LINE#         753
  C:303DH         LINE#         754
  C:304BH         LINE#         755
  C:305AH         LINE#         756
  C:3077H         LINE#         758
  C:30ACH         LINE#         760
  C:30B6H         LINE#         761
  C:30BBH         LINE#         762
  C:30BBH         LINE#         763
  C:30C2H         LINE#         764
  C:30CFH         LINE#         765
  C:30E9H         LINE#         766
  C:30E9H         LINE#         767
  C:310DH         LINE#         768
  C:310DH         LINE#         769
  C:3139H         LINE#         770
  C:3147H         LINE#         771
  C:3156H         LINE#         772
  C:3173H         LINE#         774
  C:31A8H         LINE#         775
  C:31ADH         LINE#         777
  C:31BBH         LINE#         778
  C:31BBH         LINE#         781
  C:31C2H         LINE#         782
  C:31C2H         LINE#         783
  C:31DFH         LINE#         784
  C:31F5H         LINE#         785
  C:31FAH         LINE#         787
  C:31FAH         LINE#         789
  C:3201H         LINE#         790
  C:3201H         LINE#         791
  C:321EH         LINE#         792
  C:3234H         LINE#         793
  C:3239H         LINE#         795
BL51 BANKED LINKER/LOCATER V6.22                                                      02/16/2019  15:29:57  PAGE 66


  C:3239H         LINE#         801
  C:3240H         LINE#         802
  C:3240H         LINE#         803
  C:324AH         LINE#         804
  C:3254H         LINE#         805
  C:3259H         LINE#         806
  C:3259H         LINE#         809
  C:3264H         LINE#         810
  C:3264H         LINE#         812
  C:3274H         LINE#         813
  C:327EH         LINE#         814
  C:3283H         LINE#         815
  C:3283H         LINE#         816
  C:3291H         LINE#         817
  C:3291H         LINE#         818
  C:32A4H         LINE#         819
  C:32AFH         LINE#         820
  C:32C3H         LINE#         821
  C:32C5H         LINE#         823
  C:32C5H         LINE#         824
  C:32CCH         LINE#         825
  C:32CCH         LINE#         826
  C:32E6H         LINE#         827
  C:32E6H         LINE#         828
  C:330AH         LINE#         829
  C:330AH         LINE#         830
  C:3336H         LINE#         831
  C:3344H         LINE#         832
  C:3353H         LINE#         833
  C:3370H         LINE#         835
  C:33A5H         LINE#         838
  C:33AFH         LINE#         839
  C:33B4H         LINE#         840
  C:33B4H         LINE#         841
  C:33C2H         LINE#         842
  C:33C2H         LINE#         843
  C:33D5H         LINE#         844
  C:33E0H         LINE#         845
  C:33F4H         LINE#         846
  C:33F6H         LINE#         848
  C:33F6H         LINE#         849
  C:33FDH         LINE#         850
  C:33FDH         LINE#         851
  C:3417H         LINE#         852
  C:3417H         LINE#         853
  C:343BH         LINE#         854
  C:343BH         LINE#         855
  C:3467H         LINE#         856
  C:3475H         LINE#         857
  C:3484H         LINE#         858
  C:34A1H         LINE#         860
  C:34D6H         LINE#         861
  C:34DBH         LINE#         862
  C:34DBH         LINE#         864
  C:34E2H         LINE#         865
  C:34E2H         LINE#         866
  C:34FFH         LINE#         867
BL51 BANKED LINKER/LOCATER V6.22                                                      02/16/2019  15:29:57  PAGE 67


  C:3516H         LINE#         868
  C:351BH         LINE#         869
  C:351BH         LINE#         871
  C:3522H         LINE#         872
  C:3522H         LINE#         873
  C:353FH         LINE#         874
  C:3556H         LINE#         875
  C:355BH         LINE#         876
  C:355BH         LINE#         878
  C:356BH         LINE#         879
  C:356BH         LINE#         880
  C:356EH         LINE#         881
  C:357CH         LINE#         883
  C:358AH         LINE#         886
  C:358DH         LINE#         888
  C:35A2H         LINE#         889
  C:35B0H         LINE#         891
  C:35B5H         LINE#         892
  C:35B5H         LINE#         894
  C:35B8H         LINE#         895
  C:35BBH         LINE#         896
  C:35C9H         LINE#         897
  C:35CEH         LINE#         899
  -------         ENDPROC       HARDWARE_ADJUSTDIV_SUB
  -------         PROC          _MEASURE_ELECTRIC_ERR_GAIN
  X:0095H         SYMBOL        sptr
  -------         DO            
  X:0098H         SYMBOL        u32_tmp_U
  X:009CH         SYMBOL        u32_tmp_A
  X:00A0H         SYMBOL        u32_tmp_P
  X:00A4H         SYMBOL        u32_tmp
  X:00A8H         SYMBOL        errbuf
  X:00AFH         SYMBOL        Err_Data
  -------         ENDDO         
  C:5562H         LINE#         908
  C:556DH         LINE#         909
  C:556DH         LINE#         915
  C:5572H         LINE#         916
  C:558CH         LINE#         917
  C:55C4H         LINE#         918
  C:55FCH         LINE#         919
  C:560BH         LINE#         921
  C:5610H         LINE#         922
  C:562AH         LINE#         923
  C:5662H         LINE#         924
  C:569AH         LINE#         925
  C:56A9H         LINE#         927
  C:56AEH         LINE#         928
  C:56C8H         LINE#         929
  C:5700H         LINE#         930
  C:5738H         LINE#         931
  C:5747H         LINE#         934
  C:5772H         LINE#         935
  C:5777H         LINE#         936
  C:5786H         LINE#         938
  C:57BFH         LINE#         939
  C:57BFH         LINE#         940
BL51 BANKED LINKER/LOCATER V6.22                                                      02/16/2019  15:29:57  PAGE 68


  C:57BFH         LINE#         941
  C:57BFH         LINE#         942
  C:57D0H         LINE#         943
  C:57DEH         LINE#         944
  C:5803H         LINE#         945
  C:5805H         LINE#         946
  C:5805H         LINE#         947
  C:5805H         LINE#         948
  C:5816H         LINE#         949
  C:5818H         LINE#         950
  C:5818H         LINE#         951
  C:5818H         LINE#         952
  C:5829H         LINE#         953
  C:5829H         LINE#         954
  C:5829H         LINE#         956
  C:5829H         LINE#         957
  C:582CH         LINE#         958
  C:582FH         LINE#         959
  C:583DH         LINE#         960
  -------         ENDPROC       _MEASURE_ELECTRIC_ERR_GAIN
  -------         PROC          _CALIBRATION_POWER
  X:00B3H         SYMBOL        f_err_data
  -------         DO            
  X:00B7H         SYMBOL        offset
  X:00B8H         SYMBOL        u32_tmp
  X:00BCH         SYMBOL        u32_PMdataltemp
  X:0518H         SYMBOL        temp
  X:00C0H         SYMBOL        HZ
  -------         ENDDO         
  C:B82BH         LINE#         966
  C:B831H         LINE#         967
  C:B831H         LINE#         968
  C:B831H         LINE#         974
  C:B83FH         LINE#         976
  C:B855H         LINE#         977
  C:B855H         LINE#         978
  C:B855H         LINE#         979
  C:B855H         LINE#         981
  C:B855H         LINE#         982
  C:B881H         LINE#         983
  C:B881H         LINE#         1004
  C:B89CH         LINE#         1005
  C:B89CH         LINE#         1007
  C:B8A9H         LINE#         1008
  C:B8BFH         LINE#         1009
  C:B8DAH         LINE#         1010
  C:B8EEH         LINE#         1012
  C:B8EEH         LINE#         1015
  -------         ENDPROC       _CALIBRATION_POWER
  -------         PROC          _CALIBRATION_CURRENT
  X:00B3H         SYMBOL        Current
  X:00B7H         SYMBOL        Voltage
  -------         DO            
  X:00BBH         SYMBOL        u32_tmp
  X:00BFH         SYMBOL        u32_PMdataltemp
  X:00C3H         SYMBOL        u32_PMdataltempSII1
  -------         ENDDO         
BL51 BANKED LINKER/LOCATER V6.22                                                      02/16/2019  15:29:57  PAGE 69


  C:5D3AH         LINE#         1024
  C:5D40H         LINE#         1025
  C:5D40H         LINE#         1028
  C:5D5EH         LINE#         1029
  C:5D5EH         LINE#         1031
  C:5D6BH         LINE#         1032
  C:5D97H         LINE#         1033
  C:5DA4H         LINE#         1034
  C:5DBDH         LINE#         1035
  C:5DBDH         LINE#         1037
  C:5DC6H         LINE#         1038
  C:5DDAH         LINE#         1039
  C:5DDAH         LINE#         1042
  C:5DE7H         LINE#         1043
  C:5E2DH         LINE#         1044
  C:5E3AH         LINE#         1045
  C:5E56H         LINE#         1046
  C:5E56H         LINE#         1048
  C:5E56H         LINE#         1049
  C:5E56H         LINE#         1050
  C:5E56H         LINE#         1051
  C:5E56H         LINE#         1052
  C:5E59H         LINE#         1053
  C:5E77H         LINE#         1054
  C:5E77H         LINE#         1056
  C:5E84H         LINE#         1057
  C:5EB0H         LINE#         1058
  C:5EBDH         LINE#         1059
  C:5ED6H         LINE#         1060
  C:5ED6H         LINE#         1062
  C:5EDFH         LINE#         1063
  C:5EF3H         LINE#         1064
  C:5EF3H         LINE#         1067
  C:5F00H         LINE#         1068
  C:5F46H         LINE#         1069
  C:5F53H         LINE#         1070
  C:5F6CH         LINE#         1071
  C:5F6CH         LINE#         1073
  C:5F78H         LINE#         1074
  C:5F8CH         LINE#         1075
  C:5FA7H         LINE#         1076
  C:5FA7H         LINE#         1077
  C:5FA7H         LINE#         1081
  -------         ENDPROC       _CALIBRATION_CURRENT
  -------         PROC          _CALIBRATION_ANGULAR
  X:00B3H         SYMBOL        f_err_data
  -------         DO            
  X:00B7H         SYMBOL        u32_tmp
  X:00BBH         SYMBOL        u32_PMdataltemp
  X:00BFH         SYMBOL        offset
  X:00C0H         SYMBOL        PHCCTRL1_adj_val
  X:00C4H         SYMBOL        PHCCTRL2_adj_val
  -------         ENDDO         
  C:9CAEH         LINE#         1088
  C:9CB4H         LINE#         1089
  C:9CB4H         LINE#         1094
  C:9CCAH         LINE#         1095
BL51 BANKED LINKER/LOCATER V6.22                                                      02/16/2019  15:29:57  PAGE 70


  C:9CCAH         LINE#         1096
  C:9CCAH         LINE#         1097
  C:9CCAH         LINE#         1099
  C:9CCAH         LINE#         1100
  C:9CF6H         LINE#         1101
  C:9CF6H         LINE#         1103
  C:9D1BH         LINE#         1140
  C:9D36H         LINE#         1141
  C:9D36H         LINE#         1142
  C:9D4AH         LINE#         1143
  C:9D61H         LINE#         1144
  C:9D73H         LINE#         1145
  C:9D75H         LINE#         1146
  C:9D90H         LINE#         1147
  C:9D90H         LINE#         1148
  C:9DA4H         LINE#         1149
  C:9DBBH         LINE#         1150
  C:9DD1H         LINE#         1152
  C:9DD1H         LINE#         1155
  -------         ENDPROC       _CALIBRATION_ANGULAR
  -------         PROC          _CALIBRATION_SMALL_SIGNAL
  X:00B3H         SYMBOL        f_err_data
  -------         DO            
  X:00B7H         SYMBOL        u32_PMdataltemp
  X:00BBH         SYMBOL        offset
  X:00BCH         SYMBOL        s32_tmp
  X:00C0H         SYMBOL        s32_PMdataltemp
  -------         ENDDO         
  C:7B7CH         LINE#         1162
  C:7B82H         LINE#         1163
  C:7B82H         LINE#         1200
  C:7BA0H         LINE#         1201
  C:7BA0H         LINE#         1202
  C:7BADH         LINE#         1204
  C:7BE3H         LINE#         1206
  C:7BE8H         LINE#         1207
  C:7C0EH         LINE#         1208
  C:7C23H         LINE#         1211
  C:7C3EH         LINE#         1212
  C:7C4FH         LINE#         1213
  C:7C52H         LINE#         1215
  C:7C70H         LINE#         1216
  C:7C70H         LINE#         1217
  C:7C7DH         LINE#         1219
  C:7CB3H         LINE#         1221
  C:7CB8H         LINE#         1222
  C:7CDEH         LINE#         1223
  C:7CF3H         LINE#         1226
  C:7D0EH         LINE#         1227
  C:7D22H         LINE#         1228
  C:7D22H         LINE#         1231
  -------         ENDPROC       _CALIBRATION_SMALL_SIGNAL
  -------         ENDMOD        LNK_EMU_ADJ

  -------         MODULE        LNK_EMU_HANDL
  C:0000H         SYMBOL        _ICE_DUMMY_
  D:0090H         PUBLIC        P1
BL51 BANKED LINKER/LOCATER V6.22                                                      02/16/2019  15:29:57  PAGE 71


  C:6D0AH         PUBLIC        _Lnk_get_EMU_activePower
  D:00B0H         PUBLIC        P3
  C:7D23H         PUBLIC        lnk_CAL_EMU_constSum_per_second
  D:00A8H         PUBLIC        IE
  D:00ADH         PUBLIC        P9FC
  D:00B8H         PUBLIC        IP
  D:00A4H         PUBLIC        P9OE
  C:F019H         PUBLIC        Init_EMU_RAM
  C:B001H         PUBLIC        _Lnk_get_EMU_freq
  D:0098H         PUBLIC        SCON
  D:0088H         PUBLIC        TCON
  D:00F0H         PUBLIC        B
  D:00E0H         PUBLIC        ACC
  D:00E8H         PUBLIC        EIE
  D:0080H         PUBLIC        SysCtrl
  C:5AC1H         PUBLIC        _Init_EMU
  B:0080H.4       PUBLIC        PMG
  X:0755H         PUBLIC        gs_emu_run_var
  D:00C8H         PUBLIC        T2CON
  C:8DE7H         PUBLIC        _Lnk_get_EMU_voltage
  C:3BD8H         PUBLIC        Lnk_get_EMU_ractive_const
  C:79CDH         PUBLIC        _Lnk_get_EMU_ractivePower
  C:9A5AH         PUBLIC        _Lnk_get_EMU_current
  D:00D0H         PUBLIC        PSW
  -------         PROC          INIT_EMU_RAM
  C:F019H         LINE#         31
  C:F019H         LINE#         32
  C:F019H         LINE#         33
  -------         ENDPROC       INIT_EMU_RAM
  -------         PROC          _INIT_EMU
  X:0000H         SYMBOL        u8_mode
  C:5AC1H         LINE#         43
  C:5AC6H         LINE#         44
  C:5AC6H         LINE#         157
  C:5AC9H         LINE#         158
  C:5AC9H         LINE#         159
  C:5ACFH         LINE#         160
  C:5AD2H         LINE#         161
  C:5AD5H         LINE#         163
  C:5AD5H         LINE#         165
  C:5AD7H         LINE#         167
  C:5AECH         LINE#         168
  C:5B01H         LINE#         170
  C:5B07H         LINE#         171
  C:5B0AH         LINE#         172
  C:5B10H         LINE#         173
  C:5B10H         LINE#         174
  C:5B18H         LINE#         175
  C:5B1FH         LINE#         176
  C:5B31H         LINE#         177
  C:5B33H         LINE#         178
  C:5B40H         LINE#         179
  C:5B40H         LINE#         180
  C:5B4BH         LINE#         181
  C:5B52H         LINE#         182
  C:5B67H         LINE#         183
  C:5B69H         LINE#         185
BL51 BANKED LINKER/LOCATER V6.22                                                      02/16/2019  15:29:57  PAGE 72


  C:5B69H         LINE#         186
  C:5B6CH         LINE#         187
  C:5B6CH         LINE#         188
  C:5B72H         LINE#         191
  C:5B87H         LINE#         192
  C:5B9CH         LINE#         196
  C:5BB1H         LINE#         197
  C:5BC6H         LINE#         201
  C:5BDBH         LINE#         206
  C:5BF0H         LINE#         208
  C:5C05H         LINE#         211
  C:5C1AH         LINE#         212
  C:5C2FH         LINE#         213
  C:5C44H         LINE#         214
  C:5C59H         LINE#         215
  C:5C6EH         LINE#         216
  C:5C83H         LINE#         217
  C:5C98H         LINE#         218
  C:5CADH         LINE#         220
  C:5CC2H         LINE#         225
  C:5CD7H         LINE#         226
  C:5CECH         LINE#         228
  C:5D01H         LINE#         231
  C:5D16H         LINE#         232
  C:5D19H         LINE#         233
  C:5D1CH         LINE#         234
  C:5D1FH         LINE#         235
  C:5D22H         LINE#         236
  C:5D25H         LINE#         237
  C:5D2CH         LINE#         238
  C:5D33H         LINE#         240
  C:5D39H         LINE#         244
  -------         ENDPROC       _INIT_EMU
  -------         PROC          _LNK_GET_EMU_VOLTAGE
  X:000DH         SYMBOL        ch
  -------         DO            
  X:000EH         SYMBOL        val
  X:0012H         SYMBOL        tmpval
  X:0016H         SYMBOL        f32_tmp
  X:001AH         SYMBOL        TempValue
  -------         ENDDO         
  C:8DE7H         LINE#         252
  C:8DECH         LINE#         253
  C:8DECH         LINE#         257
  C:8DF0H         LINE#         258
  C:8DF0H         LINE#         259
  C:8DFDH         LINE#         260
  C:8E17H         LINE#         261
  C:8E17H         LINE#         262
  C:8E3BH         LINE#         263
  C:8E3BH         LINE#         264
  C:8E3BH         LINE#         265
  C:8E3BH         LINE#         266
  C:8E3EH         LINE#         267
  C:8E49H         LINE#         268
  C:8E49H         LINE#         269
  C:8E56H         LINE#         270
BL51 BANKED LINKER/LOCATER V6.22                                                      02/16/2019  15:29:57  PAGE 73


  C:8E56H         LINE#         271
  C:8E69H         LINE#         272
  C:8E74H         LINE#         273
  C:8E88H         LINE#         274
  C:8E8AH         LINE#         276
  C:8E8AH         LINE#         277
  C:8E91H         LINE#         278
  C:8E91H         LINE#         280
  C:8EABH         LINE#         281
  C:8EABH         LINE#         282
  C:8ECFH         LINE#         283
  C:8ECFH         LINE#         284
  C:8EF8H         LINE#         285
  C:8F0FH         LINE#         286
  C:8F11H         LINE#         288
  C:8F11H         LINE#         289
  C:8F1BH         LINE#         290
  C:8F1BH         LINE#         293
  C:8F3FH         LINE#         295
  C:8F4DH         LINE#         298
  -------         ENDPROC       _LNK_GET_EMU_VOLTAGE
  -------         PROC          _LNK_GET_EMU_CURRENT
  X:000DH         SYMBOL        ch
  -------         DO            
  X:000EH         SYMBOL        val
  X:0012H         SYMBOL        tmpval
  X:0016H         SYMBOL        f32_tmp
  X:001AH         SYMBOL        TempValue
  -------         ENDDO         
  C:9A5AH         LINE#         306
  C:9A5FH         LINE#         307
  C:9A5FH         LINE#         312
  C:9A63H         LINE#         313
  C:9A63H         LINE#         314
  C:9A70H         LINE#         315
  C:9A8AH         LINE#         316
  C:9A8AH         LINE#         317
  C:9AAEH         LINE#         318
  C:9AAEH         LINE#         319
  C:9AAEH         LINE#         320
  C:9AAEH         LINE#         321
  C:9AB0H         LINE#         322
  C:9ABBH         LINE#         323
  C:9ABBH         LINE#         324
  C:9AC8H         LINE#         325
  C:9AE2H         LINE#         326
  C:9AE2H         LINE#         327
  C:9B06H         LINE#         328
  C:9B06H         LINE#         329
  C:9B2FH         LINE#         330
  C:9B46H         LINE#         332
  C:9B48H         LINE#         334
  C:9B48H         LINE#         335
  C:9B52H         LINE#         336
  C:9B52H         LINE#         338
  C:9B76H         LINE#         340
  C:9B84H         LINE#         342
BL51 BANKED LINKER/LOCATER V6.22                                                      02/16/2019  15:29:57  PAGE 74


  -------         ENDPROC       _LNK_GET_EMU_CURRENT
  -------         PROC          _LNK_GET_EMU_ACTIVEPOWER
  X:067EH         SYMBOL        ch
  -------         DO            
  X:067FH         SYMBOL        val
  X:0683H         SYMBOL        val2
  X:0687H         SYMBOL        tmpval
  X:068BH         SYMBOL        f32_tmp
  X:068FH         SYMBOL        TempValue
  -------         ENDDO         
  C:6D0AH         LINE#         350
  C:6D0FH         LINE#         351
  C:6D0FH         LINE#         356
  C:6D14H         LINE#         357
  C:6D14H         LINE#         358
  C:6D21H         LINE#         359
  C:6D2FH         LINE#         360
  C:6D2FH         LINE#         361
  C:6D42H         LINE#         362
  C:6D4DH         LINE#         363
  C:6D61H         LINE#         364
  C:6D63H         LINE#         366
  C:6D63H         LINE#         367
  C:6D6AH         LINE#         368
  C:6D6AH         LINE#         370
  C:6D96H         LINE#         371
  C:6D96H         LINE#         372
  C:6D9DH         LINE#         373
  C:6D9DH         LINE#         375
  C:6DAAH         LINE#         376
  C:6DC7H         LINE#         377
  C:6DC7H         LINE#         378
  C:6DC7H         LINE#         380
  C:6DC7H         LINE#         382
  C:6DC9H         LINE#         383
  C:6DD4H         LINE#         384
  C:6DD4H         LINE#         386
  C:6DE1H         LINE#         387
  C:6DE1H         LINE#         388
  C:6DF4H         LINE#         389
  C:6DFFH         LINE#         390
  C:6E13H         LINE#         391
  C:6E15H         LINE#         393
  C:6E15H         LINE#         394
  C:6E1CH         LINE#         395
  C:6E1CH         LINE#         397
  C:6E36H         LINE#         398
  C:6E36H         LINE#         399
  C:6E5AH         LINE#         401
  C:6E5AH         LINE#         402
  C:6E5CH         LINE#         404
  C:6E5CH         LINE#         405
  C:6E66H         LINE#         406
  C:6E66H         LINE#         408
  C:6E81H         LINE#         409
  C:6E81H         LINE#         410
  C:6E8BH         LINE#         413
BL51 BANKED LINKER/LOCATER V6.22                                                      02/16/2019  15:29:57  PAGE 75


  C:6E8DH         LINE#         415
  C:6E8DH         LINE#         416
  C:6EB3H         LINE#         417
  C:6ED9H         LINE#         418
  C:6EF0H         LINE#         419
  C:6EF0H         LINE#         422
  C:6EF0H         LINE#         423
  C:6EF0H         LINE#         425
  C:6EF0H         LINE#         427
  C:6EF0H         LINE#         429
  C:6EF0H         LINE#         432
  C:6EFEH         LINE#         433
  -------         ENDPROC       _LNK_GET_EMU_ACTIVEPOWER
  -------         PROC          _LNK_GET_EMU_FREQ
  X:000DH         SYMBOL        ch
  -------         DO            
  X:000EH         SYMBOL        val
  X:0012H         SYMBOL        tmpval
  X:0016H         SYMBOL        TempValue
  -------         ENDDO         
  C:B001H         LINE#         441
  C:B006H         LINE#         442
  C:B006H         LINE#         445
  C:B009H         LINE#         446
  C:B009H         LINE#         447
  C:B016H         LINE#         448
  C:B02BH         LINE#         449
  C:B02DH         LINE#         450
  C:B035H         LINE#         451
  C:B035H         LINE#         452
  C:B044H         LINE#         453
  C:B044H         LINE#         454
  C:B056H         LINE#         455
  C:B061H         LINE#         456
  C:B075H         LINE#         457
  C:B093H         LINE#         458
  C:B095H         LINE#         460
  C:B095H         LINE#         461
  C:B09CH         LINE#         462
  C:B09CH         LINE#         463
  C:B09EH         LINE#         465
  C:B09EH         LINE#         466
  C:B0A8H         LINE#         467
  C:B0A8H         LINE#         469
  C:B0CEH         LINE#         473
  C:B0DCH         LINE#         474
  -------         ENDPROC       _LNK_GET_EMU_FREQ
  -------         PROC          LNK_CAL_EMU_CONSTSUM_PER_SECOND
  -------         DO            
  X:000DH         SYMBOL        sumval0
  X:0011H         SYMBOL        val1
  X:0015H         SYMBOL        val2
  X:0019H         SYMBOL        TempValue
  -------         ENDDO         
  C:7D23H         LINE#         483
  C:7D23H         LINE#         484
  C:7D23H         LINE#         499
BL51 BANKED LINKER/LOCATER V6.22                                                      02/16/2019  15:29:57  PAGE 76


  C:7D2DH         LINE#         529
  C:7D3AH         LINE#         530
  C:7D58H         LINE#         531
  C:7D58H         LINE#         532
  C:7D5BH         LINE#         533
  C:7D7FH         LINE#         535
  C:7D81H         LINE#         537
  C:7D84H         LINE#         539
  C:7D98H         LINE#         540
  C:7DB3H         LINE#         541
  C:7DB3H         LINE#         542
  C:7DBDH         LINE#         543
  C:7DC7H         LINE#         544
  C:7DCEH         LINE#         545
  C:7DCEH         LINE#         546
  C:7DE9H         LINE#         547
  C:7E0DH         LINE#         549
  C:7E1AH         LINE#         550
  C:7E34H         LINE#         551
  C:7E34H         LINE#         552
  C:7E58H         LINE#         553
  C:7E58H         LINE#         557
  C:7E6CH         LINE#         558
  C:7E87H         LINE#         559
  C:7E87H         LINE#         560
  C:7E91H         LINE#         561
  C:7E9BH         LINE#         562
  C:7E9BH         LINE#         563
  -------         ENDPROC       LNK_CAL_EMU_CONSTSUM_PER_SECOND
  -------         PROC          LNK_GET_EMU_RACTIVE_CONST
  -------         DO            
  X:0619H         SYMBOL        Temp_paraqc
  X:061DH         SYMBOL        val1
  X:0621H         SYMBOL        sumval1
  X:0625H         SYMBOL        val2
  X:0629H         SYMBOL        sumval2
  X:062DH         SYMBOL        TempValue
  X:0631H         SYMBOL        err_ec
  -------         ENDDO         
  C:3BD8H         LINE#         577
  C:3BD8H         LINE#         578
  C:3BD8H         LINE#         585
  C:3BE2H         LINE#         586
  C:3BECH         LINE#         587
  C:3BF6H         LINE#         589
  C:3C03H         LINE#         591
  C:3C10H         LINE#         594
  C:3C20H         LINE#         595
  C:3C20H         LINE#         596
  C:3C32H         LINE#         597
  C:3C3DH         LINE#         598
  C:3C63H         LINE#         599
  C:3C65H         LINE#         601
  C:3C65H         LINE#         602
  C:3C6DH         LINE#         604
  C:3C6DH         LINE#         606
  C:3CA3H         LINE#         607
BL51 BANKED LINKER/LOCATER V6.22                                                      02/16/2019  15:29:57  PAGE 77


  C:3CA3H         LINE#         608
  C:3CADH         LINE#         609
  C:3CADH         LINE#         611
  C:3CE3H         LINE#         612
  C:3CE3H         LINE#         613
  C:3CEDH         LINE#         614
  C:3CEDH         LINE#         618
  C:3CF0H         LINE#         619
  C:3CF0H         LINE#         621
  C:3CF0H         LINE#         623
  C:3CF0H         LINE#         625
  C:3CF0H         LINE#         627
  C:3CF3H         LINE#         628
  C:3CF3H         LINE#         630
  C:3CF3H         LINE#         632
  C:3CF3H         LINE#         634
  C:3CF3H         LINE#         700
  C:3CFDH         LINE#         701
  C:3CFDH         LINE#         702
  C:3D00H         LINE#         703
  C:3D00H         LINE#         704
  C:3D24H         LINE#         708
  C:3D4DH         LINE#         712
  C:3D50H         LINE#         714
  C:3D50H         LINE#         715
  C:3D72H         LINE#         716
  C:3D72H         LINE#         717
  C:3D9EH         LINE#         719
  C:3DBFH         LINE#         720
  C:3DC2H         LINE#         722
  C:3DC2H         LINE#         724
  C:3DEFH         LINE#         725
  C:3DFAH         LINE#         726
  C:3DFAH         LINE#         727
  C:3E1BH         LINE#         728
  C:3E1BH         LINE#         729
  C:3E1BH         LINE#         730
  C:3E1BH         LINE#         731
  C:3E1EH         LINE#         733
  C:3E1EH         LINE#         734
  C:3E28H         LINE#         735
  C:3E28H         LINE#         736
  C:3E4AH         LINE#         737
  C:3E4AH         LINE#         738
  C:3E76H         LINE#         740
  C:3E81H         LINE#         741
  C:3E81H         LINE#         742
  C:3E8CH         LINE#         743
  C:3E8EH         LINE#         745
  C:3E8EH         LINE#         746
  C:3EACH         LINE#         747
  C:3EACH         LINE#         748
  C:3EAFH         LINE#         750
  C:3EAFH         LINE#         752
  C:3EDCH         LINE#         753
  C:3EFDH         LINE#         754
  C:3EFDH         LINE#         755
BL51 BANKED LINKER/LOCATER V6.22                                                      02/16/2019  15:29:57  PAGE 78


  C:3EFFH         LINE#         757
  C:3EFFH         LINE#         758
  C:3F2BH         LINE#         760
  C:3F36H         LINE#         761
  C:3F36H         LINE#         762
  C:3F41H         LINE#         763
  C:3F43H         LINE#         765
  C:3F43H         LINE#         766
  C:3F64H         LINE#         767
  C:3F64H         LINE#         768
  C:3F64H         LINE#         769
  C:3F64H         LINE#         772
  C:3F99H         LINE#         774
  C:3FB8H         LINE#         775
  C:3FB8H         LINE#         776
  C:3FD7H         LINE#         777
  C:4003H         LINE#         778
  C:4021H         LINE#         779
  C:4023H         LINE#         780
  C:404AH         LINE#         782
  C:4065H         LINE#         786
  C:407FH         LINE#         787
  C:407FH         LINE#         788
  C:40A3H         LINE#         789
  C:40A3H         LINE#         791
  C:40BDH         LINE#         792
  C:40BDH         LINE#         793
  C:40E1H         LINE#         794
  C:40E1H         LINE#         795
  C:40FBH         LINE#         796
  C:40FBH         LINE#         797
  C:411FH         LINE#         798
  C:411FH         LINE#         799
  C:4143H         LINE#         800
  C:4167H         LINE#         801
  C:418BH         LINE#         802
  C:4195H         LINE#         804
  -------         ENDPROC       LNK_GET_EMU_RACTIVE_CONST
  -------         PROC          _LNK_GET_EMU_RACTIVEPOWER
  X:06CDH         SYMBOL        ch
  -------         DO            
  X:06CEH         SYMBOL        val
  X:06D2H         SYMBOL        tmpval
  X:06D6H         SYMBOL        f32_tmp
  X:06DAH         SYMBOL        TempValue
  -------         ENDDO         
  C:79CDH         LINE#         814
  C:79D2H         LINE#         815
  C:79D2H         LINE#         820
  C:79D5H         LINE#         821
  C:79D5H         LINE#         823
  C:79E2H         LINE#         824
  C:79FFH         LINE#         825
  C:79FFH         LINE#         826
  C:7A1DH         LINE#         828
  C:7A1DH         LINE#         829
  C:7A20H         LINE#         831
BL51 BANKED LINKER/LOCATER V6.22                                                      02/16/2019  15:29:57  PAGE 79


  C:7A2BH         LINE#         832
  C:7A2BH         LINE#         833
  C:7A38H         LINE#         834
  C:7A38H         LINE#         835
  C:7A4BH         LINE#         836
  C:7A56H         LINE#         837
  C:7A6AH         LINE#         838
  C:7A6CH         LINE#         840
  C:7A6CH         LINE#         841
  C:7A73H         LINE#         842
  C:7A73H         LINE#         845
  C:7A8DH         LINE#         846
  C:7A8DH         LINE#         847
  C:7AB1H         LINE#         849
  C:7AB1H         LINE#         851
  C:7AD7H         LINE#         852
  C:7AD9H         LINE#         854
  C:7AD9H         LINE#         855
  C:7AE3H         LINE#         856
  C:7AE3H         LINE#         858
  C:7AFEH         LINE#         859
  C:7AFEH         LINE#         860
  C:7B08H         LINE#         863
  C:7B0AH         LINE#         865
  C:7B0AH         LINE#         867
  C:7B30H         LINE#         868
  C:7B56H         LINE#         869
  C:7B6DH         LINE#         870
  C:7B6DH         LINE#         872
  C:7B7BH         LINE#         873
  -------         ENDPROC       _LNK_GET_EMU_RACTIVEPOWER
  -------         ENDMOD        LNK_EMU_HANDL

  -------         MODULE        DRV_ADC
  C:0000H         SYMBOL        _ICE_DUMMY_
  D:0090H         PUBLIC        P1
  D:00B0H         PUBLIC        P3
  C:E9D8H         PUBLIC        Samlpe_temperatureAdc
  C:E4A3H         PUBLIC        InitParaRTC
  D:00A8H         PUBLIC        IE
  C:EA93H         PUBLIC        Disable_M_ADC
  D:00B8H         PUBLIC        IP
  C:E61BH         PUBLIC        _Enable_M_ADC
  C:0056H         PUBLIC        Cal_temperature_data
  D:0098H         PUBLIC        SCON
  D:0088H         PUBLIC        TCON
  D:00F0H         PUBLIC        B
  D:00E0H         PUBLIC        ACC
  D:0080H         PUBLIC        SysCtrl
  D:00C8H         PUBLIC        T2CON
  C:E657H         PUBLIC        Samlpe_BatAdc
  D:00D0H         PUBLIC        PSW
  -------         PROC          _ENABLE_M_ADC
  D:0007H         SYMBOL        m_ch
  -------         DO            
  D:0004H         SYMBOL        ctmp
  -------         ENDDO         
BL51 BANKED LINKER/LOCATER V6.22                                                      02/16/2019  15:29:57  PAGE 80


  C:E61BH         LINE#         65
  C:E61BH         LINE#         66
  C:E61BH         LINE#         70
  C:E61FH         LINE#         71
  C:E61FH         LINE#         72
  C:E625H         LINE#         73
  C:E627H         LINE#         74
  C:E62CH         LINE#         75
  C:E62CH         LINE#         77
  C:E632H         LINE#         78
  C:E632H         LINE#         80
  C:E632H         LINE#         82
  C:E632H         LINE#         84
  C:E639H         LINE#         85
  C:E63EH         LINE#         87
  C:E645H         LINE#         88
  C:E649H         LINE#         89
  C:E656H         LINE#         91
  -------         ENDPROC       _ENABLE_M_ADC
  -------         PROC          DISABLE_M_ADC
  -------         DO            
  D:0004H         SYMBOL        ctmp
  -------         ENDDO         
  C:EA93H         LINE#         100
  C:EA93H         LINE#         101
  C:EA93H         LINE#         104
  C:EA9AH         LINE#         105
  C:EAA0H         LINE#         107
  C:EAA7H         LINE#         108
  C:EAAEH         LINE#         109
  C:EAB2H         LINE#         110
  -------         ENDPROC       DISABLE_M_ADC
  -------         PROC          SAMLPE_BATADC
  -------         DO            
  D:0006H         SYMBOL        nVBAT
  D:0004H         SYMBOL        u32_PMdataltemp
  -------         ENDDO         
  C:E657H         LINE#         121
  C:E657H         LINE#         122
  C:E657H         LINE#         126
  C:E65CH         LINE#         127
  C:E663H         LINE#         129
  C:E66AH         LINE#         130
  C:E66FH         LINE#         131
  C:E673H         LINE#         132
  C:E673H         LINE#         134
  C:E680H         LINE#         135
  C:E682H         LINE#         137
  C:E682H         LINE#         138
  C:E691H         LINE#         139
  C:E691H         LINE#         141
  C:E692H         LINE#         143
  C:E692H         LINE#         144
  -------         ENDPROC       SAMLPE_BATADC
  -------         PROC          SAMLPE_TEMPERATUREADC
  -------         DO            
  X:0003H         SYMBOL        temperature
BL51 BANKED LINKER/LOCATER V6.22                                                      02/16/2019  15:29:57  PAGE 81


  -------         ENDDO         
  C:E9D8H         LINE#         154
  C:E9D8H         LINE#         155
  C:E9D8H         LINE#         158
  C:E9DDH         LINE#         159
  C:E9E4H         LINE#         160
  C:E9EDH         LINE#         161
  C:EA08H         LINE#         162
  -------         ENDPROC       SAMLPE_TEMPERATUREADC
  -------         PROC          CAL_TEMPERATURE_DATA
  -------         DO            
  X:0007H         SYMBOL        i
  X:0008H         SYMBOL        p
  X:000AH         SYMBOL        s_TempPara
  D:0004H         SYMBOL        MAdcValue
  X:001FH         SYMBOL        Kpara
  X:0021H         SYMBOL        temp1
  X:0025H         SYMBOL        temperature
  X:0029H         SYMBOL        TempParaSum
  X:002AH         SYMBOL        temp
  -------         ENDDO         
  C:0056H         LINE#         172
  C:0056H         LINE#         173
  C:0056H         LINE#         187
  C:0060H         LINE#         188
  C:006FH         LINE#         189
  C:006FH         LINE#         190
  C:008BH         LINE#         191
  C:00A3H         LINE#         192
  C:00AAH         LINE#         193
  C:00AAH         LINE#         194
  C:00AAH         LINE#         195
  C:00AAH         LINE#         196
  C:00B2H         LINE#         197
  C:00BDH         LINE#         198
  C:00C8H         LINE#         199
  C:00D3H         LINE#         200
  C:00DEH         LINE#         201
  C:00E9H         LINE#         203
  C:00F0H         LINE#         205
  C:00FBH         LINE#         206
  C:0114H         LINE#         207
  C:0140H         LINE#         209
  C:014CH         LINE#         210
  C:014CH         LINE#         211
  C:0156H         LINE#         212
  C:0160H         LINE#         213
  C:016AH         LINE#         214
  C:0174H         LINE#         215
  C:017EH         LINE#         216
  C:017EH         LINE#         217
  C:0241H         LINE#         220
  C:024BH         LINE#         221
  C:025AH         LINE#         222
  C:025AH         LINE#         223
  C:0276H         LINE#         224
  C:028EH         LINE#         225
BL51 BANKED LINKER/LOCATER V6.22                                                      02/16/2019  15:29:57  PAGE 82


  C:0298H         LINE#         226
  C:0298H         LINE#         227
  C:0298H         LINE#         228
  C:0298H         LINE#         229
  C:02A0H         LINE#         231
  C:02ACH         LINE#         232
  C:02ACH         LINE#         233
  C:02B3H         LINE#         234
  C:02B3H         LINE#         236
  C:02BAH         LINE#         237
  C:02BAH         LINE#         238
  C:02D3H         LINE#         239
  C:0313H         LINE#         240
  C:0315H         LINE#         242
  C:0315H         LINE#         243
  C:0353H         LINE#         244
  C:0353H         LINE#         246
  C:036FH         LINE#         247
  C:036FH         LINE#         248
  C:0379H         LINE#         249
  C:0395H         LINE#         250
  C:0395H         LINE#         251
  C:039FH         LINE#         252
  C:039FH         LINE#         254
  C:03ADH         LINE#         256
  -------         ENDPROC       CAL_TEMPERATURE_DATA
  -------         ENDMOD        DRV_ADC

  -------         MODULE        DRV_CORE
  C:0000H         SYMBOL        _ICE_DUMMY_
  D:0090H         PUBLIC        P1
  D:00B0H         PUBLIC        P3
  D:00A8H         PUBLIC        IE
  D:00B8H         PUBLIC        IP
  C:AD5EH         PUBLIC        _Set_McuClock
  C:BD4BH         PUBLIC        _Set_EmuClock
  B:0080H.1       PUBLIC        SLEEP0
  C:DF75H         PUBLIC        Set_McuSleep
  D:0098H         PUBLIC        SCON
  D:0088H         PUBLIC        TCON
  B:0080H.7       PUBLIC        MEAFRQ
  D:00F0H         PUBLIC        B
  C:D329H         PUBLIC        Set_Sleep_out
  D:00A3H         PUBLIC        PLLLCK
  D:00E0H         PUBLIC        ACC
  B:0080H.0       PUBLIC        MCUFRQ
  D:0080H         PUBLIC        SysCtrl
  B:0080H.5       PUBLIC        FSC
  B:0080H.6       PUBLIC        FWC
  B:0080H.4       PUBLIC        PMG
  D:00C8H         PUBLIC        T2CON
  D:00A1H         PUBLIC        Systate
  D:00D0H         PUBLIC        PSW
  -------         PROC          _SET_MCUCLOCK
  X:0007H         SYMBOL        u32_freq
  -------         DO            
  X:000BH         SYMBOL        i
BL51 BANKED LINKER/LOCATER V6.22                                                      02/16/2019  15:29:57  PAGE 83


  -------         ENDDO         
  C:AD5EH         LINE#         30
  C:AD64H         LINE#         31
  C:AD64H         LINE#         32
  C:AD69H         LINE#         34
  C:AD6BH         LINE#         35
  C:AD6DH         LINE#         36
  C:AD74H         LINE#         38
  C:AD78H         LINE#         43
  C:ADB1H         LINE#         44
  C:ADB1H         LINE#         45
  C:ADB1H         LINE#         46
  C:ADB7H         LINE#         47
  C:ADB7H         LINE#         48
  C:ADB9H         LINE#         50
  C:ADB9H         LINE#         51
  C:ADC0H         LINE#         52
  C:ADC4H         LINE#         53
  C:ADC7H         LINE#         54
  C:ADC9H         LINE#         56
  C:ADC9H         LINE#         57
  C:ADCFH         LINE#         58
  C:ADCFH         LINE#         59
  C:ADD1H         LINE#         61
  C:ADD1H         LINE#         62
  C:ADD8H         LINE#         63
  C:ADDCH         LINE#         64
  C:ADDEH         LINE#         66
  C:ADDEH         LINE#         67
  C:ADE5H         LINE#         68
  C:ADE9H         LINE#         69
  C:ADEEH         LINE#         70
  C:ADF0H         LINE#         72
  C:ADF0H         LINE#         73
  C:ADF7H         LINE#         74
  C:ADFBH         LINE#         75
  C:AE00H         LINE#         76
  C:AE02H         LINE#         78
  C:AE02H         LINE#         79
  C:AE05H         LINE#         80
  C:AE05H         LINE#         81
  C:AE05H         LINE#         83
  C:AE0AH         LINE#         84
  C:AE0AH         LINE#         85
  C:AE10H         LINE#         86
  C:AE16H         LINE#         87
  C:AE16H         LINE#         88
  C:AE19H         LINE#         89
  C:AE19H         LINE#         90
  C:AE19H         LINE#         91
  C:AE1BH         LINE#         92
  C:AE20H         LINE#         94
  C:AE23H         LINE#         95
  C:AE23H         LINE#         96
  C:AE29H         LINE#         97
  C:AE2FH         LINE#         98
  C:AE2FH         LINE#         99
BL51 BANKED LINKER/LOCATER V6.22                                                      02/16/2019  15:29:57  PAGE 84


  C:AE32H         LINE#         100
  C:AE32H         LINE#         101
  C:AE32H         LINE#         103
  C:AE37H         LINE#         104
  C:AE3BH         LINE#         105
  C:AE40H         LINE#         107
  C:AE42H         LINE#         108
  -------         ENDPROC       _SET_MCUCLOCK
  -------         PROC          _SET_EMUCLOCK
  X:0001H         SYMBOL        u32_freq
  -------         DO            
  X:0005H         SYMBOL        i
  -------         ENDDO         
  C:BD4BH         LINE#         118
  C:BD51H         LINE#         119
  C:BD51H         LINE#         120
  C:BD56H         LINE#         122
  C:BD58H         LINE#         123
  C:BD5FH         LINE#         125
  C:BD8CH         LINE#         126
  C:BD8CH         LINE#         127
  C:BD8CH         LINE#         128
  C:BD8EH         LINE#         129
  C:BD91H         LINE#         131
  C:BD91H         LINE#         132
  C:BD98H         LINE#         133
  C:BD9CH         LINE#         134
  C:BD9EH         LINE#         136
  C:BD9EH         LINE#         137
  C:BDA5H         LINE#         138
  C:BDA9H         LINE#         140
  C:BDADH         LINE#         141
  C:BDB1H         LINE#         142
  C:BDB3H         LINE#         144
  C:BDB3H         LINE#         145
  C:BDBAH         LINE#         146
  C:BDBEH         LINE#         148
  C:BDC2H         LINE#         149
  C:BDC6H         LINE#         150
  C:BDC8H         LINE#         152
  C:BDC8H         LINE#         153
  C:BDCBH         LINE#         154
  C:BDCBH         LINE#         155
  C:BDCBH         LINE#         157
  C:BDD0H         LINE#         158
  C:BDD0H         LINE#         159
  C:BDD6H         LINE#         160
  C:BDDCH         LINE#         161
  C:BDDCH         LINE#         162
  C:BDDFH         LINE#         163
  C:BDDFH         LINE#         164
  C:BDDFH         LINE#         166
  C:BDE1H         LINE#         167
  C:BDE6H         LINE#         168
  C:BDE9H         LINE#         169
  C:BDE9H         LINE#         170
  C:BDEFH         LINE#         171
BL51 BANKED LINKER/LOCATER V6.22                                                      02/16/2019  15:29:57  PAGE 85


  C:BDF5H         LINE#         172
  C:BDF5H         LINE#         173
  C:BDF8H         LINE#         174
  C:BDF8H         LINE#         175
  C:BDF8H         LINE#         177
  C:BDFAH         LINE#         178
  -------         ENDPROC       _SET_EMUCLOCK
  -------         PROC          SET_MCUSLEEP
  -------         DO            
  X:0007H         SYMBOL        i
  -------         ENDDO         
  C:DF75H         LINE#         187
  C:DF75H         LINE#         188
  C:DF75H         LINE#         190
  C:DF77H         LINE#         191
  C:DF79H         LINE#         193
  C:DF7EH         LINE#         194
  C:DF82H         LINE#         196
  C:DF90H         LINE#         197
  C:DF92H         LINE#         200
  C:DF97H         LINE#         201
  C:DF97H         LINE#         202
  C:DF9AH         LINE#         203
  C:DF9AH         LINE#         205
  C:DF9CH         LINE#         206
  C:DF9FH         LINE#         208
  C:DFA4H         LINE#         209
  C:DFA4H         LINE#         210
  C:DFA7H         LINE#         211
  C:DFA7H         LINE#         213
  C:DFB6H         LINE#         214
  C:DFBBH         LINE#         215
  C:DFC1H         LINE#         217
  C:DFC3H         LINE#         218
  C:DFC8H         LINE#         219
  C:DFC9H         LINE#         224
  -------         ENDPROC       SET_MCUSLEEP
  -------         PROC          SET_SLEEP_OUT
  -------         DO            
  D:0007H         SYMBOL        i
  -------         ENDDO         
  C:D329H         LINE#         234
  C:D329H         LINE#         235
  C:D329H         LINE#         240
  C:D337H         LINE#         241
  C:D33EH         LINE#         242
  C:D34AH         LINE#         243
  C:D34FH         LINE#         246
  C:D354H         LINE#         247
  C:D358H         LINE#         248
  C:D35CH         LINE#         249
  C:D360H         LINE#         251
  C:D364H         LINE#         252
  C:D36BH         LINE#         254
  C:D380H         LINE#         255
  C:D395H         LINE#         257
  C:D39CH         LINE#         259
BL51 BANKED LINKER/LOCATER V6.22                                                      02/16/2019  15:29:57  PAGE 86


  C:D39EH         LINE#         262
  -------         ENDPROC       SET_SLEEP_OUT
  -------         ENDMOD        DRV_CORE

  -------         MODULE        DRV_GPIO
  C:0000H         SYMBOL        _ICE_DUMMY_
  D:0090H         PUBLIC        P1
  D:00B0H         PUBLIC        P3
  D:00A8H         PUBLIC        IE
  D:00ADH         PUBLIC        P9FC
  D:00A5H         PUBLIC        P9IE
  D:00B8H         PUBLIC        IP
  D:00A6H         PUBLIC        P9DO
  D:00A4H         PUBLIC        P9OE
  C:DEC9H         PUBLIC        Init_GPIO_sleep
  D:0098H         PUBLIC        SCON
  D:0088H         PUBLIC        TCON
  D:00F0H         PUBLIC        B
  D:00E0H         PUBLIC        ACC
  D:0080H         PUBLIC        SysCtrl
  C:CEB9H         PUBLIC        Init_GPIO_run
  D:00C8H         PUBLIC        T2CON
  D:00D0H         PUBLIC        PSW
  -------         PROC          INIT_GPIO_RUN
  C:CEB9H         LINE#         29
  C:CEB9H         LINE#         30
  C:CEB9H         LINE#         32
  C:CEC0H         LINE#         33
  C:CEC7H         LINE#         35
  C:CECAH         LINE#         36
  C:CECDH         LINE#         37
  C:CED0H         LINE#         38
  C:CED3H         LINE#         39
  C:CEFAH         LINE#         40
  C:CF0DH         LINE#         42
  C:CF16H         LINE#         44
  C:CF18H         LINE#         45
  C:CF1FH         LINE#         46
  C:CF26H         LINE#         48
  C:CF2BH         LINE#         49
  C:CF32H         LINE#         51
  C:CF37H         LINE#         52
  C:CF3EH         LINE#         54
  C:CF41H         LINE#         55
  C:CF44H         LINE#         57
  -------         ENDPROC       INIT_GPIO_RUN
  -------         PROC          INIT_GPIO_SLEEP
  C:DEC9H         LINE#         66
  C:DEC9H         LINE#         67
  C:DEC9H         LINE#         68
  C:DECFH         LINE#         69
  C:DED2H         LINE#         70
  C:DED8H         LINE#         71
  C:DEDBH         LINE#         72
  C:DEE1H         LINE#         73
  C:DEE4H         LINE#         74
  C:DEEAH         LINE#         75
BL51 BANKED LINKER/LOCATER V6.22                                                      02/16/2019  15:29:57  PAGE 87


  C:DEEDH         LINE#         76
  C:DEF3H         LINE#         77
  C:DEF6H         LINE#         78
  C:DEFCH         LINE#         79
  C:DEFFH         LINE#         80
  C:DF05H         LINE#         81
  C:DF08H         LINE#         82
  C:DF0EH         LINE#         83
  C:DF11H         LINE#         84
  C:DF17H         LINE#         85
  C:DF1AH         LINE#         86
  C:DF1DH         LINE#         87
  C:DF1FH         LINE#         88
  -------         ENDPROC       INIT_GPIO_SLEEP
  -------         ENDMOD        DRV_GPIO

  -------         MODULE        DRV_KEY_IO
  C:0000H         SYMBOL        _ICE_DUMMY_
  D:0090H         PUBLIC        P1
  D:00B0H         PUBLIC        P3
  C:EE1FH         PUBLIC        Judge_PG_DN_key
  D:00A8H         PUBLIC        IE
  D:00A7H         PUBLIC        P9DI
  C:EE05H         PUBLIC        Judge_ERR_ADJ_key
  D:00B8H         PUBLIC        IP
  D:0098H         PUBLIC        SCON
  D:0088H         PUBLIC        TCON
  D:00F0H         PUBLIC        B
  D:00E0H         PUBLIC        ACC
  C:EEB6H         PUBLIC        Judge_ERR_COVER_key
  C:EE9EH         PUBLIC        Judge_MD_CLEAR_key
  D:0080H         PUBLIC        SysCtrl
  C:EE39H         PUBLIC        Judge_MAGN_CHK_key
  D:00C8H         PUBLIC        T2CON
  D:00D0H         PUBLIC        PSW
  -------         PROC          JUDGE_ERR_ADJ_KEY
  -------         DO            
  D:0007H         SYMBOL        i
  -------         ENDDO         
  C:EE05H         LINE#         31
  C:EE05H         LINE#         32
  C:EE05H         LINE#         36
  C:EE07H         LINE#         37
  C:EE07H         LINE#         38
  C:EE0EH         LINE#         39
  C:EE13H         LINE#         41
  C:EE19H         LINE#         42
  C:EE19H         LINE#         43
  C:EE1CH         LINE#         44
  C:EE1CH         LINE#         46
  C:EE1CH         LINE#         47
  C:EE1EH         LINE#         48
  C:EE1EH         LINE#         50
  -------         ENDPROC       JUDGE_ERR_ADJ_KEY
  -------         PROC          JUDGE_PG_DN_KEY
  -------         DO            
  D:0007H         SYMBOL        i
BL51 BANKED LINKER/LOCATER V6.22                                                      02/16/2019  15:29:57  PAGE 88


  -------         ENDDO         
  C:EE1FH         LINE#         58
  C:EE1FH         LINE#         59
  C:EE1FH         LINE#         63
  C:EE21H         LINE#         64
  C:EE21H         LINE#         65
  C:EE28H         LINE#         66
  C:EE2DH         LINE#         68
  C:EE33H         LINE#         69
  C:EE33H         LINE#         70
  C:EE36H         LINE#         71
  C:EE36H         LINE#         73
  C:EE36H         LINE#         74
  C:EE38H         LINE#         75
  C:EE38H         LINE#         77
  -------         ENDPROC       JUDGE_PG_DN_KEY
  -------         PROC          JUDGE_MD_CLEAR_KEY
  -------         DO            
  D:0007H         SYMBOL        i
  -------         ENDDO         
  C:EE9EH         LINE#         85
  C:EE9EH         LINE#         86
  C:EE9EH         LINE#         90
  C:EEA0H         LINE#         91
  C:EEA0H         LINE#         92
  C:EEA5H         LINE#         93
  C:EEAAH         LINE#         95
  C:EEB0H         LINE#         96
  C:EEB0H         LINE#         97
  C:EEB3H         LINE#         98
  C:EEB3H         LINE#         100
  C:EEB3H         LINE#         101
  C:EEB5H         LINE#         102
  C:EEB5H         LINE#         104
  -------         ENDPROC       JUDGE_MD_CLEAR_KEY
  -------         PROC          JUDGE_MAGN_CHK_KEY
  -------         DO            
  D:0007H         SYMBOL        i
  -------         ENDDO         
  C:EE39H         LINE#         113
  C:EE39H         LINE#         114
  C:EE39H         LINE#         118
  C:EE3BH         LINE#         119
  C:EE3BH         LINE#         120
  C:EE42H         LINE#         121
  C:EE47H         LINE#         123
  C:EE4DH         LINE#         124
  C:EE4DH         LINE#         125
  C:EE50H         LINE#         126
  C:EE50H         LINE#         128
  C:EE50H         LINE#         129
  C:EE52H         LINE#         130
  C:EE52H         LINE#         132
  -------         ENDPROC       JUDGE_MAGN_CHK_KEY
  -------         PROC          JUDGE_ERR_COVER_KEY
  -------         DO            
  D:0007H         SYMBOL        i
BL51 BANKED LINKER/LOCATER V6.22                                                      02/16/2019  15:29:57  PAGE 89


  -------         ENDDO         
  C:EEB6H         LINE#         142
  C:EEB6H         LINE#         143
  C:EEB6H         LINE#         147
  C:EEB8H         LINE#         148
  C:EEB8H         LINE#         149
  C:EEBDH         LINE#         150
  C:EEC2H         LINE#         152
  C:EEC8H         LINE#         153
  C:EEC8H         LINE#         154
  C:EECBH         LINE#         155
  C:EECBH         LINE#         157
  C:EECBH         LINE#         158
  C:EECDH         LINE#         159
  C:EECDH         LINE#         161
  -------         ENDPROC       JUDGE_ERR_COVER_KEY
  -------         ENDMOD        DRV_KEY_IO

  -------         MODULE        DRV_LCD
  C:0000H         SYMBOL        _ICE_DUMMY_
  D:0090H         PUBLIC        P1
  D:00B0H         PUBLIC        P3
  D:00A8H         PUBLIC        IE
  C:F01CH         PUBLIC        LCD_OFF
  D:00B8H         PUBLIC        IP
  B:0080H.3       PUBLIC        LCDG
  D:0098H         PUBLIC        SCON
  D:0088H         PUBLIC        TCON
  D:00F0H         PUBLIC        B
  C:AE43H         PUBLIC        _Write_LCD
  D:00E0H         PUBLIC        ACC
  C:D7ACH         PUBLIC        Init_LCD
  C:EF98H         PUBLIC        LCD_ON
  C:ED7CH         PUBLIC        Clr_all_lcd
  C:EBB5H         PUBLIC        _Full_SEG
  D:0080H         PUBLIC        SysCtrl
  D:00C8H         PUBLIC        T2CON
  D:00D0H         PUBLIC        PSW
  -------         PROC          LCD_ON
  C:EF98H         LINE#         29
  C:EF98H         LINE#         30
  C:EF98H         LINE#         31
  C:EF9AH         LINE#         32
  C:EF9FH         LINE#         33
  C:EFA5H         LINE#         34
  -------         ENDPROC       LCD_ON
  -------         PROC          LCD_OFF
  C:F01CH         LINE#         43
  C:F01CH         LINE#         44
  C:F01CH         LINE#         45
  C:F01EH         LINE#         46
  -------         ENDPROC       LCD_OFF
  -------         PROC          CLR_ALL_LCD
  C:ED7CH         LINE#         54
  C:ED7CH         LINE#         55
  C:ED7CH         LINE#         56
  C:ED81H         LINE#         57
BL51 BANKED LINKER/LOCATER V6.22                                                      02/16/2019  15:29:57  PAGE 90


  C:ED83H         LINE#         58
  C:ED85H         LINE#         59
  C:ED87H         LINE#         60
  C:ED89H         LINE#         61
  C:ED8BH         LINE#         62
  C:ED8DH         LINE#         63
  C:ED8FH         LINE#         64
  C:ED93H         LINE#         65
  C:ED95H         LINE#         66
  C:ED97H         LINE#         67
  -------         ENDPROC       CLR_ALL_LCD
  -------         PROC          _FULL_SEG
  D:0007H         SYMBOL        val
  C:EBB5H         LINE#         76
  C:EBB5H         LINE#         77
  C:EBB5H         LINE#         78
  C:EBBAH         LINE#         79
  C:EBBEH         LINE#         80
  C:EBC0H         LINE#         81
  C:EBC2H         LINE#         82
  C:EBC4H         LINE#         83
  C:EBC8H         LINE#         84
  C:EBCAH         LINE#         85
  C:EBCCH         LINE#         86
  C:EBD0H         LINE#         87
  C:EBD2H         LINE#         88
  C:EBD6H         LINE#         89
  C:EBDBH         LINE#         90
  -------         ENDPROC       _FULL_SEG
  -------         PROC          INIT_LCD
  C:D7ACH         LINE#         99
  C:D7ACH         LINE#         100
  C:D7ACH         LINE#         103
  C:D7B3H         LINE#         104
  C:D7BAH         LINE#         105
  C:D7C1H         LINE#         106
  C:D7C8H         LINE#         107
  C:D7CFH         LINE#         108
  C:D7D6H         LINE#         110
  C:D7DDH         LINE#         111
  C:D7E4H         LINE#         112
  C:D7EAH         LINE#         113
  C:D7F1H         LINE#         114
  C:D7F8H         LINE#         115
  C:D7FFH         LINE#         117
  C:D802H         LINE#         119
  C:D808H         LINE#         121
  C:D80CH         LINE#         124
  C:D810H         LINE#         126
  C:D814H         LINE#         128
  C:D818H         LINE#         130
  -------         ENDPROC       INIT_LCD
  -------         PROC          _WRITE_LCD
  D:0001H         SYMBOL        bf_i2cData
  C:AE43H         LINE#         138
  C:AE43H         LINE#         139
  C:AE43H         LINE#         141
BL51 BANKED LINKER/LOCATER V6.22                                                      02/16/2019  15:29:57  PAGE 91


  C:AE58H         LINE#         142
  C:AE6CH         LINE#         143
  C:AE7DH         LINE#         144
  C:AE94H         LINE#         145
  C:AEA5H         LINE#         146
  C:AEBCH         LINE#         147
  C:AECDH         LINE#         148
  C:AEE4H         LINE#         149
  C:AEF5H         LINE#         150
  C:AF0CH         LINE#         151
  C:AF11H         LINE#         152
  C:AF22H         LINE#         154
  -------         ENDPROC       _WRITE_LCD
  -------         ENDMOD        DRV_LCD

  -------         MODULE        DRV_RTC
  C:0000H         SYMBOL        _ICE_DUMMY_
  D:009AH         PUBLIC        RTCSC
  D:0090H         PUBLIC        P1
  D:00B0H         PUBLIC        P3
  D:009EH         PUBLIC        RTCWC
  C:86B5H         PUBLIC        _SetRTCNormal
  D:0093H         PUBLIC        RTCYC
  C:D9C7H         PUBLIC        _Set_RTCTime
  D:00A8H         PUBLIC        IE
  D:00B8H         PUBLIC        IP
  D:0098H         PUBLIC        SCON
  D:0088H         PUBLIC        TCON
  D:00F0H         PUBLIC        B
  D:00E0H         PUBLIC        ACC
  D:00DFH         PUBLIC        SECINT
  D:00DBH         PUBLIC        DIVTHH
  C:E6CEH         PUBLIC        _SetExtRTC
  C:EF76H         PUBLIC        Open_SecOut
  D:00DDH         PUBLIC        DIVTHL
  D:00DCH         PUBLIC        DIVTHM
  D:0090H         PUBLIC        RTCPEN
  C:EDB4H         PUBLIC        Clr_RTC_AdjParam
  D:00E8H         PUBLIC        EIE
  D:0096H         PUBLIC        INTRTC
  D:0097H         PUBLIC        RTCPWD
  D:00DAH         PUBLIC        RTCLATCH
  D:0080H         PUBLIC        SysCtrl
  C:EFC0H         PUBLIC        Init_RTC
  D:009BH         PUBLIC        RTCMiC
  D:00C8H         PUBLIC        T2CON
  C:F028H         PUBLIC        Handl_RTC_Adj_per_minu
  D:009FH         PUBLIC        RTCMoC
  D:009DH         PUBLIC        RTCDC
  D:009CH         PUBLIC        RTCHC
  D:0094H         PUBLIC        RTCCH
  D:0095H         PUBLIC        RTCCL
  D:00D0H         PUBLIC        PSW
  C:DCFAH         PUBLIC        _Get_RTCTime
  -------         PROC          OPEN_SECOUT
  C:EF76H         LINE#         28
  C:EF76H         LINE#         29
BL51 BANKED LINKER/LOCATER V6.22                                                      02/16/2019  15:29:57  PAGE 92


  C:EF76H         LINE#         30
  C:EF7CH         LINE#         32
  C:EF83H         LINE#         33
  C:EF88H         LINE#         34
  -------         ENDPROC       OPEN_SECOUT
  -------         PROC          INIT_RTC
  C:EFC0H         LINE#         52
  C:EFC0H         LINE#         53
  C:EFC0H         LINE#         54
  C:EFC3H         LINE#         55
  C:EFCAH         LINE#         56
  -------         ENDPROC       INIT_RTC
  -------         PROC          _SETEXTRTC
  X:0007H         SYMBOL        SEC
  X:0008H         SYMBOL        intRTC
  C:E6CEH         LINE#         67
  C:E6D6H         LINE#         68
  C:E6D6H         LINE#         70
  C:E6D9H         LINE#         71
  C:E6DCH         LINE#         72
  C:E6E1H         LINE#         74
  C:E6E8H         LINE#         77
  C:E6ECH         LINE#         78
  C:E6ECH         LINE#         79
  C:E6EFH         LINE#         80
  C:E6F9H         LINE#         81
  C:E6F9H         LINE#         84
  C:E6FEH         LINE#         86
  C:E701H         LINE#         87
  C:E704H         LINE#         88
  -------         ENDPROC       _SETEXTRTC
  -------         PROC          _GET_RTCTIME
  X:0021H         SYMBOL        pTime
  -------         DO            
  X:0024H         SYMBOL        RTCFLAG
  -------         ENDDO         
  C:DCFAH         LINE#         99
  C:DD05H         LINE#         100
  C:DD05H         LINE#         103
  C:DD09H         LINE#         104
  C:DD0EH         LINE#         106
  C:DD1EH         LINE#         107
  C:DD31H         LINE#         108
  C:DD39H         LINE#         109
  C:DD41H         LINE#         110
  C:DD49H         LINE#         111
  C:DD51H         LINE#         112
  -------         ENDPROC       _GET_RTCTIME
  -------         PROC          _SET_RTCTIME
  X:0095H         SYMBOL        pTime
  C:D9C7H         LINE#         122
  C:D9D2H         LINE#         123
  C:D9D2H         LINE#         125
  C:D9D5H         LINE#         126
  C:D9D8H         LINE#         127
  C:D9DDH         LINE#         129
  C:D9EDH         LINE#         130
BL51 BANKED LINKER/LOCATER V6.22                                                      02/16/2019  15:29:57  PAGE 93


  C:D9F5H         LINE#         131
  C:D9FDH         LINE#         132
  C:DA05H         LINE#         133
  C:DA0DH         LINE#         134
  C:DA15H         LINE#         135
  C:DA1DH         LINE#         136
  C:DA22H         LINE#         139
  C:DA25H         LINE#         140
  C:DA28H         LINE#         141
  C:DA2DH         LINE#         143
  C:DA2FH         LINE#         144
  -------         ENDPROC       _SET_RTCTIME
  -------         PROC          CLR_RTC_ADJPARAM
  C:EDB4H         LINE#         155
  C:EDB4H         LINE#         156
  C:EDB4H         LINE#         158
  C:EDB7H         LINE#         159
  C:EDBAH         LINE#         160
  C:EDBFH         LINE#         161
  C:EDC2H         LINE#         162
  C:EDC4H         LINE#         165
  C:EDC7H         LINE#         166
  C:EDCAH         LINE#         167
  -------         ENDPROC       CLR_RTC_ADJPARAM
  -------         PROC          _SETRTCNORMAL
  X:06F5H         SYMBOL        offset
  -------         DO            
  X:06F7H         SYMBOL        temp1
  X:06FBH         SYMBOL        temp2
  D:0006H         SYMBOL        temp3
  -------         ENDDO         
  C:86B5H         LINE#         178
  C:86BDH         LINE#         179
  C:86BDH         LINE#         183
  C:86C7H         LINE#         184
  C:86D6H         LINE#         185
  C:86E2H         LINE#         186
  C:86E2H         LINE#         187
  C:86F1H         LINE#         188
  C:86FBH         LINE#         189
  C:8721H         LINE#         190
  C:872BH         LINE#         191
  C:876BH         LINE#         192
  C:876DH         LINE#         194
  C:876DH         LINE#         195
  C:8793H         LINE#         196
  C:879DH         LINE#         197
  C:87EDH         LINE#         198
  C:87EDH         LINE#         200
  C:87FCH         LINE#         201
  C:8803H         LINE#         202
  C:8806H         LINE#         203
  C:8809H         LINE#         204
  C:880EH         LINE#         205
  C:8814H         LINE#         206
  C:8818H         LINE#         207
  C:881EH         LINE#         208
BL51 BANKED LINKER/LOCATER V6.22                                                      02/16/2019  15:29:57  PAGE 94


  C:8822H         LINE#         209
  C:8826H         LINE#         211
  C:882BH         LINE#         212
  C:882EH         LINE#         213
  C:8831H         LINE#         214
  -------         ENDPROC       _SETRTCNORMAL
  -------         PROC          HANDL_RTC_ADJ_PER_MINU
  -------         DO            
  X:0001H         SYMBOL        i
  X:0002H         SYMBOL        p
  X:0004H         SYMBOL        temp1
  X:0008H         SYMBOL        temperature
  X:000CH         SYMBOL        delta
  D:0006H         SYMBOL        OSC
  X:000EH         SYMBOL        Bpara
  X:0012H         SYMBOL        Ti
  -------         ENDDO         
  C:F028H         LINE#         224
  C:F028H         LINE#         225
  -------         ENDPROC       HANDL_RTC_ADJ_PER_MINU
  -------         ENDMOD        DRV_RTC

  -------         MODULE        DRV_TMR
  C:0000H         SYMBOL        _ICE_DUMMY_
  D:0090H         PUBLIC        P1
  D:00B0H         PUBLIC        P3
  C:000EH         PUBLIC        Stop_Timer
  D:00A8H         PUBLIC        IE
  D:00B8H         PUBLIC        IP
  D:0098H         PUBLIC        SCON
  D:0089H         PUBLIC        TMOD
  D:0088H         PUBLIC        TCON
  D:00F0H         PUBLIC        B
  D:00E0H         PUBLIC        ACC
  B:00A8H.1       PUBLIC        ET0
  D:008CH         PUBLIC        TH0
  D:008AH         PUBLIC        TL0
  B:0088H.4       PUBLIC        TR0
  D:0080H         PUBLIC        SysCtrl
  D:00C8H         PUBLIC        T2CON
  D:008EH         PUBLIC        CKCON
  C:0006H         PUBLIC        Start_Timer
  C:EF89H         PUBLIC        Init_Timer
  D:00D0H         PUBLIC        PSW
  -------         PROC          START_TIMER
  C:0006H         LINE#         30
  C:0006H         LINE#         31
  C:0006H         LINE#         32
  C:0008H         LINE#         33
  C:000AH         LINE#         34
  -------         ENDPROC       START_TIMER
  -------         PROC          STOP_TIMER
  C:000EH         LINE#         43
  C:000EH         LINE#         44
  C:000EH         LINE#         45
  C:0010H         LINE#         46
  C:0012H         LINE#         47
BL51 BANKED LINKER/LOCATER V6.22                                                      02/16/2019  15:29:57  PAGE 95


  -------         ENDPROC       STOP_TIMER
  -------         PROC          INIT_TIMER
  C:EF89H         LINE#         56
  C:EF89H         LINE#         57
  C:EF89H         LINE#         59
  C:EF8CH         LINE#         60
  C:EF8FH         LINE#         61
  C:EF92H         LINE#         62
  C:EF95H         LINE#         63
  -------         ENDPROC       INIT_TIMER
  -------         ENDMOD        DRV_TMR

  -------         MODULE        DRV_UART
  C:0000H         SYMBOL        _ICE_DUMMY_
  D:0090H         PUBLIC        P1
  D:00B0H         PUBLIC        P3
  B:00A8H.7       PUBLIC        EA
  C:E01AH         PUBLIC        Uart4_Transmit
  D:00A8H         PUBLIC        IE
  C:A6E2H         PUBLIC        _Get_UART_rx_buff
  C:AF23H         PUBLIC        _Hdl_UART_10ms_run
  D:00B8H         PUBLIC        IP
  C:EEE5H         PUBLIC        En_UART2_Tx
  C:EEFBH         PUBLIC        En_UART4_Tx
  D:0098H         PUBLIC        SCON
  D:0088H         PUBLIC        TCON
  C:EFEAH         PUBLIC        Dis_UART2_rx
  C:EFF2H         PUBLIC        Dis_UART4_rx
  D:00F0H         PUBLIC        B
  D:00E0H         PUBLIC        ACC
  C:E22FH         PUBLIC        En_UART2_rx
  B:00D0H.0       PUBLIC        P
  C:E3DBH         PUBLIC        En_UART4_rx
  C:C2B7H         PUBLIC        _Init_UART_soft
  X:0238H         PUBLIC        gs_uart_drv_var
  D:00E8H         PUBLIC        EIE
  D:0080H         PUBLIC        SysCtrl
  C:D39FH         PUBLIC        _Set_Uart2_badu
  C:D415H         PUBLIC        _Set_Uart4_badu
  D:00C8H         PUBLIC        T2CON
  C:F002H         PUBLIC        _Init_UART2_hard
  C:F008H         PUBLIC        _Init_UART4_hard
  C:781AH         PUBLIC        _Tx_UART_frist
  D:00D0H         PUBLIC        PSW
  -------         PROC          _SET_UART2_BADU
  D:0006H         SYMBOL        rate
  C:D39FH         LINE#         32
  C:D39FH         LINE#         33
  C:D39FH         LINE#         34
  C:D3A5H         LINE#         35
  C:D3C3H         LINE#         36
  C:D3C3H         LINE#         37
  C:D3C3H         LINE#         39
  C:D3C9H         LINE#         41
  C:D3CEH         LINE#         56
  C:D3D0H         LINE#         58
  C:D3D0H         LINE#         60
BL51 BANKED LINKER/LOCATER V6.22                                                      02/16/2019  15:29:57  PAGE 96


  C:D3D6H         LINE#         62
  C:D3DBH         LINE#         77
  C:D3DDH         LINE#         79
  C:D3DDH         LINE#         81
  C:D3E3H         LINE#         83
  C:D3E8H         LINE#         98
  C:D3EAH         LINE#         100
  C:D3EAH         LINE#         103
  C:D3F0H         LINE#         105
  C:D3F5H         LINE#         120
  C:D3F7H         LINE#         122
  C:D3F7H         LINE#         124
  C:D3FDH         LINE#         126
  C:D402H         LINE#         141
  C:D404H         LINE#         142
  C:D404H         LINE#         143
  C:D404H         LINE#         145
  C:D40AH         LINE#         147
  C:D414H         LINE#         162
  C:D414H         LINE#         164
  C:D414H         LINE#         166
  -------         ENDPROC       _SET_UART2_BADU
  -------         PROC          _SET_UART4_BADU
  D:0006H         SYMBOL        rate
  C:D415H         LINE#         176
  C:D415H         LINE#         177
  C:D415H         LINE#         178
  C:D41BH         LINE#         179
  C:D439H         LINE#         180
  C:D439H         LINE#         181
  C:D439H         LINE#         183
  C:D43FH         LINE#         185
  C:D444H         LINE#         198
  C:D446H         LINE#         200
  C:D446H         LINE#         202
  C:D44CH         LINE#         204
  C:D451H         LINE#         217
  C:D453H         LINE#         219
  C:D453H         LINE#         221
  C:D459H         LINE#         223
  C:D45EH         LINE#         236
  C:D460H         LINE#         238
  C:D460H         LINE#         240
  C:D466H         LINE#         242
  C:D46BH         LINE#         255
  C:D46DH         LINE#         257
  C:D46DH         LINE#         259
  C:D473H         LINE#         261
  C:D478H         LINE#         274
  C:D47AH         LINE#         275
  C:D47AH         LINE#         276
  C:D47AH         LINE#         278
  C:D480H         LINE#         280
  C:D48AH         LINE#         293
  C:D48AH         LINE#         295
  C:D48AH         LINE#         297
  -------         ENDPROC       _SET_UART4_BADU
BL51 BANKED LINKER/LOCATER V6.22                                                      02/16/2019  15:29:57  PAGE 97


  -------         PROC          EN_UART2_RX
  C:E22FH         LINE#         308
  C:E22FH         LINE#         309
  C:E22FH         LINE#         310
  C:E25CH         LINE#         311
  C:E262H         LINE#         312
  C:E269H         LINE#         313
  C:E270H         LINE#         314
  C:E274H         LINE#         315
  C:E277H         LINE#         316
  -------         ENDPROC       EN_UART2_RX
  -------         PROC          EN_UART4_RX
  C:E3DBH         LINE#         336
  C:E3DBH         LINE#         337
  C:E3DBH         LINE#         354
  C:E402H         LINE#         355
  C:E408H         LINE#         356
  C:E40FH         LINE#         357
  C:E416H         LINE#         358
  C:E41AH         LINE#         359
  C:E41DH         LINE#         360
  -------         ENDPROC       EN_UART4_RX
  -------         PROC          DIS_UART2_RX
  C:EFEAH         LINE#         369
  C:EFEAH         LINE#         370
  C:EFEAH         LINE#         371
  C:EFF1H         LINE#         372
  -------         ENDPROC       DIS_UART2_RX
  -------         PROC          DIS_UART4_RX
  C:EFF2H         LINE#         381
  C:EFF2H         LINE#         382
  C:EFF2H         LINE#         383
  C:EFF9H         LINE#         384
  -------         ENDPROC       DIS_UART4_RX
  -------         PROC          EN_UART2_TX
  C:EEE5H         LINE#         393
  C:EEE5H         LINE#         394
  C:EEE5H         LINE#         395
  C:EEECH         LINE#         396
  C:EEF3H         LINE#         397
  C:EEF7H         LINE#         398
  C:EEFAH         LINE#         400
  -------         ENDPROC       EN_UART2_TX
  -------         PROC          EN_UART4_TX
  C:EEFBH         LINE#         410
  C:EEFBH         LINE#         411
  C:EEFBH         LINE#         412
  C:EF02H         LINE#         413
  C:EF09H         LINE#         414
  C:EF0DH         LINE#         415
  C:EF10H         LINE#         416
  -------         ENDPROC       EN_UART4_TX
  -------         PROC          _INIT_UART2_HARD
  D:0006H         SYMBOL        badu
  C:F002H         LINE#         428
  C:F002H         LINE#         429
  C:F002H         LINE#         431
BL51 BANKED LINKER/LOCATER V6.22                                                      02/16/2019  15:29:57  PAGE 98


  C:F005H         LINE#         432
  -------         ENDPROC       _INIT_UART2_HARD
  -------         PROC          _INIT_UART4_HARD
  D:0006H         SYMBOL        badu
  C:F008H         LINE#         444
  C:F008H         LINE#         445
  C:F008H         LINE#         447
  C:F00BH         LINE#         448
  -------         ENDPROC       _INIT_UART4_HARD
  -------         PROC          _INIT_UART_SOFT
  D:0007H         SYMBOL        ch
  -------         DO            
  D:0006H         SYMBOL        i
  -------         ENDDO         
  C:C2B7H         LINE#         460
  C:C2B7H         LINE#         461
  C:C2B7H         LINE#         464
  C:C2C0H         LINE#         467
  C:C2D4H         LINE#         468
  C:C2E8H         LINE#         469
  C:C2FCH         LINE#         470
  C:C310H         LINE#         471
  C:C324H         LINE#         472
  C:C339H         LINE#         473
  C:C33BH         LINE#         474
  C:C33BH         LINE#         475
  C:C359H         LINE#         476
  C:C35EH         LINE#         477
  -------         ENDPROC       _INIT_UART_SOFT
  -------         PROC          _HDL_UART_10MS_RUN
  D:0007H         SYMBOL        ch
  -------         DO            
  D:0006H         SYMBOL        rx_len
  -------         ENDDO         
  C:AF23H         LINE#         486
  C:AF23H         LINE#         487
  C:AF23H         LINE#         490
  C:AF2CH         LINE#         493
  C:AF41H         LINE#         494
  C:AF41H         LINE#         495
  C:AF43H         LINE#         497
  C:AF43H         LINE#         500
  C:AF5AH         LINE#         501
  C:AF5AH         LINE#         502
  C:AF5CH         LINE#         504
  C:AF5CH         LINE#         506
  C:AF60H         LINE#         507
  C:AF60H         LINE#         508
  C:AF63H         LINE#         509
  C:AF63H         LINE#         510
  C:AF66H         LINE#         511
  C:AF66H         LINE#         512
  C:AF6AH         LINE#         513
  C:AF6AH         LINE#         515
  C:AF6BH         LINE#         516
  C:AF6BH         LINE#         517
  C:AF6EH         LINE#         519
BL51 BANKED LINKER/LOCATER V6.22                                                      02/16/2019  15:29:57  PAGE 99


  C:AF6EH         LINE#         523
  C:AF82H         LINE#         524
  C:AF84H         LINE#         525
  C:AF84H         LINE#         526
  C:AF99H         LINE#         528
  C:AF99H         LINE#         530
  C:AFAEH         LINE#         532
  C:AFC7H         LINE#         533
  C:AFC7H         LINE#         534
  C:AFD9H         LINE#         535
  C:AFDBH         LINE#         537
  C:AFDBH         LINE#         538
  C:AFECH         LINE#         539
  C:AFECH         LINE#         540
  C:B000H         LINE#         543
  -------         ENDPROC       _HDL_UART_10MS_RUN
  -------         PROC          _TX_UART_FRIST
  X:0006H         SYMBOL        p_buf
  X:0009H         SYMBOL        len
  X:000AH         SYMBOL        badu
  X:000CH         SYMBOL        ch
  -------         DO            
  D:0007H         SYMBOL        i
  X:000DH         SYMBOL        bits_len
  -------         ENDDO         
  C:781AH         LINE#         556
  C:7828H         LINE#         557
  C:7828H         LINE#         562
  C:782EH         LINE#         564
  C:7834H         LINE#         565
  C:7834H         LINE#         566
  C:783AH         LINE#         567
  C:783AH         LINE#         569
  C:7846H         LINE#         571
  C:7852H         LINE#         572
  C:7852H         LINE#         573
  C:788AH         LINE#         574
  C:788DH         LINE#         575
  C:78ADH         LINE#         576
  C:78C4H         LINE#         577
  C:78DAH         LINE#         578
  C:78F1H         LINE#         580
  C:78F7H         LINE#         581
  C:78F7H         LINE#         582
  C:78F9H         LINE#         583
  C:7912H         LINE#         584
  C:7912H         LINE#         586
  C:792BH         LINE#         587
  C:7931H         LINE#         588
  C:7931H         LINE#         589
  C:794AH         LINE#         590
  C:794CH         LINE#         592
  C:794CH         LINE#         593
  C:7963H         LINE#         594
  C:7963H         LINE#         595
  C:7963H         LINE#         596
  C:7965H         LINE#         597
BL51 BANKED LINKER/LOCATER V6.22                                                      02/16/2019  15:29:57  PAGE 100


  C:7970H         LINE#         598
  C:7973H         LINE#         599
  C:7976H         LINE#         600
  C:7993H         LINE#         601
  C:7993H         LINE#         603
  C:799BH         LINE#         604
  C:799BH         LINE#         605
  C:79A3H         LINE#         606
  C:79B9H         LINE#         607
  C:79BCH         LINE#         608
  C:79C1H         LINE#         609
  C:79C7H         LINE#         610
  C:79CCH         LINE#         611
  C:79CCH         LINE#         615
  -------         ENDPROC       _TX_UART_FRIST
  -------         PROC          _GET_UART_RX_BUFF
  X:0038H         SYMBOL        p_buf
  X:003BH         SYMBOL        ch
  -------         DO            
  D:0005H         SYMBOL        len
  -------         ENDDO         
  C:A6E2H         LINE#         626
  C:A6F0H         LINE#         627
  C:A6F0H         LINE#         630
  C:A6F8H         LINE#         633
  C:A724H         LINE#         636
  C:A742H         LINE#         637
  C:A742H         LINE#         638
  C:A745H         LINE#         639
  C:A745H         LINE#         642
  C:A75FH         LINE#         643
  C:A776H         LINE#         645
  C:A779H         LINE#         646
  C:A779H         LINE#         648
  C:A77CH         LINE#         649
  C:A77CH         LINE#         651
  C:A784H         LINE#         652
  C:A784H         LINE#         655
  C:A785H         LINE#         656
  C:A785H         LINE#         658
  C:A79FH         LINE#         659
  C:A7B5H         LINE#         660
  C:A7C9H         LINE#         662
  C:A7CFH         LINE#         663
  C:A7CFH         LINE#         664
  C:A7D1H         LINE#         665
  C:A7D1H         LINE#         667
  C:A7D3H         LINE#         668
  -------         ENDPROC       _GET_UART_RX_BUFF
  -------         PROC          UART4_TRANSMIT
  -------         DO            
  D:0007H         SYMBOL        i
  -------         ENDDO         
  C:E01AH         LINE#         672
  C:E01AH         LINE#         673
  C:E01AH         LINE#         675
  C:E022H         LINE#         676
BL51 BANKED LINKER/LOCATER V6.22                                                      02/16/2019  15:29:57  PAGE 101


  C:E022H         LINE#         677
  C:E02CH         LINE#         678
  C:E02CH         LINE#         679
  C:E03BH         LINE#         680
  C:E041H         LINE#         681
  C:E041H         LINE#         682
  C:E045H         LINE#         683
  C:E047H         LINE#         685
  C:E047H         LINE#         686
  C:E04BH         LINE#         687
  C:E04BH         LINE#         688
  C:E061H         LINE#         689
  C:E062H         LINE#         691
  C:E062H         LINE#         692
  C:E068H         LINE#         693
  C:E068H         LINE#         694
  C:E068H         LINE#         695
  -------         ENDPROC       UART4_TRANSMIT
  -------         ENDMOD        DRV_UART

  -------         MODULE        LIB_MYMATH
  C:0000H         SYMBOL        _ICE_DUMMY_
  C:EA09H         PUBLIC        _Lib_get_csck_int16u_num
  C:E41EH         PUBLIC        _Lib_bcd_arry_add1
  D:0090H         PUBLIC        P1
  D:00B0H         PUBLIC        P3
  C:E975H         PUBLIC        _Lib_math_get_BCC_chk
  D:00A8H         PUBLIC        IE
  D:00B8H         PUBLIC        IP
  C:EC03H         PUBLIC        _Lib_BCDCHK
  C:E82CH         PUBLIC        _Lib_ENOB_Get
  D:0098H         PUBLIC        SCON
  D:0088H         PUBLIC        TCON
  C:A7D4H         PUBLIC        _Lib_Check_RTC_data_FORM
  X:05C5H         PUBLIC        DayTab
  C:EDDBH         PUBLIC        _Lib_bcd_byte
  C:ED98H         PUBLIC        _Lib_byte_bcd
  C:D23AH         PUBLIC        _Lib_BCD_Asc
  C:D73EH         PUBLIC        _Lib_Asc_BCD
  C:E0B6H         PUBLIC        _Lib_bcd_inc
  D:00F0H         PUBLIC        B
  X:05DFH         PUBLIC        MonTab
  X:05ECH         PUBLIC        DefaultData
  D:00E0H         PUBLIC        ACC
  C:EBDCH         PUBLIC        _Lib_get_csck_int8u_num
  D:0080H         PUBLIC        SysCtrl
  C:EACFH         PUBLIC        _Lib_BtoA
  C:E71DH         PUBLIC        _Lib_AtoB
  D:00C8H         PUBLIC        T2CON
  C:B5D5H         PUBLIC        _Lib_bcd4_long
  C:BB2BH         PUBLIC        _Lib_long_bcd4
  C:E14EH         PUBLIC        _Lib_GetGmSec
  C:EF11H         PUBLIC        _Lib_check_bitnum
  C:CAB8H         PUBLIC        _Lib_GetGmDay
  C:E1E5H         PUBLIC        _Lib_GetGmHour
  C:EC4FH         PUBLIC        _Lib_bcd2_word
  C:D2B2H         PUBLIC        _Lib_word_bcd2
BL51 BANKED LINKER/LOCATER V6.22                                                      02/16/2019  15:29:57  PAGE 102


  C:E102H         PUBLIC        _Lib_GetGmMin
  D:00D0H         PUBLIC        PSW
  C:D6CDH         PUBLIC        _Lib_BCD_AscA
  C:D65CH         PUBLIC        _Lib_Asc_BCDA
  -------         PROC          _LIB_BYTE_BCD
  D:0007H         SYMBOL        xx
  C:ED98H         LINE#         37
  C:ED98H         LINE#         38
  C:ED98H         LINE#         39
  C:EDA1H         LINE#         40
  C:EDB3H         LINE#         41
  -------         ENDPROC       _LIB_BYTE_BCD
  C:EDCFH         SYMBOL        L?0101
  C:EDD7H         SYMBOL        L?0102
  -------         PROC          L?0100
  -------         ENDPROC       L?0100
  C:EDCFH         SYMBOL        L?0101
  C:EDD7H         SYMBOL        L?0102
  -------         PROC          _LIB_BCD_BYTE
  D:0007H         SYMBOL        xx
  C:EDDBH         LINE#         46
  C:EDDBH         LINE#         47
  C:EDDBH         LINE#         48
  C:EDE9H         LINE#         49
  -------         ENDPROC       _LIB_BCD_BYTE
  -------         PROC          _LIB_WORD_BCD2
  X:0104H         SYMBOL        ptr
  X:0107H         SYMBOL        xx
  C:D2B2H         LINE#         54
  C:D2C3H         LINE#         55
  C:D2C3H         LINE#         56
  C:D2CBH         LINE#         57
  C:D2CBH         LINE#         58
  C:D2DDH         LINE#         59
  C:D2E1H         LINE#         61
  C:D2E1H         LINE#         67
  C:D302H         LINE#         68
  C:D328H         LINE#         71
  -------         ENDPROC       _LIB_WORD_BCD2
  -------         PROC          _LIB_BCD2_WORD
  D:0001H         SYMBOL        ptr
  C:EC4FH         LINE#         76
  C:EC4FH         LINE#         77
  C:EC4FH         LINE#         83
  C:EC73H         LINE#         86
  -------         ENDPROC       _LIB_BCD2_WORD
  -------         PROC          _LIB_LONG_BCD4
  X:00FDH         SYMBOL        ptr
  X:0100H         SYMBOL        xx
  C:BB2BH         LINE#         91
  C:BB3AH         LINE#         92
  C:BB3AH         LINE#         93
  C:BB56H         LINE#         94
  C:BB56H         LINE#         95
  C:BB68H         LINE#         96
  C:BB6FH         LINE#         97
  C:BB76H         LINE#         98
BL51 BANKED LINKER/LOCATER V6.22                                                      02/16/2019  15:29:57  PAGE 103


  C:BB7AH         LINE#         100
  C:BB7AH         LINE#         106
  C:BBA4H         LINE#         107
  C:BBE1H         LINE#         111
  -------         ENDPROC       _LIB_LONG_BCD4
  -------         PROC          _LIB_BCD4_LONG
  X:00B3H         SYMBOL        ptr
  C:B5D5H         LINE#         116
  C:B5E0H         LINE#         117
  C:B5E0H         LINE#         121
  C:B69DH         LINE#         125
  -------         ENDPROC       _LIB_BCD4_LONG
  -------         PROC          _LIB_BCD_INC
  X:0758H         SYMBOL        ptr
  C:E0B6H         LINE#         132
  C:E0C1H         LINE#         133
  C:E0C1H         LINE#         135
  C:E0D1H         LINE#         136
  C:E0DCH         LINE#         137
  C:E0DCH         LINE#         138
  C:E0E2H         LINE#         139
  C:E0F2H         LINE#         140
  C:E101H         LINE#         141
  C:E101H         LINE#         142
  -------         ENDPROC       _LIB_BCD_INC
  -------         PROC          _LIB_BCD_ARRY_ADD1
  X:075BH         SYMBOL        ptr
  D:0005H         SYMBOL        len
  -------         DO            
  D:0006H         SYMBOL        result
  -------         ENDDO         
  C:E41EH         LINE#         150
  C:E429H         LINE#         151
  C:E429H         LINE#         154
  C:E42FH         LINE#         155
  C:E42FH         LINE#         156
  C:E431H         LINE#         157
  C:E43FH         LINE#         158
  C:E44FH         LINE#         159
  C:E450H         LINE#         160
  C:E45AH         LINE#         161
  C:E45CH         LINE#         162
  C:E45EH         LINE#         163
  C:E460H         LINE#         164
  -------         ENDPROC       _LIB_BCD_ARRY_ADD1
  -------         PROC          _LIB_GET_CSCK_INT16U_NUM
  D:0001H         SYMBOL        ptr
  D:0004H         SYMBOL        len
  X:01D8H         SYMBOL        key
  C:EA09H         LINE#         177
  C:EA09H         LINE#         178
  C:EA09H         LINE#         179
  C:EA12H         LINE#         180
  C:EA12H         LINE#         181
  C:EA23H         LINE#         182
  C:EA2AH         LINE#         183
  C:EA2FH         LINE#         184
BL51 BANKED LINKER/LOCATER V6.22                                                      02/16/2019  15:29:57  PAGE 104


  C:EA31H         LINE#         185
  C:EA39H         LINE#         186
  -------         ENDPROC       _LIB_GET_CSCK_INT16U_NUM
  -------         PROC          _LIB_GET_CSCK_INT8U_NUM
  D:0001H         SYMBOL        ptr
  D:0004H         SYMBOL        len
  X:0033H         SYMBOL        key
  C:EBDCH         LINE#         198
  C:EBDCH         LINE#         199
  C:EBDCH         LINE#         200
  C:EBE5H         LINE#         201
  C:EBE5H         LINE#         202
  C:EBEFH         LINE#         203
  C:EBF6H         LINE#         204
  C:EBFBH         LINE#         205
  C:EBFDH         LINE#         206
  C:EC02H         LINE#         207
  -------         ENDPROC       _LIB_GET_CSCK_INT8U_NUM
  -------         PROC          _LIB_BCDCHK
  D:0001H         SYMBOL        ptr
  D:0005H         SYMBOL        len
  -------         DO            
  D:0007H         SYMBOL        i
  D:0006H         SYMBOL        Temp
  -------         ENDDO         
  C:EC03H         LINE#         217
  C:EC03H         LINE#         218
  C:EC03H         LINE#         222
  C:EC05H         LINE#         224
  C:EC05H         LINE#         225
  C:EC09H         LINE#         226
  C:EC1AH         LINE#         227
  C:EC21H         LINE#         228
  C:EC22H         LINE#         229
  C:EC27H         LINE#         231
  C:EC29H         LINE#         232
  -------         ENDPROC       _LIB_BCDCHK
  -------         PROC          _LIB_GETGMDAY
  D:0001H         SYMBOL        Addr
  -------         DO            
  D:0006H         SYMBOL        Day
  X:018DH         SYMBOL        Mon
  X:018FH         SYMBOL        Year
  -------         ENDDO         
  C:CAB8H         LINE#         239
  C:CAB8H         LINE#         240
  C:CAB8H         LINE#         243
  C:CACAH         LINE#         244
  C:CADCH         LINE#         245
  C:CB35H         LINE#         246
  C:CB4EH         LINE#         247
  C:CB4EH         LINE#         248
  -------         ENDPROC       _LIB_GETGMDAY
  -------         PROC          _LIB_GETGMHOUR
  X:018AH         SYMBOL        Addr
  C:E1E5H         LINE#         255
  C:E1F0H         LINE#         256
BL51 BANKED LINKER/LOCATER V6.22                                                      02/16/2019  15:29:57  PAGE 105


  C:E1F0H         LINE#         258
  C:E22EH         LINE#         259
  -------         ENDPROC       _LIB_GETGMHOUR
  -------         PROC          _LIB_GETGMMIN
  X:0187H         SYMBOL        Addr
  C:E102H         LINE#         266
  C:E10DH         LINE#         267
  C:E10DH         LINE#         269
  C:E14DH         LINE#         270
  -------         ENDPROC       _LIB_GETGMMIN
  -------         PROC          _LIB_GETGMSEC
  X:0184H         SYMBOL        Addr
  C:E14EH         LINE#         277
  C:E159H         LINE#         278
  C:E159H         LINE#         280
  C:E199H         LINE#         281
  -------         ENDPROC       _LIB_GETGMSEC
  -------         PROC          _LIB_CHECK_RTC_DATA_FORM
  D:0001H         SYMBOL        ClkData
  C:A7D4H         LINE#         295
  C:A7D4H         LINE#         296
  C:A7D4H         LINE#         298
  C:A7DFH         LINE#         301
  C:A7EEH         LINE#         302
  C:A7F9H         LINE#         305
  C:A80EH         LINE#         306
  C:A81FH         LINE#         308
  C:A865H         LINE#         309
  C:A868H         LINE#         310
  C:A873H         LINE#         313
  C:A882H         LINE#         314
  C:A88DH         LINE#         316
  C:A89CH         LINE#         317
  C:A8A7H         LINE#         319
  C:A8B6H         LINE#         320
  C:A8C1H         LINE#         322
  C:A8C3H         LINE#         323
  -------         ENDPROC       _LIB_CHECK_RTC_DATA_FORM
  -------         PROC          _LIB_ENOB_GET
  D:0001H         SYMBOL        s1
  D:0005H         SYMBOL        len
  X:074BH         SYMBOL        ENOB_len
  -------         DO            
  D:0007H         SYMBOL        i
  -------         ENDDO         
  C:E82CH         LINE#         348
  C:E82CH         LINE#         349
  C:E82CH         LINE#         351
  C:E836H         LINE#         352
  C:E836H         LINE#         353
  C:E841H         LINE#         354
  C:E845H         LINE#         355
  C:E845H         LINE#         356
  C:E84DH         LINE#         357
  C:E854H         LINE#         358
  C:E856H         LINE#         360
  C:E856H         LINE#         361
BL51 BANKED LINKER/LOCATER V6.22                                                      02/16/2019  15:29:57  PAGE 106


  C:E85EH         LINE#         362
  C:E85EH         LINE#         363
  C:E861H         LINE#         364
  C:E863H         LINE#         365
  -------         ENDPROC       _LIB_ENOB_GET
  C:E70CH         SYMBOL        L?0099
  -------         PROC          L?0098
  -------         ENDPROC       L?0098
  C:E70CH         SYMBOL        L?0099
  -------         PROC          _LIB_ATOB
  D:0007H         SYMBOL        Asc
  -------         DO            
  D:0006H         SYMBOL        Tmp
  -------         ENDDO         
  C:E71DH         LINE#         371
  C:E71DH         LINE#         372
  C:E71DH         LINE#         373
  C:E71FH         LINE#         375
  C:E72BH         LINE#         376
  C:E731H         LINE#         377
  C:E73DH         LINE#         378
  C:E741H         LINE#         379
  C:E743H         LINE#         380
  -------         ENDPROC       _LIB_ATOB
  -------         PROC          L?0103
  -------         ENDPROC       L?0103
  -------         PROC          _LIB_BTOA
  D:0007H         SYMBOL        BCD
  -------         DO            
  D:0006H         SYMBOL        Tmp
  -------         ENDDO         
  C:EACFH         LINE#         385
  C:EACFH         LINE#         386
  C:EACFH         LINE#         387
  C:EAD1H         LINE#         389
  C:EAD7H         LINE#         390
  C:EADDH         LINE#         391
  C:EAE3H         LINE#         392
  C:EAE7H         LINE#         393
  C:EAE9H         LINE#         394
  -------         ENDPROC       _LIB_BTOA
  -------         PROC          _LIB_ASC_BCD
  X:06FFH         SYMBOL        BCD
  X:0702H         SYMBOL        Asc
  X:0705H         SYMBOL        Lenth
  -------         DO            
  D:0005H         SYMBOL        i
  X:0706H         SYMBOL        Ptr
  -------         ENDDO         
  C:D73EH         LINE#         400
  C:D749H         LINE#         401
  C:D749H         LINE#         405
  C:D756H         LINE#         406
  C:D756H         LINE#         407
  C:D77EH         LINE#         408
  C:D795H         LINE#         409
  C:D7A7H         LINE#         410
BL51 BANKED LINKER/LOCATER V6.22                                                      02/16/2019  15:29:57  PAGE 107


  C:D7ABH         LINE#         411
  -------         ENDPROC       _LIB_ASC_BCD
  -------         PROC          _LIB_ASC_BCDA
  X:00E8H         SYMBOL        BCD
  X:00EBH         SYMBOL        Asc
  X:00EEH         SYMBOL        Lenth
  -------         DO            
  D:0005H         SYMBOL        i
  X:00EFH         SYMBOL        Ptr
  -------         ENDDO         
  C:D65CH         LINE#         416
  C:D667H         LINE#         417
  C:D667H         LINE#         421
  C:D66EH         LINE#         422
  C:D67AH         LINE#         423
  C:D67AH         LINE#         424
  C:D69AH         LINE#         425
  C:D6B4H         LINE#         426
  C:D6C9H         LINE#         427
  C:D6CCH         LINE#         428
  -------         ENDPROC       _LIB_ASC_BCDA
  -------         PROC          _LIB_BCD_ASC
  X:0709H         SYMBOL        Asc
  X:070CH         SYMBOL        BCD
  X:070FH         SYMBOL        Lenth
  -------         DO            
  D:0005H         SYMBOL        i
  X:0710H         SYMBOL        Ptr
  -------         ENDDO         
  C:D23AH         LINE#         433
  C:D245H         LINE#         434
  C:D245H         LINE#         438
  C:D250H         LINE#         439
  C:D250H         LINE#         440
  C:D26FH         LINE#         441
  C:D286H         LINE#         442
  C:D2AEH         LINE#         443
  C:D2B1H         LINE#         444
  -------         ENDPROC       _LIB_BCD_ASC
  -------         PROC          _LIB_BCD_ASCA
  X:01CBH         SYMBOL        Asc
  X:01CEH         SYMBOL        BCD
  X:01D1H         SYMBOL        Lenth
  -------         DO            
  D:0005H         SYMBOL        i
  X:01D2H         SYMBOL        Ptr
  -------         ENDDO         
  C:D6CDH         LINE#         449
  C:D6D8H         LINE#         450
  C:D6D8H         LINE#         454
  C:D6E4H         LINE#         455
  C:D6E4H         LINE#         456
  C:D6FBH         LINE#         457
  C:D712H         LINE#         458
  C:D73AH         LINE#         459
  C:D73DH         LINE#         460
  -------         ENDPROC       _LIB_BCD_ASCA
BL51 BANKED LINKER/LOCATER V6.22                                                      02/16/2019  15:29:57  PAGE 108


  -------         PROC          _LIB_MATH_GET_BCC_CHK
  X:074CH         SYMBOL        yourBuf
  D:0005H         SYMBOL        StartID
  X:0750H         SYMBOL        EndID
  -------         DO            
  D:0006H         SYMBOL        i
  D:0007H         SYMBOL        tmp
  -------         ENDDO         
  C:E975H         LINE#         472
  C:E980H         LINE#         473
  C:E980H         LINE#         477
  C:E982H         LINE#         478
  C:E98EH         LINE#         479
  C:E98EH         LINE#         480
  C:E9A3H         LINE#         481
  C:E9A6H         LINE#         482
  C:E9A6H         LINE#         483
  -------         ENDPROC       _LIB_MATH_GET_BCC_CHK
  -------         PROC          _LIB_CHECK_BITNUM
  D:0007H         SYMBOL        value
  -------         DO            
  D:0005H         SYMBOL        i
  D:0007H         SYMBOL        temp_data
  D:0006H         SYMBOL        re_value
  -------         ENDDO         
  C:EF11H         LINE#         490
  C:EF11H         LINE#         491
  C:EF11H         LINE#         493
  C:EF11H         LINE#         494
  C:EF13H         LINE#         495
  C:EF14H         LINE#         496
  C:EF14H         LINE#         497
  C:EF18H         LINE#         498
  C:EF18H         LINE#         499
  C:EF19H         LINE#         500
  C:EF19H         LINE#         501
  C:EF1DH         LINE#         502
  C:EF22H         LINE#         503
  C:EF25H         LINE#         504
  C:EF26H         LINE#         505
  -------         ENDPROC       _LIB_CHECK_BITNUM
  -------         ENDMOD        LIB_MYMATH

  -------         MODULE        LIB_MYSPRING
  C:0000H         SYMBOL        _ICE_DUMMY_
  D:0090H         PUBLIC        P1
  C:EAEAH         PUBLIC        _Lib_Set_String
  D:00B0H         PUBLIC        P3
  D:00A8H         PUBLIC        IE
  C:ED5EH         PUBLIC        _Lib_Clr_String_U16
  D:00B8H         PUBLIC        IP
  C:C008H         PUBLIC        _Lib_Rev_Copy_Arry
  C:D48BH         PUBLIC        _Lib_get_data_0xFF_asclen
  D:0098H         PUBLIC        SCON
  D:0088H         PUBLIC        TCON
  D:00F0H         PUBLIC        B
  D:00E0H         PUBLIC        ACC
BL51 BANKED LINKER/LOCATER V6.22                                                      02/16/2019  15:29:57  PAGE 109


  C:D148H         PUBLIC        _Lib_Cmp_TwoArry
  D:0080H         PUBLIC        SysCtrl
  C:D1C1H         PUBLIC        _Lib_MVHalfByte_L
  C:E77FH         PUBLIC        _Lib_FCpyTMem
  C:DDB6H         PUBLIC        _Lib_MVHalfByte_R
  D:00C8H         PUBLIC        T2CON
  C:DD59H         PUBLIC        _Lib_Copy_Str_TwoArry
  C:EDEAH         PUBLIC        _Lib_Clr_String
  D:00D0H         PUBLIC        PSW
  -------         PROC          _LIB_CMP_TWOARRY
  X:022DH         SYMBOL        s1
  X:0230H         SYMBOL        s2
  X:0233H         SYMBOL        len
  -------         DO            
  D:0007H         SYMBOL        i
  -------         ENDDO         
  C:D148H         LINE#         33
  C:D153H         LINE#         34
  C:D153H         LINE#         37
  C:D165H         LINE#         38
  C:D16EH         LINE#         39
  C:D17AH         LINE#         40
  C:D17AH         LINE#         41
  C:D19FH         LINE#         42
  C:D1A7H         LINE#         43
  C:D1B1H         LINE#         44
  C:D1BBH         LINE#         45
  C:D1BEH         LINE#         46
  C:D1C0H         LINE#         47
  -------         ENDPROC       _LIB_CMP_TWOARRY
  -------         PROC          _LIB_REV_COPY_ARRY
  X:002EH         SYMBOL        s1
  X:0031H         SYMBOL        len
  -------         DO            
  X:0032H         SYMBOL        tmpData
  X:0033H         SYMBOL        i
  -------         ENDDO         
  C:C008H         LINE#         60
  C:C016H         LINE#         61
  C:C016H         LINE#         63
  C:C01DH         LINE#         65
  C:C032H         LINE#         66
  C:C032H         LINE#         67
  C:C04EH         LINE#         68
  C:C083H         LINE#         69
  C:C0ABH         LINE#         70
  C:C0B4H         LINE#         71
  -------         ENDPROC       _LIB_REV_COPY_ARRY
  -------         PROC          _LIB_COPY_STR_TWOARRY
  X:01DEH         SYMBOL        s1
  X:01E1H         SYMBOL        s2
  X:01E4H         SYMBOL        len
  C:DD59H         LINE#         84
  C:DD64H         LINE#         85
  C:DD64H         LINE#         86
  C:DD73H         LINE#         87
  C:DD73H         LINE#         88
BL51 BANKED LINKER/LOCATER V6.22                                                      02/16/2019  15:29:57  PAGE 110


  C:DD91H         LINE#         89
  C:DD9BH         LINE#         90
  C:DDA5H         LINE#         91
  C:DDB3H         LINE#         92
  C:DDB5H         LINE#         93
  -------         ENDPROC       _LIB_COPY_STR_TWOARRY
  -------         PROC          _LIB_SET_STRING
  D:0001H         SYMBOL        s1
  D:0005H         SYMBOL        tmp
  X:017DH         SYMBOL        len
  C:EAEAH         LINE#         106
  C:EAEAH         LINE#         107
  C:EAEAH         LINE#         108
  C:EAF9H         LINE#         109
  C:EAF9H         LINE#         110
  C:EAFDH         LINE#         111
  C:EB04H         LINE#         112
  C:EB12H         LINE#         113
  C:EB14H         LINE#         114
  -------         ENDPROC       _LIB_SET_STRING
  -------         PROC          _LIB_CLR_STRING_U16
  D:0001H         SYMBOL        s1
  D:0004H         SYMBOL        len
  C:ED5EH         LINE#         126
  C:ED5EH         LINE#         127
  C:ED5EH         LINE#         128
  C:ED67H         LINE#         129
  C:ED67H         LINE#         130
  C:ED6DH         LINE#         131
  C:ED74H         LINE#         132
  C:ED79H         LINE#         133
  C:ED7BH         LINE#         135
  -------         ENDPROC       _LIB_CLR_STRING_U16
  -------         PROC          _LIB_CLR_STRING
  D:0001H         SYMBOL        s1
  D:0004H         SYMBOL        len
  C:EDEAH         LINE#         146
  C:EDEAH         LINE#         147
  C:EDEAH         LINE#         148
  C:EDF3H         LINE#         149
  C:EDF3H         LINE#         150
  C:EDF7H         LINE#         151
  C:EDFDH         LINE#         152
  C:EE02H         LINE#         153
  C:EE04H         LINE#         155
  -------         ENDPROC       _LIB_CLR_STRING
  -------         PROC          _LIB_GET_DATA_0XFF_ASCLEN
  X:0735H         SYMBOL        Addr
  X:0738H         SYMBOL        numbyte
  -------         DO            
  D:0006H         SYMBOL        i
  X:073AH         SYMBOL        asclen
  -------         ENDDO         
  C:D48BH         LINE#         163
  C:D49CH         LINE#         164
  C:D49CH         LINE#         166
  C:D4A1H         LINE#         167
BL51 BANKED LINKER/LOCATER V6.22                                                      02/16/2019  15:29:57  PAGE 111


  C:D4B0H         LINE#         168
  C:D4B0H         LINE#         169
  C:D4CAH         LINE#         170
  C:D4CAH         LINE#         171
  C:D4CCH         LINE#         172
  C:D4CCH         LINE#         173
  C:D4DAH         LINE#         174
  C:D4E1H         LINE#         175
  C:D4E1H         LINE#         176
  C:D4E3H         LINE#         177
  C:D4E3H         LINE#         178
  C:D4F1H         LINE#         179
  C:D4F8H         LINE#         180
  C:D500H         LINE#         181
  -------         ENDPROC       _LIB_GET_DATA_0XFF_ASCLEN
  -------         PROC          _LIB_MVHALFBYTE_R
  X:075EH         SYMBOL        addr
  D:0005H         SYMBOL        numbyte
  -------         DO            
  D:0007H         SYMBOL        i
  -------         ENDDO         
  C:DDB6H         LINE#         190
  C:DDC1H         LINE#         191
  C:DDC1H         LINE#         195
  C:DDCAH         LINE#         196
  C:DDCAH         LINE#         197
  C:DDFCH         LINE#         198
  C:DDFFH         LINE#         199
  -------         ENDPROC       _LIB_MVHALFBYTE_R
  -------         PROC          _LIB_MVHALFBYTE_L
  X:0761H         SYMBOL        addr
  D:0004H         SYMBOL        numbyte
  -------         DO            
  D:0005H         SYMBOL        i
  -------         ENDDO         
  C:D1C1H         LINE#         209
  C:D1CEH         LINE#         210
  C:D1CEH         LINE#         214
  C:D1D8H         LINE#         215
  C:D1D8H         LINE#         216
  C:D209H         LINE#         217
  C:D20CH         LINE#         218
  -------         ENDPROC       _LIB_MVHALFBYTE_L
  -------         PROC          _LIB_FCPYTMEM
  X:002EH         SYMBOL        des
  X:0030H         SYMBOL        src
  D:0003H         SYMBOL        len
  C:E77FH         LINE#         225
  C:E78DH         LINE#         226
  C:E78DH         LINE#         227
  C:E793H         LINE#         228
  C:E793H         LINE#         229
  C:E7B6H         LINE#         230
  C:E7B8H         LINE#         231
  -------         ENDPROC       _LIB_FCPYTMEM
  -------         ENDMOD        LIB_MYSPRING

BL51 BANKED LINKER/LOCATER V6.22                                                      02/16/2019  15:29:57  PAGE 112


  -------         MODULE        LIB_MYTIMER
  C:0000H         SYMBOL        _ICE_DUMMY_
  D:00CEH         PUBLIC        wdt0
  D:0090H         PUBLIC        P1
  D:00CFH         PUBLIC        wdt1
  D:00B0H         PUBLIC        P3
  C:EC99H         PUBLIC        _Lib_Delay_sec
  D:00A8H         PUBLIC        IE
  D:00B8H         PUBLIC        IP
  C:EE6DH         PUBLIC        _Lib_Delay_ms
  D:0098H         PUBLIC        SCON
  D:0088H         PUBLIC        TCON
  D:00F0H         PUBLIC        B
  D:00E0H         PUBLIC        ACC
  D:0080H         PUBLIC        SysCtrl
  C:EFCBH         PUBLIC        _Lib_Delay_2us
  D:00C8H         PUBLIC        T2CON
  C:EB15H         PUBLIC        _Lib_SystemDelay
  C:EFE0H         PUBLIC        _Lib_Delay_Nop
  D:00D0H         PUBLIC        PSW
  -------         PROC          _LIB_DELAY_NOP
  D:0007H         SYMBOL        cnt
  C:EFE0H         LINE#         29
  C:EFE0H         LINE#         30
  C:EFE0H         LINE#         31
  C:EFE6H         LINE#         32
  C:EFE6H         LINE#         33
  C:EFE7H         LINE#         34
  C:EFE9H         LINE#         35
  -------         ENDPROC       _LIB_DELAY_NOP
  -------         PROC          _LIB_DELAY_2US
  D:0007H         SYMBOL        cnt
  C:EFCBH         LINE#         45
  C:EFCBH         LINE#         46
  C:EFCBH         LINE#         49
  C:EFD1H         LINE#         50
  C:EFD1H         LINE#         51
  C:EFD2H         LINE#         52
  C:EFD3H         LINE#         53
  C:EFD5H         LINE#         54
  -------         ENDPROC       _LIB_DELAY_2US
  -------         PROC          _LIB_DELAY_MS
  D:0006H         SYMBOL        cnt
  -------         DO            
  D:0006H         SYMBOL        i
  D:0005H         SYMBOL        j
  -------         ENDDO         
  C:EE6DH         LINE#         87
  C:EE6DH         LINE#         88
  C:EE6DH         LINE#         92
  C:EE76H         LINE#         93
  C:EE76H         LINE#         94
  C:EE78H         LINE#         95
  C:EE78H         LINE#         96
  C:EE79H         LINE#         97
  C:EE7EH         LINE#         98
  C:EE85H         LINE#         99
BL51 BANKED LINKER/LOCATER V6.22                                                      02/16/2019  15:29:57  PAGE 113


  -------         ENDPROC       _LIB_DELAY_MS
  -------         PROC          _LIB_DELAY_SEC
  D:0004H         SYMBOL        cnt
  -------         DO            
  D:0003H         SYMBOL        i
  -------         ENDDO         
  C:EC99H         LINE#         109
  C:EC9BH         LINE#         110
  C:EC9BH         LINE#         112
  C:ECA2H         LINE#         113
  C:ECA2H         LINE#         114
  C:ECB0H         LINE#         115
  C:ECB7H         LINE#         116
  C:ECBAH         LINE#         117
  -------         ENDPROC       _LIB_DELAY_SEC
  -------         PROC          _LIB_SYSTEMDELAY
  D:0006H         SYMBOL        t
  -------         DO            
  D:0004H         SYMBOL        i
  -------         ENDDO         
  C:EB15H         LINE#         129
  C:EB15H         LINE#         130
  C:EB15H         LINE#         132
  C:EB1FH         LINE#         133
  C:EB1FH         LINE#         134
  C:EB2DH         LINE#         136
  C:EB3BH         LINE#         137
  C:EB3DH         LINE#         138
  -------         ENDPROC       _LIB_SYSTEMDELAY
  -------         ENDMOD        LIB_MYTIMER

  -------         MODULE        API_ADJERR
  C:0000H         SYMBOL        _ICE_DUMMY_
  D:0090H         PUBLIC        P1
  D:00B0H         PUBLIC        P3
  D:00A8H         PUBLIC        IE
  D:00B8H         PUBLIC        IP
  X:0768H         PUBLIC        u8_channel_fg
  D:0098H         PUBLIC        SCON
  D:0088H         PUBLIC        TCON
  D:00F0H         PUBLIC        B
  D:00E0H         PUBLIC        ACC
  D:0080H         PUBLIC        SysCtrl
  D:00C8H         PUBLIC        T2CON
  D:00D0H         PUBLIC        PSW
  -------         ENDMOD        API_ADJERR

  -------         MODULE        API_BILL_RECORD
  C:0000H         SYMBOL        _ICE_DUMMY_
  D:00CEH         PUBLIC        wdt0
  D:0090H         PUBLIC        P1
  D:00CFH         PUBLIC        wdt1
  D:00B0H         PUBLIC        P3
  C:839CH         PUBLIC        api_handl_settle_when_powerUp
  X:03C9H         PUBLIC        energy_data_array
  D:00A8H         PUBLIC        IE
  D:00B8H         PUBLIC        IP
BL51 BANKED LINKER/LOCATER V6.22                                                      02/16/2019  15:29:57  PAGE 114


  X:03E7H         PUBLIC        csck
  X:03E8H         PUBLIC        st_mmd_unit_array
  C:EFFAH         PUBLIC        bill_info
  D:0098H         PUBLIC        SCON
  D:0088H         PUBLIC        TCON
  C:C8EDH         PUBLIC        api_handl_settle_per_minute
  C:EC74H         PUBLIC        _Judage_Month
  D:00F0H         PUBLIC        B
  C:72B8H         PUBLIC        _api_get_bill_record_addr
  C:ECDDH         PUBLIC        _Judage_Year
  D:00E0H         PUBLIC        ACC
  C:8209H         PUBLIC        _api_write_bill_data
  D:0080H         PUBLIC        SysCtrl
  C:C49FH         PUBLIC        api_freeze_energy_pre_day
  C:6EFFH         PUBLIC        api_freeze_energy_Ram_pre_day
  X:0415H         PUBLIC        d_flag
  C:9EE3H         PUBLIC        api_clr_bill_data
  X:0416H         PUBLIC        Excsck
  X:0417H         PUBLIC        sum_st_mmd_unit_array
  D:00C8H         PUBLIC        T2CON
  D:00D0H         PUBLIC        PSW
  -------         PROC          _JUDAGE_YEAR
  D:0007H         SYMBOL        year
  C:ECDDH         LINE#         39
  C:ECDDH         LINE#         40
  C:ECDDH         LINE#         41
  C:ECF8H         LINE#         42
  C:ECF8H         LINE#         43
  C:ECFBH         LINE#         44
  C:ECFBH         LINE#         46
  C:ECFBH         LINE#         47
  C:ECFDH         LINE#         48
  C:ECFDH         LINE#         49
  -------         ENDPROC       _JUDAGE_YEAR
  -------         PROC          _JUDAGE_MONTH
  D:0007H         SYMBOL        month
  D:0005H         SYMBOL        year
  C:EC74H         LINE#         51
  C:EC74H         LINE#         52
  C:EC74H         LINE#         53
  C:EC78H         LINE#         54
  C:EC7FH         LINE#         55
  C:EC85H         LINE#         56
  C:EC85H         LINE#         57
  C:EC89H         LINE#         58
  C:EC89H         LINE#         59
  C:EC8CH         LINE#         60
  C:EC8CH         LINE#         62
  C:EC8CH         LINE#         63
  C:EC8FH         LINE#         64
  C:EC8FH         LINE#         65
  C:EC8FH         LINE#         67
  C:EC8FH         LINE#         68
  C:EC93H         LINE#         69
  C:EC93H         LINE#         70
  C:EC96H         LINE#         71
  C:EC96H         LINE#         73
BL51 BANKED LINKER/LOCATER V6.22                                                      02/16/2019  15:29:57  PAGE 115


  C:EC96H         LINE#         74
  C:EC98H         LINE#         75
  C:EC98H         LINE#         76
  C:EC98H         LINE#         77
  -------         ENDPROC       _JUDAGE_MONTH
  -------         PROC          _API_GET_BILL_RECORD_ADDR
  X:00E8H         SYMBOL        addr
  -------         DO            
  X:00EAH         SYMBOL        i
  X:00EBH         SYMBOL        ptr
  D:0007H         SYMBOL        temp
  D:0003H         SYMBOL        num
  X:00ECH         SYMBOL        hist_addr
  D:0006H         SYMBOL        len
  -------         ENDDO         
  C:72B8H         LINE#         92
  C:72C0H         LINE#         93
  C:72C0H         LINE#         97
  C:72D0H         LINE#         98
  C:72D0H         LINE#         99
  C:72EDH         LINE#         100
  C:7318H         LINE#         101
  C:7346H         LINE#         102
  C:734FH         LINE#         104
  C:738DH         LINE#         105
  C:73A9H         LINE#         106
  C:73A9H         LINE#         107
  C:73ABH         LINE#         108
  C:73ABH         LINE#         110
  C:73D7H         LINE#         111
  C:73F7H         LINE#         112
  C:7418H         LINE#         113
  C:7421H         LINE#         114
  C:7421H         LINE#         115
  C:743DH         LINE#         116
  C:743FH         LINE#         118
  C:743FH         LINE#         119
  C:7446H         LINE#         120
  C:7446H         LINE#         121
  C:748FH         LINE#         123
  C:748FH         LINE#         124
  -------         ENDPROC       _API_GET_BILL_RECORD_ADDR
  -------         PROC          _API_WRITE_BILL_DATA
  X:0014H         SYMBOL        id
  -------         DO            
  X:0015H         SYMBOL        adr_tmp
  X:0017H         SYMBOL        ptr_tmp
  X:0018H         SYMBOL        buff_int8u
  -------         ENDDO         
  C:8209H         LINE#         140
  C:820EH         LINE#         141
  C:820EH         LINE#         147
  C:821BH         LINE#         150
  C:8247H         LINE#         151
  C:824DH         LINE#         152
  C:826DH         LINE#         153
  C:82ADH         LINE#         154
BL51 BANKED LINKER/LOCATER V6.22                                                      02/16/2019  15:29:57  PAGE 116


  C:82D6H         LINE#         157
  C:82DFH         LINE#         158
  C:82DFH         LINE#         159
  C:82DFH         LINE#         160
  C:82E7H         LINE#         161
  C:82EFH         LINE#         162
  C:82F7H         LINE#         163
  C:82FFH         LINE#         164
  C:8307H         LINE#         165
  C:830FH         LINE#         166
  C:8329H         LINE#         167
  C:8347H         LINE#         168
  C:8361H         LINE#         169
  C:8398H         LINE#         172
  C:8398H         LINE#         174
  C:8398H         LINE#         175
  C:839BH         LINE#         176
  C:839BH         LINE#         177
  C:839BH         LINE#         180
  -------         ENDPROC       _API_WRITE_BILL_DATA
  -------         PROC          API_HANDL_SETTLE_PER_MINUTE
  -------         DO            
  X:0001H         SYMBOL        param_settel
  X:0003H         SYMBOL        u16_hour_A
  X:0005H         SYMBOL        u16_hour_B
  -------         ENDDO         
  C:C8EDH         LINE#         195
  C:C8EDH         LINE#         196
  C:C8EDH         LINE#         200
  C:C8F6H         LINE#         202
  C:C90EH         LINE#         203
  C:C93BH         LINE#         204
  C:C968H         LINE#         206
  C:C97FH         LINE#         207
  C:C97FH         LINE#         208
  C:C983H         LINE#         209
  C:C986H         LINE#         210
  C:C986H         LINE#         211
  -------         ENDPROC       API_HANDL_SETTLE_PER_MINUTE
  -------         PROC          API_FREEZE_ENERGY_PRE_DAY
  -------         DO            
  X:0003H         SYMBOL        Bill_Data
  -------         ENDDO         
  C:C49FH         LINE#         225
  C:C49FH         LINE#         226
  C:C49FH         LINE#         228
  C:C4AAH         LINE#         229
  C:C4ABH         LINE#         230
  C:C4C4H         LINE#         231
  C:C4DEH         LINE#         232
  C:C4F7H         LINE#         235
  C:C4FDH         LINE#         236
  C:C4FDH         LINE#         238
  C:C503H         LINE#         239
  C:C503H         LINE#         240
  C:C509H         LINE#         241
  C:C509H         LINE#         242
BL51 BANKED LINKER/LOCATER V6.22                                                      02/16/2019  15:29:57  PAGE 117


  C:C520H         LINE#         243
  C:C527H         LINE#         244
  C:C527H         LINE#         246
  C:C535H         LINE#         247
  C:C53AH         LINE#         248
  C:C53DH         LINE#         250
  C:C53DH         LINE#         251
  C:C53DH         LINE#         252
  C:C53DH         LINE#         253
  C:C53DH         LINE#         255
  C:C53DH         LINE#         258
  -------         ENDPROC       API_FREEZE_ENERGY_PRE_DAY
  -------         PROC          API_FREEZE_ENERGY_RAM_PRE_DAY
  -------         DO            
  X:0007H         SYMBOL        i
  -------         ENDDO         
  C:6EFFH         LINE#         260
  C:6EFFH         LINE#         261
  C:6EFFH         LINE#         265
  C:6F08H         LINE#         266
  C:6F08H         LINE#         268
  C:6F11H         LINE#         269
  C:6F11H         LINE#         270
  C:6F1AH         LINE#         271
  C:6F1AH         LINE#         273
  C:6F1FH         LINE#         274
  C:6F38H         LINE#         275
  C:6F4AH         LINE#         276
  C:6F4AH         LINE#         277
  C:6F91H         LINE#         278
  C:6F99H         LINE#         281
  C:6FA1H         LINE#         282
  C:6FA9H         LINE#         283
  C:6FB1H         LINE#         284
  C:6FB9H         LINE#         285
  C:6FC1H         LINE#         286
  C:6FD3H         LINE#         287
  C:6FD3H         LINE#         288
  C:701AH         LINE#         289
  C:7022H         LINE#         292
  C:7034H         LINE#         293
  C:7034H         LINE#         294
  C:707BH         LINE#         295
  C:7083H         LINE#         312
  C:7088H         LINE#         313
  C:70A5H         LINE#         314
  C:70C2H         LINE#         315
  C:70DFH         LINE#         317
  C:70DFH         LINE#         318
  C:70DFH         LINE#         319
  C:70DFH         LINE#         320
  -------         ENDPROC       API_FREEZE_ENERGY_RAM_PRE_DAY
  -------         PROC          API_HANDL_SETTLE_WHEN_POWERUP
  -------         DO            
  X:0693H         SYMBOL        last_rec_dateTime
  X:0699H         SYMBOL        param_settel
  X:069BH         SYMBOL        u16_month_A
BL51 BANKED LINKER/LOCATER V6.22                                                      02/16/2019  15:29:57  PAGE 118


  X:069DH         SYMBOL        u16_month_B
  X:069FH         SYMBOL        u16_hour_A
  X:06A1H         SYMBOL        u16_hour_B
  X:06A3H         SYMBOL        months_no_settled
  X:06A5H         SYMBOL        i
  X:06A6H         SYMBOL        j
  -------         ENDDO         
  C:839CH         LINE#         337
  C:839CH         LINE#         338
  C:839CH         LINE#         352
  C:83B6H         LINE#         353
  C:83E3H         LINE#         354
  C:8410H         LINE#         355
  C:8428H         LINE#         356
  C:8455H         LINE#         357
  C:8482H         LINE#         365
  C:8497H         LINE#         366
  C:8497H         LINE#         367
  C:849FH         LINE#         368
  C:84A1H         LINE#         370
  C:84A1H         LINE#         371
  C:84BCH         LINE#         372
  C:84BCH         LINE#         373
  C:84C1H         LINE#         374
  C:84C5H         LINE#         375
  C:84C5H         LINE#         376
  C:84CEH         LINE#         377
  C:84D9H         LINE#         378
  C:84DFH         LINE#         379
  C:84DFH         LINE#         380
  C:84F4H         LINE#         381
  C:84F4H         LINE#         382
  C:84F4H         LINE#         383
  C:84F4H         LINE#         384
  C:84F4H         LINE#         385
  C:84F4H         LINE#         386
  C:84F6H         LINE#         388
  C:84F6H         LINE#         389
  C:84F6H         LINE#         390
  C:84F6H         LINE#         391
  C:84F6H         LINE#         393
  C:84F6H         LINE#         394
  C:84FBH         LINE#         395
  C:8509H         LINE#         396
  C:850FH         LINE#         397
  C:851DH         LINE#         398
  C:851DH         LINE#         399
  C:8529H         LINE#         400
  -------         ENDPROC       API_HANDL_SETTLE_WHEN_POWERUP
  -------         PROC          API_CLR_BILL_DATA
  -------         DO            
  X:0002H         SYMBOL        tmp_bill_var
  X:000BH         SYMBOL        tmp_bill_unit
  -------         ENDDO         
  C:9EE3H         LINE#         416
  C:9EE3H         LINE#         417
  C:9EE3H         LINE#         418
BL51 BANKED LINKER/LOCATER V6.22                                                      02/16/2019  15:29:57  PAGE 119


  C:9EE3H         LINE#         420
  C:9EF1H         LINE#         421
  C:9EFEH         LINE#         422
  C:9F0BH         LINE#         424
  C:9F25H         LINE#         425
  C:9F33H         LINE#         427
  C:9F44H         LINE#         428
  C:9F52H         LINE#         429
  C:9F64H         LINE#         430
  C:9F72H         LINE#         431
  C:9F84H         LINE#         432
  C:9F92H         LINE#         433
  C:9FA4H         LINE#         434
  C:9FB2H         LINE#         435
  C:9FC4H         LINE#         436
  C:9FD2H         LINE#         437
  C:9FE4H         LINE#         438
  C:9FF2H         LINE#         454
  -------         ENDPROC       API_CLR_BILL_DATA
  -------         ENDMOD        API_BILL_RECORD

  -------         MODULE        API_DEMAND
  C:0000H         SYMBOL        _ICE_DUMMY_
  D:00CEH         PUBLIC        wdt0
  D:0090H         PUBLIC        P1
  X:033AH         PUBLIC        gs_md_param
  D:00CFH         PUBLIC        wdt1
  D:00B0H         PUBLIC        P3
  D:00A8H         PUBLIC        IE
  D:00B8H         PUBLIC        IP
  C:7665H         PUBLIC        _api_cmp_save_md_data
  C:E19AH         PUBLIC        lnk_updata_md_var_power_per_second
  C:E7B9H         PUBLIC        api_init_md_data_ram
  C:646FH         PUBLIC        api_updata_md_var_slid_per_minute
  C:D501H         PUBLIC        api_updata_md_var_min_per_second
  C:D575H         PUBLIC        api_clr_freeze_energy
  D:0098H         PUBLIC        SCON
  D:0088H         PUBLIC        TCON
  C:B1B6H         PUBLIC        api_clr_current_MD_data
  X:033CH         PUBLIC        gs_md_var
  D:00F0H         PUBLIC        B
  D:00E0H         PUBLIC        ACC
  C:E86AH         PUBLIC        _api_check_Demand_para
  D:0080H         PUBLIC        SysCtrl
  D:00C8H         PUBLIC        T2CON
  D:00D0H         PUBLIC        PSW
  -------         PROC          L?0040
  -------         ENDPROC       L?0040
  -------         PROC          _API_CHECK_DEMAND_PARA
  D:0001H         SYMBOL        s_para
  -------         DO            
  D:0007H         SYMBOL        flg
  D:0006H         SYMBOL        u8_period
  D:0005H         SYMBOL        u8_slid
  -------         ENDDO         
  C:E86AH         LINE#         37
  C:E86AH         LINE#         38
BL51 BANKED LINKER/LOCATER V6.22                                                      02/16/2019  15:29:57  PAGE 120


  C:E86AH         LINE#         39
  C:E86CH         LINE#         42
  C:E870H         LINE#         43
  C:E877H         LINE#         45
  C:E883H         LINE#         46
  C:E883H         LINE#         47
  C:E88EH         LINE#         48
  C:E88EH         LINE#         49
  C:E892H         LINE#         50
  C:E892H         LINE#         51
  C:E89AH         LINE#         52
  C:E89AH         LINE#         53
  C:E89BH         LINE#         54
  C:E89BH         LINE#         55
  C:E89BH         LINE#         56
  C:E89BH         LINE#         57
  C:E89BH         LINE#         59
  C:E89BH         LINE#         61
  -------         ENDPROC       _API_CHECK_DEMAND_PARA
  -------         PROC          API_INIT_MD_DATA_RAM
  C:E7B9H         LINE#         76
  C:E7B9H         LINE#         77
  C:E7B9H         LINE#         80
  C:E7D1H         LINE#         82
  C:E7D7H         LINE#         83
  C:E7D7H         LINE#         85
  C:E7DDH         LINE#         86
  C:E7DFH         LINE#         87
  C:E7DFH         LINE#         90
  -------         ENDPROC       API_INIT_MD_DATA_RAM
  -------         PROC          _API_CMP_SAVE_MD_DATA
  X:0007H         SYMBOL        ch
  X:0008H         SYMBOL        val_hex32
  -------         DO            
  X:000CH         SYMBOL        st_mmd_unit
  X:0015H         SYMBOL        adr_offset
  -------         ENDDO         
  C:7665H         LINE#         105
  C:766AH         LINE#         106
  C:766AH         LINE#         111
  C:7672H         LINE#         112
  C:7672H         LINE#         113
  C:7681H         LINE#         114
  C:76A2H         LINE#         115
  C:76C7H         LINE#         116
  C:76C7H         LINE#         117
  C:76D9H         LINE#         118
  C:76E1H         LINE#         119
  C:76E9H         LINE#         120
  C:76F1H         LINE#         121
  C:76F9H         LINE#         122
  C:7701H         LINE#         123
  C:7725H         LINE#         124
  C:773FH         LINE#         125
  C:7759H         LINE#         126
  C:7759H         LINE#         129
  C:7778H         LINE#         130
BL51 BANKED LINKER/LOCATER V6.22                                                      02/16/2019  15:29:57  PAGE 121


  C:7799H         LINE#         131
  C:77BBH         LINE#         132
  C:77BBH         LINE#         133
  C:77CDH         LINE#         134
  C:77D5H         LINE#         135
  C:77DDH         LINE#         136
  C:77E5H         LINE#         137
  C:77EDH         LINE#         138
  C:77F5H         LINE#         139
  C:7819H         LINE#         140
  C:7819H         LINE#         160
  C:7819H         LINE#         163
  -------         ENDPROC       _API_CMP_SAVE_MD_DATA
  -------         PROC          LNK_UPDATA_MD_VAR_POWER_PER_SECOND
  -------         DO            
  X:0002H         SYMBOL        i
  -------         ENDDO         
  C:E19AH         LINE#         178
  C:E19AH         LINE#         179
  C:E19AH         LINE#         182
  C:E1A9H         LINE#         183
  C:E1A9H         LINE#         184
  C:E1B0H         LINE#         185
  C:E1B0H         LINE#         186
  C:E1B0H         LINE#         187
  C:E1B3H         LINE#         188
  C:E1B5H         LINE#         190
  C:E1B5H         LINE#         191
  C:E1D7H         LINE#         192
  C:E1D9H         LINE#         193
  C:E1D9H         LINE#         194
  C:E1DCH         LINE#         195
  C:E1DCH         LINE#         196
  C:E1E4H         LINE#         198
  -------         ENDPROC       LNK_UPDATA_MD_VAR_POWER_PER_SECOND
  -------         PROC          API_UPDATA_MD_VAR_MIN_PER_SECOND
  -------         DO            
  X:0001H         SYMBOL        i
  -------         ENDDO         
  C:D501H         LINE#         213
  C:D501H         LINE#         214
  C:D501H         LINE#         218
  C:D504H         LINE#         222
  C:D509H         LINE#         223
  C:D509H         LINE#         224
  C:D51EH         LINE#         225
  C:D56AH         LINE#         226
  C:D574H         LINE#         228
  -------         ENDPROC       API_UPDATA_MD_VAR_MIN_PER_SECOND
  -------         PROC          API_UPDATA_MD_VAR_SLID_PER_MINUTE
  -------         DO            
  X:0001H         SYMBOL        i
  X:0002H         SYMBOL        j
  X:0003H         SYMBOL        sum_hex32
  -------         ENDDO         
  C:646FH         LINE#         244
  C:646FH         LINE#         245
BL51 BANKED LINKER/LOCATER V6.22                                                      02/16/2019  15:29:57  PAGE 122


  C:646FH         LINE#         250
  C:6475H         LINE#         251
  C:6475H         LINE#         253
  C:647BH         LINE#         254
  C:647DH         LINE#         255
  C:647DH         LINE#         257
  C:648FH         LINE#         258
  C:648FH         LINE#         260
  C:64A0H         LINE#         261
  C:64A0H         LINE#         262
  C:64D9H         LINE#         263
  C:64E9H         LINE#         264
  C:64FEH         LINE#         265
  C:64FEH         LINE#         268
  C:651FH         LINE#         269
  C:651FH         LINE#         270
  C:6569H         LINE#         271
  C:657AH         LINE#         272
  C:6596H         LINE#         273
  C:6596H         LINE#         274
  C:65ABH         LINE#         275
  C:65BBH         LINE#         276
  C:65BBH         LINE#         278
  C:65D5H         LINE#         279
  C:65D5H         LINE#         280
  C:65DFH         LINE#         281
  C:65FFH         LINE#         282
  C:65FFH         LINE#         283
  C:6610H         LINE#         284
  C:6610H         LINE#         285
  C:665CH         LINE#         286
  C:6664H         LINE#         287
  C:6693H         LINE#         288
  C:66BBH         LINE#         289
  C:66BBH         LINE#         290
  C:66BBH         LINE#         291
  C:66BBH         LINE#         293
  C:66C4H         LINE#         295
  -------         ENDPROC       API_UPDATA_MD_VAR_SLID_PER_MINUTE
  -------         PROC          API_CLR_CURRENT_MD_DATA
  -------         DO            
  X:0095H         SYMBOL        tmp_ms_user_data
  X:00C4H         SYMBOL        st_mmd_unit
  -------         ENDDO         
  C:B1B6H         LINE#         310
  C:B1B6H         LINE#         311
  C:B1B6H         LINE#         315
  C:B1D0H         LINE#         316
  C:B1FEH         LINE#         317
  C:B204H         LINE#         318
  C:B21DH         LINE#         320
  C:B22AH         LINE#         321
  C:B237H         LINE#         322
  C:B251H         LINE#         323
  C:B26BH         LINE#         324
  C:B279H         LINE#         326
  -------         ENDPROC       API_CLR_CURRENT_MD_DATA
BL51 BANKED LINKER/LOCATER V6.22                                                      02/16/2019  15:29:57  PAGE 123


  -------         PROC          API_CLR_FREEZE_ENERGY
  C:D575H         LINE#         329
  C:D575H         LINE#         330
  C:D575H         LINE#         331
  C:D582H         LINE#         332
  C:D58FH         LINE#         333
  C:D59CH         LINE#         334
  C:D5B6H         LINE#         335
  C:D5D0H         LINE#         336
  -------         ENDPROC       API_CLR_FREEZE_ENERGY
  -------         ENDMOD        API_DEMAND

  -------         MODULE        API_ENERGY
  C:0000H         SYMBOL        _ICE_DUMMY_
  D:00CEH         PUBLIC        wdt0
  D:0090H         PUBLIC        P1
  D:00CFH         PUBLIC        wdt1
  D:00B0H         PUBLIC        P3
  B:00A8H.7       PUBLIC        EA
  C:5FA8H         PUBLIC        api_accum_current_energy_data_pre_second
  D:00A8H         PUBLIC        IE
  D:00B8H         PUBLIC        IP
  C:D95DH         PUBLIC        api_clr_current_energy_data
  D:0098H         PUBLIC        SCON
  D:0088H         PUBLIC        TCON
  D:00F0H         PUBLIC        B
  D:00E0H         PUBLIC        ACC
  C:68FCH         PUBLIC        api_init_current_energy_data_ram
  D:0080H         PUBLIC        SysCtrl
  C:DB01H         PUBLIC        lnk_add_fac_energy_pluse
  X:0449H         PUBLIC        gs_energy_user_data_back
  C:F01FH         PUBLIC        lnk_add_rac_energy_pluse
  D:00C8H         PUBLIC        T2CON
  X:0487H         PUBLIC        gs_energy_user_data
  C:BF59H         PUBLIC        api_check_current_energy_data
  X:04C5H         PUBLIC        gs_energy_var
  D:00D0H         PUBLIC        PSW
  -------         PROC          API_INIT_CURRENT_ENERGY_DATA_RAM
  -------         DO            
  X:0003H         SYMBOL        Bill_Data
  X:0004H         SYMBOL        i
  X:0005H         SYMBOL        u16_month_A
  X:0007H         SYMBOL        u16_month_B
  X:0009H         SYMBOL        u16_day_A
  X:000BH         SYMBOL        u16_day_B
  X:000DH         SYMBOL        last_rec_dateTime
  X:0013H         SYMBOL        max_dateTime
  -------         ENDDO         
  C:68FCH         LINE#         41
  C:68FCH         LINE#         42
  C:68FCH         LINE#         51
  C:6910H         LINE#         52
  C:6924H         LINE#         53
  C:6927H         LINE#         57
  C:6941H         LINE#         58
  C:695BH         LINE#         59
  C:6974H         LINE#         60
BL51 BANKED LINKER/LOCATER V6.22                                                      02/16/2019  15:29:57  PAGE 124


  C:6979H         LINE#         78
  C:6992H         LINE#         79
  C:69BFH         LINE#         80
  C:69ECH         LINE#         81
  C:69FAH         LINE#         82
  C:6A12H         LINE#         83
  C:6A12H         LINE#         84
  C:6A2FH         LINE#         85
  C:6A2FH         LINE#         86
  C:6A35H         LINE#         87
  C:6A37H         LINE#         89
  C:6A37H         LINE#         90
  C:6A52H         LINE#         91
  C:6A6FH         LINE#         93
  C:6A7EH         LINE#         94
  C:6A7EH         LINE#         96
  C:6A96H         LINE#         98
  C:6A9EH         LINE#         99
  C:6A9EH         LINE#         100
  C:6AAEH         LINE#         101
  C:6AAEH         LINE#         102
  C:6ABCH         LINE#         103
  C:6ACEH         LINE#         104
  C:6ACEH         LINE#         105
  C:6AD3H         LINE#         106
  C:6AE1H         LINE#         107
  C:6AE9H         LINE#         108
  C:6AF7H         LINE#         109
  C:6AFAH         LINE#         111
  C:6B08H         LINE#         112
  C:6B08H         LINE#         113
  C:6B08H         LINE#         121
  C:6B08H         LINE#         129
  C:6B0DH         LINE#         130
  -------         ENDPROC       API_INIT_CURRENT_ENERGY_DATA_RAM
  -------         PROC          API_CHECK_CURRENT_ENERGY_DATA
  -------         DO            
  D:0006H         SYMBOL        csck_tmp
  -------         ENDDO         
  C:BF59H         LINE#         144
  C:BF59H         LINE#         145
  C:BF59H         LINE#         149
  C:BF70H         LINE#         150
  C:BF7FH         LINE#         151
  C:BF7FH         LINE#         152
  C:BF96H         LINE#         153
  C:BFA2H         LINE#         154
  C:BFA2H         LINE#         155
  C:BFBBH         LINE#         156
  C:BFDAH         LINE#         166
  C:BFDAH         LINE#         167
  C:BFF8H         LINE#         168
  C:C007H         LINE#         169
  C:C007H         LINE#         170
  -------         ENDPROC       API_CHECK_CURRENT_ENERGY_DATA
  -------         PROC          LNK_ADD_FAC_ENERGY_PLUSE
  -------         DO            
BL51 BANKED LINKER/LOCATER V6.22                                                      02/16/2019  15:29:57  PAGE 125


  D:0007H         SYMBOL        chg_fg
  D:0005H         SYMBOL        u8_tmp
  D:0006H         SYMBOL        i
  -------         ENDDO         
  C:DB01H         LINE#         184
  C:DB01H         LINE#         185
  C:DB01H         LINE#         187
  C:DB03H         LINE#         190
  C:DB04H         LINE#         191
  C:DB04H         LINE#         192
  C:DB15H         LINE#         193
  C:DB15H         LINE#         194
  C:DB17H         LINE#         195
  C:DB17H         LINE#         196
  C:DB23H         LINE#         197
  C:DB25H         LINE#         199
  C:DB3BH         LINE#         201
  C:DB61H         LINE#         203
  C:DB63H         LINE#         204
  C:DB63H         LINE#         205
  C:DB68H         LINE#         207
  C:DB68H         LINE#         208
  -------         ENDPROC       LNK_ADD_FAC_ENERGY_PLUSE
  -------         PROC          LNK_ADD_RAC_ENERGY_PLUSE
  -------         DO            
  D:0007H         SYMBOL        chg_fg
  -------         ENDDO         
  C:F01FH         LINE#         224
  C:F01FH         LINE#         225
  C:F01FH         LINE#         227
  C:F021H         LINE#         287
  C:F021H         LINE#         288
  -------         ENDPROC       LNK_ADD_RAC_ENERGY_PLUSE
  -------         PROC          API_ACCUM_CURRENT_ENERGY_DATA_PRE_SECOND
  -------         DO            
  X:0007H         SYMBOL        save_fg
  X:0008H         SYMBOL        i
  D:0007H         SYMBOL        chg_fg1
  -------         ENDDO         
  C:5FA8H         LINE#         302
  C:5FA8H         LINE#         303
  C:5FA8H         LINE#         304
  C:5FADH         LINE#         309
  C:5FB0H         LINE#         311
  C:5FB3H         LINE#         313
  C:5FB9H         LINE#         315
  C:5FBEH         LINE#         316
  C:5FCDH         LINE#         317
  C:5FCDH         LINE#         318
  C:5FF2H         LINE#         319
  C:5FF2H         LINE#         320
  C:5FFEH         LINE#         321
  C:6018H         LINE#         322
  C:604DH         LINE#         323
  C:6074H         LINE#         324
  C:6074H         LINE#         325
  C:608CH         LINE#         326
BL51 BANKED LINKER/LOCATER V6.22                                                      02/16/2019  15:29:57  PAGE 126


  C:608CH         LINE#         327
  C:608CH         LINE#         329
  C:60C6H         LINE#         330
  C:60C6H         LINE#         331
  C:60F3H         LINE#         332
  C:6144H         LINE#         333
  C:6180H         LINE#         334
  C:6180H         LINE#         335
  C:61AAH         LINE#         336
  C:61AAH         LINE#         337
  C:61AAH         LINE#         340
  C:61B3H         LINE#         343
  C:61D2H         LINE#         344
  C:61F0H         LINE#         347
  C:61F7H         LINE#         348
  C:61F7H         LINE#         349
  C:6210H         LINE#         350
  C:6210H         LINE#         351
  -------         ENDPROC       API_ACCUM_CURRENT_ENERGY_DATA_PRE_SECOND
  -------         PROC          API_CLR_CURRENT_ENERGY_DATA
  C:D95DH         LINE#         367
  C:D95DH         LINE#         368
  C:D95DH         LINE#         370
  C:D971H         LINE#         371
  C:D990H         LINE#         373
  C:D9AEH         LINE#         375
  -------         ENDPROC       API_CLR_CURRENT_ENERGY_DATA
  -------         ENDMOD        API_ENERGY

  -------         MODULE        API_EVENT
  C:0000H         SYMBOL        _ICE_DUMMY_
  D:00CEH         PUBLIC        wdt0
  D:0090H         PUBLIC        P1
  D:00CFH         PUBLIC        wdt1
  D:00B0H         PUBLIC        P3
  C:ED1FH         PUBLIC        api_even_Detect_NOL1
  C:ECFEH         PUBLIC        api_even_Detect_NOL2
  D:00A8H         PUBLIC        IE
  C:B8EFH         PUBLIC        _api_deal_even_class_recode
  C:E744H         PUBLIC        gs_even_var
  D:00B8H         PUBLIC        IP
  C:DA30H         PUBLIC        api_even_ee_err
  C:E523H         PUBLIC        api_even_Detect_sec
  D:0098H         PUBLIC        SCON
  D:0088H         PUBLIC        TCON
  C:9B85H         PUBLIC        api_clr_even_by_comm
  C:A2FEH         PUBLIC        _GetTotalTime
  C:EFA6H         PUBLIC        api_even_Detect_lowbattery
  D:00F0H         PUBLIC        B
  X:06DEH         PUBLIC        gs_even_fun_var
  D:00E0H         PUBLIC        ACC
  C:4A42H         PUBLIC        _api_pwl_cover_even_class_recode
  D:0080H         PUBLIC        SysCtrl
  D:00C8H         PUBLIC        T2CON
  C:002EH         PUBLIC        api_even_Detect_L1reverse
  C:001EH         PUBLIC        api_even_Detect_L2reverse
  C:35CFH         PUBLIC        _lnk_save_even_class1_recode
BL51 BANKED LINKER/LOCATER V6.22                                                      02/16/2019  15:29:57  PAGE 127


  C:E75EH         PUBLIC        even_class_I_tab
  C:F025H         PUBLIC        api_even_int
  D:00D0H         PUBLIC        PSW
  -------         PROC          API_EVEN_INT
  C:F025H         LINE#         101
  C:F025H         LINE#         102
  C:F025H         LINE#         104
  C:F026H         LINE#         105
  -------         ENDPROC       API_EVEN_INT
  -------         PROC          _API_PWL_COVER_EVEN_CLASS_RECODE
  X:0007H         SYMBOL        even_id
  D:0005H         SYMBOL        type
  -------         DO            
  X:0008H         SYMBOL        data_class2
  X:0088H         SYMBOL        buftmp
  X:009EH         SYMBOL        Time
  X:00A2H         SYMBOL        i
  -------         ENDDO         
  C:4A42H         LINE#         110
  C:4A47H         LINE#         111
  C:4A47H         LINE#         120
  C:4A4FH         LINE#         121
  C:4A4FH         LINE#         122
  C:4A6FH         LINE#         123
  C:4A6FH         LINE#         124
  C:4A7FH         LINE#         125
  C:4AA2H         LINE#         126
  C:4AA4H         LINE#         128
  C:4AA4H         LINE#         129
  C:4AB4H         LINE#         130
  C:4AD5H         LINE#         132
  C:4AD5H         LINE#         133
  C:4AEFH         LINE#         136
  C:4B14H         LINE#         137
  C:4B24H         LINE#         138
  C:4B24H         LINE#         139
  C:4B5EH         LINE#         140
  C:4B66H         LINE#         141
  C:4B6EH         LINE#         142
  C:4B76H         LINE#         143
  C:4B7EH         LINE#         144
  C:4B86H         LINE#         145
  C:4B8EH         LINE#         146
  C:4B96H         LINE#         148
  C:4BA6H         LINE#         149
  C:4BA6H         LINE#         150
  C:4BE0H         LINE#         151
  C:4BE8H         LINE#         152
  C:4BF6H         LINE#         154
  C:4C0AH         LINE#         156
  C:4C29H         LINE#         158
  C:4C43H         LINE#         159
  C:4C43H         LINE#         161
  C:4C43H         LINE#         163
  C:4C59H         LINE#         164
  C:4C59H         LINE#         166
  C:4C59H         LINE#         167
BL51 BANKED LINKER/LOCATER V6.22                                                      02/16/2019  15:29:57  PAGE 128


  C:4C69H         LINE#         168
  C:4C69H         LINE#         169
  C:4C79H         LINE#         170
  C:4C86H         LINE#         172
  C:4C87H         LINE#         174
  C:4C87H         LINE#         177
  C:4C97H         LINE#         178
  C:4CBAH         LINE#         179
  C:4CC8H         LINE#         180
  C:4CE2H         LINE#         182
  C:4CEAH         LINE#         183
  C:4CF2H         LINE#         184
  C:4CFAH         LINE#         185
  C:4D02H         LINE#         186
  C:4D0AH         LINE#         187
  C:4D13H         LINE#         189
  C:4D1BH         LINE#         190
  C:4D23H         LINE#         191
  C:4D2BH         LINE#         192
  C:4D33H         LINE#         193
  C:4D3BH         LINE#         194
  C:4D43H         LINE#         196
  C:4D46H         LINE#         197
  C:4D4EH         LINE#         198
  C:4D56H         LINE#         199
  C:4D5EH         LINE#         200
  C:4D66H         LINE#         201
  C:4D6EH         LINE#         203
  C:4D77H         LINE#         205
  C:4D95H         LINE#         207
  C:4DF6H         LINE#         209
  C:4E15H         LINE#         210
  C:4E23H         LINE#         212
  C:4E3DH         LINE#         214
  C:4E4DH         LINE#         215
  C:4E59H         LINE#         216
  C:4E59H         LINE#         218
  C:4E59H         LINE#         221
  -------         ENDPROC       _API_PWL_COVER_EVEN_CLASS_RECODE
  -------         PROC          _LNK_SAVE_EVEN_CLASS1_RECODE
  X:009AH         SYMBOL        ID
  X:009BH         SYMBOL        adr
  X:009DH         SYMBOL        type
  -------         DO            
  X:009EH         SYMBOL        data_class1
  X:00DEH         SYMBOL        data_class2
  X:015EH         SYMBOL        buftmp
  X:0174H         SYMBOL        Time
  X:0178H         SYMBOL        i
  -------         ENDDO         
  C:35CFH         LINE#         237
  C:35E1H         LINE#         238
  C:35E1H         LINE#         246
  C:35ECH         LINE#         248
  C:35FEH         LINE#         249
  C:35FEH         LINE#         251
  C:3619H         LINE#         253
BL51 BANKED LINKER/LOCATER V6.22                                                      02/16/2019  15:29:57  PAGE 129


  C:363EH         LINE#         254
  C:364EH         LINE#         255
  C:364EH         LINE#         256
  C:3688H         LINE#         257
  C:3690H         LINE#         259
  C:3698H         LINE#         260
  C:36A0H         LINE#         261
  C:36A8H         LINE#         262
  C:36B0H         LINE#         263
  C:36B8H         LINE#         264
  C:36C0H         LINE#         266
  C:36DFH         LINE#         269
  C:36F8H         LINE#         271
  C:36F8H         LINE#         274
  C:3717H         LINE#         275
  C:3717H         LINE#         276
  C:3720H         LINE#         277
  C:3720H         LINE#         278
  C:3730H         LINE#         281
  C:3750H         LINE#         282
  C:3769H         LINE#         283
  C:3769H         LINE#         284
  C:3774H         LINE#         285
  C:3777H         LINE#         287
  C:3777H         LINE#         288
  C:3787H         LINE#         289
  C:37ABH         LINE#         290
  C:37B9H         LINE#         292
  C:37CFH         LINE#         293
  C:37CFH         LINE#         294
  C:37E0H         LINE#         295
  C:3800H         LINE#         296
  C:3800H         LINE#         300
  C:381EH         LINE#         303
  C:3843H         LINE#         304
  C:3853H         LINE#         305
  C:3853H         LINE#         306
  C:388DH         LINE#         307
  C:3895H         LINE#         308
  C:389DH         LINE#         309
  C:38A5H         LINE#         310
  C:38ADH         LINE#         311
  C:38B5H         LINE#         312
  C:38BDH         LINE#         313
  C:38C5H         LINE#         315
  C:38D5H         LINE#         316
  C:38D5H         LINE#         317
  C:390FH         LINE#         318
  C:3917H         LINE#         319
  C:3925H         LINE#         322
  C:3939H         LINE#         326
  C:3958H         LINE#         329
  C:396EH         LINE#         330
  C:396EH         LINE#         331
  C:3971H         LINE#         333
  C:3971H         LINE#         334
  C:398DH         LINE#         335
BL51 BANKED LINKER/LOCATER V6.22                                                      02/16/2019  15:29:57  PAGE 130


  C:398DH         LINE#         336
  C:39B0H         LINE#         338
  C:39B0H         LINE#         339
  C:39C0H         LINE#         340
  C:39CCH         LINE#         343
  C:39ECH         LINE#         344
  C:3A00H         LINE#         345
  C:3A00H         LINE#         347
  C:3A00H         LINE#         350
  C:3A10H         LINE#         351
  C:3A30H         LINE#         352
  C:3A3EH         LINE#         353
  C:3A5CH         LINE#         355
  C:3A64H         LINE#         356
  C:3A6CH         LINE#         357
  C:3A74H         LINE#         358
  C:3A7CH         LINE#         359
  C:3A84H         LINE#         360
  C:3A8DH         LINE#         362
  C:3A95H         LINE#         363
  C:3A9DH         LINE#         364
  C:3AA5H         LINE#         365
  C:3AADH         LINE#         366
  C:3AB5H         LINE#         367
  C:3ABDH         LINE#         370
  C:3AC0H         LINE#         371
  C:3AC8H         LINE#         372
  C:3AD0H         LINE#         373
  C:3AD8H         LINE#         374
  C:3AE0H         LINE#         375
  C:3AE8H         LINE#         377
  C:3AF1H         LINE#         379
  C:3B0FH         LINE#         381
  C:3B70H         LINE#         383
  C:3B8FH         LINE#         385
  C:3B9DH         LINE#         388
  C:3BBBH         LINE#         390
  C:3BBBH         LINE#         391
  C:3BBBH         LINE#         393
  C:3BBBH         LINE#         394
  C:3BCBH         LINE#         395
  C:3BD7H         LINE#         396
  C:3BD7H         LINE#         397
  C:3BD7H         LINE#         399
  C:3BD7H         LINE#         402
  -------         ENDPROC       _LNK_SAVE_EVEN_CLASS1_RECODE
  -------         PROC          _API_DEAL_EVEN_CLASS_RECODE
  D:0007H         SYMBOL        even_id
  D:0006H         SYMBOL        type
  -------         DO            
  X:0095H         SYMBOL        i
  X:0096H         SYMBOL        ID
  X:0097H         SYMBOL        tab_class
  -------         ENDDO         
  C:B8EFH         LINE#         418
  C:B8F1H         LINE#         419
  C:B8F1H         LINE#         423
BL51 BANKED LINKER/LOCATER V6.22                                                      02/16/2019  15:29:57  PAGE 131


  C:B8F7H         LINE#         424
  C:B8F7H         LINE#         425
  C:B906H         LINE#         426
  C:B906H         LINE#         427
  C:B919H         LINE#         428
  C:B921H         LINE#         430
  C:B92EH         LINE#         432
  C:B93AH         LINE#         433
  C:B93AH         LINE#         434
  C:B93CH         LINE#         435
  C:B947H         LINE#         436
  C:B947H         LINE#         437
  C:B956H         LINE#         438
  C:B956H         LINE#         439
  C:B969H         LINE#         440
  C:B971H         LINE#         442
  C:B97AH         LINE#         444
  C:B99AH         LINE#         445
  C:B99FH         LINE#         446
  C:B99FH         LINE#         449
  C:B9B1H         LINE#         451
  -------         ENDPROC       _API_DEAL_EVEN_CLASS_RECODE
  -------         PROC          API_CLR_EVEN_BY_COMM
  -------         DO            
  X:0095H         SYMBOL        i
  X:0096H         SYMBOL        data_class1
  X:00D6H         SYMBOL        data_class2
  -------         ENDDO         
  C:9B85H         LINE#         466
  C:9B85H         LINE#         467
  C:9B85H         LINE#         472
  C:9B99H         LINE#         473
  C:9BADH         LINE#         474
  C:9BB2H         LINE#         475
  C:9BC5H         LINE#         477
  C:9BDFH         LINE#         479
  C:9BFEH         LINE#         480
  C:9C1DH         LINE#         482
  C:9C2FH         LINE#         483
  C:9C2FH         LINE#         484
  C:9C3DH         LINE#         485
  C:9C68H         LINE#         486
  C:9C96H         LINE#         487
  C:9CA4H         LINE#         488
  C:9CADH         LINE#         491
  -------         ENDPROC       API_CLR_EVEN_BY_COMM
  -------         PROC          _GETTOTALTIME
  X:0179H         SYMBOL        buftmp
  -------         DO            
  X:017CH         SYMBOL        temp1
  X:0180H         SYMBOL        temp2
  -------         ENDDO         
  C:A2FEH         LINE#         502
  C:A309H         LINE#         503
  C:A309H         LINE#         506
  C:A334H         LINE#         507
  C:A334H         LINE#         508
BL51 BANKED LINKER/LOCATER V6.22                                                      02/16/2019  15:29:57  PAGE 132


  C:A33EH         LINE#         509
  C:A348H         LINE#         510
  C:A34AH         LINE#         512
  C:A34AH         LINE#         513
  C:A35AH         LINE#         514
  C:A373H         LINE#         518
  C:A373H         LINE#         520
  C:A398H         LINE#         521
  C:A398H         LINE#         522
  C:A3C3H         LINE#         523
  C:A3C5H         LINE#         525
  C:A3C5H         LINE#         526
  C:A3CCH         LINE#         527
  C:A3CCH         LINE#         529
  -------         ENDPROC       _GETTOTALTIME
  -------         PROC          API_EVEN_DETECT_SEC
  C:E523H         LINE#         545
  C:E523H         LINE#         546
  C:E523H         LINE#         547
  C:E52BH         LINE#         549
  C:E52EH         LINE#         551
  C:E538H         LINE#         552
  C:E53FH         LINE#         562
  C:E549H         LINE#         563
  C:E550H         LINE#         568
  C:E55AH         LINE#         569
  C:E561H         LINE#         572
  -------         ENDPROC       API_EVEN_DETECT_SEC
  -------         PROC          API_EVEN_DETECT_L2REVERSE
  C:001EH         LINE#         587
  C:001EH         LINE#         588
  C:001EH         LINE#         590
  C:0025H         LINE#         591
  C:0028H         LINE#         593
  C:002AH         LINE#         595
  -------         ENDPROC       API_EVEN_DETECT_L2REVERSE
  -------         PROC          API_EVEN_DETECT_L1REVERSE
  C:002EH         LINE#         611
  C:002EH         LINE#         612
  C:002EH         LINE#         613
  C:0035H         LINE#         614
  C:0038H         LINE#         616
  C:003AH         LINE#         617
  -------         ENDPROC       API_EVEN_DETECT_L1REVERSE
  -------         PROC          API_EVEN_DETECT_NOL2
  C:ECFEH         LINE#         631
  C:ECFEH         LINE#         632
  C:ECFEH         LINE#         634
  C:ED19H         LINE#         635
  C:ED19H         LINE#         637
  C:ED1CH         LINE#         638
  C:ED1CH         LINE#         640
  C:ED1CH         LINE#         642
  C:ED1EH         LINE#         643
  C:ED1EH         LINE#         644
  -------         ENDPROC       API_EVEN_DETECT_NOL2
  -------         PROC          API_EVEN_DETECT_NOL1
BL51 BANKED LINKER/LOCATER V6.22                                                      02/16/2019  15:29:57  PAGE 133


  C:ED1FH         LINE#         658
  C:ED1FH         LINE#         659
  C:ED1FH         LINE#         661
  C:ED3AH         LINE#         662
  C:ED3AH         LINE#         664
  C:ED3DH         LINE#         665
  C:ED3DH         LINE#         667
  C:ED3DH         LINE#         669
  C:ED3FH         LINE#         670
  C:ED3FH         LINE#         671
  -------         ENDPROC       API_EVEN_DETECT_NOL1
  -------         PROC          API_EVEN_DETECT_LOWBATTERY
  C:EFA6H         LINE#         685
  C:EFA6H         LINE#         686
  C:EFA6H         LINE#         687
  C:EFADH         LINE#         688
  C:EFB0H         LINE#         690
  C:EFB2H         LINE#         691
  -------         ENDPROC       API_EVEN_DETECT_LOWBATTERY
  -------         PROC          API_EVEN_EE_ERR
  C:DA30H         LINE#         707
  C:DA30H         LINE#         708
  C:DA30H         LINE#         709
  C:DA4AH         LINE#         711
  C:DA66H         LINE#         712
  C:DA66H         LINE#         713
  C:DA6AH         LINE#         714
  C:DA6AH         LINE#         716
  C:DA8BH         LINE#         717
  C:DA8BH         LINE#         718
  C:DA92H         LINE#         719
  C:DA98H         LINE#         720
  C:DA98H         LINE#         722
  C:DA98H         LINE#         724
  C:DA98H         LINE#         725
  -------         ENDPROC       API_EVEN_EE_ERR
  -------         ENDMOD        API_EVENT

  -------         MODULE        API_LOADPROFILE
  C:0000H         SYMBOL        _ICE_DUMMY_
  D:00CEH         PUBLIC        wdt0
  D:0090H         PUBLIC        P1
  D:00CFH         PUBLIC        wdt1
  D:00B0H         PUBLIC        P3
  C:F022H         PUBLIC        ReadLPRunPa
  X:0635H         PUBLIC        LPRunPa
  D:00A8H         PUBLIC        IE
  D:00B8H         PUBLIC        IP
  C:D885H         PUBLIC        Init_LoadPro_param
  X:0639H         PUBLIC        LPReadPara
  C:C20CH         PUBLIC        _LPRec_Read_1
  C:CC79H         PUBLIC        LoadPro_Rec
  D:0098H         PUBLIC        SCON
  D:0088H         PUBLIC        TCON
  D:00F0H         PUBLIC        B
  D:00E0H         PUBLIC        ACC
  X:063EH         PUBLIC        LPRd
BL51 BANKED LINKER/LOCATER V6.22                                                      02/16/2019  15:29:57  PAGE 134


  D:0080H         PUBLIC        SysCtrl
  C:6211H         PUBLIC        _LPRec_Read_Block
  D:00C8H         PUBLIC        T2CON
  C:E461H         PUBLIC        LoadProRst
  D:00D0H         PUBLIC        PSW
  C:583EH         PUBLIC        _Load_Rec
  -------         PROC          LOADPRORST
  C:E461H         LINE#         28
  C:E461H         LINE#         29
  C:E461H         LINE#         30
  C:E475H         LINE#         31
  C:E48FH         LINE#         33
  -------         ENDPROC       LOADPRORST
  -------         PROC          READLPRUNPA
  C:F022H         LINE#         45
  C:F022H         LINE#         46
  C:F022H         LINE#         47
  C:F024H         LINE#         48
  -------         ENDPROC       READLPRUNPA
  -------         PROC          _LPREC_READ_1
  X:00E8H         SYMBOL        dst
  D:0004H         SYMBOL        idNo
  -------         DO            
  X:00EBH         SYMBOL        RecLen
  X:00ECH         SYMBOL        Buffer
  D:0004H         SYMBOL        LPAddr
  X:0100H         SYMBOL        ptr
  -------         ENDDO         
  C:C20CH         LINE#         58
  C:C217H         LINE#         59
  C:C217H         LINE#         66
  C:C225H         LINE#         67
  C:C225H         LINE#         68
  C:C22AH         LINE#         69
  C:C22CH         LINE#         71
  C:C22CH         LINE#         72
  C:C24EH         LINE#         73
  C:C24EH         LINE#         75
  C:C254H         LINE#         76
  C:C272H         LINE#         77
  C:C28DH         LINE#         78
  C:C2B1H         LINE#         85
  C:C2B6H         LINE#         86
  -------         ENDPROC       _LPREC_READ_1
  -------         PROC          _LPREC_READ_BLOCK
  X:00E8H         SYMBOL        dst
  X:00EBH         SYMBOL        StartARESS
  X:00EDH         SYMBOL        EndARESS
  -------         DO            
  X:00EFH         SYMBOL        Ch
  X:00F0H         SYMBOL        RecLen
  X:00F1H         SYMBOL        Buffer
  X:01B9H         SYMBOL        LPAddr
  X:01BDH         SYMBOL        LPAddr2
  X:01C1H         SYMBOL        HGAddr
  D:0002H         SYMBOL        LWAddr
  X:01C3H         SYMBOL        ComLenth
BL51 BANKED LINKER/LOCATER V6.22                                                      02/16/2019  15:29:57  PAGE 135


  X:01C5H         SYMBOL        ptr
  X:01C7H         SYMBOL        ComNo
  X:01C9H         SYMBOL        TempLen
  -------         ENDDO         
  C:6211H         LINE#         94
  C:6222H         LINE#         95
  C:6222H         LINE#         104
  C:622FH         LINE#         105
  C:623DH         LINE#         106
  C:625BH         LINE#         107
  C:6265H         LINE#         109
  C:6281H         LINE#         110
  C:6286H         LINE#         112
  C:629FH         LINE#         114
  C:62C3H         LINE#         116
  C:62C9H         LINE#         118
  C:62D3H         LINE#         119
  C:62E1H         LINE#         120
  C:62F3H         LINE#         121
  C:62F3H         LINE#         122
  C:6339H         LINE#         123
  C:636AH         LINE#         125
  C:6373H         LINE#         127
  C:639EH         LINE#         128
  C:63A3H         LINE#         130
  C:63B2H         LINE#         131
  C:63C0H         LINE#         133
  C:63C9H         LINE#         134
  C:63D0H         LINE#         137
  C:63DEH         LINE#         138
  C:63F5H         LINE#         139
  C:63F5H         LINE#         140
  C:6441H         LINE#         149
  C:644FH         LINE#         150
  C:645DH         LINE#         151
  C:6466H         LINE#         153
  C:646EH         LINE#         154
  -------         ENDPROC       _LPREC_READ_BLOCK
  -------         PROC          _LOAD_REC
  X:0007H         SYMBOL        Ch
  -------         DO            
  X:0008H         SYMBOL        LPAddr
  X:000CH         SYMBOL        Len
  X:000DH         SYMBOL        Buffer
  -------         ENDDO         
  C:583EH         LINE#         233
  C:5843H         LINE#         234
  C:5843H         LINE#         240
  C:584DH         LINE#         248
  C:5861H         LINE#         249
  C:5866H         LINE#         250
  C:588AH         LINE#         251
  C:5891H         LINE#         256
  C:58B0H         LINE#         257
  C:58B7H         LINE#         262
  C:58D2H         LINE#         263
  C:5909H         LINE#         264
BL51 BANKED LINKER/LOCATER V6.22                                                      02/16/2019  15:29:57  PAGE 136


  C:5910H         LINE#         269
  C:592BH         LINE#         270
  C:5962H         LINE#         271
  C:5969H         LINE#         275
  C:5987H         LINE#         276
  C:598EH         LINE#         294
  C:59B0H         LINE#         295
  C:59E4H         LINE#         296
  C:5A02H         LINE#         297
  C:5A2BH         LINE#         300
  C:5A35H         LINE#         301
  C:5A82H         LINE#         303
  C:5A9CH         LINE#         312
  C:5ABEH         LINE#         314
  C:5AC0H         LINE#         315
  -------         ENDPROC       _LOAD_REC
  -------         PROC          LOADPRO_REC
  -------         DO            
  X:0001H         SYMBOL        Ch
  D:0006H         SYMBOL        Addr
  X:0002H         SYMBOL        TimeInv
  X:0004H         SYMBOL        flag
  X:0005H         SYMBOL        Buffer
  -------         ENDDO         
  C:CC79H         LINE#         323
  C:CC79H         LINE#         324
  C:CC79H         LINE#         331
  C:CC8BH         LINE#         332
  C:CC8BH         LINE#         333
  C:CC97H         LINE#         335
  C:CCAEH         LINE#         336
  C:CCBFH         LINE#         337
  C:CCC2H         LINE#         338
  C:CCC2H         LINE#         339
  C:CCC5H         LINE#         340
  C:CCD4H         LINE#         341
  C:CCD4H         LINE#         348
  C:CCE1H         LINE#         349
  C:CCF5H         LINE#         350
  C:CCF5H         LINE#         351
  C:CCFBH         LINE#         352
  C:CCFBH         LINE#         353
  C:CD03H         LINE#         354
  C:CD03H         LINE#         355
  C:CD03H         LINE#         356
  C:CD0CH         LINE#         357
  -------         ENDPROC       LOADPRO_REC
  -------         PROC          INIT_LOADPRO_PARAM
  C:D885H         LINE#         366
  C:D885H         LINE#         367
  C:D885H         LINE#         370
  C:D89FH         LINE#         372
  C:D8B7H         LINE#         373
  C:D8C7H         LINE#         374
  C:D8C7H         LINE#         375
  C:D8CDH         LINE#         376
  C:D8CDH         LINE#         379
BL51 BANKED LINKER/LOCATER V6.22                                                      02/16/2019  15:29:57  PAGE 137


  C:D8D7H         LINE#         381
  -------         ENDPROC       INIT_LOADPRO_PARAM
  -------         ENDMOD        API_LOADPROFILE

  -------         MODULE        API_MEASURE
  C:0000H         SYMBOL        _ICE_DUMMY_
  D:00CEH         PUBLIC        wdt0
  D:0090H         PUBLIC        P1
  D:00CFH         PUBLIC        wdt1
  D:00B0H         PUBLIC        P3
  D:00A8H         PUBLIC        IE
  C:8C7FH         PUBLIC        api_measure_deal_pre_second
  D:00B8H         PUBLIC        IP
  C:EB3EH         PUBLIC        api_Measure_ram_INIT
  D:0098H         PUBLIC        SCON
  D:0088H         PUBLIC        TCON
  D:00F0H         PUBLIC        B
  D:00E0H         PUBLIC        ACC
  D:0080H         PUBLIC        SysCtrl
  X:05F3H         PUBLIC        gs_measure_status_judge_var
  X:05F9H         PUBLIC        gs_measure_var_data
  D:00C8H         PUBLIC        T2CON
  C:E90BH         PUBLIC        api_measure_VBAT_pre_min
  C:EE53H         PUBLIC        api_measure_temperature_pre_min
  D:00D0H         PUBLIC        PSW
  -------         PROC          API_MEASURE_RAM_INIT
  C:EB3EH         LINE#         37
  C:EB3EH         LINE#         38
  C:EB3EH         LINE#         39
  C:EB52H         LINE#         40
  -------         ENDPROC       API_MEASURE_RAM_INIT
  -------         PROC          API_MEASURE_DEAL_PRE_SECOND
  -------         DO            
  X:0001H         SYMBOL        u32_UI
  X:0005H         SYMBOL        u32_P
  X:0009H         SYMBOL        u32_PF
  -------         ENDDO         
  C:8C7FH         LINE#         55
  C:8C7FH         LINE#         56
  C:8C7FH         LINE#         57
  C:8C7FH         LINE#         58
  C:8C8DH         LINE#         61
  C:8C90H         LINE#         64
  C:8C9BH         LINE#         68
  C:8CA5H         LINE#         69
  C:8CDAH         LINE#         70
  C:8D0FH         LINE#         72
  C:8D1CH         LINE#         78
  C:8D3AH         LINE#         79
  C:8D69H         LINE#         80
  C:8D82H         LINE#         81
  C:8D82H         LINE#         82
  C:8D8CH         LINE#         83
  C:8D8DH         LINE#         85
  C:8D8DH         LINE#         86
  C:8DB0H         LINE#         87
  C:8DD5H         LINE#         88
BL51 BANKED LINKER/LOCATER V6.22                                                      02/16/2019  15:29:57  PAGE 138


  C:8DE6H         LINE#         89
  C:8DE6H         LINE#         90
  -------         ENDPROC       API_MEASURE_DEAL_PRE_SECOND
  -------         PROC          API_MEASURE_VBAT_PRE_MIN
  C:E90BH         LINE#         103
  C:E90BH         LINE#         104
  C:E90BH         LINE#         105
  C:E916H         LINE#         107
  C:E91EH         LINE#         108
  C:E91EH         LINE#         109
  C:E929H         LINE#         110
  C:E931H         LINE#         111
  C:E931H         LINE#         112
  C:E938H         LINE#         114
  C:E938H         LINE#         115
  C:E939H         LINE#         117
  C:E939H         LINE#         118
  C:E940H         LINE#         119
  C:E940H         LINE#         120
  -------         ENDPROC       API_MEASURE_VBAT_PRE_MIN
  -------         PROC          API_MEASURE_TEMPERATURE_PRE_MIN
  C:EE53H         LINE#         135
  C:EE53H         LINE#         136
  C:EE53H         LINE#         137
  C:EE58H         LINE#         138
  C:EE5FH         LINE#         140
  C:EE6AH         LINE#         142
  -------         ENDPROC       API_MEASURE_TEMPERATURE_PRE_MIN
  -------         ENDMOD        API_MEASURE

  -------         MODULE        API_TRIFF
  C:0000H         SYMBOL        _ICE_DUMMY_
  C:DE13H         PUBLIC        api_update_triffNo_pre_minute
  D:0090H         PUBLIC        P1
  C:9476H         PUBLIC        api_get_seasonTab_No
  D:00B0H         PUBLIC        P3
  D:00A8H         PUBLIC        IE
  C:C9A1H         PUBLIC        default_triff_week_tab
  D:00B8H         PUBLIC        IP
  C:C9BFH         PUBLIC        default_triff_day_tab
  D:0098H         PUBLIC        SCON
  C:C3FFH         PUBLIC        _api_get_dayTab_No
  D:0088H         PUBLIC        TCON
  D:00F0H         PUBLIC        B
  D:00E0H         PUBLIC        ACC
  D:0080H         PUBLIC        SysCtrl
  D:00C8H         PUBLIC        T2CON
  X:0751H         PUBLIC        gs_current_triff_var
  C:C987H         PUBLIC        default_triff_season_tab
  C:7ECAH         PUBLIC        _api_get_triff_No
  D:00D0H         PUBLIC        PSW
  -------         PROC          API_GET_SEASONTAB_NO
  -------         DO            
  X:0096H         SYMBOL        s_season_data
  D:0006H         SYMBOL        i
  D:0005H         SYMBOL        result
  D:0007H         SYMBOL        table_ok_len
BL51 BANKED LINKER/LOCATER V6.22                                                      02/16/2019  15:29:57  PAGE 139


  -------         ENDDO         
  C:9476H         LINE#         639
  C:9476H         LINE#         640
  C:9476H         LINE#         648
  C:9490H         LINE#         651
  C:9492H         LINE#         652
  C:9493H         LINE#         653
  C:9493H         LINE#         654
  C:94A9H         LINE#         655
  C:94BFH         LINE#         656
  C:94D5H         LINE#         657
  C:94D6H         LINE#         658
  C:94DBH         LINE#         660
  C:94E3H         LINE#         661
  C:94E3H         LINE#         662
  C:94E6H         LINE#         663
  C:94E6H         LINE#         666
  C:94E8H         LINE#         667
  C:94EDH         LINE#         668
  C:94F6H         LINE#         669
  C:94F6H         LINE#         670
  C:9512H         LINE#         671
  C:9528H         LINE#         674
  C:9542H         LINE#         675
  C:9542H         LINE#         676
  C:9542H         LINE#         677
  C:9542H         LINE#         678
  C:9544H         LINE#         679
  C:9548H         LINE#         680
  C:9548H         LINE#         681
  C:9562H         LINE#         682
  C:9562H         LINE#         683
  C:9568H         LINE#         684
  C:9578H         LINE#         685
  C:957AH         LINE#         687
  C:957AH         LINE#         688
  C:957DH         LINE#         689
  C:957DH         LINE#         690
  C:957DH         LINE#         691
  C:957DH         LINE#         692
  C:957FH         LINE#         693
  C:957FH         LINE#         695
  C:957FH         LINE#         696
  C:957FH         LINE#         697
  C:957FH         LINE#         698
  C:957FH         LINE#         699
  C:957FH         LINE#         701
  C:957FH         LINE#         702
  C:9582H         LINE#         703
  C:9582H         LINE#         704
  C:9587H         LINE#         705
  C:9596H         LINE#         706
  C:9598H         LINE#         707
  C:9598H         LINE#         709
  C:9598H         LINE#         710
  C:9598H         LINE#         711
  C:9598H         LINE#         712
BL51 BANKED LINKER/LOCATER V6.22                                                      02/16/2019  15:29:57  PAGE 140


  C:9598H         LINE#         713
  C:959CH         LINE#         715
  C:95A2H         LINE#         716
  C:95A4H         LINE#         718
  -------         ENDPROC       API_GET_SEASONTAB_NO
  -------         PROC          _API_GET_DAYTAB_NO
  D:0007H         SYMBOL        weekTab_no
  -------         DO            
  X:0096H         SYMBOL        s_weekTab_data
  X:009DH         SYMBOL        result
  -------         ENDDO         
  C:C3FFH         LINE#         734
  C:C3FFH         LINE#         735
  C:C3FFH         LINE#         740
  C:C407H         LINE#         741
  C:C407H         LINE#         742
  C:C40DH         LINE#         743
  C:C40EH         LINE#         744
  C:C40EH         LINE#         746
  C:C435H         LINE#         750
  C:C45AH         LINE#         751
  C:C45AH         LINE#         752
  C:C45AH         LINE#         753
  C:C45DH         LINE#         754
  C:C45FH         LINE#         755
  C:C45FH         LINE#         756
  C:C462H         LINE#         757
  C:C464H         LINE#         758
  C:C464H         LINE#         759
  C:C467H         LINE#         760
  C:C469H         LINE#         761
  C:C469H         LINE#         762
  C:C46CH         LINE#         763
  C:C46EH         LINE#         764
  C:C46EH         LINE#         765
  C:C471H         LINE#         766
  C:C473H         LINE#         767
  C:C473H         LINE#         768
  C:C47BH         LINE#         769
  C:C47DH         LINE#         770
  C:C47DH         LINE#         771
  C:C483H         LINE#         772
  C:C485H         LINE#         773
  C:C485H         LINE#         774
  C:C488H         LINE#         775
  C:C488H         LINE#         776
  C:C488H         LINE#         778
  C:C493H         LINE#         779
  C:C493H         LINE#         780
  C:C499H         LINE#         781
  C:C499H         LINE#         783
  C:C49EH         LINE#         785
  -------         ENDPROC       _API_GET_DAYTAB_NO
  -------         PROC          _API_GET_TRIFF_NO
  D:0007H         SYMBOL        dayTab_no
  -------         DO            
  X:0096H         SYMBOL        s_dayTab_data
BL51 BANKED LINKER/LOCATER V6.22                                                      02/16/2019  15:29:57  PAGE 141


  X:00AEH         SYMBOL        i
  X:00AFH         SYMBOL        table_ok_len
  X:00B0H         SYMBOL        result
  -------         ENDDO         
  C:7ECAH         LINE#         800
  C:7ECAH         LINE#         801
  C:7ECAH         LINE#         809
  C:7ED2H         LINE#         810
  C:7ED2H         LINE#         811
  C:7ED8H         LINE#         812
  C:7ED9H         LINE#         813
  C:7ED9H         LINE#         816
  C:7F00H         LINE#         819
  C:7F05H         LINE#         820
  C:7F13H         LINE#         821
  C:7F13H         LINE#         822
  C:7F2AH         LINE#         823
  C:7F42H         LINE#         824
  C:7F56H         LINE#         825
  C:7F6FH         LINE#         826
  C:7F75H         LINE#         827
  C:7F7DH         LINE#         829
  C:7F88H         LINE#         830
  C:7F88H         LINE#         831
  C:7F8BH         LINE#         832
  C:7F8BH         LINE#         836
  C:7F91H         LINE#         837
  C:7F96H         LINE#         838
  C:7FABH         LINE#         839
  C:7FABH         LINE#         840
  C:7FC5H         LINE#         841
  C:7FE1H         LINE#         842
  C:7FF6H         LINE#         845
  C:8000H         LINE#         846
  C:8000H         LINE#         847
  C:8000H         LINE#         848
  C:8002H         LINE#         849
  C:8017H         LINE#         850
  C:8017H         LINE#         851
  C:8021H         LINE#         852
  C:8021H         LINE#         853
  C:8037H         LINE#         854
  C:8039H         LINE#         856
  C:8039H         LINE#         857
  C:803FH         LINE#         858
  C:803FH         LINE#         859
  C:803FH         LINE#         860
  C:8041H         LINE#         861
  C:8041H         LINE#         863
  C:8041H         LINE#         864
  C:8041H         LINE#         865
  C:8041H         LINE#         866
  C:8041H         LINE#         867
  C:8041H         LINE#         869
  C:8041H         LINE#         870
  C:8047H         LINE#         871
  C:8047H         LINE#         872
BL51 BANKED LINKER/LOCATER V6.22                                                      02/16/2019  15:29:57  PAGE 142


  C:805BH         LINE#         873
  C:805DH         LINE#         874
  C:805DH         LINE#         876
  C:805DH         LINE#         877
  C:805DH         LINE#         878
  C:805DH         LINE#         879
  C:805DH         LINE#         880
  C:8066H         LINE#         882
  C:806BH         LINE#         884
  -------         ENDPROC       _API_GET_TRIFF_NO
  -------         PROC          API_UPDATE_TRIFFNO_PRE_MINUTE
  -------         DO            
  X:0095H         SYMBOL        u8_temp
  -------         ENDDO         
  C:DE13H         LINE#         899
  C:DE13H         LINE#         900
  C:DE13H         LINE#         907
  C:DE19H         LINE#         909
  C:DE1CH         LINE#         910
  C:DE1CH         LINE#         912
  C:DE21H         LINE#         914
  C:DE23H         LINE#         916
  C:DE23H         LINE#         918
  C:DE2BH         LINE#         919
  C:DE2EH         LINE#         920
  C:DE2EH         LINE#         921
  C:DE34H         LINE#         922
  C:DE34H         LINE#         923
  C:DE36H         LINE#         925
  C:DE36H         LINE#         926
  C:DE3EH         LINE#         927
  C:DE3EH         LINE#         928
  C:DE4BH         LINE#         930
  C:DE4BH         LINE#         932
  C:DE58H         LINE#         933
  C:DE60H         LINE#         934
  C:DE60H         LINE#         935
  C:DE66H         LINE#         936
  C:DE66H         LINE#         938
  C:DE6EH         LINE#         940
  -------         ENDPROC       API_UPDATE_TRIFFNO_PRE_MINUTE
  -------         ENDMOD        API_TRIFF

  -------         MODULE        API_RELAY
  C:0000H         SYMBOL        _ICE_DUMMY_
  D:00CEH         PUBLIC        wdt0
  D:0090H         PUBLIC        P1
  D:00CFH         PUBLIC        wdt1
  D:00B0H         PUBLIC        P3
  C:CB4FH         PUBLIC        Drv_relay_powerup_check
  D:00A8H         PUBLIC        IE
  D:00B8H         PUBLIC        IP
  C:E309H         PUBLIC        _Drv_relay_COMM_CMD_operating
  D:0098H         PUBLIC        SCON
  D:0088H         PUBLIC        TCON
  D:00F0H         PUBLIC        B
  C:F029H         PUBLIC        Drv_relay_run_check
BL51 BANKED LINKER/LOCATER V6.22                                                      02/16/2019  15:29:57  PAGE 143


  D:00E0H         PUBLIC        ACC
  X:0764H         PUBLIC        gs_relay_manage_var
  D:0080H         PUBLIC        SysCtrl
  D:00C8H         PUBLIC        T2CON
  D:00D0H         PUBLIC        PSW
  -------         PROC          DRV_RELAY_RUN_CHECK
  C:F029H         LINE#         52
  C:F029H         LINE#         53
  C:F029H         LINE#         99
  -------         ENDPROC       DRV_RELAY_RUN_CHECK
  -------         PROC          DRV_RELAY_POWERUP_CHECK
  C:CB4FH         LINE#         116
  C:CB4FH         LINE#         117
  C:CB4FH         LINE#         119
  C:CB5BH         LINE#         120
  C:CB66H         LINE#         121
  C:CB6DH         LINE#         124
  C:CB78H         LINE#         125
  C:CB7FH         LINE#         126
  C:CB8AH         LINE#         129
  C:CBA2H         LINE#         130
  C:CBA7H         LINE#         133
  C:CBB1H         LINE#         134
  C:CBB1H         LINE#         135
  C:CBB4H         LINE#         136
  C:CBCBH         LINE#         137
  C:CBCBH         LINE#         138
  C:CBD0H         LINE#         139
  C:CBD6H         LINE#         140
  C:CBE4H         LINE#         141
  -------         ENDPROC       DRV_RELAY_POWERUP_CHECK
  -------         PROC          _DRV_RELAY_COMM_CMD_OPERATING
  D:0001H         SYMBOL        ptr_cmd
  -------         DO            
  D:0007H         SYMBOL        u8_cmd
  D:0006H         SYMBOL        u8_sta
  -------         ENDDO         
  C:E309H         LINE#         160
  C:E309H         LINE#         161
  C:E309H         LINE#         164
  C:E30DH         LINE#         165
  C:E314H         LINE#         169
  C:E31AH         LINE#         171
  C:E31DH         LINE#         172
  C:E31DH         LINE#         174
  C:E321H         LINE#         175
  C:E325H         LINE#         176
  C:E326H         LINE#         177
  C:E326H         LINE#         178
  C:E328H         LINE#         179
  C:E32CH         LINE#         180
  C:E32CH         LINE#         182
  C:E332H         LINE#         183
  C:E335H         LINE#         184
  C:E337H         LINE#         185
  C:E33AH         LINE#         186
  C:E33CH         LINE#         188
BL51 BANKED LINKER/LOCATER V6.22                                                      02/16/2019  15:29:57  PAGE 144


  C:E33CH         LINE#         189
  C:E33FH         LINE#         190
  C:E33FH         LINE#         192
  C:E34DH         LINE#         193
  C:E34FH         LINE#         194
  -------         ENDPROC       _DRV_RELAY_COMM_CMD_OPERATING
  -------         ENDMOD        API_RELAY

  -------         MODULE        API_LCD_DISPLAY
  C:0000H         SYMBOL        _ICE_DUMMY_
  C:4E73H         PUBLIC        _api_get_energy_LCD
  D:0090H         PUBLIC        P1
  C:ECBBH         PUBLIC        Link_Get_Dis_RealChar_buff
  C:03AEH         PUBLIC        _api_chg_LCDDisplay_adj_item
  D:00B0H         PUBLIC        P3
  C:45EEH         PUBLIC        Link_Get_Dis_Data_Num_buff
  D:00A8H         PUBLIC        IE
  D:00B8H         PUBLIC        IP
  C:DBCFH         PUBLIC        default_dis_param_tab
  C:DBDFH         PUBLIC        NumSegD1_D6
  C:6B0EH         PUBLIC        Link_Get_Dis_Drv_buff
  C:B437H         PUBLIC        api_updated_LCDDisplayPixel_per_second
  C:DBEFH         PUBLIC        NumSegD7_D9
  C:E941H         PUBLIC        api_init_display
  X:0558H         PUBLIC        gs_dis_pixel_var
  C:E358H         PUBLIC        api_get_next_dis_item
  C:B28DH         PUBLIC        api_updated_LCDDisplayItem_per_second
  D:0098H         PUBLIC        SCON
  D:0088H         PUBLIC        TCON
  C:A4F9H         PUBLIC        _Link_Get_DisTab_Var
  C:5241H         PUBLIC        Link_Get_Dis_OBIS_Num_buff
  D:00F0H         PUBLIC        B
  C:EB66H         PUBLIC        api_handl_dis_sleep
  D:00E0H         PUBLIC        ACC
  C:F02AH         PUBLIC        api_updated_LED_per_second
  X:0570H         PUBLIC        gs_dis_ctl_var
  C:DBFFH         PUBLIC        LcdDisTab
  D:0080H         PUBLIC        SysCtrl
  X:057AH         PUBLIC        dis_data_sec
  X:057BH         PUBLIC        dis_data_type
  D:00C8H         PUBLIC        T2CON
  C:8F4EH         PUBLIC        _api_LCDDisplay_adj_item
  X:057CH         PUBLIC        gs_dis_param
  C:E5A0H         PUBLIC        api_handl_dis_key
  X:058CH         PUBLIC        dis_num_char
  X:058DH         PUBLIC        gs_LCDDISTAB_var
  C:B765H         PUBLIC        Link_Get_Dis_Char_buff
  D:00D0H         PUBLIC        PSW
  -------         PROC          API_INIT_DISPLAY
  C:E941H         LINE#         105
  C:E941H         LINE#         106
  C:E941H         LINE#         107
  C:E95BH         LINE#         108
  C:E961H         LINE#         109
  C:E964H         LINE#         110
  C:E967H         LINE#         111
  C:E96CH         LINE#         112
BL51 BANKED LINKER/LOCATER V6.22                                                      02/16/2019  15:29:57  PAGE 145


  C:E96EH         LINE#         113
  C:E970H         LINE#         114
  C:E974H         LINE#         115
  -------         ENDPROC       API_INIT_DISPLAY
  -------         PROC          API_HANDL_DIS_KEY
  C:E5A0H         LINE#         130
  C:E5A0H         LINE#         131
  C:E5A0H         LINE#         133
  C:E5ADH         LINE#         134
  C:E5ADH         LINE#         135
  C:E5B3H         LINE#         136
  C:E5CDH         LINE#         138
  C:E5CDH         LINE#         140
  C:E5D5H         LINE#         141
  C:E5DDH         LINE#         143
  -------         ENDPROC       API_HANDL_DIS_KEY
  -------         PROC          API_HANDL_DIS_SLEEP
  C:EB66H         LINE#         157
  C:EB66H         LINE#         158
  C:EB66H         LINE#         159
  C:EB6CH         LINE#         160
  C:EB71H         LINE#         161
  C:EB8BH         LINE#         162
  -------         ENDPROC       API_HANDL_DIS_SLEEP
  -------         PROC          API_UPDATED_LCDDISPLAYPIXEL_PER_SECOND
  C:B437H         LINE#         179
  C:B437H         LINE#         180
  C:B437H         LINE#         181
  C:B44BH         LINE#         182
  C:B45FH         LINE#         183
  C:B473H         LINE#         184
  C:B487H         LINE#         187
  C:B497H         LINE#         188
  C:B497H         LINE#         189
  C:B49AH         LINE#         193
  C:B49AH         LINE#         194
  C:B49CH         LINE#         196
  C:B49CH         LINE#         197
  C:B4A4H         LINE#         198
  C:B4A4H         LINE#         199
  C:B4A7H         LINE#         200
  C:B4AAH         LINE#         201
  C:B4ADH         LINE#         202
  C:B4B8H         LINE#         203
  C:B4BBH         LINE#         204
  C:B4BDH         LINE#         206
  C:B4BDH         LINE#         207
  C:B4C6H         LINE#         208
  C:B4C6H         LINE#         209
  C:B4C9H         LINE#         210
  C:B4C9H         LINE#         212
  C:B4CFH         LINE#         213
  C:B4CFH         LINE#         214
  C:B4E2H         LINE#         215
  C:B4E4H         LINE#         217
  C:B4E4H         LINE#         218
  C:B4ECH         LINE#         219
BL51 BANKED LINKER/LOCATER V6.22                                                      02/16/2019  15:29:57  PAGE 146


  C:B4EFH         LINE#         221
  C:B4F2H         LINE#         222
  C:B4FDH         LINE#         223
  C:B500H         LINE#         224
  C:B500H         LINE#         226
  C:B509H         LINE#         227
  -------         ENDPROC       API_UPDATED_LCDDISPLAYPIXEL_PER_SECOND
  -------         PROC          API_UPDATED_LED_PER_SECOND
  C:F02AH         LINE#         242
  C:F02AH         LINE#         243
  C:F02AH         LINE#         245
  C:F02AH         LINE#         246
  C:F02AH         LINE#         248
  C:F02AH         LINE#         250
  C:F02AH         LINE#         252
  C:F02AH         LINE#         253
  -------         ENDPROC       API_UPDATED_LED_PER_SECOND
  -------         PROC          API_UPDATED_LCDDISPLAYITEM_PER_SECOND
  C:B28DH         LINE#         268
  C:B28DH         LINE#         269
  C:B28DH         LINE#         270
  C:B29BH         LINE#         271
  C:B29BH         LINE#         272
  C:B29BH         LINE#         273
  C:B2A1H         LINE#         274
  C:B2A7H         LINE#         275
  C:B2A7H         LINE#         276
  C:B2ADH         LINE#         277
  C:B2B5H         LINE#         278
  C:B2BAH         LINE#         279
  C:B2C9H         LINE#         280
  C:B2CEH         LINE#         281
  C:B2CEH         LINE#         282
  C:B2CFH         LINE#         284
  C:B2CFH         LINE#         285
  C:B2D7H         LINE#         286
  C:B2D7H         LINE#         288
  C:B2D8H         LINE#         289
  C:B2E1H         LINE#         290
  C:B2E1H         LINE#         291
  C:B2E4H         LINE#         292
  C:B2E4H         LINE#         293
  C:B2EBH         LINE#         294
  C:B2EBH         LINE#         295
  C:B2EEH         LINE#         296
  C:B2F0H         LINE#         298
  C:B2F0H         LINE#         299
  C:B2F6H         LINE#         300
  C:B2F6H         LINE#         302
  C:B2F6H         LINE#         303
  C:B2F6H         LINE#         304
  C:B2F8H         LINE#         305
  C:B300H         LINE#         306
  C:B300H         LINE#         307
  C:B301H         LINE#         308
  C:B30AH         LINE#         309
  C:B30AH         LINE#         310
BL51 BANKED LINKER/LOCATER V6.22                                                      02/16/2019  15:29:57  PAGE 147


  C:B30DH         LINE#         311
  C:B30DH         LINE#         312
  C:B314H         LINE#         313
  C:B314H         LINE#         314
  C:B317H         LINE#         315
  C:B319H         LINE#         317
  C:B319H         LINE#         318
  C:B31FH         LINE#         319
  C:B31FH         LINE#         321
  C:B31FH         LINE#         322
  C:B327H         LINE#         323
  C:B328H         LINE#         325
  C:B328H         LINE#         326
  C:B335H         LINE#         327
  C:B335H         LINE#         328
  C:B337H         LINE#         329
  C:B338H         LINE#         331
  C:B338H         LINE#         332
  C:B33EH         LINE#         333
  C:B341H         LINE#         334
  C:B341H         LINE#         335
  C:B341H         LINE#         336
  C:B349H         LINE#         338
  C:B352H         LINE#         339
  C:B352H         LINE#         340
  C:B354H         LINE#         341
  C:B355H         LINE#         343
  C:B355H         LINE#         344
  C:B35BH         LINE#         345
  C:B35BH         LINE#         346
  C:B35BH         LINE#         347
  C:B35BH         LINE#         348
  C:B35BH         LINE#         349
  C:B35CH         LINE#         351
  C:B35CH         LINE#         352
  C:B362H         LINE#         353
  C:B362H         LINE#         355
  C:B362H         LINE#         356
  -------         ENDPROC       API_UPDATED_LCDDISPLAYITEM_PER_SECOND
  -------         PROC          L?0185
  -------         ENDPROC       L?0185
  -------         PROC          API_GET_NEXT_DIS_ITEM
  -------         DO            
  D:0007H         SYMBOL        item
  -------         ENDDO         
  C:E358H         LINE#         370
  C:E358H         LINE#         371
  C:E358H         LINE#         375
  C:E35AH         LINE#         376
  C:E362H         LINE#         377
  C:E362H         LINE#         378
  C:E368H         LINE#         379
  C:E37BH         LINE#         380
  C:E37BH         LINE#         381
  C:E380H         LINE#         382
  C:E380H         LINE#         384
  C:E38FH         LINE#         385
BL51 BANKED LINKER/LOCATER V6.22                                                      02/16/2019  15:29:57  PAGE 148


  C:E394H         LINE#         386
  C:E394H         LINE#         387
  C:E396H         LINE#         388
  C:E396H         LINE#         389
  C:E396H         LINE#         390
  C:E396H         LINE#         391
  -------         ENDPROC       API_GET_NEXT_DIS_ITEM
  -------         PROC          _LINK_GET_DISTAB_VAR
  D:0007H         SYMBOL        u8_dis_itm
  -------         DO            
  D:0005H         SYMBOL        i
  D:0006H         SYMBOL        u8_result
  -------         ENDDO         
  C:A4F9H         LINE#         401
  C:A4F9H         LINE#         402
  C:A4F9H         LINE#         404
  C:A4FBH         LINE#         406
  C:A501H         LINE#         407
  C:A501H         LINE#         408
  C:A503H         LINE#         409
  C:A503H         LINE#         412
  C:A505H         LINE#         413
  C:A505H         LINE#         414
  C:A51BH         LINE#         415
  C:A51BH         LINE#         416
  C:A520H         LINE#         417
  C:A53CH         LINE#         418
  C:A558H         LINE#         419
  C:A574H         LINE#         420
  C:A588H         LINE#         421
  C:A59CH         LINE#         422
  C:A59CH         LINE#         423
  C:A59FH         LINE#         424
  C:A59FH         LINE#         425
  C:A5A8H         LINE#         427
  C:A5ABH         LINE#         428
  C:A5ABH         LINE#         429
  C:A5B1H         LINE#         430
  C:A5C2H         LINE#         431
  C:A5D3H         LINE#         432
  C:A5E4H         LINE#         433
  C:A5EDH         LINE#         434
  C:A5EDH         LINE#         435
  C:A5EFH         LINE#         437
  -------         ENDPROC       _LINK_GET_DISTAB_VAR
  -------         PROC          LINK_GET_DIS_OBIS_NUM_BUFF
  -------         DO            
  X:06EAH         SYMBOL        u8_len
  X:06EBH         SYMBOL        u8_mem_type
  X:06ECH         SYMBOL        lib_len
  X:06EDH         SYMBOL        u32_tmp
  X:06F1H         SYMBOL        buffer
  -------         ENDDO         
  C:5241H         LINE#         448
  C:5241H         LINE#         449
  C:5241H         LINE#         453
  C:524DH         LINE#         455
BL51 BANKED LINKER/LOCATER V6.22                                                      02/16/2019  15:29:57  PAGE 149


  C:5255H         LINE#         456
  C:525AH         LINE#         458
  C:5261H         LINE#         459
  C:5261H         LINE#         460
  C:5267H         LINE#         461
  C:5270H         LINE#         462
  C:5273H         LINE#         464
  C:5273H         LINE#         466
  C:5292H         LINE#         467
  C:5292H         LINE#         468
  C:5292H         LINE#         469
  C:52B4H         LINE#         470
  C:52C5H         LINE#         471
  C:52C8H         LINE#         473
  C:52C8H         LINE#         474
  C:52EAH         LINE#         475
  C:52FBH         LINE#         476
  C:52FBH         LINE#         477
  C:52FEH         LINE#         479
  C:52FEH         LINE#         480
  C:5320H         LINE#         481
  C:5331H         LINE#         482
  C:5331H         LINE#         483
  C:5334H         LINE#         485
  C:5334H         LINE#         486
  C:5356H         LINE#         487
  C:536DH         LINE#         488
  C:5383H         LINE#         489
  C:538AH         LINE#         490
  C:538AH         LINE#         491
  C:53A2H         LINE#         492
  C:53A2H         LINE#         493
  C:53A5H         LINE#         494
  C:53A9H         LINE#         495
  C:53A9H         LINE#         496
  C:53C6H         LINE#         497
  C:53C6H         LINE#         498
  C:53C9H         LINE#         499
  C:53D1H         LINE#         500
  C:53D1H         LINE#         501
  C:53E4H         LINE#         502
  C:53E7H         LINE#         503
  C:53EEH         LINE#         504
  C:53EEH         LINE#         505
  C:5402H         LINE#         506
  C:5404H         LINE#         508
  C:5404H         LINE#         509
  C:5410H         LINE#         510
  C:5410H         LINE#         511
  C:5413H         LINE#         512
  C:5413H         LINE#         513
  C:5435H         LINE#         514
  C:544CH         LINE#         515
  C:5462H         LINE#         516
  C:5469H         LINE#         517
  C:5469H         LINE#         518
  C:5486H         LINE#         519
BL51 BANKED LINKER/LOCATER V6.22                                                      02/16/2019  15:29:57  PAGE 150


  C:548DH         LINE#         520
  C:5490H         LINE#         521
  C:5494H         LINE#         522
  C:5494H         LINE#         523
  C:54ADH         LINE#         524
  C:54B4H         LINE#         525
  C:54B6H         LINE#         526
  C:54C0H         LINE#         527
  C:54C0H         LINE#         528
  C:54D4H         LINE#         529
  C:54D6H         LINE#         531
  C:54D6H         LINE#         532
  C:54E8H         LINE#         533
  C:54E8H         LINE#         534
  C:54EAH         LINE#         537
  C:54EAH         LINE#         538
  C:5510H         LINE#         539
  C:5510H         LINE#         540
  C:5510H         LINE#         548
  C:551AH         LINE#         549
  C:551AH         LINE#         550
  C:551AH         LINE#         551
  C:552BH         LINE#         552
  C:5539H         LINE#         553
  C:5540H         LINE#         554
  C:5542H         LINE#         555
  C:5542H         LINE#         556
  C:5553H         LINE#         557
  C:5561H         LINE#         558
  C:5561H         LINE#         559
  C:5561H         LINE#         560
  C:5561H         LINE#         561
  C:5561H         LINE#         564
  -------         ENDPROC       LINK_GET_DIS_OBIS_NUM_BUFF
  -------         PROC          LINK_GET_DIS_DATA_NUM_BUFF
  -------         DO            
  X:0007H         SYMBOL        buffer
  X:000BH         SYMBOL        temp
  X:0011H         SYMBOL        t
  X:001AH         SYMBOL        rtc_data_tmp
  -------         ENDDO         
  C:45EEH         LINE#         576
  C:45EEH         LINE#         577
  C:45EEH         LINE#         584
  C:45FCH         LINE#         585
  C:45FCH         LINE#         586
  C:4605H         LINE#         588
  C:4615H         LINE#         589
  C:4620H         LINE#         590
  C:4630H         LINE#         591
  C:463BH         LINE#         592
  C:464BH         LINE#         593
  C:4656H         LINE#         594
  C:465CH         LINE#         595
  C:4664H         LINE#         596
  C:4665H         LINE#         598
  C:4665H         LINE#         599
BL51 BANKED LINKER/LOCATER V6.22                                                      02/16/2019  15:29:57  PAGE 151


  C:466EH         LINE#         600
  C:466EH         LINE#         602
  C:4686H         LINE#         604
  C:4689H         LINE#         609
  C:469AH         LINE#         610
  C:46A8H         LINE#         611
  C:46B9H         LINE#         612
  C:46C7H         LINE#         613
  C:46D9H         LINE#         614
  C:46E1H         LINE#         615
  C:46E1H         LINE#         616
  C:46EFH         LINE#         617
  C:46EFH         LINE#         620
  C:46F8H         LINE#         621
  C:4701H         LINE#         622
  C:4701H         LINE#         623
  C:470CH         LINE#         624
  C:470CH         LINE#         627
  C:4725H         LINE#         628
  C:473CH         LINE#         635
  C:474AH         LINE#         636
  C:475BH         LINE#         637
  C:4769H         LINE#         638
  C:477AH         LINE#         639
  C:4788H         LINE#         642
  C:479AH         LINE#         647
  C:47A3H         LINE#         648
  C:47ACH         LINE#         649
  C:47ACH         LINE#         650
  C:47B7H         LINE#         651
  C:47B7H         LINE#         654
  C:47CFH         LINE#         655
  C:47E6H         LINE#         661
  C:47F4H         LINE#         662
  C:4805H         LINE#         663
  C:4813H         LINE#         664
  C:4824H         LINE#         665
  C:4832H         LINE#         668
  C:4844H         LINE#         673
  C:484DH         LINE#         674
  C:4856H         LINE#         675
  C:4856H         LINE#         676
  C:4861H         LINE#         677
  C:4861H         LINE#         680
  C:4879H         LINE#         681
  C:487CH         LINE#         686
  C:488DH         LINE#         687
  C:489BH         LINE#         688
  C:48ACH         LINE#         689
  C:48BAH         LINE#         690
  C:48CCH         LINE#         691
  C:48D4H         LINE#         692
  C:48D4H         LINE#         693
  C:48E2H         LINE#         694
  C:48E2H         LINE#         698
  C:48EBH         LINE#         699
  C:48F4H         LINE#         700
BL51 BANKED LINKER/LOCATER V6.22                                                      02/16/2019  15:29:57  PAGE 152


  C:48F4H         LINE#         701
  C:48FFH         LINE#         702
  C:48FFH         LINE#         705
  C:4918H         LINE#         706
  C:492FH         LINE#         712
  C:493DH         LINE#         713
  C:494EH         LINE#         714
  C:495CH         LINE#         715
  C:496DH         LINE#         716
  C:497BH         LINE#         719
  C:498DH         LINE#         724
  C:4996H         LINE#         725
  C:4998H         LINE#         726
  C:4998H         LINE#         727
  C:49A3H         LINE#         728
  C:49A3H         LINE#         731
  C:49BBH         LINE#         732
  C:49D2H         LINE#         738
  C:49E0H         LINE#         739
  C:49F1H         LINE#         740
  C:49FFH         LINE#         741
  C:4A10H         LINE#         742
  C:4A1EH         LINE#         745
  C:4A2FH         LINE#         750
  C:4A38H         LINE#         751
  C:4A41H         LINE#         752
  C:4A41H         LINE#         753
  C:4A41H         LINE#         754
  -------         ENDPROC       LINK_GET_DIS_DATA_NUM_BUFF
  -------         PROC          LINK_GET_DIS_CHAR_BUFF
  C:B765H         LINE#         763
  C:B765H         LINE#         764
  C:B765H         LINE#         769
  C:B76DH         LINE#         770
  C:B76DH         LINE#         771
  C:B77FH         LINE#         772
  C:B77FH         LINE#         773
  C:B77FH         LINE#         774
  C:B786H         LINE#         775
  C:B788H         LINE#         776
  C:B788H         LINE#         777
  C:B78FH         LINE#         778
  C:B791H         LINE#         779
  C:B791H         LINE#         780
  C:B798H         LINE#         781
  C:B79AH         LINE#         782
  C:B79AH         LINE#         783
  C:B7A1H         LINE#         784
  C:B7A1H         LINE#         785
  C:B7A1H         LINE#         786
  C:B7A1H         LINE#         787
  C:B7A8H         LINE#         788
  C:B7A8H         LINE#         789
  C:B7AFH         LINE#         790
  C:B7B2H         LINE#         791
  C:B7B4H         LINE#         793
  C:B7B4H         LINE#         794
BL51 BANKED LINKER/LOCATER V6.22                                                      02/16/2019  15:29:57  PAGE 153


  C:B7BDH         LINE#         795
  C:B7BDH         LINE#         796
  C:B7C5H         LINE#         797
  C:B7C5H         LINE#         798
  C:B7CCH         LINE#         799
  C:B7CCH         LINE#         800
  C:B7D3H         LINE#         801
  C:B7D5H         LINE#         803
  C:B7D5H         LINE#         808
  C:B7DCH         LINE#         809
  C:B7E1H         LINE#         810
  C:B7E6H         LINE#         811
  C:B7E6H         LINE#         812
  C:B7E6H         LINE#         813
  C:B7EEH         LINE#         814
  C:B7EEH         LINE#         816
  C:B7EEH         LINE#         817
  C:B7F6H         LINE#         818
  C:B7F6H         LINE#         820
  C:B7F6H         LINE#         824
  C:B80BH         LINE#         825
  C:B80BH         LINE#         826
  C:B80BH         LINE#         827
  C:B812H         LINE#         828
  C:B813H         LINE#         829
  C:B813H         LINE#         830
  C:B81AH         LINE#         831
  C:B81BH         LINE#         832
  C:B81BH         LINE#         833
  C:B822H         LINE#         834
  C:B823H         LINE#         835
  C:B823H         LINE#         836
  C:B82AH         LINE#         837
  C:B82AH         LINE#         838
  C:B82AH         LINE#         839
  C:B82AH         LINE#         840
  C:B82AH         LINE#         843
  -------         ENDPROC       LINK_GET_DIS_CHAR_BUFF
  -------         PROC          LINK_GET_DIS_REALCHAR_BUFF
  C:ECBBH         LINE#         853
  C:ECBBH         LINE#         854
  C:ECBBH         LINE#         856
  C:ECC9H         LINE#         857
  C:ECD3H         LINE#         858
  C:ECD3H         LINE#         859
  C:ECD7H         LINE#         860
  C:ECD8H         LINE#         862
  C:ECD8H         LINE#         863
  C:ECDCH         LINE#         864
  C:ECDCH         LINE#         865
  -------         ENDPROC       LINK_GET_DIS_REALCHAR_BUFF
  -------         PROC          LINK_GET_DIS_DRV_BUFF
  C:6B0EH         LINE#         876
  C:6B0EH         LINE#         877
  C:6B0EH         LINE#         878
  C:6B20H         LINE#         879
  C:6B30H         LINE#         880
BL51 BANKED LINKER/LOCATER V6.22                                                      02/16/2019  15:29:57  PAGE 154


  C:6B40H         LINE#         881
  C:6B50H         LINE#         882
  C:6B60H         LINE#         883
  C:6B70H         LINE#         885
  C:6B80H         LINE#         886
  C:6B90H         LINE#         887
  C:6BA0H         LINE#         891
  C:6BB3H         LINE#         892
  C:6BC1H         LINE#         893
  C:6BD6H         LINE#         894
  C:6BE4H         LINE#         895
  C:6BF2H         LINE#         896
  C:6C00H         LINE#         897
  C:6C0EH         LINE#         899
  C:6C1FH         LINE#         900
  C:6C2DH         LINE#         901
  C:6C3BH         LINE#         902
  C:6C49H         LINE#         903
  C:6C57H         LINE#         904
  C:6C65H         LINE#         906
  C:6C73H         LINE#         907
  C:6C81H         LINE#         909
  C:6C8FH         LINE#         910
  C:6C96H         LINE#         911
  C:6C96H         LINE#         912
  C:6C9DH         LINE#         913
  C:6CA0H         LINE#         914
  C:6CA5H         LINE#         915
  C:6CA8H         LINE#         916
  C:6CA8H         LINE#         917
  C:6CB9H         LINE#         918
  C:6CC0H         LINE#         919
  C:6CC0H         LINE#         920
  C:6CC7H         LINE#         921
  C:6CCEH         LINE#         922
  C:6CD1H         LINE#         923
  C:6CD1H         LINE#         924
  C:6CDFH         LINE#         925
  C:6CEDH         LINE#         926
  C:6CFBH         LINE#         927
  C:6D09H         LINE#         929
  -------         ENDPROC       LINK_GET_DIS_DRV_BUFF
  -------         PROC          L?0184
  -------         ENDPROC       L?0184
  -------         PROC          _API_GET_ENERGY_LCD
  X:00E8H         SYMBOL        temp
  X:00EBH         SYMBOL        type
  X:00ECH         SYMBOL        result
  -------         DO            
  X:00EFH         SYMBOL        u32_result
  X:00F3H         SYMBOL        BCD_temp
  X:00F7H         SYMBOL        ec_tmp
  -------         ENDDO         
  C:4E73H         LINE#         944
  C:4E81H         LINE#         945
  C:4E81H         LINE#         951
  C:4EA6H         LINE#         953
BL51 BANKED LINKER/LOCATER V6.22                                                      02/16/2019  15:29:57  PAGE 155


  C:4EB0H         LINE#         955
  C:4EB7H         LINE#         956
  C:4EB7H         LINE#         957
  C:4EF5H         LINE#         958
  C:4F0CH         LINE#         959
  C:4F0CH         LINE#         961
  C:4F17H         LINE#         962
  C:4F17H         LINE#         964
  C:4F54H         LINE#         965
  C:4F6BH         LINE#         966
  C:4F73H         LINE#         967
  C:4F7BH         LINE#         968
  C:4F83H         LINE#         971
  C:4F9AH         LINE#         972
  C:4FA9H         LINE#         974
  C:4FA9H         LINE#         975
  C:4FB0H         LINE#         976
  C:4FB0H         LINE#         977
  C:4FEEH         LINE#         978
  C:5005H         LINE#         979
  C:5005H         LINE#         981
  C:5010H         LINE#         982
  C:5010H         LINE#         984
  C:504DH         LINE#         985
  C:5064H         LINE#         986
  C:506CH         LINE#         987
  C:5074H         LINE#         988
  C:507CH         LINE#         991
  C:5093H         LINE#         992
  C:50A2H         LINE#         994
  C:50A2H         LINE#         995
  C:50ADH         LINE#         996
  C:50ADH         LINE#         998
  C:50EAH         LINE#         999
  C:5101H         LINE#         1000
  C:5106H         LINE#         1001
  C:511CH         LINE#         1002
  C:5132H         LINE#         1003
  C:5145H         LINE#         1006
  C:515CH         LINE#         1007
  C:517BH         LINE#         1008
  C:517BH         LINE#         1009
  C:5186H         LINE#         1010
  C:5186H         LINE#         1012
  C:51C3H         LINE#         1013
  C:51DAH         LINE#         1014
  C:51DFH         LINE#         1015
  C:51F5H         LINE#         1016
  C:520BH         LINE#         1017
  C:521EH         LINE#         1018
  C:521EH         LINE#         1020
  -------         ENDPROC       _API_GET_ENERGY_LCD
  -------         PROC          _API_CHG_LCDDISPLAY_ADJ_ITEM
  D:0007H         SYMBOL        u8_item
  C:03AEH         LINE#         1037
  C:03AEH         LINE#         1038
  C:03AEH         LINE#         1039
BL51 BANKED LINKER/LOCATER V6.22                                                      02/16/2019  15:29:57  PAGE 156


  C:03BAH         LINE#         1040
  C:03BAH         LINE#         1042
  C:03C0H         LINE#         1043
  C:03C7H         LINE#         1044
  C:03C7H         LINE#         1045
  C:03CAH         LINE#         1046
  C:03CCH         LINE#         1048
  C:03CCH         LINE#         1049
  C:03CFH         LINE#         1050
  C:03CFH         LINE#         1052
  C:03D4H         LINE#         1053
  C:03D9H         LINE#         1054
  C:03DBH         LINE#         1056
  C:03DBH         LINE#         1058
  C:03E1H         LINE#         1059
  C:03E9H         LINE#         1060
  C:03EEH         LINE#         1061
  C:03FDH         LINE#         1062
  C:03FDH         LINE#         1064
  -------         ENDPROC       _API_CHG_LCDDISPLAY_ADJ_ITEM
  -------         PROC          _API_LCDDISPLAY_ADJ_ITEM
  X:0007H         SYMBOL        u8_item
  -------         DO            
  X:0008H         SYMBOL        adr
  -------         ENDDO         
  C:8F4EH         LINE#         1079
  C:8F53H         LINE#         1080
  C:8F53H         LINE#         1082
  C:8F60H         LINE#         1083
  C:8F60H         LINE#         1085
  C:8F60H         LINE#         1087
  C:8F74H         LINE#         1088
  C:8F88H         LINE#         1089
  C:8F9CH         LINE#         1092
  C:8FB3H         LINE#         1093
  C:8FB3H         LINE#         1094
  C:8FB3H         LINE#         1095
  C:8FB3H         LINE#         1096
  C:8FB3H         LINE#         1097
  C:8FB3H         LINE#         1098
  C:8FBCH         LINE#         1099
  C:8FC0H         LINE#         1100
  C:8FC9H         LINE#         1101
  C:8FCDH         LINE#         1102
  C:8FD3H         LINE#         1103
  C:8FD5H         LINE#         1105
  C:8FD5H         LINE#         1106
  C:8FD5H         LINE#         1107
  C:8FD5H         LINE#         1108
  C:8FD5H         LINE#         1109
  C:8FDEH         LINE#         1110
  C:8FE2H         LINE#         1111
  C:8FEBH         LINE#         1112
  C:8FEFH         LINE#         1113
  C:8FFDH         LINE#         1114
  C:8FFEH         LINE#         1116
  C:8FFEH         LINE#         1117
BL51 BANKED LINKER/LOCATER V6.22                                                      02/16/2019  15:29:57  PAGE 157


  C:9007H         LINE#         1118
  C:900BH         LINE#         1119
  C:900FH         LINE#         1120
  C:9010H         LINE#         1122
  C:9010H         LINE#         1123
  C:902AH         LINE#         1124
  C:9038H         LINE#         1125
  C:904AH         LINE#         1126
  C:9055H         LINE#         1127
  C:9067H         LINE#         1128
  C:9072H         LINE#         1129
  C:9084H         LINE#         1130
  C:908FH         LINE#         1131
  C:90A1H         LINE#         1132
  C:90ACH         LINE#         1133
  C:90ADH         LINE#         1134
  C:90ADH         LINE#         1135
  C:90B0H         LINE#         1136
  C:90B0H         LINE#         1137
  C:90B0H         LINE#         1139
  -------         ENDPROC       _API_LCDDISPLAY_ADJ_ITEM
  -------         ENDMOD        API_LCD_DISPLAY

  -------         MODULE        API_USER_COMM
  C:0000H         SYMBOL        _ICE_DUMMY_
  C:0600H         PUBLIC        _IEC_Cmd_Read_Deal
  C:9FF3H         PUBLIC        _api_handl_COMM_pre_10ms
  D:00CEH         PUBLIC        wdt0
  D:0090H         PUBLIC        P1
  D:00CFH         PUBLIC        wdt1
  D:00B0H         PUBLIC        P3
  B:00A8H.7       PUBLIC        EA
  X:04C7H         PUBLIC        P_IEC_BUFF
  C:25FFH         PUBLIC        IEC_ComDisTab
  D:00A8H         PUBLIC        IE
  C:1D1DH         PUBLIC        _IEC_Cmd_Write_Deal
  D:00B8H         PUBLIC        IP
  C:B0DDH         PUBLIC        _lnk_tx_comm_ready
  C:E4E3H         PUBLIC        RF_comm_deal
  X:04CAH         PUBLIC        g_ch_comm
  X:04CBH         PUBLIC        meter_info_IR
  X:04DBH         PUBLIC        comm_data
  X:04E7H         PUBLIC        Super_mima_iec
  C:8840H         PUBLIC        _get_IEC_comm_var
  X:04EFH         PUBLIC        meter_info
  D:0098H         PUBLIC        SCON
  X:04FFH         PUBLIC        mima_info
  D:0088H         PUBLIC        TCON
  X:0509H         PUBLIC        clr_flag
  D:00F0H         PUBLIC        B
  D:00E0H         PUBLIC        ACC
  C:E5DEH         PUBLIC        _get_meter_id_asclen
  D:0080H         PUBLIC        SysCtrl
  C:A8C4H         PUBLIC        _IEC_Cmd_Password_Deal
  X:050AH         PUBLIC        gs_uart_iec_app_var
  C:4196H         PUBLIC        _process_iec62056_21
  D:00C8H         PUBLIC        T2CON
BL51 BANKED LINKER/LOCATER V6.22                                                      02/16/2019  15:29:57  PAGE 158


  C:EA3AH         PUBLIC        _IEC_Cmd_Break_Deal
  C:EFB3H         PUBLIC        SecurityCK
  C:D8F1H         PUBLIC        _api_handl_COMM_FRAME_ERROR
  D:00D0H         PUBLIC        PSW
  -------         PROC          _GET_METER_ID_ASCLEN
  X:00E8H         SYMBOL        Addr
  D:0005H         SYMBOL        numbyte
  -------         DO            
  D:0006H         SYMBOL        i
  D:0007H         SYMBOL        asclen
  -------         ENDDO         
  C:E5DEH         LINE#         323
  C:E5E9H         LINE#         324
  C:E5E9H         LINE#         326
  C:E5EBH         LINE#         327
  C:E5F1H         LINE#         328
  C:E5F1H         LINE#         329
  C:E60CH         LINE#         330
  C:E60CH         LINE#         331
  C:E60DH         LINE#         332
  C:E60DH         LINE#         333
  C:E60EH         LINE#         334
  C:E615H         LINE#         335
  C:E615H         LINE#         336
  C:E616H         LINE#         337
  C:E616H         LINE#         338
  C:E617H         LINE#         339
  C:E61AH         LINE#         340
  C:E61AH         LINE#         341
  -------         ENDPROC       _GET_METER_ID_ASCLEN
  -------         PROC          L?0232
  -------         ENDPROC       L?0232
  -------         PROC          _GET_IEC_COMM_VAR
  X:00E8H         SYMBOL        id
  -------         DO            
  X:00ECH         SYMBOL        i
  -------         ENDDO         
  C:8840H         LINE#         352
  C:8846H         LINE#         353
  C:8846H         LINE#         356
  C:8879H         LINE#         357
  C:8879H         LINE#         358
  C:8879H         LINE#         359
  C:8879H         LINE#         360
  C:8879H         LINE#         361
  C:8879H         LINE#         362
  C:887BH         LINE#         363
  C:887BH         LINE#         364
  C:88AEH         LINE#         365
  C:88AEH         LINE#         366
  C:88B7H         LINE#         367
  C:88C0H         LINE#         368
  C:88C4H         LINE#         369
  C:88C5H         LINE#         370
  C:88C8H         LINE#         371
  C:88C8H         LINE#         372
  C:88E2H         LINE#         373
BL51 BANKED LINKER/LOCATER V6.22                                                      02/16/2019  15:29:57  PAGE 159


  C:88E2H         LINE#         374
  C:890FH         LINE#         375
  C:890FH         LINE#         376
  C:893EH         LINE#         377
  C:895FH         LINE#         378
  C:897DH         LINE#         379
  C:8996H         LINE#         380
  C:8999H         LINE#         381
  C:8999H         LINE#         382
  C:89AAH         LINE#         383
  C:89ACH         LINE#         496
  -------         ENDPROC       _GET_IEC_COMM_VAR
  -------         PROC          SECURITYCK
  -------         DO            
  X:0095H         SYMBOL        secType
  -------         ENDDO         
  C:EFB3H         LINE#         506
  C:EFB3H         LINE#         507
  C:EFB3H         LINE#         509
  C:EFBDH         LINE#         519
  C:EFBFH         LINE#         520
  -------         ENDPROC       SECURITYCK
  -------         PROC          _IEC_CMD_PASSWORD_DEAL
  X:0045H         SYMBOL        sptr
  -------         DO            
  X:0048H         SYMBOL        tmp_8u_01
  X:004CH         SYMBOL        tmp_8u_02
  -------         ENDDO         
  C:A8C4H         LINE#         529
  C:A8CFH         LINE#         530
  C:A8CFH         LINE#         534
  C:A8EAH         LINE#         536
  C:A904H         LINE#         537
  C:A91FH         LINE#         540
  C:A947H         LINE#         541
  C:A947H         LINE#         542
  C:A947H         LINE#         543
  C:A947H         LINE#         544
  C:A947H         LINE#         545
  C:A949H         LINE#         546
  C:A949H         LINE#         548
  C:A949H         LINE#         549
  C:A971H         LINE#         550
  C:A971H         LINE#         551
  C:A986H         LINE#         552
  C:A994H         LINE#         553
  C:A9A8H         LINE#         554
  C:A9AAH         LINE#         555
  C:A9AAH         LINE#         556
  C:A9AAH         LINE#         557
  C:A9B1H         LINE#         558
  C:A9B3H         LINE#         559
  -------         ENDPROC       _IEC_CMD_PASSWORD_DEAL
  -------         PROC          _IEC_CMD_READ_DEAL
  X:0045H         SYMBOL        sptr
  -------         DO            
  X:0048H         SYMBOL        i
BL51 BANKED LINKER/LOCATER V6.22                                                      02/16/2019  15:29:57  PAGE 160


  D:0007H         SYMBOL        j
  X:0049H         SYMBOL        mem_type
  X:004AH         SYMBOL        data_buff
  X:00CAH         SYMBOL        ptr_adr
  D:0006H         SYMBOL        ctmp1
  X:00CDH         SYMBOL        long_tmp
  X:00D1H         SYMBOL        LPRecStart
  X:00D3H         SYMBOL        LPRecEnd
  X:00D5H         SYMBOL        t
  X:00DFH         SYMBOL        te
  -------         ENDDO         
  C:0600H         LINE#         569
  C:060BH         LINE#         570
  C:060BH         LINE#         581
  C:0626H         LINE#         583
  C:064EH         LINE#         586
  C:0656H         LINE#         587
  C:0660H         LINE#         589
  C:066DH         LINE#         591
  C:068FH         LINE#         593
  C:06A4H         LINE#         597
  C:06DDH         LINE#         598
  C:06DDH         LINE#         599
  C:06EDH         LINE#         600
  C:06FAH         LINE#         601
  C:06FAH         LINE#         602
  C:0716H         LINE#         603
  C:071AH         LINE#         604
  C:071CH         LINE#         606
  C:071CH         LINE#         610
  C:0721H         LINE#         611
  C:0721H         LINE#         616
  C:073BH         LINE#         617
  C:074BH         LINE#         618
  C:075EH         LINE#         619
  C:0783H         LINE#         620
  C:07B2H         LINE#         621
  C:07C0H         LINE#         623
  C:07C3H         LINE#         624
  C:07C3H         LINE#         627
  C:07FCH         LINE#         628
  C:07FCH         LINE#         629
  C:0829H         LINE#         630
  C:083DH         LINE#         632
  C:0843H         LINE#         633
  C:0843H         LINE#         634
  C:0852H         LINE#         635
  C:0861H         LINE#         636
  C:0861H         LINE#         638
  C:0890H         LINE#         641
  C:0898H         LINE#         643
  C:08B2H         LINE#         644
  C:08C0H         LINE#         645
  C:08D0H         LINE#         646
  C:08F1H         LINE#         647
  C:0908H         LINE#         648
  C:0945H         LINE#         649
BL51 BANKED LINKER/LOCATER V6.22                                                      02/16/2019  15:29:57  PAGE 161


  C:0997H         LINE#         650
  C:09A5H         LINE#         651
  C:09A8H         LINE#         653
  C:09A8H         LINE#         656
  C:0A2FH         LINE#         657
  C:0A2FH         LINE#         658
  C:0A2FH         LINE#         659
  C:0A2FH         LINE#         660
  C:0A46H         LINE#         661
  C:0A53H         LINE#         662
  C:0A53H         LINE#         663
  C:0A55H         LINE#         665
  C:0A55H         LINE#         666
  C:0A55H         LINE#         667
  C:0A5EH         LINE#         668
  C:0A5EH         LINE#         669
  C:0A5EH         LINE#         670
  C:0A60H         LINE#         672
  C:0A60H         LINE#         673
  C:0A69H         LINE#         674
  C:0A69H         LINE#         675
  C:0A69H         LINE#         676
  C:0A6BH         LINE#         678
  C:0A6BH         LINE#         679
  C:0A6BH         LINE#         680
  C:0A74H         LINE#         681
  C:0A74H         LINE#         682
  C:0A74H         LINE#         683
  C:0A76H         LINE#         685
  C:0A76H         LINE#         686
  C:0A8DH         LINE#         687
  C:0AA1H         LINE#         688
  C:0AA1H         LINE#         689
  C:0AA3H         LINE#         691
  C:0AA3H         LINE#         692
  C:0AA3H         LINE#         693
  C:0AB4H         LINE#         694
  C:0AC8H         LINE#         695
  C:0AC8H         LINE#         696
  C:0ACAH         LINE#         698
  C:0ACAH         LINE#         699
  C:0ADBH         LINE#         700
  C:0AF9H         LINE#         701
  C:0AF9H         LINE#         702
  C:0AFBH         LINE#         704
  C:0AFBH         LINE#         705
  C:0B26H         LINE#         706
  C:0B2EH         LINE#         707
  C:0B36H         LINE#         708
  C:0B3EH         LINE#         709
  C:0B46H         LINE#         710
  C:0B4EH         LINE#         711
  C:0B51H         LINE#         712
  C:0B54H         LINE#         713
  C:0B57H         LINE#         714
  C:0B7CH         LINE#         715
  C:0B7FH         LINE#         717
BL51 BANKED LINKER/LOCATER V6.22                                                      02/16/2019  15:29:57  PAGE 162


  C:0B7FH         LINE#         718
  C:0BA6H         LINE#         719
  C:0BB6H         LINE#         720
  C:0BBEH         LINE#         721
  C:0BDEH         LINE#         722
  C:0BE1H         LINE#         724
  C:0BE1H         LINE#         725
  C:0C1EH         LINE#         726
  C:0C21H         LINE#         728
  C:0C21H         LINE#         730
  C:0C3AH         LINE#         731
  C:0C53H         LINE#         732
  C:0C78H         LINE#         734
  C:0C90H         LINE#         735
  C:0CB5H         LINE#         736
  C:0CD3H         LINE#         737
  C:0CF4H         LINE#         738
  C:0CF7H         LINE#         740
  C:0CF7H         LINE#         741
  C:0CF7H         LINE#         742
  C:0CF7H         LINE#         743
  C:0CF7H         LINE#         744
  C:0CFFH         LINE#         745
  C:0D23H         LINE#         746
  C:0D3CH         LINE#         747
  C:0D61H         LINE#         749
  C:0D89H         LINE#         750
  C:0DA6H         LINE#         751
  C:0DC4H         LINE#         752
  C:0DF4H         LINE#         753
  C:0E22H         LINE#         754
  C:0E3EH         LINE#         755
  C:0E40H         LINE#         756
  C:0E40H         LINE#         757
  C:0E51H         LINE#         758
  C:0E51H         LINE#         759
  C:0E68H         LINE#         760
  C:0E68H         LINE#         761
  C:0E6DH         LINE#         762
  C:0E92H         LINE#         765
  C:0EBAH         LINE#         766
  C:0ED7H         LINE#         767
  C:0EF5H         LINE#         768
  C:0F25H         LINE#         769
  C:0F53H         LINE#         770
  C:0F6FH         LINE#         771
  C:0F71H         LINE#         772
  C:0F71H         LINE#         773
  C:0F82H         LINE#         774
  C:0F82H         LINE#         775
  C:0F99H         LINE#         776
  C:0F99H         LINE#         777
  C:0F9EH         LINE#         778
  C:0FC3H         LINE#         780
  C:0FCBH         LINE#         781
  C:0FD3H         LINE#         782
  C:0FDBH         LINE#         783
BL51 BANKED LINKER/LOCATER V6.22                                                      02/16/2019  15:29:57  PAGE 163


  C:0FE3H         LINE#         784
  C:0FEBH         LINE#         785
  C:1010H         LINE#         786
  C:1019H         LINE#         787
  C:1019H         LINE#         788
  C:1026H         LINE#         789
  C:1026H         LINE#         790
  C:1050H         LINE#         791
  C:1053H         LINE#         793
  C:1053H         LINE#         795
  C:1059H         LINE#         796
  C:1059H         LINE#         797
  C:105FH         LINE#         798
  C:105FH         LINE#         801
  C:1069H         LINE#         802
  C:1069H         LINE#         803
  C:1096H         LINE#         804
  C:1099H         LINE#         805
  C:10A3H         LINE#         806
  C:10A3H         LINE#         807
  C:10CCH         LINE#         808
  C:10F7H         LINE#         809
  C:10F9H         LINE#         812
  C:10F9H         LINE#         813
  C:1100H         LINE#         814
  C:1100H         LINE#         815
  C:112BH         LINE#         816
  C:112DH         LINE#         818
  C:112DH         LINE#         819
  C:1154H         LINE#         820
  C:1154H         LINE#         821
  C:1154H         LINE#         823
  C:115AH         LINE#         824
  C:115AH         LINE#         825
  C:1177H         LINE#         826
  C:1190H         LINE#         827
  C:1196H         LINE#         828
  C:1196H         LINE#         832
  C:119DH         LINE#         833
  C:119DH         LINE#         834
  C:11BBH         LINE#         835
  C:11D2H         LINE#         836
  C:11D2H         LINE#         843
  C:11DAH         LINE#         844
  C:11DAH         LINE#         845
  C:11F6H         LINE#         846
  C:120EH         LINE#         847
  C:1210H         LINE#         849
  C:1210H         LINE#         850
  C:1239H         LINE#         851
  C:1239H         LINE#         852
  C:1239H         LINE#         853
  C:1239H         LINE#         856
  C:1253H         LINE#         857
  C:1263H         LINE#         858
  C:1276H         LINE#         859
  C:128DH         LINE#         860
BL51 BANKED LINKER/LOCATER V6.22                                                      02/16/2019  15:29:57  PAGE 164


  C:12BCH         LINE#         861
  C:130EH         LINE#         863
  C:1310H         LINE#         864
  -------         ENDPROC       _IEC_CMD_READ_DEAL
  -------         PROC          _IEC_CMD_WRITE_DEAL
  X:0045H         SYMBOL        sptr
  X:0048H         SYMBOL        len
  -------         DO            
  X:0049H         SYMBOL        mem_type
  X:004AH         SYMBOL        data_buff
  D:0007H         SYMBOL        sectemp
  X:0090H         SYMBOL        i
  X:0091H         SYMBOL        MeterID_LenTmp
  X:0092H         SYMBOL        ptr_adr
  -------         ENDDO         
  C:1D1DH         LINE#         874
  C:1D2BH         LINE#         875
  C:1D2BH         LINE#         883
  C:1D46H         LINE#         885
  C:1D6EH         LINE#         887
  C:1D76H         LINE#         889
  C:1D80H         LINE#         891
  C:1D8EH         LINE#         892
  C:1D91H         LINE#         893
  C:1D98H         LINE#         896
  C:1DB0H         LINE#         897
  C:1DCCH         LINE#         898
  C:1DCCH         LINE#         899
  C:1DECH         LINE#         900
  C:1DEFH         LINE#         901
  C:1DEFH         LINE#         903
  C:1DEFH         LINE#         904
  C:1E03H         LINE#         905
  C:1E06H         LINE#         906
  C:1E06H         LINE#         908
  C:1E1BH         LINE#         911
  C:1EA2H         LINE#         912
  C:1EA2H         LINE#         914
  C:1EA2H         LINE#         915
  C:1ECEH         LINE#         916
  C:1ED6H         LINE#         917
  C:1EDEH         LINE#         918
  C:1EE6H         LINE#         919
  C:1EEEH         LINE#         920
  C:1EF6H         LINE#         921
  C:1EFEH         LINE#         922
  C:1F06H         LINE#         923
  C:1F08H         LINE#         924
  C:1F11H         LINE#         925
  C:1F13H         LINE#         926
  C:1F2DH         LINE#         927
  C:1F34H         LINE#         928
  C:1F37H         LINE#         930
  C:1F3AH         LINE#         932
  C:1F3DH         LINE#         936
  C:1F3DH         LINE#         937
  C:1F48H         LINE#         938
BL51 BANKED LINKER/LOCATER V6.22                                                      02/16/2019  15:29:57  PAGE 165


  C:1F4BH         LINE#         939
  C:1F4BH         LINE#         940
  C:1F59H         LINE#         941
  C:1F59H         LINE#         942
  C:1F89H         LINE#         943
  C:1F91H         LINE#         944
  C:1FA4H         LINE#         945
  C:1FAEH         LINE#         946
  C:1FAEH         LINE#         947
  C:1FB6H         LINE#         948
  C:1FCAH         LINE#         949
  C:1FF6H         LINE#         950
  C:1FF6H         LINE#         951
  C:1FF9H         LINE#         954
  C:1FF9H         LINE#         955
  C:2025H         LINE#         956
  C:203BH         LINE#         957
  C:203BH         LINE#         958
  C:203EH         LINE#         959
  C:203EH         LINE#         960
  C:203EH         LINE#         961
  C:2041H         LINE#         970
  C:2041H         LINE#         971
  C:206DH         LINE#         972
  C:208AH         LINE#         973
  C:208AH         LINE#         974
  C:208DH         LINE#         975
  C:208DH         LINE#         976
  C:20B4H         LINE#         977
  C:20B7H         LINE#         978
  C:20BAH         LINE#         982
  C:20BAH         LINE#         983
  C:20BAH         LINE#         984
  C:20BAH         LINE#         985
  C:20BAH         LINE#         986
  C:20BAH         LINE#         987
  C:20BAH         LINE#         988
  C:20C8H         LINE#         989
  C:20CBH         LINE#         991
  C:20CBH         LINE#         992
  C:20F7H         LINE#         993
  C:20F7H         LINE#         994
  C:2101H         LINE#         995
  C:2101H         LINE#         998
  C:210BH         LINE#         1005
  C:2119H         LINE#         1006
  C:2119H         LINE#         1007
  C:211DH         LINE#         1008
  C:211DH         LINE#         1009
  C:2127H         LINE#         1010
  C:2131H         LINE#         1011
  C:213BH         LINE#         1012
  C:2145H         LINE#         1013
  C:214FH         LINE#         1014
  C:215DH         LINE#         1015
  C:215DH         LINE#         1016
  C:2160H         LINE#         1017
BL51 BANKED LINKER/LOCATER V6.22                                                      02/16/2019  15:29:57  PAGE 166


  C:2160H         LINE#         1018
  C:2163H         LINE#         1020
  C:2163H         LINE#         1021
  C:2166H         LINE#         1022
  C:2166H         LINE#         1023
  C:2166H         LINE#         1025
  C:2166H         LINE#         1026
  C:2197H         LINE#         1027
  C:2197H         LINE#         1029
  C:219DH         LINE#         1030
  C:21B5H         LINE#         1031
  C:21B5H         LINE#         1032
  C:21B7H         LINE#         1033
  C:21E8H         LINE#         1034
  C:21E8H         LINE#         1036
  C:21EDH         LINE#         1037
  C:2204H         LINE#         1038
  C:2207H         LINE#         1039
  C:220AH         LINE#         1041
  C:220AH         LINE#         1042
  C:220DH         LINE#         1043
  C:220DH         LINE#         1044
  C:220DH         LINE#         1046
  C:220DH         LINE#         1047
  C:222AH         LINE#         1048
  C:222AH         LINE#         1049
  C:222DH         LINE#         1050
  C:222DH         LINE#         1051
  C:222FH         LINE#         1053
  C:222FH         LINE#         1054
  C:2232H         LINE#         1055
  C:2232H         LINE#         1056
  C:2232H         LINE#         1058
  C:2232H         LINE#         1059
  C:225EH         LINE#         1060
  C:2267H         LINE#         1061
  C:226AH         LINE#         1062
  C:2271H         LINE#         1063
  C:2271H         LINE#         1064
  C:2273H         LINE#         1066
  C:2273H         LINE#         1069
  C:2290H         LINE#         1070
  C:2290H         LINE#         1071
  C:2293H         LINE#         1072
  C:22A1H         LINE#         1073
  C:22A4H         LINE#         1075
  C:22A4H         LINE#         1076
  C:22A7H         LINE#         1077
  C:22A7H         LINE#         1078
  C:22A7H         LINE#         1081
  C:22A7H         LINE#         1082
  C:22D3H         LINE#         1083
  C:22E8H         LINE#         1084
  C:22F6H         LINE#         1085
  C:22FCH         LINE#         1086
  C:22FFH         LINE#         1088
  C:22FFH         LINE#         1089
BL51 BANKED LINKER/LOCATER V6.22                                                      02/16/2019  15:29:57  PAGE 167


  C:232BH         LINE#         1090
  C:2333H         LINE#         1091
  C:2336H         LINE#         1092
  C:2339H         LINE#         1094
  C:2339H         LINE#         1095
  C:2365H         LINE#         1096
  C:2373H         LINE#         1097
  C:239AH         LINE#         1098
  C:23A8H         LINE#         1099
  C:23A8H         LINE#         1100
  C:23A8H         LINE#         1101
  C:23A9H         LINE#         1102
  C:23ABH         LINE#         1103
  C:23ABH         LINE#         1104
  C:23ABH         LINE#         1107
  C:23ABH         LINE#         1108
  C:23DBH         LINE#         1109
  C:23DBH         LINE#         1110
  C:23E0H         LINE#         1112
  C:23E3H         LINE#         1114
  C:23E3H         LINE#         1115
  C:23E3H         LINE#         1116
  C:23E4H         LINE#         1117
  C:23E6H         LINE#         1118
  C:23E6H         LINE#         1119
  C:23E6H         LINE#         1120
  C:2416H         LINE#         1121
  C:2416H         LINE#         1122
  C:241BH         LINE#         1123
  C:241BH         LINE#         1124
  C:241BH         LINE#         1125
  C:241CH         LINE#         1126
  C:241EH         LINE#         1127
  C:241EH         LINE#         1128
  C:241EH         LINE#         1130
  C:241EH         LINE#         1131
  C:2421H         LINE#         1132
  C:2421H         LINE#         1133
  C:2421H         LINE#         1135
  C:2421H         LINE#         1136
  C:244DH         LINE#         1138
  C:2457H         LINE#         1139
  C:2457H         LINE#         1140
  C:247BH         LINE#         1141
  C:247DH         LINE#         1143
  C:247DH         LINE#         1144
  C:24A1H         LINE#         1145
  C:24A1H         LINE#         1147
  C:24A1H         LINE#         1149
  C:24A1H         LINE#         1153
  C:2506H         LINE#         1155
  C:2506H         LINE#         1157
  C:2509H         LINE#         1158
  C:2509H         LINE#         1162
  C:2525H         LINE#         1163
  C:2525H         LINE#         1164
  C:253CH         LINE#         1165
BL51 BANKED LINKER/LOCATER V6.22                                                      02/16/2019  15:29:57  PAGE 168


  C:253CH         LINE#         1167
  C:2558H         LINE#         1168
  C:2558H         LINE#         1169
  C:256FH         LINE#         1170
  C:256FH         LINE#         1172
  C:25B9H         LINE#         1173
  C:25B9H         LINE#         1174
  C:25D3H         LINE#         1175
  C:25D3H         LINE#         1177
  C:25DAH         LINE#         1178
  C:25EEH         LINE#         1179
  C:25FCH         LINE#         1180
  C:25FEH         LINE#         1181
  -------         ENDPROC       _IEC_CMD_WRITE_DEAL
  -------         PROC          _IEC_CMD_BREAK_DEAL
  D:0001H         SYMBOL        sptr
  C:EA3AH         LINE#         1191
  C:EA3AH         LINE#         1192
  C:EA3AH         LINE#         1194
  C:EA50H         LINE#         1195
  C:EA61H         LINE#         1196
  C:EA64H         LINE#         1197
  C:EA66H         LINE#         1198
  -------         ENDPROC       _IEC_CMD_BREAK_DEAL
  -------         PROC          _LNK_TX_COMM_READY
  X:0002H         SYMBOL        ch
  X:0003H         SYMBOL        start_index
  -------         DO            
  X:0004H         SYMBOL        u16_badu
  -------         ENDDO         
  C:B0DDH         LINE#         1212
  C:B0E7H         LINE#         1213
  C:B0E7H         LINE#         1216
  C:B107H         LINE#         1217
  C:B107H         LINE#         1218
  C:B107H         LINE#         1219
  C:B107H         LINE#         1220
  C:B109H         LINE#         1221
  C:B109H         LINE#         1222
  C:B113H         LINE#         1223
  C:B115H         LINE#         1224
  C:B115H         LINE#         1225
  C:B11FH         LINE#         1226
  C:B121H         LINE#         1227
  C:B121H         LINE#         1228
  C:B12BH         LINE#         1229
  C:B12DH         LINE#         1230
  C:B12DH         LINE#         1231
  C:B137H         LINE#         1232
  C:B139H         LINE#         1233
  C:B139H         LINE#         1234
  C:B143H         LINE#         1235
  C:B145H         LINE#         1237
  C:B14FH         LINE#         1239
  C:B14FH         LINE#         1240
  C:B14FH         LINE#         1242
  C:B171H         LINE#         1244
BL51 BANKED LINKER/LOCATER V6.22                                                      02/16/2019  15:29:57  PAGE 169


  -------         ENDPROC       _LNK_TX_COMM_READY
  -------         PROC          _API_HANDL_COMM_FRAME_ERROR
  X:0038H         SYMBOL        ch
  C:D8F1H         LINE#         1260
  C:D8F6H         LINE#         1261
  C:D8F6H         LINE#         1262
  C:D8F8H         LINE#         1263
  C:D8F8H         LINE#         1264
  C:D90EH         LINE#         1265
  C:D915H         LINE#         1266
  C:D91DH         LINE#         1267
  C:D931H         LINE#         1268
  C:D931H         LINE#         1270
  C:D939H         LINE#         1271
  C:D939H         LINE#         1272
  C:D94EH         LINE#         1273
  C:D956H         LINE#         1274
  C:D959H         LINE#         1275
  C:D95CH         LINE#         1276
  C:D95CH         LINE#         1279
  -------         ENDPROC       _API_HANDL_COMM_FRAME_ERROR
  -------         PROC          _PROCESS_IEC62056_21
  X:0002H         SYMBOL        ch
  -------         DO            
  X:0003H         SYMBOL        buff_size
  X:0004H         SYMBOL        start_index
  X:0005H         SYMBOL        meterID_len
  X:0006H         SYMBOL        tmp_8u_01
  X:0016H         SYMBOL        tmp_8u_02
  X:0036H         SYMBOL        i
  -------         ENDDO         
  C:4196H         LINE#         1288
  C:419BH         LINE#         1289
  C:419BH         LINE#         1300
  C:41A3H         LINE#         1302
  C:41BDH         LINE#         1303
  C:41BDH         LINE#         1305
  C:41BDH         LINE#         1307
  C:41CBH         LINE#         1308
  C:41D0H         LINE#         1311
  C:41E5H         LINE#         1312
  C:41E5H         LINE#         1313
  C:41F3H         LINE#         1314
  C:4201H         LINE#         1315
  C:4201H         LINE#         1319
  C:4210H         LINE#         1320
  C:4210H         LINE#         1321
  C:4232H         LINE#         1322
  C:423AH         LINE#         1324
  C:4243H         LINE#         1325
  C:4243H         LINE#         1327
  C:4246H         LINE#         1329
  C:4246H         LINE#         1331
  C:425AH         LINE#         1332
  C:426CH         LINE#         1333
  C:427CH         LINE#         1334
  C:4281H         LINE#         1336
BL51 BANKED LINKER/LOCATER V6.22                                                      02/16/2019  15:29:57  PAGE 170


  C:42B5H         LINE#         1337
  C:42B5H         LINE#         1338
  C:42C4H         LINE#         1340
  C:42E0H         LINE#         1341
  C:42E0H         LINE#         1342
  C:42E0H         LINE#         1343
  C:42F6H         LINE#         1344
  C:42F6H         LINE#         1345
  C:42F9H         LINE#         1347
  C:42F9H         LINE#         1348
  C:4313H         LINE#         1349
  C:4323H         LINE#         1350
  C:433EH         LINE#         1351
  C:437CH         LINE#         1352
  C:437CH         LINE#         1353
  C:4382H         LINE#         1354
  C:4382H         LINE#         1355
  C:43ADH         LINE#         1356
  C:43ADH         LINE#         1357
  C:43B4H         LINE#         1358
  C:43B4H         LINE#         1359
  C:43DFH         LINE#         1360
  C:43DFH         LINE#         1361
  C:43F4H         LINE#         1362
  C:4400H         LINE#         1363
  C:4403H         LINE#         1365
  C:4403H         LINE#         1367
  C:440BH         LINE#         1369
  C:440BH         LINE#         1370
  C:440BH         LINE#         1372
  C:440BH         LINE#         1373
  C:4421H         LINE#         1374
  C:4421H         LINE#         1375
  C:4424H         LINE#         1377
  C:4424H         LINE#         1378
  C:4449H         LINE#         1379
  C:4449H         LINE#         1380
  C:447CH         LINE#         1381
  C:4495H         LINE#         1382
  C:44AAH         LINE#         1383
  C:44BCH         LINE#         1384
  C:44BFH         LINE#         1386
  C:44BFH         LINE#         1387
  C:44D4H         LINE#         1388
  C:44D4H         LINE#         1389
  C:44D4H         LINE#         1390
  C:44D4H         LINE#         1392
  C:44D6H         LINE#         1394
  C:44D6H         LINE#         1395
  C:44ECH         LINE#         1396
  C:44ECH         LINE#         1397
  C:44EFH         LINE#         1399
  C:44EFH         LINE#         1401
  C:4514H         LINE#         1402
  C:4514H         LINE#         1405
  C:452FH         LINE#         1406
  C:4543H         LINE#         1407
BL51 BANKED LINKER/LOCATER V6.22                                                      02/16/2019  15:29:57  PAGE 171


  C:4543H         LINE#         1408
  C:4545H         LINE#         1410
  C:4545H         LINE#         1411
  C:4554H         LINE#         1412
  C:4556H         LINE#         1413
  C:4556H         LINE#         1415
  C:4556H         LINE#         1417
  C:4556H         LINE#         1418
  C:456BH         LINE#         1419
  C:456BH         LINE#         1421
  C:4581H         LINE#         1422
  C:4581H         LINE#         1424
  C:4584H         LINE#         1426
  C:4584H         LINE#         1428
  C:4584H         LINE#         1429
  C:4599H         LINE#         1430
  C:45ABH         LINE#         1431
  C:45BDH         LINE#         1432
  C:45BDH         LINE#         1433
  C:45D5H         LINE#         1434
  C:45D5H         LINE#         1435
  C:45EDH         LINE#         1436
  C:45EDH         LINE#         1437
  -------         ENDPROC       _PROCESS_IEC62056_21
  -------         PROC          _API_HANDL_COMM_PRE_10MS
  X:0001H         SYMBOL        ch
  C:9FF3H         LINE#         1452
  C:9FF8H         LINE#         1453
  C:9FF8H         LINE#         1455
  C:9FFBH         LINE#         1457
  C:A019H         LINE#         1458
  C:A019H         LINE#         1460
  C:A01CH         LINE#         1461
  C:A01CH         LINE#         1463
  C:A047H         LINE#         1464
  C:A047H         LINE#         1466
  C:A05AH         LINE#         1467
  C:A06DH         LINE#         1468
  C:A06DH         LINE#         1470
  C:A078H         LINE#         1471
  C:A078H         LINE#         1472
  C:A079H         LINE#         1473
  C:A087H         LINE#         1474
  C:A08AH         LINE#         1475
  C:A098H         LINE#         1476
  C:A09BH         LINE#         1477
  C:A0A9H         LINE#         1479
  C:A0ACH         LINE#         1481
  C:A0C1H         LINE#         1482
  C:A0C4H         LINE#         1483
  C:A0D2H         LINE#         1484
  C:A0D5H         LINE#         1485
  C:A0E3H         LINE#         1487
  C:A0E6H         LINE#         1488
  C:A0F4H         LINE#         1489
  C:A0F9H         LINE#         1490
  C:A0F9H         LINE#         1492
BL51 BANKED LINKER/LOCATER V6.22                                                      02/16/2019  15:29:57  PAGE 172


  -------         ENDPROC       _API_HANDL_COMM_PRE_10MS
  -------         PROC          RF_COMM_DEAL
  C:E4E3H         LINE#         1503
  C:E4E3H         LINE#         1504
  C:E4E3H         LINE#         1506
  C:E4EAH         LINE#         1507
  C:E4EFH         LINE#         1508
  C:E4F6H         LINE#         1511
  C:E4FFH         LINE#         1512
  C:E50DH         LINE#         1513
  C:E514H         LINE#         1514
  C:E51AH         LINE#         1516
  C:E522H         LINE#         1518
  -------         ENDPROC       RF_COMM_DEAL
  -------         ENDMOD        API_USER_COMM

  -------         MODULE        IEC62056_21
  C:0000H         SYMBOL        _ICE_DUMMY_
  D:0090H         PUBLIC        P1
  C:E8A2H         PUBLIC        _Get_Bcc_Chk
  D:00B0H         PUBLIC        P3
  C:DC35H         PUBLIC        _IEC_Comm_Acknowledgement_Cmd_Judge
  D:00A8H         PUBLIC        IE
  D:00B8H         PUBLIC        IP
  C:003EH         PUBLIC        _Get_ACK_Answer
  C:95A5H         PUBLIC        _IEC_Comm_Command_Cmd_Judge
  D:0098H         PUBLIC        SCON
  D:0088H         PUBLIC        TCON
  D:00F0H         PUBLIC        B
  C:B50AH         PUBLIC        _Get_IEC_Comm_Operand_Answer
  D:00E0H         PUBLIC        ACC
  C:9801H         PUBLIC        _IEC_Comm_Request_Cmd_Judge
  D:0080H         PUBLIC        SysCtrl
  C:CF45H         PUBLIC        _Get_IEC_Comm_Request_Cmd_Answer
  C:0016H         PUBLIC        _Get_Error_Answer
  D:00C8H         PUBLIC        T2CON
  D:00D0H         PUBLIC        PSW
  -------         PROC          _IEC_COMM_REQUEST_CMD_JUDGE
  X:0038H         SYMBOL        sptr
  D:0005H         SYMBOL        len
  X:003CH         SYMBOL        id_ptr
  X:003FH         SYMBOL        meter_id_lenth
  -------         DO            
  D:0007H         SYMBOL        i
  -------         ENDDO         
  C:9801H         LINE#         34
  C:980CH         LINE#         35
  C:980CH         LINE#         38
  C:9811H         LINE#         39
  C:9811H         LINE#         40
  C:9826H         LINE#         41
  C:9833H         LINE#         42
  C:9840H         LINE#         43
  C:984DH         LINE#         44
  C:985AH         LINE#         45
  C:985DH         LINE#         46
  C:985DH         LINE#         48
BL51 BANKED LINKER/LOCATER V6.22                                                      02/16/2019  15:29:57  PAGE 173


  C:985DH         LINE#         49
  C:9872H         LINE#         50
  C:987FH         LINE#         51
  C:988BH         LINE#         52
  C:988BH         LINE#         53
  C:98BDH         LINE#         54
  C:98BDH         LINE#         55
  C:98C0H         LINE#         56
  C:98C0H         LINE#         57
  C:98C3H         LINE#         58
  C:98E6H         LINE#         59
  C:9906H         LINE#         60
  C:992BH         LINE#         62
  -------         ENDPROC       _IEC_COMM_REQUEST_CMD_JUDGE
  -------         PROC          _IEC_COMM_ACKNOWLEDGEMENT_CMD_JUDGE
  D:0001H         SYMBOL        sptr
  D:0005H         SYMBOL        len
  C:DC35H         LINE#         81
  C:DC35H         LINE#         82
  C:DC35H         LINE#         83
  C:DC3DH         LINE#         85
  C:DC47H         LINE#         86
  C:DC54H         LINE#         87
  C:DC69H         LINE#         88
  C:DC7CH         LINE#         89
  C:DC89H         LINE#         90
  C:DC96H         LINE#         92
  C:DC98H         LINE#         94
  -------         ENDPROC       _IEC_COMM_ACKNOWLEDGEMENT_CMD_JUDGE
  -------         PROC          _IEC_COMM_COMMAND_CMD_JUDGE
  X:0038H         SYMBOL        sptr
  X:003BH         SYMBOL        len
  -------         DO            
  X:003CH         SYMBOL        u8_a
  -------         ENDDO         
  C:95A5H         LINE#         107
  C:95B5H         LINE#         108
  C:95B5H         LINE#         111
  C:95BFH         LINE#         112
  C:95E3H         LINE#         114
  C:9616H         LINE#         117
  C:962CH         LINE#         118
  C:9636H         LINE#         119
  C:9640H         LINE#         120
  C:964AH         LINE#         121
  C:9654H         LINE#         122
  C:965EH         LINE#         123
  C:9668H         LINE#         124
  C:9672H         LINE#         125
  C:967CH         LINE#         127
  C:968DH         LINE#         128
  C:968DH         LINE#         129
  C:968DH         LINE#         130
  C:969BH         LINE#         131
  C:969BH         LINE#         133
  C:969BH         LINE#         135
  C:96A9H         LINE#         136
BL51 BANKED LINKER/LOCATER V6.22                                                      02/16/2019  15:29:57  PAGE 174


  C:96A9H         LINE#         138
  C:96A9H         LINE#         139
  C:96BAH         LINE#         140
  C:96BAH         LINE#         143
  C:96BAH         LINE#         145
  C:96BAH         LINE#         146
  C:96BCH         LINE#         147
  C:96BCH         LINE#         153
  C:96BCH         LINE#         154
  C:96D1H         LINE#         155
  -------         ENDPROC       _IEC_COMM_COMMAND_CMD_JUDGE
  -------         PROC          _GET_IEC_COMM_REQUEST_CMD_ANSWER
  X:0038H         SYMBOL        sptr
  X:003BH         SYMBOL        len
  X:003CH         SYMBOL        info_ptr
  -------         DO            
  D:0007H         SYMBOL        i
  -------         ENDDO         
  C:CF45H         LINE#         176
  C:CF55H         LINE#         177
  C:CF55H         LINE#         180
  C:CF5AH         LINE#         182
  C:CF66H         LINE#         183
  C:CF66H         LINE#         184
  C:CF94H         LINE#         185
  C:CF97H         LINE#         187
  C:CFB6H         LINE#         188
  -------         ENDPROC       _GET_IEC_COMM_REQUEST_CMD_ANSWER
  -------         PROC          _GET_IEC_COMM_OPERAND_ANSWER
  X:0038H         SYMBOL        sptr
  X:003BH         SYMBOL        len
  X:003CH         SYMBOL        info_ptr
  -------         DO            
  D:0007H         SYMBOL        i
  -------         ENDDO         
  C:B50AH         LINE#         203
  C:B518H         LINE#         204
  C:B518H         LINE#         207
  C:B528H         LINE#         208
  C:B53BH         LINE#         209
  C:B543H         LINE#         210
  C:B54BH         LINE#         212
  C:B557H         LINE#         213
  C:B557H         LINE#         214
  C:B585H         LINE#         215
  C:B588H         LINE#         217
  C:B5A7H         LINE#         218
  -------         ENDPROC       _GET_IEC_COMM_OPERAND_ANSWER
  -------         PROC          _GET_ERROR_ANSWER
  D:0001H         SYMBOL        sptr
  C:0016H         LINE#         233
  C:0016H         LINE#         234
  C:0016H         LINE#         235
  -------         ENDPROC       _GET_ERROR_ANSWER
  -------         PROC          _GET_ACK_ANSWER
  D:0001H         SYMBOL        sptr
  C:003EH         LINE#         250
BL51 BANKED LINKER/LOCATER V6.22                                                      02/16/2019  15:29:57  PAGE 175


  C:003EH         LINE#         251
  C:003EH         LINE#         252
  -------         ENDPROC       _GET_ACK_ANSWER
  -------         PROC          L?0052
  -------         ENDPROC       L?0052
  -------         PROC          _GET_BCC_CHK
  X:00E8H         SYMBOL        yourBuf
  D:0005H         SYMBOL        StartID
  X:00ECH         SYMBOL        EndID
  -------         DO            
  D:0006H         SYMBOL        i
  D:0007H         SYMBOL        tmp
  -------         ENDDO         
  C:E8A2H         LINE#         266
  C:E8ADH         LINE#         267
  C:E8ADH         LINE#         271
  C:E8AFH         LINE#         272
  C:E8BBH         LINE#         273
  C:E8BBH         LINE#         274
  C:E8D0H         LINE#         275
  C:E8D3H         LINE#         276
  C:E8D3H         LINE#         277
  -------         ENDPROC       _GET_BCC_CHK
  -------         ENDMOD        IEC62056_21

  -------         MODULE        ?C?FPADD
  C:1318H         PUBLIC        ?C?FPADD
  C:1314H         PUBLIC        ?C?FPSUB
  -------         ENDMOD        ?C?FPADD

  -------         MODULE        ?C?FPMUL
  C:1409H         PUBLIC        ?C?FPMUL
  -------         ENDMOD        ?C?FPMUL

  -------         MODULE        ?C?FPDIV
  C:1512H         PUBLIC        ?C?FPDIV
  -------         ENDMOD        ?C?FPDIV

  -------         MODULE        ?C?FPCMP
  C:15B1H         PUBLIC        ?C?FPCMP
  C:15AFH         PUBLIC        ?C?FPCMP3
  -------         ENDMOD        ?C?FPCMP

  -------         MODULE        ?C?FCAST
  C:1626H         PUBLIC        ?C?FCASTC
  C:1621H         PUBLIC        ?C?FCASTI
  C:161CH         PUBLIC        ?C?FCASTL
  -------         ENDMOD        ?C?FCAST

  -------         MODULE        ?C?CASTF
  C:165AH         PUBLIC        ?C?CASTF
  -------         ENDMOD        ?C?CASTF

  -------         MODULE        ATOF
  C:E278H         PUBLIC        _ATOF
  -------         ENDMOD        ATOF

BL51 BANKED LINKER/LOCATER V6.22                                                      02/16/2019  15:29:57  PAGE 176


  -------         MODULE        SQRT
  C:C0B9H         PUBLIC        _SQRT
  -------         ENDMOD        SQRT

  -------         MODULE        FLOOR
  C:A9B4H         PUBLIC        _floor
  -------         ENDMOD        FLOOR

  -------         MODULE        ?C?FPNEG
  C:16DBH         PUBLIC        ?C?FPNEG
  -------         ENDMOD        ?C?FPNEG

  -------         MODULE        ?C?FTNPWR
  C:171CH         PUBLIC        ?C?FTNPWR
  -------         ENDMOD        ?C?FTNPWR

  -------         MODULE        ?C?COPY
  C:182CH         PUBLIC        ?C?COPY
  -------         ENDMOD        ?C?COPY

  -------         MODULE        ?C?CLDPTR
  C:1852H         PUBLIC        ?C?CLDPTR
  -------         ENDMOD        ?C?CLDPTR

  -------         MODULE        ?C?CLDOPTR
  C:186BH         PUBLIC        ?C?CLDOPTR
  -------         ENDMOD        ?C?CLDOPTR

  -------         MODULE        ?C?CILDPTR
  C:1898H         PUBLIC        ?C?CILDPTR
  -------         ENDMOD        ?C?CILDPTR

  -------         MODULE        ?C?CSTPTR
  C:18BAH         PUBLIC        ?C?CSTPTR
  -------         ENDMOD        ?C?CSTPTR

  -------         MODULE        ?C?CSTOPTR
  C:18CCH         PUBLIC        ?C?CSTOPTR
  -------         ENDMOD        ?C?CSTOPTR

  -------         MODULE        ?C?IMUL
  C:18EEH         PUBLIC        ?C?IMUL
  -------         ENDMOD        ?C?IMUL

  -------         MODULE        ?C?UIDIV
  C:1900H         PUBLIC        ?C?UIDIV
  -------         ENDMOD        ?C?UIDIV

  -------         MODULE        ?C?SIDIV
  C:1955H         PUBLIC        ?C?SIDIV
  -------         ENDMOD        ?C?SIDIV

  -------         MODULE        ?C?IILDX
  C:198BH         PUBLIC        ?C?IILDX
  -------         ENDMOD        ?C?IILDX

  -------         MODULE        ?C?ILDIX
BL51 BANKED LINKER/LOCATER V6.22                                                      02/16/2019  15:29:57  PAGE 177


  C:19A1H         PUBLIC        ?C?ILDIX
  -------         ENDMOD        ?C?ILDIX

  -------         MODULE        ?C?ISTPTR
  C:19B7H         PUBLIC        ?C?ISTPTR
  -------         ENDMOD        ?C?ISTPTR

  -------         MODULE        ?C?LMUL
  C:19D6H         PUBLIC        ?C?LMUL
  -------         ENDMOD        ?C?LMUL

  -------         MODULE        ?C?ULDIV
  C:1A61H         PUBLIC        ?C?ULDIV
  -------         ENDMOD        ?C?ULDIV

  -------         MODULE        ?C?SLDIV
  C:E397H         PUBLIC        ?C?SLDIV
  -------         ENDMOD        ?C?SLDIV

  -------         MODULE        ?C?LNOT
  C:1AF3H         PUBLIC        ?C?LNOT
  -------         ENDMOD        ?C?LNOT

  -------         MODULE        ?C?LNEG
  C:1B00H         PUBLIC        ?C?LNEG
  -------         ENDMOD        ?C?LNEG

  -------         MODULE        ?C?SLCMP
  C:1B0EH         PUBLIC        ?C?SLCMP
  -------         ENDMOD        ?C?SLCMP

  -------         MODULE        ?C?ULCMP
  C:1B24H         PUBLIC        ?C?ULCMP
  -------         ENDMOD        ?C?ULCMP

  -------         MODULE        ?C?ULSHR
  C:1B35H         PUBLIC        ?C?ULSHR
  -------         ENDMOD        ?C?ULSHR

  -------         MODULE        ?C?LSHL
  C:1B48H         PUBLIC        ?C?LSHL
  -------         ENDMOD        ?C?LSHL

  -------         MODULE        ?C?LLDPTR
  C:1B5BH         PUBLIC        ?C?LLDPTR
  -------         ENDMOD        ?C?LLDPTR

  -------         MODULE        ?C?LLDXDATA
  C:1B7BH         PUBLIC        ?C?LLDXDATA
  -------         ENDMOD        ?C?LLDXDATA

  -------         MODULE        ?C?LLDCODE
  C:1B87H         PUBLIC        ?C?LLDCODE
  -------         ENDMOD        ?C?LLDCODE

  -------         MODULE        ?C?LLDCODE0
  C:1B97H         PUBLIC        ?C?LLDCODE0
BL51 BANKED LINKER/LOCATER V6.22                                                      02/16/2019  15:29:57  PAGE 178


  -------         ENDMOD        ?C?LLDCODE0

  -------         MODULE        ?C?LSTXDATA
  C:1BA7H         PUBLIC        ?C?LSTXDATA
  -------         ENDMOD        ?C?LSTXDATA

  -------         MODULE        ?C?LSTKXDATA
  C:1BB3H         PUBLIC        ?C?LSTKXDATA
  -------         ENDMOD        ?C?LSTKXDATA

  -------         MODULE        ?C?OFFXADD
  C:1BE4H         PUBLIC        ?C?OFFXADD
  -------         ENDMOD        ?C?OFFXADD

  -------         MODULE        ?C?PLDIXDATA
  C:1BF0H         PUBLIC        ?C?PLDIXDATA
  -------         ENDMOD        ?C?PLDIXDATA

  -------         MODULE        ?C?PSTXDATA
  C:1C07H         PUBLIC        ?C?PSTXDATA
  -------         ENDMOD        ?C?PSTXDATA

  -------         MODULE        ?C?PSTPTR
  C:1C10H         PUBLIC        ?C?PSTPTR
  -------         ENDMOD        ?C?PSTPTR

  -------         MODULE        ?C?ICASE
  C:1C5FH         PUBLIC        ?C?ICASE
  -------         ENDMOD        ?C?ICASE

  -------         MODULE        ?C?LCASE
  C:1C8CH         PUBLIC        ?C?LCASE
  -------         ENDMOD        ?C?LCASE

  -------         MODULE        ?C?LIMUL
  C:1CC6H         PUBLIC        ?C?LIMUL
  -------         ENDMOD        ?C?LIMUL

  -------         MODULE        ISSPACE
  C:EF4FH         PUBLIC        _isspace
  -------         ENDMOD        ISSPACE

  -------         MODULE        ?C?LLDIDATA
  C:1CF3H         PUBLIC        ?C?LLDIDATA
  -------         ENDMOD        ?C?LLDIDATA

  -------         MODULE        ?C?LLDPDATA
  C:1CFFH         PUBLIC        ?C?LLDPDATA
  -------         ENDMOD        ?C?LLDPDATA

  -------         MODULE        ?C?PSTIDATA
  C:1D0BH         PUBLIC        ?C?PSTIDATA
  -------         ENDMOD        ?C?PSTIDATA

  -------         MODULE        ?C?PSTPDATA
  C:1D14H         PUBLIC        ?C?PSTPDATA
  -------         ENDMOD        ?C?PSTPDATA
BL51 BANKED LINKER/LOCATER V6.22                                                      02/16/2019  15:29:57  PAGE 179



*** WARNING L1: UNRESOLVED EXTERNAL SYMBOL
    SYMBOL:  _READRACCOON
    MODULE:  .\Lnk_EMU_Adj.obj (LNK_EMU_ADJ)

*** WARNING L1: UNRESOLVED EXTERNAL SYMBOL
    SYMBOL:  _WRITERACCOON
    MODULE:  .\Lnk_EMU_Adj.obj (LNK_EMU_ADJ)

*** WARNING L1: UNRESOLVED EXTERNAL SYMBOL
    SYMBOL:  ?_WRITERACCOON?BYTE
    MODULE:  .\Lnk_EMU_Adj.obj (LNK_EMU_ADJ)

*** WARNING L1: UNRESOLVED EXTERNAL SYMBOL
    SYMBOL:  GS_RACCTRL
    MODULE:  .\Lnk_EMU_Adj.obj (LNK_EMU_ADJ)

*** WARNING L2: REFERENCE MADE TO UNRESOLVED EXTERNAL
    SYMBOL:  _READRACCOON
    MODULE:  .\Lnk_EMU_Adj.obj (LNK_EMU_ADJ)
    ADDRESS: 8A25H

*** WARNING L2: REFERENCE MADE TO UNRESOLVED EXTERNAL
    SYMBOL:  GS_RACCTRL
    MODULE:  .\Lnk_EMU_Adj.obj (LNK_EMU_ADJ)
    ADDRESS: 8A33H

*** WARNING L2: REFERENCE MADE TO UNRESOLVED EXTERNAL
    SYMBOL:  GS_RACCTRL
    MODULE:  .\Lnk_EMU_Adj.obj (LNK_EMU_ADJ)
    ADDRESS: 8A35H

*** WARNING L2: REFERENCE MADE TO UNRESOLVED EXTERNAL
    SYMBOL:  _READRACCOON
    MODULE:  .\Lnk_EMU_Adj.obj (LNK_EMU_ADJ)
    ADDRESS: 8B8EH

*** WARNING L2: REFERENCE MADE TO UNRESOLVED EXTERNAL
    SYMBOL:  GS_RACCTRL
    MODULE:  .\Lnk_EMU_Adj.obj (LNK_EMU_ADJ)
    ADDRESS: 8B9CH

*** WARNING L2: REFERENCE MADE TO UNRESOLVED EXTERNAL
    SYMBOL:  GS_RACCTRL
    MODULE:  .\Lnk_EMU_Adj.obj (LNK_EMU_ADJ)
    ADDRESS: 8B9EH

*** WARNING L2: REFERENCE MADE TO UNRESOLVED EXTERNAL
    SYMBOL:  ?_WRITERACCOON?BYTE
    MODULE:  .\Lnk_EMU_Adj.obj (LNK_EMU_ADJ)
    ADDRESS: 9E45H

*** WARNING L2: REFERENCE MADE TO UNRESOLVED EXTERNAL
    SYMBOL:  _WRITERACCOON
    MODULE:  .\Lnk_EMU_Adj.obj (LNK_EMU_ADJ)
    ADDRESS: 9E52H

BL51 BANKED LINKER/LOCATER V6.22                                                      02/16/2019  15:29:57  PAGE 180


*** WARNING L2: REFERENCE MADE TO UNRESOLVED EXTERNAL
    SYMBOL:  ?_WRITERACCOON?BYTE
    MODULE:  .\Lnk_EMU_Adj.obj (LNK_EMU_ADJ)
    ADDRESS: 9E63H

*** WARNING L2: REFERENCE MADE TO UNRESOLVED EXTERNAL
    SYMBOL:  _WRITERACCOON
    MODULE:  .\Lnk_EMU_Adj.obj (LNK_EMU_ADJ)
    ADDRESS: 9E70H

*** WARNING L2: REFERENCE MADE TO UNRESOLVED EXTERNAL
    SYMBOL:  ?_WRITERACCOON?BYTE
    MODULE:  .\Lnk_EMU_Adj.obj (LNK_EMU_ADJ)
    ADDRESS: B3B3H

*** WARNING L2: REFERENCE MADE TO UNRESOLVED EXTERNAL
    SYMBOL:  _WRITERACCOON
    MODULE:  .\Lnk_EMU_Adj.obj (LNK_EMU_ADJ)
    ADDRESS: B3C0H

*** WARNING L2: REFERENCE MADE TO UNRESOLVED EXTERNAL
    SYMBOL:  ?_WRITERACCOON?BYTE
    MODULE:  .\Lnk_EMU_Adj.obj (LNK_EMU_ADJ)
    ADDRESS: 74D0H

*** WARNING L2: REFERENCE MADE TO UNRESOLVED EXTERNAL
    SYMBOL:  _WRITERACCOON
    MODULE:  .\Lnk_EMU_Adj.obj (LNK_EMU_ADJ)
    ADDRESS: 74E3H

*** WARNING L2: REFERENCE MADE TO UNRESOLVED EXTERNAL
    SYMBOL:  _READRACCOON
    MODULE:  .\Lnk_EMU_Adj.obj (LNK_EMU_ADJ)
    ADDRESS: 328CH

*** WARNING L2: REFERENCE MADE TO UNRESOLVED EXTERNAL
    SYMBOL:  GS_RACCTRL
    MODULE:  .\Lnk_EMU_Adj.obj (LNK_EMU_ADJ)
    ADDRESS: 329AH

*** WARNING L2: REFERENCE MADE TO UNRESOLVED EXTERNAL
    SYMBOL:  GS_RACCTRL
    MODULE:  .\Lnk_EMU_Adj.obj (LNK_EMU_ADJ)
    ADDRESS: 329CH

*** WARNING L2: REFERENCE MADE TO UNRESOLVED EXTERNAL
    SYMBOL:  _READRACCOON
    MODULE:  .\Lnk_EMU_Adj.obj (LNK_EMU_ADJ)
    ADDRESS: 33BDH

*** WARNING L2: REFERENCE MADE TO UNRESOLVED EXTERNAL
    SYMBOL:  GS_RACCTRL
    MODULE:  .\Lnk_EMU_Adj.obj (LNK_EMU_ADJ)
    ADDRESS: 33CBH

*** WARNING L2: REFERENCE MADE TO UNRESOLVED EXTERNAL
    SYMBOL:  GS_RACCTRL
BL51 BANKED LINKER/LOCATER V6.22                                                      02/16/2019  15:29:57  PAGE 181


    MODULE:  .\Lnk_EMU_Adj.obj (LNK_EMU_ADJ)
    ADDRESS: 33CDH

*** WARNING L1: UNRESOLVED EXTERNAL SYMBOL
    SYMBOL:  _READRACCOON
    MODULE:  .\Lnk_EMU_handl.obj (LNK_EMU_HANDL)

*** WARNING L1: UNRESOLVED EXTERNAL SYMBOL
    SYMBOL:  GS_RACCTRL
    MODULE:  .\Lnk_EMU_handl.obj (LNK_EMU_HANDL)

*** WARNING L2: REFERENCE MADE TO UNRESOLVED EXTERNAL
    SYMBOL:  _READRACCOON
    MODULE:  .\Lnk_EMU_handl.obj (LNK_EMU_HANDL)
    ADDRESS: 8E51H

*** WARNING L2: REFERENCE MADE TO UNRESOLVED EXTERNAL
    SYMBOL:  GS_RACCTRL
    MODULE:  .\Lnk_EMU_handl.obj (LNK_EMU_HANDL)
    ADDRESS: 8E5FH

*** WARNING L2: REFERENCE MADE TO UNRESOLVED EXTERNAL
    SYMBOL:  GS_RACCTRL
    MODULE:  .\Lnk_EMU_handl.obj (LNK_EMU_HANDL)
    ADDRESS: 8E61H

*** WARNING L2: REFERENCE MADE TO UNRESOLVED EXTERNAL
    SYMBOL:  _READRACCOON
    MODULE:  .\Lnk_EMU_handl.obj (LNK_EMU_HANDL)
    ADDRESS: 6D2AH

*** WARNING L2: REFERENCE MADE TO UNRESOLVED EXTERNAL
    SYMBOL:  GS_RACCTRL
    MODULE:  .\Lnk_EMU_handl.obj (LNK_EMU_HANDL)
    ADDRESS: 6D38H

*** WARNING L2: REFERENCE MADE TO UNRESOLVED EXTERNAL
    SYMBOL:  GS_RACCTRL
    MODULE:  .\Lnk_EMU_handl.obj (LNK_EMU_HANDL)
    ADDRESS: 6D3AH

*** WARNING L2: REFERENCE MADE TO UNRESOLVED EXTERNAL
    SYMBOL:  _READRACCOON
    MODULE:  .\Lnk_EMU_handl.obj (LNK_EMU_HANDL)
    ADDRESS: 6DDCH

*** WARNING L2: REFERENCE MADE TO UNRESOLVED EXTERNAL
    SYMBOL:  GS_RACCTRL
    MODULE:  .\Lnk_EMU_handl.obj (LNK_EMU_HANDL)
    ADDRESS: 6DEAH

*** WARNING L2: REFERENCE MADE TO UNRESOLVED EXTERNAL
    SYMBOL:  GS_RACCTRL
    MODULE:  .\Lnk_EMU_handl.obj (LNK_EMU_HANDL)
    ADDRESS: 6DECH

*** WARNING L2: REFERENCE MADE TO UNRESOLVED EXTERNAL
BL51 BANKED LINKER/LOCATER V6.22                                                      02/16/2019  15:29:57  PAGE 182


    SYMBOL:  _READRACCOON
    MODULE:  .\Lnk_EMU_handl.obj (LNK_EMU_HANDL)
    ADDRESS: B03DH

*** WARNING L2: REFERENCE MADE TO UNRESOLVED EXTERNAL
    SYMBOL:  GS_RACCTRL
    MODULE:  .\Lnk_EMU_handl.obj (LNK_EMU_HANDL)
    ADDRESS: B04DH

*** WARNING L2: REFERENCE MADE TO UNRESOLVED EXTERNAL
    SYMBOL:  GS_RACCTRL
    MODULE:  .\Lnk_EMU_handl.obj (LNK_EMU_HANDL)
    ADDRESS: B04FH

*** WARNING L2: REFERENCE MADE TO UNRESOLVED EXTERNAL
    SYMBOL:  _READRACCOON
    MODULE:  .\Lnk_EMU_handl.obj (LNK_EMU_HANDL)
    ADDRESS: 3C19H

*** WARNING L2: REFERENCE MADE TO UNRESOLVED EXTERNAL
    SYMBOL:  GS_RACCTRL
    MODULE:  .\Lnk_EMU_handl.obj (LNK_EMU_HANDL)
    ADDRESS: 3C29H

*** WARNING L2: REFERENCE MADE TO UNRESOLVED EXTERNAL
    SYMBOL:  GS_RACCTRL
    MODULE:  .\Lnk_EMU_handl.obj (LNK_EMU_HANDL)
    ADDRESS: 3C2BH

*** WARNING L2: REFERENCE MADE TO UNRESOLVED EXTERNAL
    SYMBOL:  _READRACCOON
    MODULE:  .\Lnk_EMU_handl.obj (LNK_EMU_HANDL)
    ADDRESS: 7A33H

*** WARNING L2: REFERENCE MADE TO UNRESOLVED EXTERNAL
    SYMBOL:  GS_RACCTRL
    MODULE:  .\Lnk_EMU_handl.obj (LNK_EMU_HANDL)
    ADDRESS: 7A41H

*** WARNING L2: REFERENCE MADE TO UNRESOLVED EXTERNAL
    SYMBOL:  GS_RACCTRL
    MODULE:  .\Lnk_EMU_handl.obj (LNK_EMU_HANDL)
    ADDRESS: 7A43H

*** WARNING L1: UNRESOLVED EXTERNAL SYMBOL
    SYMBOL:  _SX1276_TXPACKET
    MODULE:  .\Drv_UART.obj (DRV_UART)

*** WARNING L1: UNRESOLVED EXTERNAL SYMBOL
    SYMBOL:  RX_MODE
    MODULE:  .\Drv_UART.obj (DRV_UART)

*** WARNING L1: UNRESOLVED EXTERNAL SYMBOL
    SYMBOL:  GS_RACCTRL
    MODULE:  .\Drv_UART.obj (DRV_UART)

*** WARNING L1: UNRESOLVED EXTERNAL SYMBOL
BL51 BANKED LINKER/LOCATER V6.22                                                      02/16/2019  15:29:57  PAGE 183


    SYMBOL:  G_LORACONFIG
    MODULE:  .\Drv_UART.obj (DRV_UART)

*** WARNING L2: REFERENCE MADE TO UNRESOLVED EXTERNAL
    SYMBOL:  G_LORACONFIG
    MODULE:  .\Drv_UART.obj (DRV_UART)
    ADDRESS: 79A0H

*** WARNING L2: REFERENCE MADE TO UNRESOLVED EXTERNAL
    SYMBOL:  _SX1276_TXPACKET
    MODULE:  .\Drv_UART.obj (DRV_UART)
    ADDRESS: 79B7H

*** WARNING L2: REFERENCE MADE TO UNRESOLVED EXTERNAL
    SYMBOL:  RX_MODE
    MODULE:  .\Drv_UART.obj (DRV_UART)
    ADDRESS: 79BAH

*** WARNING L2: REFERENCE MADE TO UNRESOLVED EXTERNAL
    SYMBOL:  GS_RACCTRL
    MODULE:  .\Drv_UART.obj (DRV_UART)
    ADDRESS: E01BH

*** WARNING L2: REFERENCE MADE TO UNRESOLVED EXTERNAL
    SYMBOL:  GS_RACCTRL
    MODULE:  .\Drv_UART.obj (DRV_UART)
    ADDRESS: E02DH

*** WARNING L2: REFERENCE MADE TO UNRESOLVED EXTERNAL
    SYMBOL:  GS_RACCTRL
    MODULE:  .\Drv_UART.obj (DRV_UART)
    ADDRESS: E033H

*** WARNING L2: REFERENCE MADE TO UNRESOLVED EXTERNAL
    SYMBOL:  GS_RACCTRL
    MODULE:  .\Drv_UART.obj (DRV_UART)
    ADDRESS: E04CH

*** WARNING L2: REFERENCE MADE TO UNRESOLVED EXTERNAL
    SYMBOL:  GS_RACCTRL
    MODULE:  .\Drv_UART.obj (DRV_UART)
    ADDRESS: E053H

*** WARNING L2: REFERENCE MADE TO UNRESOLVED EXTERNAL
    SYMBOL:  GS_RACCTRL
    MODULE:  .\Drv_UART.obj (DRV_UART)
    ADDRESS: E059H

*** WARNING L2: REFERENCE MADE TO UNRESOLVED EXTERNAL
    SYMBOL:  GS_RACCTRL
    MODULE:  .\Drv_UART.obj (DRV_UART)
    ADDRESS: E063H

*** WARNING L1: UNRESOLVED EXTERNAL SYMBOL
    SYMBOL:  RX_MODE
    MODULE:  .\Api_User_Comm.obj (API_USER_COMM)

BL51 BANKED LINKER/LOCATER V6.22                                                      02/16/2019  15:29:57  PAGE 184


*** WARNING L1: UNRESOLVED EXTERNAL SYMBOL
    SYMBOL:  SX127X_INIT
    MODULE:  .\Api_User_Comm.obj (API_USER_COMM)

*** WARNING L1: UNRESOLVED EXTERNAL SYMBOL
    SYMBOL:  _LSD_RF_RXPACKET
    MODULE:  .\Api_User_Comm.obj (API_USER_COMM)

*** WARNING L1: UNRESOLVED EXTERNAL SYMBOL
    SYMBOL:  G_LORACONFIG
    MODULE:  .\Api_User_Comm.obj (API_USER_COMM)

*** WARNING L2: REFERENCE MADE TO UNRESOLVED EXTERNAL
    SYMBOL:  SX127X_INIT
    MODULE:  .\Api_User_Comm.obj (API_USER_COMM)
    ADDRESS: D957H

*** WARNING L2: REFERENCE MADE TO UNRESOLVED EXTERNAL
    SYMBOL:  RX_MODE
    MODULE:  .\Api_User_Comm.obj (API_USER_COMM)
    ADDRESS: D95AH

*** WARNING L2: REFERENCE MADE TO UNRESOLVED EXTERNAL
    SYMBOL:  _LSD_RF_RXPACKET
    MODULE:  .\Api_User_Comm.obj (API_USER_COMM)
    ADDRESS: E4FDH

*** WARNING L2: REFERENCE MADE TO UNRESOLVED EXTERNAL
    SYMBOL:  G_LORACONFIG
    MODULE:  .\Api_User_Comm.obj (API_USER_COMM)
    ADDRESS: E51BH

Program Size: data=19.6 xdata=1897 code=61483
LINK/LOCATE RUN COMPLETE.  66 WARNING(S),  0 ERROR(S)
